(dp1
S'scale'
p2
(dp3
S'type'
p4
S'integer'
p5
sS'sortable'
p6
I3
sS'sql'
p7
S'INTEGER'
p8
ssS'id'
p9
(dp10
S'type'
p11
S'id'
p12
sS'sortable'
p13
I1
sS'sql'
p14
S'INTEGER PRIMARY KEY AUTOINCREMENT'
p15
ssS'title'
p16
(dp17
g11
S'string'
p18
sg13
I2
sg14
S'CHAR(512)'
p19
ss.