(dp1
S'commentdate'
p2
(dp3
S'type'
p4
S'datetime'
p5
sS'sortable'
p6
I4
sS'sql'
p7
S'TIMESTAMP'
p8
ssS'senderip'
p9
(dp10
g4
S'string'
p11
sg6
I5
sg7
S'CHAR(512)'
p12
ssS'message'
p13
(dp14
g4
S'text'
p15
sg6
I3
sg7
S'TEXT'
p16
ssS'feeling'
p17
(dp18
g4
g11
sg6
I2
sg7
S'CHAR(512)'
p19
ssS'id'
p20
(dp21
g4
g20
sg6
I1
sg7
S'INTEGER PRIMARY KEY AUTOINCREMENT'
p22
ss.