(dp1
S'output'
p2
S"<type 'exceptions.SyntaxError'> invalid syntax (db.py, line 104)"
p3
sS'layer'
p4
S'C:\\xampp\\htdocs\\web2py\\applications\\testumgebung\\models\\db.py'
p5
sS'code'
p6
S'# -*- coding: utf-8 -*-\nfrom gluon.custom_import import track_changes; track_changes(True) #todo: raus, wenn man online geht.\n#########################################################################\n## This scaffolding model makes your app work on Google App Engine too\n## File is released under public domain and you can use without limitations\n#########################################################################\n\n## if SSL/HTTPS is properly configured and you want all HTTP requests to\n## be redirected to HTTPS, uncomment the line below:\n# request.requires_https()\n\nif not request.env.web2py_runtime_gae:\n    ## if NOT running on Google App Engine use SQLite or other DB\n    db = DAL(\'sqlite://storage.sqlite\')\nelse:\n    ## connect to Google BigTable (optional \'google:datastore://namespace\')\n    db = DAL(\'google:datastore\')\n    ## store sessions and tickets there\n    session.connect(request, response, db = db)\n    ## or store session in Memcache, Redis, etc.\n    ## from gluon.contrib.memdb import MEMDB\n    ## from google.appengine.api.memcache import Client\n    ## session.connect(request, response, db = MEMDB(Client()))\n\n## by default give a view/generic.extension to all actions from localhost\n## none otherwise. a pattern can be \'controller/function.extension\'\nresponse.generic_patterns = [\'*\'] if request.is_local else []\n## (optional) optimize handling of static files\n# response.optimize_css = \'concat,minify,inline\'\n# response.optimize_js = \'concat,minify,inline\'\n\n#########################################################################\n## Here is sample code if you need for\n## - email capabilities\n## - authentication (registration, login, logout, ... )\n## - authorization (role based authorization)\n## - services (xml, csv, json, xmlrpc, jsonrpc, amf, rss)\n## - old style crud actions\n## (more options discussed in gluon/tools.py)\n#########################################################################\n\nfrom gluon.tools import Auth, Crud, Service, PluginManager, prettydate\nauth = Auth(db)\ncrud, service, plugins = Crud(db), Service(), PluginManager()\n\n## create all tables needed by auth if not custom tables\nauth.define_tables(username=False, signature=False)\n\n## configure email\nmail=auth.settings.mailer\nmail.settings.server = \'logging\' or \'smtp.gmail.com:587\'\nmail.settings.sender = \'you@gmail.com\'\nmail.settings.login = \'username:password\'\n\n## configure auth policy\nauth.settings.registration_requires_verification = False\nauth.settings.registration_requires_approval = False\nauth.settings.reset_password_requires_verification = True\n\n## if you need to use OpenID, Facebook, MySpace, Twitter, Linkedin, etc.\n## register with janrain.com, write your domain:api_key in private/janrain.key\nfrom gluon.contrib.login_methods.rpx_account import use_janrain\nuse_janrain(auth,filename=\'private/janrain.key\')\n\n#########################################################################\n## Define your tables below (or better in another model file) for example\n##\n## >>> db.define_table(\'mytable\',Field(\'myfield\',\'string\'))\n##\n## Fields can be \'string\',\'text\',\'password\',\'integer\',\'double\',\'boolean\'\n##       \'date\',\'time\',\'datetime\',\'blob\',\'upload\', \'reference TABLENAME\'\n## There is an implicit \'id integer autoincrement\' field\n## Consult manual for more options, validators, etc.\n##\n## More API examples for controllers:\n##\n## >>> db.mytable.insert(myfield=\'value\')\n## >>> rows=db(db.mytable.myfield==\'value\').select(db.mytable.ALL)\n## >>> for row in rows: print row.id, row.myfield\n#########################################################################\n\n\ndb.define_table("questions", \n                Field(\'title\', \'string\'))\n\ndb.define_table("answers",\n                Field("itemID", db.questions, requires = IS_IN_DB(db,db.questions.id,\'%(title)s\', error_message=T(\'Bitte w\xc3\xa4hlen Sie eine Frage aus\')), label = T(\'Frage\')),\n                Field(\'scale\', \'integer\', requires=IS_IN_SET({1:T(\'Trifft gar nicht zu\'),2:T(\'Trifft nicht zu\'), 3:T(\'teils-teils\'), 4:T(\'Trifft zu\'), 5:T(\'Trifft total zu\')})))\n\n\ndb.define_table("answers_smiley",\n                Field("itemID", db.questions, requires = IS_IN_DB(db,db.questions.id,\'%(title)s\', error_message=T(\'Bitte w\xc3\xa4hlen Sie eine Frage aus\')), label = T(\'Frage\')),\n                Field(\'scale\', \'integer\', requires=IS_IN_SET(range(1,6))))\n\ndb.define_table(\'answers_stars\',\n    Field(\'rating\', \'integer\',\n          requires=IS_IN_SET(range(1, 6)),  # "requires" is necessary for the rating widget\n))\n\n#db.questions.scale.widget = LikertWidget()\n\n\ndb.answers_stars.rating.represent = lambda v: \\\n    DIV(*[] for i in range(1,6))\n\n## after defining tables, uncomment below to enable auditing\n# auth.enable_record_versioning(db)\n'
p7
sS'snapshot'
p8
(dp9
S'exception'
p10
(dp11
S'__getslice__'
p12
S"<method-wrapper '__getslice__' of exceptions.SyntaxError object>"
p13
sS'text'
p14
S"'    DIV(*[] for i in range(1,6))\\n'"
p15
sS'__str__'
p16
S"<method-wrapper '__str__' of exceptions.SyntaxError object>"
p17
sS'__reduce__'
p18
S'<built-in method __reduce__ of exceptions.SyntaxError object>'
p19
sS'__dict__'
p20
S'{}'
p21
sS'__sizeof__'
p22
S'<built-in method __sizeof__ of exceptions.SyntaxError object>'
p23
sS'__init__'
p24
S"<method-wrapper '__init__' of exceptions.SyntaxError object>"
p25
sS'__setattr__'
p26
S"<method-wrapper '__setattr__' of exceptions.SyntaxError object>"
p27
sS'__reduce_ex__'
p28
S'<built-in method __reduce_ex__ of exceptions.SyntaxError object>'
p29
sS'__new__'
p30
S'<built-in method __new__ of type object>'
p31
sS'__format__'
p32
S'<built-in method __format__ of exceptions.SyntaxError object>'
p33
sS'__class__'
p34
S"<type 'exceptions.SyntaxError'>"
p35
sS'filename'
p36
S"r'C:\\xampp\\htdocs\\web2py\\applications\\testumgebung\\models\\db.py'"
p37
sS'lineno'
p38
S'104'
p39
sS'msg'
p40
S"'invalid syntax'"
p41
sS'__doc__'
p42
S"'Invalid syntax.'"
p43
sS'__getitem__'
p44
S"<method-wrapper '__getitem__' of exceptions.SyntaxError object>"
p45
sS'__setstate__'
p46
S'<built-in method __setstate__ of exceptions.SyntaxError object>'
p47
sS'__getattribute__'
p48
S"<method-wrapper '__getattribute__' of exceptions.SyntaxError object>"
p49
sS'print_file_and_line'
p50
S'None'
p51
sS'args'
p52
S"('invalid syntax', (r'C:\\xampp\\htdocs\\web2py\\applications\\testumgebung\\models\\db.py', 104, 15, '    DIV(*[] for i in range(1,6))\\n'))"
p53
sS'__subclasshook__'
p54
S'<built-in method __subclasshook__ of type object>'
p55
sS'offset'
p56
S'15'
p57
sS'__unicode__'
p58
S'<built-in method __unicode__ of exceptions.SyntaxError object>'
p59
sS'__delattr__'
p60
S"<method-wrapper '__delattr__' of exceptions.SyntaxError object>"
p61
sS'__repr__'
p62
S"<method-wrapper '__repr__' of exceptions.SyntaxError object>"
p63
sS'__hash__'
p64
S"<method-wrapper '__hash__' of exceptions.SyntaxError object>"
p65
ssS'evalue'
p66
S'invalid syntax (db.py, line 104)'
p67
sS'request'
p68
ccopy_reg
_reconstructor
p69
(cgluon.html
BEAUTIFY
p70
c__builtin__
object
p71
NtRp72
(dp73
S'attributes'
p74
(dp75
sS'components'
p76
(lp77
g69
(cgluon.html
TABLE
p78
g71
NtRp79
(dp80
g74
(dp81
S'level'
p82
I5
ssS'parent'
p83
Nsg76
(lp84
g69
(cgluon.html
TR
p85
g71
NtRp86
(dp87
g74
(dp88
sg83
g79
sg76
(lp89
g69
(cgluon.html
TD
p90
g71
NtRp91
(dp92
g74
(dp93
S'_style'
p94
S'font-weight:bold;vertical-align:top'
p95
ssg83
g86
sg76
(lp96
S'ajax'
p97
asbag69
(g90
g71
NtRp98
(dp99
g74
(dp100
S'_valign'
p101
S'top'
p102
ssg83
g86
sg76
(lp103
S':'
asbag69
(g90
g71
NtRp104
(dp105
g74
(dp106
sg83
g86
sg76
(lp107
g69
(g70
g71
NtRp108
(dp109
g74
(dp110
g82
I5
ssg83
g104
sg76
(lp111
S'False'
p112
asbasbasbag69
(g85
g71
NtRp113
(dp114
g74
(dp115
sg83
g79
sg76
(lp116
g69
(g90
g71
NtRp117
(dp118
g74
(dp119
g94
g95
ssg83
g113
sg76
(lp120
S'application'
p121
asbag69
(g90
g71
NtRp122
(dp123
g74
(dp124
g101
g102
ssg83
g113
sg76
(lp125
S':'
asbag69
(g90
g71
NtRp126
(dp127
g74
(dp128
sg83
g113
sg76
(lp129
g69
(g70
g71
NtRp130
(dp131
g74
(dp132
g82
I5
ssg83
g126
sg76
(lp133
S'testumgebung'
p134
asbasbasbag69
(g85
g71
NtRp135
(dp136
g74
(dp137
sg83
g79
sg76
(lp138
g69
(g90
g71
NtRp139
(dp140
g74
(dp141
g94
g95
ssg83
g135
sg76
(lp142
g52
asbag69
(g90
g71
NtRp143
(dp144
g74
(dp145
g101
g102
ssg83
g135
sg76
(lp146
S':'
asbag69
(g90
g71
NtRp147
(dp148
g74
(dp149
sg83
g135
sg76
(lp150
g69
(g70
g71
NtRp151
(dp152
g74
(dp153
g82
I5
ssg83
g147
sg76
(lp154
g69
(g78
g71
NtRp155
(dp156
g74
(dp157
g82
I4
ssg83
Nsg76
(lp158
sbasbasbasbag69
(g85
g71
NtRp159
(dp160
g74
(dp161
sg83
g79
sg76
(lp162
g69
(g90
g71
NtRp163
(dp164
g74
(dp165
g94
g95
ssg83
g159
sg76
(lp166
S'body'
p167
asbag69
(g90
g71
NtRp168
(dp169
g74
(dp170
g101
g102
ssg83
g159
sg76
(lp171
S':'
asbag69
(g90
g71
NtRp172
(dp173
g74
(dp174
sg83
g159
sg76
(lp175
g69
(g70
g71
NtRp176
(dp177
g74
(dp178
g82
I5
ssg83
g172
sg76
(lp179
S'<cStringIO.StringO object at 0x068D5240>'
p180
asbasbasbag69
(g85
g71
NtRp181
(dp182
g74
(dp183
sg83
g79
sg76
(lp184
g69
(g90
g71
NtRp185
(dp186
g74
(dp187
g94
g95
ssg83
g181
sg76
(lp188
S'cid'
p189
asbag69
(g90
g71
NtRp190
(dp191
g74
(dp192
g101
g102
ssg83
g181
sg76
(lp193
S':'
asbag69
(g90
g71
NtRp194
(dp195
g74
(dp196
sg83
g181
sg76
(lp197
g69
(g70
g71
NtRp198
(dp199
g74
(dp200
g82
I5
ssg83
g194
sg76
(lp201
S'None'
p202
asbasbasbag69
(g85
g71
NtRp203
(dp204
g74
(dp205
sg83
g79
sg76
(lp206
g69
(g90
g71
NtRp207
(dp208
g74
(dp209
g94
g95
ssg83
g203
sg76
(lp210
S'client'
p211
asbag69
(g90
g71
NtRp212
(dp213
g74
(dp214
g101
g102
ssg83
g203
sg76
(lp215
S':'
asbag69
(g90
g71
NtRp216
(dp217
g74
(dp218
sg83
g203
sg76
(lp219
g69
(g70
g71
NtRp220
(dp221
g74
(dp222
g82
I5
ssg83
g216
sg76
(lp223
S'10.0.0.109'
p224
asbasbasbag69
(g85
g71
NtRp225
(dp226
g74
(dp227
sg83
g79
sg76
(lp228
g69
(g90
g71
NtRp229
(dp230
g74
(dp231
g94
g95
ssg83
g225
sg76
(lp232
S'controller'
p233
asbag69
(g90
g71
NtRp234
(dp235
g74
(dp236
g101
g102
ssg83
g225
sg76
(lp237
S':'
asbag69
(g90
g71
NtRp238
(dp239
g74
(dp240
sg83
g225
sg76
(lp241
g69
(g70
g71
NtRp242
(dp243
g74
(dp244
g82
I5
ssg83
g238
sg76
(lp245
S'default'
p246
asbasbasbag69
(g85
g71
NtRp247
(dp248
g74
(dp249
sg83
g79
sg76
(lp250
g69
(g90
g71
NtRp251
(dp252
g74
(dp253
g94
g95
ssg83
g247
sg76
(lp254
S'cookies'
p255
asbag69
(g90
g71
NtRp256
(dp257
g74
(dp258
g101
g102
ssg83
g247
sg76
(lp259
S':'
asbag69
(g90
g71
NtRp260
(dp261
g74
(dp262
sg83
g247
sg76
(lp263
g69
(g70
g71
NtRp264
(dp265
g74
(dp266
g82
I5
ssg83
g260
sg76
(lp267
g69
(g78
g71
NtRp268
(dp269
g74
(dp270
g82
I4
ssg83
Nsg76
(lp271
g69
(g85
g71
NtRp272
(dp273
g74
(dp274
sg83
g268
sg76
(lp275
g69
(g90
g71
NtRp276
(dp277
g74
(dp278
g94
g95
ssg83
g272
sg76
(lp279
S'session_id_welcome'
p280
asbag69
(g90
g71
NtRp281
(dp282
g74
(dp283
g101
g102
ssg83
g272
sg76
(lp284
S':'
asbag69
(g90
g71
NtRp285
(dp286
g74
(dp287
sg83
g272
sg76
(lp288
g69
(g70
g71
NtRp289
(dp290
g74
(dp291
g82
I4
ssg83
g285
sg76
(lp292
S'10.0.0.109-0aa4b5ad-9c6f-4f2c-bfe5-621d38e03c33'
p293
ag69
(g78
g71
NtRp294
(dp295
g74
(dp296
g82
I3
ssg83
Nsg76
(lp297
g69
(g85
g71
NtRp298
(dp299
g74
(dp300
sg83
g294
sg76
(lp301
g69
(g90
g71
NtRp302
(dp303
g74
(dp304
g94
g95
ssg83
g298
sg76
(lp305
S'comment'
p306
asbag69
(g90
g71
NtRp307
(dp308
g74
(dp309
g101
g102
ssg83
g298
sg76
(lp310
S':'
asbag69
(g90
g71
NtRp311
(dp312
g74
(dp313
sg83
g298
sg76
(lp314
g69
(g70
g71
NtRp315
(dp316
g74
(dp317
g82
I3
ssg83
g311
sg76
(lp318
S''
asbasbasbag69
(g85
g71
NtRp319
(dp320
g74
(dp321
sg83
g294
sg76
(lp322
g69
(g90
g71
NtRp323
(dp324
g74
(dp325
g94
g95
ssg83
g319
sg76
(lp326
S'domain'
p327
asbag69
(g90
g71
NtRp328
(dp329
g74
(dp330
g101
g102
ssg83
g319
sg76
(lp331
S':'
asbag69
(g90
g71
NtRp332
(dp333
g74
(dp334
sg83
g319
sg76
(lp335
g69
(g70
g71
NtRp336
(dp337
g74
(dp338
g82
I3
ssg83
g332
sg76
(lp339
S''
asbasbasbag69
(g85
g71
NtRp340
(dp341
g74
(dp342
sg83
g294
sg76
(lp343
g69
(g90
g71
NtRp344
(dp345
g74
(dp346
g94
g95
ssg83
g340
sg76
(lp347
S'expires'
p348
asbag69
(g90
g71
NtRp349
(dp350
g74
(dp351
g101
g102
ssg83
g340
sg76
(lp352
S':'
asbag69
(g90
g71
NtRp353
(dp354
g74
(dp355
sg83
g340
sg76
(lp356
g69
(g70
g71
NtRp357
(dp358
g74
(dp359
g82
I3
ssg83
g353
sg76
(lp360
S''
asbasbasbag69
(g85
g71
NtRp361
(dp362
g74
(dp363
sg83
g294
sg76
(lp364
g69
(g90
g71
NtRp365
(dp366
g74
(dp367
g94
g95
ssg83
g361
sg76
(lp368
S'httponly'
p369
asbag69
(g90
g71
NtRp370
(dp371
g74
(dp372
g101
g102
ssg83
g361
sg76
(lp373
S':'
asbag69
(g90
g71
NtRp374
(dp375
g74
(dp376
sg83
g361
sg76
(lp377
g69
(g70
g71
NtRp378
(dp379
g74
(dp380
g82
I3
ssg83
g374
sg76
(lp381
S''
asbasbasbag69
(g85
g71
NtRp382
(dp383
g74
(dp384
sg83
g294
sg76
(lp385
g69
(g90
g71
NtRp386
(dp387
g74
(dp388
g94
g95
ssg83
g382
sg76
(lp389
S'max-age'
p390
asbag69
(g90
g71
NtRp391
(dp392
g74
(dp393
g101
g102
ssg83
g382
sg76
(lp394
S':'
asbag69
(g90
g71
NtRp395
(dp396
g74
(dp397
sg83
g382
sg76
(lp398
g69
(g70
g71
NtRp399
(dp400
g74
(dp401
g82
I3
ssg83
g395
sg76
(lp402
S''
asbasbasbag69
(g85
g71
NtRp403
(dp404
g74
(dp405
sg83
g294
sg76
(lp406
g69
(g90
g71
NtRp407
(dp408
g74
(dp409
g94
g95
ssg83
g403
sg76
(lp410
S'path'
p411
asbag69
(g90
g71
NtRp412
(dp413
g74
(dp414
g101
g102
ssg83
g403
sg76
(lp415
S':'
asbag69
(g90
g71
NtRp416
(dp417
g74
(dp418
sg83
g403
sg76
(lp419
g69
(g70
g71
NtRp420
(dp421
g74
(dp422
g82
I3
ssg83
g416
sg76
(lp423
S''
asbasbasbag69
(g85
g71
NtRp424
(dp425
g74
(dp426
sg83
g294
sg76
(lp427
g69
(g90
g71
NtRp428
(dp429
g74
(dp430
g94
g95
ssg83
g424
sg76
(lp431
S'secure'
p432
asbag69
(g90
g71
NtRp433
(dp434
g74
(dp435
g101
g102
ssg83
g424
sg76
(lp436
S':'
asbag69
(g90
g71
NtRp437
(dp438
g74
(dp439
sg83
g424
sg76
(lp440
g69
(g70
g71
NtRp441
(dp442
g74
(dp443
g82
I3
ssg83
g437
sg76
(lp444
S''
asbasbasbag69
(g85
g71
NtRp445
(dp446
g74
(dp447
sg83
g294
sg76
(lp448
g69
(g90
g71
NtRp449
(dp450
g74
(dp451
g94
g95
ssg83
g445
sg76
(lp452
S'version'
p453
asbag69
(g90
g71
NtRp454
(dp455
g74
(dp456
g101
g102
ssg83
g445
sg76
(lp457
S':'
asbag69
(g90
g71
NtRp458
(dp459
g74
(dp460
sg83
g445
sg76
(lp461
g69
(g70
g71
NtRp462
(dp463
g74
(dp464
g82
I3
ssg83
g458
sg76
(lp465
S''
asbasbasbasbasbasbasbasbasbasbasbag69
(g85
g71
NtRp466
(dp467
g74
(dp468
sg83
g79
sg76
(lp469
g69
(g90
g71
NtRp470
(dp471
g74
(dp472
g94
g95
ssg83
g466
sg76
(lp473
S'env'
p474
asbag69
(g90
g71
NtRp475
(dp476
g74
(dp477
g101
g102
ssg83
g466
sg76
(lp478
S':'
asbag69
(g90
g71
NtRp479
(dp480
g74
(dp481
sg83
g466
sg76
(lp482
g69
(g70
g71
NtRp483
(dp484
g74
(dp485
g82
I5
ssg83
g479
sg76
(lp486
g69
(g78
g71
NtRp487
(dp488
g74
(dp489
g82
I4
ssg83
Nsg76
(lp490
g69
(g85
g71
NtRp491
(dp492
g74
(dp493
sg83
g487
sg76
(lp494
g69
(g90
g71
NtRp495
(dp496
g74
(dp497
g94
g95
ssg83
g491
sg76
(lp498
S'app_folders'
p499
asbag69
(g90
g71
NtRp500
(dp501
g74
(dp502
g101
g102
ssg83
g491
sg76
(lp503
S':'
asbag69
(g90
g71
NtRp504
(dp505
g74
(dp506
sg83
g491
sg76
(lp507
g69
(g70
g71
NtRp508
(dp509
g74
(dp510
g82
I4
ssg83
g504
sg76
(lp511
S"set(['C:\\\\xampp\\\\htdocs\\\\web2py\\\\applications\\\\admin\\\\', 'C:\\\\xampp\\\\htdocs\\\\web2py\\\\applications\\\\welcome\\\\', 'C:\\\\xampp\\\\htdocs\\\\web2py\\\\applications\\\\testumgebung\\\\'])"
p512
asbasbasbag69
(g85
g71
NtRp513
(dp514
g74
(dp515
sg83
g487
sg76
(lp516
g69
(g90
g71
NtRp517
(dp518
g74
(dp519
g94
g95
ssg83
g513
sg76
(lp520
S'applications_parent'
p521
asbag69
(g90
g71
NtRp522
(dp523
g74
(dp524
g101
g102
ssg83
g513
sg76
(lp525
S':'
asbag69
(g90
g71
NtRp526
(dp527
g74
(dp528
sg83
g513
sg76
(lp529
g69
(g70
g71
NtRp530
(dp531
g74
(dp532
g82
I4
ssg83
g526
sg76
(lp533
S'C:\\xampp\\htdocs\\web2py'
p534
asbasbasbag69
(g85
g71
NtRp535
(dp536
g74
(dp537
sg83
g487
sg76
(lp538
g69
(g90
g71
NtRp539
(dp540
g74
(dp541
g94
g95
ssg83
g535
sg76
(lp542
S'cmd_args'
p543
asbag69
(g90
g71
NtRp544
(dp545
g74
(dp546
g101
g102
ssg83
g535
sg76
(lp547
S':'
asbag69
(g90
g71
NtRp548
(dp549
g74
(dp550
sg83
g535
sg76
(lp551
g69
(g70
g71
NtRp552
(dp553
g74
(dp554
g82
I4
ssg83
g548
sg76
(lp555
g69
(g78
g71
NtRp556
(dp557
g74
(dp558
g82
I3
ssg83
Nsg76
(lp559
sbasbasbasbag69
(g85
g71
NtRp560
(dp561
g74
(dp562
sg83
g487
sg76
(lp563
g69
(g90
g71
NtRp564
(dp565
g74
(dp566
g94
g95
ssg83
g560
sg76
(lp567
S'cmd_options'
p568
asbag69
(g90
g71
NtRp569
(dp570
g74
(dp571
g101
g102
ssg83
g560
sg76
(lp572
S':'
asbag69
(g90
g71
NtRp573
(dp574
g74
(dp575
sg83
g560
sg76
(lp576
g69
(g70
g71
NtRp577
(dp578
g74
(dp579
g82
I4
ssg83
g573
sg76
(lp580
S"<Values at 0x2c68e18: {'verbose': False, 'ip': '127.0.0.1', 'with_scheduler': False, 'ips': ['10.0.0.109', '192.168.189.1', '192.168.91.1'], 'shutdown_timeout': 5, 'taskbar': False, 'port': 8000, 'maxthreads': None, 'softcron': False, 'server_name': 'swLaptop', 'bpython': False, 'nogui': False, 'nocron': False, 'extcron': False, 'run_system_tests': False, 'test': None, 'folder': 'C:\\\\xampp\\\\htdocs\\\\web2py', 'config': '', 'import_models': False, 'winservice': '', 'shell': None, 'run': '', 'log_filename': 'httpserver.log', 'debuglevel': 30, 'args': [''], 'socket_timeout': 5, 'ssl_ca_certificate': None, 'scheduler': None, 'profiler_filename': None, 'ssl_private_key': '', 'scheduler_groups': None, 'password': '<ask>', 'request_queue_size': 5, 'ssl_certificate': '', 'cronjob': False, 'numthreads': None, 'quiet': False, 'interfaces': None, 'minthreads': None, 'timeout': 10, 'plain': False, 'nobanner': False, 'pid_filename': 'httpserver.pid'}>"
p581
asbasbasbag69
(g85
g71
NtRp582
(dp583
g74
(dp584
sg83
g487
sg76
(lp585
g69
(g90
g71
NtRp586
(dp587
g74
(dp588
g94
g95
ssg83
g582
sg76
(lp589
S'db_sessions'
p590
asbag69
(g90
g71
NtRp591
(dp592
g74
(dp593
g101
g102
ssg83
g582
sg76
(lp594
S':'
asbag69
(g90
g71
NtRp595
(dp596
g74
(dp597
sg83
g582
sg76
(lp598
g69
(g70
g71
NtRp599
(dp600
g74
(dp601
g82
I4
ssg83
g595
sg76
(lp602
S'set([])'
p603
asbasbasbag69
(g85
g71
NtRp604
(dp605
g74
(dp606
sg83
g487
sg76
(lp607
g69
(g90
g71
NtRp608
(dp609
g74
(dp610
g94
g95
ssg83
g604
sg76
(lp611
S'debugging'
p612
asbag69
(g90
g71
NtRp613
(dp614
g74
(dp615
g101
g102
ssg83
g604
sg76
(lp616
S':'
asbag69
(g90
g71
NtRp617
(dp618
g74
(dp619
sg83
g604
sg76
(lp620
g69
(g70
g71
NtRp621
(dp622
g74
(dp623
g82
I4
ssg83
g617
sg76
(lp624
g112
asbasbasbag69
(g85
g71
NtRp625
(dp626
g74
(dp627
sg83
g487
sg76
(lp628
g69
(g90
g71
NtRp629
(dp630
g74
(dp631
g94
g95
ssg83
g625
sg76
(lp632
S'gluon_parent'
p633
asbag69
(g90
g71
NtRp634
(dp635
g74
(dp636
g101
g102
ssg83
g625
sg76
(lp637
S':'
asbag69
(g90
g71
NtRp638
(dp639
g74
(dp640
sg83
g625
sg76
(lp641
g69
(g70
g71
NtRp642
(dp643
g74
(dp644
g82
I4
ssg83
g638
sg76
(lp645
S'C:\\xampp\\htdocs\\web2py'
p646
asbasbasbag69
(g85
g71
NtRp647
(dp648
g74
(dp649
sg83
g487
sg76
(lp650
g69
(g90
g71
NtRp651
(dp652
g74
(dp653
g94
g95
ssg83
g647
sg76
(lp654
S'http_accept'
p655
asbag69
(g90
g71
NtRp656
(dp657
g74
(dp658
g101
g102
ssg83
g647
sg76
(lp659
S':'
asbag69
(g90
g71
NtRp660
(dp661
g74
(dp662
sg83
g647
sg76
(lp663
g69
(g70
g71
NtRp664
(dp665
g74
(dp666
g82
I4
ssg83
g660
sg76
(lp667
S'text/html,application/xhtml+xml,application/xml;q=0.9,*/*;q=0.8'
p668
asbasbasbag69
(g85
g71
NtRp669
(dp670
g74
(dp671
sg83
g487
sg76
(lp672
g69
(g90
g71
NtRp673
(dp674
g74
(dp675
g94
g95
ssg83
g669
sg76
(lp676
S'http_accept_encoding'
p677
asbag69
(g90
g71
NtRp678
(dp679
g74
(dp680
g101
g102
ssg83
g669
sg76
(lp681
S':'
asbag69
(g90
g71
NtRp682
(dp683
g74
(dp684
sg83
g669
sg76
(lp685
g69
(g70
g71
NtRp686
(dp687
g74
(dp688
g82
I4
ssg83
g682
sg76
(lp689
S'gzip, deflate'
p690
asbasbasbag69
(g85
g71
NtRp691
(dp692
g74
(dp693
sg83
g487
sg76
(lp694
g69
(g90
g71
NtRp695
(dp696
g74
(dp697
g94
g95
ssg83
g691
sg76
(lp698
S'http_accept_language'
p699
asbag69
(g90
g71
NtRp700
(dp701
g74
(dp702
g101
g102
ssg83
g691
sg76
(lp703
S':'
asbag69
(g90
g71
NtRp704
(dp705
g74
(dp706
sg83
g691
sg76
(lp707
g69
(g70
g71
NtRp708
(dp709
g74
(dp710
g82
I4
ssg83
g704
sg76
(lp711
S'de-de,de;q=0.8,en-us;q=0.5,en;q=0.3'
p712
asbasbasbag69
(g85
g71
NtRp713
(dp714
g74
(dp715
sg83
g487
sg76
(lp716
g69
(g90
g71
NtRp717
(dp718
g74
(dp719
g94
g95
ssg83
g713
sg76
(lp720
S'http_connection'
p721
asbag69
(g90
g71
NtRp722
(dp723
g74
(dp724
g101
g102
ssg83
g713
sg76
(lp725
S':'
asbag69
(g90
g71
NtRp726
(dp727
g74
(dp728
sg83
g713
sg76
(lp729
g69
(g70
g71
NtRp730
(dp731
g74
(dp732
g82
I4
ssg83
g726
sg76
(lp733
S'keep-alive'
p734
asbasbasbag69
(g85
g71
NtRp735
(dp736
g74
(dp737
sg83
g487
sg76
(lp738
g69
(g90
g71
NtRp739
(dp740
g74
(dp741
g94
g95
ssg83
g735
sg76
(lp742
S'http_cookie'
p743
asbag69
(g90
g71
NtRp744
(dp745
g74
(dp746
g101
g102
ssg83
g735
sg76
(lp747
S':'
asbag69
(g90
g71
NtRp748
(dp749
g74
(dp750
sg83
g735
sg76
(lp751
g69
(g70
g71
NtRp752
(dp753
g74
(dp754
g82
I4
ssg83
g748
sg76
(lp755
S'session_id_welcome=10.0.0.109-0aa4b5ad-9c6f-4f2c-bfe5-621d38e03c33'
p756
asbasbasbag69
(g85
g71
NtRp757
(dp758
g74
(dp759
sg83
g487
sg76
(lp760
g69
(g90
g71
NtRp761
(dp762
g74
(dp763
g94
g95
ssg83
g757
sg76
(lp764
S'http_dnt'
p765
asbag69
(g90
g71
NtRp766
(dp767
g74
(dp768
g101
g102
ssg83
g757
sg76
(lp769
S':'
asbag69
(g90
g71
NtRp770
(dp771
g74
(dp772
sg83
g757
sg76
(lp773
g69
(g70
g71
NtRp774
(dp775
g74
(dp776
g82
I4
ssg83
g770
sg76
(lp777
S'1'
asbasbasbag69
(g85
g71
NtRp778
(dp779
g74
(dp780
sg83
g487
sg76
(lp781
g69
(g90
g71
NtRp782
(dp783
g74
(dp784
g94
g95
ssg83
g778
sg76
(lp785
S'http_host'
p786
asbag69
(g90
g71
NtRp787
(dp788
g74
(dp789
g101
g102
ssg83
g778
sg76
(lp790
S':'
asbag69
(g90
g71
NtRp791
(dp792
g74
(dp793
sg83
g778
sg76
(lp794
g69
(g70
g71
NtRp795
(dp796
g74
(dp797
g82
I4
ssg83
g791
sg76
(lp798
S'10.0.0.109:8000'
p799
asbasbasbag69
(g85
g71
NtRp800
(dp801
g74
(dp802
sg83
g487
sg76
(lp803
g69
(g90
g71
NtRp804
(dp805
g74
(dp806
g94
g95
ssg83
g800
sg76
(lp807
S'http_user_agent'
p808
asbag69
(g90
g71
NtRp809
(dp810
g74
(dp811
g101
g102
ssg83
g800
sg76
(lp812
S':'
asbag69
(g90
g71
NtRp813
(dp814
g74
(dp815
sg83
g800
sg76
(lp816
g69
(g70
g71
NtRp817
(dp818
g74
(dp819
g82
I4
ssg83
g813
sg76
(lp820
S'Mozilla/5.0 (Windows NT 6.1; WOW64; rv:17.0) Gecko/20100101 Firefox/17.0'
p821
asbasbasbag69
(g85
g71
NtRp822
(dp823
g74
(dp824
sg83
g487
sg76
(lp825
g69
(g90
g71
NtRp826
(dp827
g74
(dp828
g94
g95
ssg83
g822
sg76
(lp829
S'http_x_clickoncesupport'
p830
asbag69
(g90
g71
NtRp831
(dp832
g74
(dp833
g101
g102
ssg83
g822
sg76
(lp834
S':'
asbag69
(g90
g71
NtRp835
(dp836
g74
(dp837
sg83
g822
sg76
(lp838
g69
(g70
g71
NtRp839
(dp840
g74
(dp841
g82
I4
ssg83
g835
sg76
(lp842
S'(.NET CLR 2.0.50727; .NET CLR 3.5.30729; .NET CLR 3.0.30729; .NET4.0C; .NET4.0E)'
p843
asbasbasbag69
(g85
g71
NtRp844
(dp845
g74
(dp846
sg83
g487
sg76
(lp847
g69
(g90
g71
NtRp848
(dp849
g74
(dp850
g94
g95
ssg83
g844
sg76
(lp851
S'is_jython'
p852
asbag69
(g90
g71
NtRp853
(dp854
g74
(dp855
g101
g102
ssg83
g844
sg76
(lp856
S':'
asbag69
(g90
g71
NtRp857
(dp858
g74
(dp859
sg83
g844
sg76
(lp860
g69
(g70
g71
NtRp861
(dp862
g74
(dp863
g82
I4
ssg83
g857
sg76
(lp864
g112
asbasbasbag69
(g85
g71
NtRp865
(dp866
g74
(dp867
sg83
g487
sg76
(lp868
g69
(g90
g71
NtRp869
(dp870
g74
(dp871
g94
g95
ssg83
g865
sg76
(lp872
S'is_pypy'
p873
asbag69
(g90
g71
NtRp874
(dp875
g74
(dp876
g101
g102
ssg83
g865
sg76
(lp877
S':'
asbag69
(g90
g71
NtRp878
(dp879
g74
(dp880
sg83
g865
sg76
(lp881
g69
(g70
g71
NtRp882
(dp883
g74
(dp884
g82
I4
ssg83
g878
sg76
(lp885
g112
asbasbasbag69
(g85
g71
NtRp886
(dp887
g74
(dp888
sg83
g487
sg76
(lp889
g69
(g90
g71
NtRp890
(dp891
g74
(dp892
g94
g95
ssg83
g886
sg76
(lp893
S'path_info'
p894
asbag69
(g90
g71
NtRp895
(dp896
g74
(dp897
g101
g102
ssg83
g886
sg76
(lp898
S':'
asbag69
(g90
g71
NtRp899
(dp900
g74
(dp901
sg83
g886
sg76
(lp902
g69
(g70
g71
NtRp903
(dp904
g74
(dp905
g82
I4
ssg83
g899
sg76
(lp906
S'/testumgebung'
p907
asbasbasbag69
(g85
g71
NtRp908
(dp909
g74
(dp910
sg83
g487
sg76
(lp911
g69
(g90
g71
NtRp912
(dp913
g74
(dp914
g94
g95
ssg83
g908
sg76
(lp915
S'query_string'
p916
asbag69
(g90
g71
NtRp917
(dp918
g74
(dp919
g101
g102
ssg83
g908
sg76
(lp920
S':'
asbag69
(g90
g71
NtRp921
(dp922
g74
(dp923
sg83
g908
sg76
(lp924
g69
(g70
g71
NtRp925
(dp926
g74
(dp927
g82
I4
ssg83
g921
sg76
(lp928
S''
asbasbasbag69
(g85
g71
NtRp929
(dp930
g74
(dp931
sg83
g487
sg76
(lp932
g69
(g90
g71
NtRp933
(dp934
g74
(dp935
g94
g95
ssg83
g929
sg76
(lp936
S'remote_addr'
p937
asbag69
(g90
g71
NtRp938
(dp939
g74
(dp940
g101
g102
ssg83
g929
sg76
(lp941
S':'
asbag69
(g90
g71
NtRp942
(dp943
g74
(dp944
sg83
g929
sg76
(lp945
g69
(g70
g71
NtRp946
(dp947
g74
(dp948
g82
I4
ssg83
g942
sg76
(lp949
g224
asbasbasbag69
(g85
g71
NtRp950
(dp951
g74
(dp952
sg83
g487
sg76
(lp953
g69
(g90
g71
NtRp954
(dp955
g74
(dp956
g94
g95
ssg83
g950
sg76
(lp957
S'remote_port'
p958
asbag69
(g90
g71
NtRp959
(dp960
g74
(dp961
g101
g102
ssg83
g950
sg76
(lp962
S':'
asbag69
(g90
g71
NtRp963
(dp964
g74
(dp965
sg83
g950
sg76
(lp966
g69
(g70
g71
NtRp967
(dp968
g74
(dp969
g82
I4
ssg83
g963
sg76
(lp970
S'58058'
p971
asbasbasbag69
(g85
g71
NtRp972
(dp973
g74
(dp974
sg83
g487
sg76
(lp975
g69
(g90
g71
NtRp976
(dp977
g74
(dp978
g94
g95
ssg83
g972
sg76
(lp979
S'request_method'
p980
asbag69
(g90
g71
NtRp981
(dp982
g74
(dp983
g101
g102
ssg83
g972
sg76
(lp984
S':'
asbag69
(g90
g71
NtRp985
(dp986
g74
(dp987
sg83
g972
sg76
(lp988
g69
(g70
g71
NtRp989
(dp990
g74
(dp991
g82
I4
ssg83
g985
sg76
(lp992
S'GET'
p993
asbasbasbag69
(g85
g71
NtRp994
(dp995
g74
(dp996
sg83
g487
sg76
(lp997
g69
(g90
g71
NtRp998
(dp999
g74
(dp1000
g94
g95
ssg83
g994
sg76
(lp1001
S'request_uri'
p1002
asbag69
(g90
g71
NtRp1003
(dp1004
g74
(dp1005
g101
g102
ssg83
g994
sg76
(lp1006
S':'
asbag69
(g90
g71
NtRp1007
(dp1008
g74
(dp1009
sg83
g994
sg76
(lp1010
g69
(g70
g71
NtRp1011
(dp1012
g74
(dp1013
g82
I4
ssg83
g1007
sg76
(lp1014
g907
asbasbasbag69
(g85
g71
NtRp1015
(dp1016
g74
(dp1017
sg83
g487
sg76
(lp1018
g69
(g90
g71
NtRp1019
(dp1020
g74
(dp1021
g94
g95
ssg83
g1015
sg76
(lp1022
S'script_name'
p1023
asbag69
(g90
g71
NtRp1024
(dp1025
g74
(dp1026
g101
g102
ssg83
g1015
sg76
(lp1027
S':'
asbag69
(g90
g71
NtRp1028
(dp1029
g74
(dp1030
sg83
g1015
sg76
(lp1031
g69
(g70
g71
NtRp1032
(dp1033
g74
(dp1034
g82
I4
ssg83
g1028
sg76
(lp1035
S''
asbasbasbag69
(g85
g71
NtRp1036
(dp1037
g74
(dp1038
sg83
g487
sg76
(lp1039
g69
(g90
g71
NtRp1040
(dp1041
g74
(dp1042
g94
g95
ssg83
g1036
sg76
(lp1043
S'server_name'
p1044
asbag69
(g90
g71
NtRp1045
(dp1046
g74
(dp1047
g101
g102
ssg83
g1036
sg76
(lp1048
S':'
asbag69
(g90
g71
NtRp1049
(dp1050
g74
(dp1051
sg83
g1036
sg76
(lp1052
g69
(g70
g71
NtRp1053
(dp1054
g74
(dp1055
g82
I4
ssg83
g1049
sg76
(lp1056
S'swLaptop'
p1057
asbasbasbag69
(g85
g71
NtRp1058
(dp1059
g74
(dp1060
sg83
g487
sg76
(lp1061
g69
(g90
g71
NtRp1062
(dp1063
g74
(dp1064
g94
g95
ssg83
g1058
sg76
(lp1065
S'server_port'
p1066
asbag69
(g90
g71
NtRp1067
(dp1068
g74
(dp1069
g101
g102
ssg83
g1058
sg76
(lp1070
S':'
asbag69
(g90
g71
NtRp1071
(dp1072
g74
(dp1073
sg83
g1058
sg76
(lp1074
g69
(g70
g71
NtRp1075
(dp1076
g74
(dp1077
g82
I4
ssg83
g1071
sg76
(lp1078
S'8000'
p1079
asbasbasbag69
(g85
g71
NtRp1080
(dp1081
g74
(dp1082
sg83
g487
sg76
(lp1083
g69
(g90
g71
NtRp1084
(dp1085
g74
(dp1086
g94
g95
ssg83
g1080
sg76
(lp1087
S'server_protocol'
p1088
asbag69
(g90
g71
NtRp1089
(dp1090
g74
(dp1091
g101
g102
ssg83
g1080
sg76
(lp1092
S':'
asbag69
(g90
g71
NtRp1093
(dp1094
g74
(dp1095
sg83
g1080
sg76
(lp1096
g69
(g70
g71
NtRp1097
(dp1098
g74
(dp1099
g82
I4
ssg83
g1093
sg76
(lp1100
S'HTTP/1.1'
p1101
asbasbasbag69
(g85
g71
NtRp1102
(dp1103
g74
(dp1104
sg83
g487
sg76
(lp1105
g69
(g90
g71
NtRp1106
(dp1107
g74
(dp1108
g94
g95
ssg83
g1102
sg76
(lp1109
S'server_software'
p1110
asbag69
(g90
g71
NtRp1111
(dp1112
g74
(dp1113
g101
g102
ssg83
g1102
sg76
(lp1114
S':'
asbag69
(g90
g71
NtRp1115
(dp1116
g74
(dp1117
sg83
g1102
sg76
(lp1118
g69
(g70
g71
NtRp1119
(dp1120
g74
(dp1121
g82
I4
ssg83
g1115
sg76
(lp1122
S'Rocket 1.2.4'
p1123
asbasbasbag69
(g85
g71
NtRp1124
(dp1125
g74
(dp1126
sg83
g487
sg76
(lp1127
g69
(g90
g71
NtRp1128
(dp1129
g74
(dp1130
g94
g95
ssg83
g1124
sg76
(lp1131
S'web2py_crontype'
p1132
asbag69
(g90
g71
NtRp1133
(dp1134
g74
(dp1135
g101
g102
ssg83
g1124
sg76
(lp1136
S':'
asbag69
(g90
g71
NtRp1137
(dp1138
g74
(dp1139
sg83
g1124
sg76
(lp1140
g69
(g70
g71
NtRp1141
(dp1142
g74
(dp1143
g82
I4
ssg83
g1137
sg76
(lp1144
S'hard'
p1145
asbasbasbag69
(g85
g71
NtRp1146
(dp1147
g74
(dp1148
sg83
g487
sg76
(lp1149
g69
(g90
g71
NtRp1150
(dp1151
g74
(dp1152
g94
g95
ssg83
g1146
sg76
(lp1153
S'web2py_path'
p1154
asbag69
(g90
g71
NtRp1155
(dp1156
g74
(dp1157
g101
g102
ssg83
g1146
sg76
(lp1158
S':'
asbag69
(g90
g71
NtRp1159
(dp1160
g74
(dp1161
sg83
g1146
sg76
(lp1162
g69
(g70
g71
NtRp1163
(dp1164
g74
(dp1165
g82
I4
ssg83
g1159
sg76
(lp1166
g534
asbasbasbag69
(g85
g71
NtRp1167
(dp1168
g74
(dp1169
sg83
g487
sg76
(lp1170
g69
(g90
g71
NtRp1171
(dp1172
g74
(dp1173
g94
g95
ssg83
g1167
sg76
(lp1174
S'web2py_version'
p1175
asbag69
(g90
g71
NtRp1176
(dp1177
g74
(dp1178
g101
g102
ssg83
g1167
sg76
(lp1179
S':'
asbag69
(g90
g71
NtRp1180
(dp1181
g74
(dp1182
sg83
g1167
sg76
(lp1183
g69
(g70
g71
NtRp1184
(dp1185
g74
(dp1186
g82
I4
ssg83
g1180
sg76
(lp1187
g69
(g78
g71
NtRp1188
(dp1189
g74
(dp1190
g82
I3
ssg83
Nsg76
(lp1191
g69
(g85
g71
NtRp1192
(dp1193
g74
(dp1194
sg83
g1188
sg76
(lp1195
g69
(g90
g71
NtRp1196
(dp1197
g74
(dp1198
sg83
g1192
sg76
(lp1199
g69
(g70
g71
NtRp1200
(dp1201
g74
(dp1202
g82
I3
ssg83
g1196
sg76
(lp1203
S'2'
asbasbasbag69
(g85
g71
NtRp1204
(dp1205
g74
(dp1206
sg83
g1188
sg76
(lp1207
g69
(g90
g71
NtRp1208
(dp1209
g74
(dp1210
sg83
g1204
sg76
(lp1211
g69
(g70
g71
NtRp1212
(dp1213
g74
(dp1214
g82
I3
ssg83
g1208
sg76
(lp1215
S'0'
asbasbasbag69
(g85
g71
NtRp1216
(dp1217
g74
(dp1218
sg83
g1188
sg76
(lp1219
g69
(g90
g71
NtRp1220
(dp1221
g74
(dp1222
sg83
g1216
sg76
(lp1223
g69
(g70
g71
NtRp1224
(dp1225
g74
(dp1226
g82
I3
ssg83
g1220
sg76
(lp1227
S'3'
asbasbasbag69
(g85
g71
NtRp1228
(dp1229
g74
(dp1230
sg83
g1188
sg76
(lp1231
g69
(g90
g71
NtRp1232
(dp1233
g74
(dp1234
sg83
g1228
sg76
(lp1235
g69
(g70
g71
NtRp1236
(dp1237
g74
(dp1238
g82
I3
ssg83
g1232
sg76
(lp1239
S'datetime.datetime(2012, 8, 31, 5, 58, 31)'
p1240
asbasbasbag69
(g85
g71
NtRp1241
(dp1242
g74
(dp1243
sg83
g1188
sg76
(lp1244
g69
(g90
g71
NtRp1245
(dp1246
g74
(dp1247
sg83
g1241
sg76
(lp1248
g69
(g70
g71
NtRp1249
(dp1250
g74
(dp1251
g82
I3
ssg83
g1245
sg76
(lp1252
S'stable'
p1253
asbasbasbasbasbasbasbag69
(g85
g71
NtRp1254
(dp1255
g74
(dp1256
sg83
g487
sg76
(lp1257
g69
(g90
g71
NtRp1258
(dp1259
g74
(dp1260
g94
g95
ssg83
g1254
sg76
(lp1261
S'wsgi_errors'
p1262
asbag69
(g90
g71
NtRp1263
(dp1264
g74
(dp1265
g101
g102
ssg83
g1254
sg76
(lp1266
S':'
asbag69
(g90
g71
NtRp1267
(dp1268
g74
(dp1269
sg83
g1254
sg76
(lp1270
g69
(g70
g71
NtRp1271
(dp1272
g74
(dp1273
g82
I4
ssg83
g1267
sg76
(lp1274
S"<open file '<stderr>', mode 'w' at 0x021D50D0>"
p1275
asbasbasbag69
(g85
g71
NtRp1276
(dp1277
g74
(dp1278
sg83
g487
sg76
(lp1279
g69
(g90
g71
NtRp1280
(dp1281
g74
(dp1282
g94
g95
ssg83
g1276
sg76
(lp1283
S'wsgi_file_wrapper'
p1284
asbag69
(g90
g71
NtRp1285
(dp1286
g74
(dp1287
g101
g102
ssg83
g1276
sg76
(lp1288
S':'
asbag69
(g90
g71
NtRp1289
(dp1290
g74
(dp1291
sg83
g1276
sg76
(lp1292
g69
(g70
g71
NtRp1293
(dp1294
g74
(dp1295
g82
I4
ssg83
g1289
sg76
(lp1296
S'<class wsgiref.util.FileWrapper at 0x02C1D030>'
p1297
asbasbasbag69
(g85
g71
NtRp1298
(dp1299
g74
(dp1300
sg83
g487
sg76
(lp1301
g69
(g90
g71
NtRp1302
(dp1303
g74
(dp1304
g94
g95
ssg83
g1298
sg76
(lp1305
S'wsgi_input'
p1306
asbag69
(g90
g71
NtRp1307
(dp1308
g74
(dp1309
g101
g102
ssg83
g1298
sg76
(lp1310
S':'
asbag69
(g90
g71
NtRp1311
(dp1312
g74
(dp1313
sg83
g1298
sg76
(lp1314
g69
(g70
g71
NtRp1315
(dp1316
g74
(dp1317
g82
I4
ssg83
g1311
sg76
(lp1318
S'<socket._fileobject object at 0x06459F30>'
p1319
asbasbasbag69
(g85
g71
NtRp1320
(dp1321
g74
(dp1322
sg83
g487
sg76
(lp1323
g69
(g90
g71
NtRp1324
(dp1325
g74
(dp1326
g94
g95
ssg83
g1320
sg76
(lp1327
S'wsgi_multiprocess'
p1328
asbag69
(g90
g71
NtRp1329
(dp1330
g74
(dp1331
g101
g102
ssg83
g1320
sg76
(lp1332
S':'
asbag69
(g90
g71
NtRp1333
(dp1334
g74
(dp1335
sg83
g1320
sg76
(lp1336
g69
(g70
g71
NtRp1337
(dp1338
g74
(dp1339
g82
I4
ssg83
g1333
sg76
(lp1340
g112
asbasbasbag69
(g85
g71
NtRp1341
(dp1342
g74
(dp1343
sg83
g487
sg76
(lp1344
g69
(g90
g71
NtRp1345
(dp1346
g74
(dp1347
g94
g95
ssg83
g1341
sg76
(lp1348
S'wsgi_multithread'
p1349
asbag69
(g90
g71
NtRp1350
(dp1351
g74
(dp1352
g101
g102
ssg83
g1341
sg76
(lp1353
S':'
asbag69
(g90
g71
NtRp1354
(dp1355
g74
(dp1356
sg83
g1341
sg76
(lp1357
g69
(g70
g71
NtRp1358
(dp1359
g74
(dp1360
g82
I4
ssg83
g1354
sg76
(lp1361
S'True'
p1362
asbasbasbag69
(g85
g71
NtRp1363
(dp1364
g74
(dp1365
sg83
g487
sg76
(lp1366
g69
(g90
g71
NtRp1367
(dp1368
g74
(dp1369
g94
g95
ssg83
g1363
sg76
(lp1370
S'wsgi_run_once'
p1371
asbag69
(g90
g71
NtRp1372
(dp1373
g74
(dp1374
g101
g102
ssg83
g1363
sg76
(lp1375
S':'
asbag69
(g90
g71
NtRp1376
(dp1377
g74
(dp1378
sg83
g1363
sg76
(lp1379
g69
(g70
g71
NtRp1380
(dp1381
g74
(dp1382
g82
I4
ssg83
g1376
sg76
(lp1383
g112
asbasbasbag69
(g85
g71
NtRp1384
(dp1385
g74
(dp1386
sg83
g487
sg76
(lp1387
g69
(g90
g71
NtRp1388
(dp1389
g74
(dp1390
g94
g95
ssg83
g1384
sg76
(lp1391
S'wsgi_url_scheme'
p1392
asbag69
(g90
g71
NtRp1393
(dp1394
g74
(dp1395
g101
g102
ssg83
g1384
sg76
(lp1396
S':'
asbag69
(g90
g71
NtRp1397
(dp1398
g74
(dp1399
sg83
g1384
sg76
(lp1400
g69
(g70
g71
NtRp1401
(dp1402
g74
(dp1403
g82
I4
ssg83
g1397
sg76
(lp1404
S'http'
p1405
asbasbasbag69
(g85
g71
NtRp1406
(dp1407
g74
(dp1408
sg83
g487
sg76
(lp1409
g69
(g90
g71
NtRp1410
(dp1411
g74
(dp1412
g94
g95
ssg83
g1406
sg76
(lp1413
S'wsgi_version'
p1414
asbag69
(g90
g71
NtRp1415
(dp1416
g74
(dp1417
g101
g102
ssg83
g1406
sg76
(lp1418
S':'
asbag69
(g90
g71
NtRp1419
(dp1420
g74
(dp1421
sg83
g1406
sg76
(lp1422
g69
(g70
g71
NtRp1423
(dp1424
g74
(dp1425
g82
I4
ssg83
g1419
sg76
(lp1426
g69
(g78
g71
NtRp1427
(dp1428
g74
(dp1429
g82
I3
ssg83
Nsg76
(lp1430
g69
(g85
g71
NtRp1431
(dp1432
g74
(dp1433
sg83
g1427
sg76
(lp1434
g69
(g90
g71
NtRp1435
(dp1436
g74
(dp1437
sg83
g1431
sg76
(lp1438
g69
(g70
g71
NtRp1439
(dp1440
g74
(dp1441
g82
I3
ssg83
g1435
sg76
(lp1442
S'1'
asbasbasbag69
(g85
g71
NtRp1443
(dp1444
g74
(dp1445
sg83
g1427
sg76
(lp1446
g69
(g90
g71
NtRp1447
(dp1448
g74
(dp1449
sg83
g1443
sg76
(lp1450
g69
(g70
g71
NtRp1451
(dp1452
g74
(dp1453
g82
I3
ssg83
g1447
sg76
(lp1454
S'0'
asbasbasbasbasbasbasbasbasbasbasbag69
(g85
g71
NtRp1455
(dp1456
g74
(dp1457
sg83
g79
sg76
(lp1458
g69
(g90
g71
NtRp1459
(dp1460
g74
(dp1461
g94
g95
ssg83
g1455
sg76
(lp1462
S'extension'
p1463
asbag69
(g90
g71
NtRp1464
(dp1465
g74
(dp1466
g101
g102
ssg83
g1455
sg76
(lp1467
S':'
asbag69
(g90
g71
NtRp1468
(dp1469
g74
(dp1470
sg83
g1455
sg76
(lp1471
g69
(g70
g71
NtRp1472
(dp1473
g74
(dp1474
g82
I5
ssg83
g1468
sg76
(lp1475
S'html'
p1476
asbasbasbag69
(g85
g71
NtRp1477
(dp1478
g74
(dp1479
sg83
g79
sg76
(lp1480
g69
(g90
g71
NtRp1481
(dp1482
g74
(dp1483
g94
g95
ssg83
g1477
sg76
(lp1484
S'folder'
p1485
asbag69
(g90
g71
NtRp1486
(dp1487
g74
(dp1488
g101
g102
ssg83
g1477
sg76
(lp1489
S':'
asbag69
(g90
g71
NtRp1490
(dp1491
g74
(dp1492
sg83
g1477
sg76
(lp1493
g69
(g70
g71
NtRp1494
(dp1495
g74
(dp1496
g82
I5
ssg83
g1490
sg76
(lp1497
S'C:\\xampp\\htdocs\\web2py\\applications\\testumgebung\\'
p1498
asbasbasbag69
(g85
g71
NtRp1499
(dp1500
g74
(dp1501
sg83
g79
sg76
(lp1502
g69
(g90
g71
NtRp1503
(dp1504
g74
(dp1505
g94
g95
ssg83
g1499
sg76
(lp1506
S'function'
p1507
asbag69
(g90
g71
NtRp1508
(dp1509
g74
(dp1510
g101
g102
ssg83
g1499
sg76
(lp1511
S':'
asbag69
(g90
g71
NtRp1512
(dp1513
g74
(dp1514
sg83
g1499
sg76
(lp1515
g69
(g70
g71
NtRp1516
(dp1517
g74
(dp1518
g82
I5
ssg83
g1512
sg76
(lp1519
S'index'
p1520
asbasbasbag69
(g85
g71
NtRp1521
(dp1522
g74
(dp1523
sg83
g79
sg76
(lp1524
g69
(g90
g71
NtRp1525
(dp1526
g74
(dp1527
g94
g95
ssg83
g1521
sg76
(lp1528
S'get_vars'
p1529
asbag69
(g90
g71
NtRp1530
(dp1531
g74
(dp1532
g101
g102
ssg83
g1521
sg76
(lp1533
S':'
asbag69
(g90
g71
NtRp1534
(dp1535
g74
(dp1536
sg83
g1521
sg76
(lp1537
g69
(g70
g71
NtRp1538
(dp1539
g74
(dp1540
g82
I5
ssg83
g1534
sg76
(lp1541
g69
(g78
g71
NtRp1542
(dp1543
g74
(dp1544
g82
I4
ssg83
Nsg76
(lp1545
sbasbasbasbag69
(g85
g71
NtRp1546
(dp1547
g74
(dp1548
sg83
g79
sg76
(lp1549
g69
(g90
g71
NtRp1550
(dp1551
g74
(dp1552
g94
g95
ssg83
g1546
sg76
(lp1553
S'global_settings'
p1554
asbag69
(g90
g71
NtRp1555
(dp1556
g74
(dp1557
g101
g102
ssg83
g1546
sg76
(lp1558
S':'
asbag69
(g90
g71
NtRp1559
(dp1560
g74
(dp1561
sg83
g1546
sg76
(lp1562
g69
(g70
g71
NtRp1563
(dp1564
g74
(dp1565
g82
I5
ssg83
g1559
sg76
(lp1566
g69
(g78
g71
NtRp1567
(dp1568
g74
(dp1569
g82
I4
ssg83
Nsg76
(lp1570
g69
(g85
g71
NtRp1571
(dp1572
g74
(dp1573
sg83
g1567
sg76
(lp1574
g69
(g90
g71
NtRp1575
(dp1576
g74
(dp1577
g94
g95
ssg83
g1571
sg76
(lp1578
g499
asbag69
(g90
g71
NtRp1579
(dp1580
g74
(dp1581
g101
g102
ssg83
g1571
sg76
(lp1582
S':'
asbag69
(g90
g71
NtRp1583
(dp1584
g74
(dp1585
sg83
g1571
sg76
(lp1586
g69
(g70
g71
NtRp1587
(dp1588
g74
(dp1589
g82
I4
ssg83
g1583
sg76
(lp1590
S"set(['C:\\\\xampp\\\\htdocs\\\\web2py\\\\applications\\\\admin\\\\', 'C:\\\\xampp\\\\htdocs\\\\web2py\\\\applications\\\\welcome\\\\', 'C:\\\\xampp\\\\htdocs\\\\web2py\\\\applications\\\\testumgebung\\\\'])"
p1591
asbasbasbag69
(g85
g71
NtRp1592
(dp1593
g74
(dp1594
sg83
g1567
sg76
(lp1595
g69
(g90
g71
NtRp1596
(dp1597
g74
(dp1598
g94
g95
ssg83
g1592
sg76
(lp1599
g521
asbag69
(g90
g71
NtRp1600
(dp1601
g74
(dp1602
g101
g102
ssg83
g1592
sg76
(lp1603
S':'
asbag69
(g90
g71
NtRp1604
(dp1605
g74
(dp1606
sg83
g1592
sg76
(lp1607
g69
(g70
g71
NtRp1608
(dp1609
g74
(dp1610
g82
I4
ssg83
g1604
sg76
(lp1611
g534
asbasbasbag69
(g85
g71
NtRp1612
(dp1613
g74
(dp1614
sg83
g1567
sg76
(lp1615
g69
(g90
g71
NtRp1616
(dp1617
g74
(dp1618
g94
g95
ssg83
g1612
sg76
(lp1619
g543
asbag69
(g90
g71
NtRp1620
(dp1621
g74
(dp1622
g101
g102
ssg83
g1612
sg76
(lp1623
S':'
asbag69
(g90
g71
NtRp1624
(dp1625
g74
(dp1626
sg83
g1612
sg76
(lp1627
g69
(g70
g71
NtRp1628
(dp1629
g74
(dp1630
g82
I4
ssg83
g1624
sg76
(lp1631
g69
(g78
g71
NtRp1632
(dp1633
g74
(dp1634
g82
I3
ssg83
Nsg76
(lp1635
sbasbasbasbag69
(g85
g71
NtRp1636
(dp1637
g74
(dp1638
sg83
g1567
sg76
(lp1639
g69
(g90
g71
NtRp1640
(dp1641
g74
(dp1642
g94
g95
ssg83
g1636
sg76
(lp1643
g568
asbag69
(g90
g71
NtRp1644
(dp1645
g74
(dp1646
g101
g102
ssg83
g1636
sg76
(lp1647
S':'
asbag69
(g90
g71
NtRp1648
(dp1649
g74
(dp1650
sg83
g1636
sg76
(lp1651
g69
(g70
g71
NtRp1652
(dp1653
g74
(dp1654
g82
I4
ssg83
g1648
sg76
(lp1655
S"<Values at 0x2c68e18: {'verbose': False, 'ip': '127.0.0.1', 'with_scheduler': False, 'ips': ['10.0.0.109', '192.168.189.1', '192.168.91.1'], 'shutdown_timeout': 5, 'taskbar': False, 'port': 8000, 'maxthreads': None, 'softcron': False, 'server_name': 'swLaptop', 'bpython': False, 'nogui': False, 'nocron': False, 'extcron': False, 'run_system_tests': False, 'test': None, 'folder': 'C:\\\\xampp\\\\htdocs\\\\web2py', 'config': '', 'import_models': False, 'winservice': '', 'shell': None, 'run': '', 'log_filename': 'httpserver.log', 'debuglevel': 30, 'args': [''], 'socket_timeout': 5, 'ssl_ca_certificate': None, 'scheduler': None, 'profiler_filename': None, 'ssl_private_key': '', 'scheduler_groups': None, 'password': '<ask>', 'request_queue_size': 5, 'ssl_certificate': '', 'cronjob': False, 'numthreads': None, 'quiet': False, 'interfaces': None, 'minthreads': None, 'timeout': 10, 'plain': False, 'nobanner': False, 'pid_filename': 'httpserver.pid'}>"
p1656
asbasbasbag69
(g85
g71
NtRp1657
(dp1658
g74
(dp1659
sg83
g1567
sg76
(lp1660
g69
(g90
g71
NtRp1661
(dp1662
g74
(dp1663
g94
g95
ssg83
g1657
sg76
(lp1664
g590
asbag69
(g90
g71
NtRp1665
(dp1666
g74
(dp1667
g101
g102
ssg83
g1657
sg76
(lp1668
S':'
asbag69
(g90
g71
NtRp1669
(dp1670
g74
(dp1671
sg83
g1657
sg76
(lp1672
g69
(g70
g71
NtRp1673
(dp1674
g74
(dp1675
g82
I4
ssg83
g1669
sg76
(lp1676
S'set([])'
p1677
asbasbasbag69
(g85
g71
NtRp1678
(dp1679
g74
(dp1680
sg83
g1567
sg76
(lp1681
g69
(g90
g71
NtRp1682
(dp1683
g74
(dp1684
g94
g95
ssg83
g1678
sg76
(lp1685
g612
asbag69
(g90
g71
NtRp1686
(dp1687
g74
(dp1688
g101
g102
ssg83
g1678
sg76
(lp1689
S':'
asbag69
(g90
g71
NtRp1690
(dp1691
g74
(dp1692
sg83
g1678
sg76
(lp1693
g69
(g70
g71
NtRp1694
(dp1695
g74
(dp1696
g82
I4
ssg83
g1690
sg76
(lp1697
g112
asbasbasbag69
(g85
g71
NtRp1698
(dp1699
g74
(dp1700
sg83
g1567
sg76
(lp1701
g69
(g90
g71
NtRp1702
(dp1703
g74
(dp1704
g94
g95
ssg83
g1698
sg76
(lp1705
g633
asbag69
(g90
g71
NtRp1706
(dp1707
g74
(dp1708
g101
g102
ssg83
g1698
sg76
(lp1709
S':'
asbag69
(g90
g71
NtRp1710
(dp1711
g74
(dp1712
sg83
g1698
sg76
(lp1713
g69
(g70
g71
NtRp1714
(dp1715
g74
(dp1716
g82
I4
ssg83
g1710
sg76
(lp1717
g646
asbasbasbag69
(g85
g71
NtRp1718
(dp1719
g74
(dp1720
sg83
g1567
sg76
(lp1721
g69
(g90
g71
NtRp1722
(dp1723
g74
(dp1724
g94
g95
ssg83
g1718
sg76
(lp1725
g852
asbag69
(g90
g71
NtRp1726
(dp1727
g74
(dp1728
g101
g102
ssg83
g1718
sg76
(lp1729
S':'
asbag69
(g90
g71
NtRp1730
(dp1731
g74
(dp1732
sg83
g1718
sg76
(lp1733
g69
(g70
g71
NtRp1734
(dp1735
g74
(dp1736
g82
I4
ssg83
g1730
sg76
(lp1737
g112
asbasbasbag69
(g85
g71
NtRp1738
(dp1739
g74
(dp1740
sg83
g1567
sg76
(lp1741
g69
(g90
g71
NtRp1742
(dp1743
g74
(dp1744
g94
g95
ssg83
g1738
sg76
(lp1745
g873
asbag69
(g90
g71
NtRp1746
(dp1747
g74
(dp1748
g101
g102
ssg83
g1738
sg76
(lp1749
S':'
asbag69
(g90
g71
NtRp1750
(dp1751
g74
(dp1752
sg83
g1738
sg76
(lp1753
g69
(g70
g71
NtRp1754
(dp1755
g74
(dp1756
g82
I4
ssg83
g1750
sg76
(lp1757
g112
asbasbasbag69
(g85
g71
NtRp1758
(dp1759
g74
(dp1760
sg83
g1567
sg76
(lp1761
g69
(g90
g71
NtRp1762
(dp1763
g74
(dp1764
g94
g95
ssg83
g1758
sg76
(lp1765
g1132
asbag69
(g90
g71
NtRp1766
(dp1767
g74
(dp1768
g101
g102
ssg83
g1758
sg76
(lp1769
S':'
asbag69
(g90
g71
NtRp1770
(dp1771
g74
(dp1772
sg83
g1758
sg76
(lp1773
g69
(g70
g71
NtRp1774
(dp1775
g74
(dp1776
g82
I4
ssg83
g1770
sg76
(lp1777
g1145
asbasbasbag69
(g85
g71
NtRp1778
(dp1779
g74
(dp1780
sg83
g1567
sg76
(lp1781
g69
(g90
g71
NtRp1782
(dp1783
g74
(dp1784
g94
g95
ssg83
g1778
sg76
(lp1785
g1175
asbag69
(g90
g71
NtRp1786
(dp1787
g74
(dp1788
g101
g102
ssg83
g1778
sg76
(lp1789
S':'
asbag69
(g90
g71
NtRp1790
(dp1791
g74
(dp1792
sg83
g1778
sg76
(lp1793
g69
(g70
g71
NtRp1794
(dp1795
g74
(dp1796
g82
I4
ssg83
g1790
sg76
(lp1797
g69
(g78
g71
NtRp1798
(dp1799
g74
(dp1800
g82
I3
ssg83
Nsg76
(lp1801
g69
(g85
g71
NtRp1802
(dp1803
g74
(dp1804
sg83
g1798
sg76
(lp1805
g69
(g90
g71
NtRp1806
(dp1807
g74
(dp1808
sg83
g1802
sg76
(lp1809
g69
(g70
g71
NtRp1810
(dp1811
g74
(dp1812
g82
I3
ssg83
g1806
sg76
(lp1813
S'2'
asbasbasbag69
(g85
g71
NtRp1814
(dp1815
g74
(dp1816
sg83
g1798
sg76
(lp1817
g69
(g90
g71
NtRp1818
(dp1819
g74
(dp1820
sg83
g1814
sg76
(lp1821
g69
(g70
g71
NtRp1822
(dp1823
g74
(dp1824
g82
I3
ssg83
g1818
sg76
(lp1825
S'0'
asbasbasbag69
(g85
g71
NtRp1826
(dp1827
g74
(dp1828
sg83
g1798
sg76
(lp1829
g69
(g90
g71
NtRp1830
(dp1831
g74
(dp1832
sg83
g1826
sg76
(lp1833
g69
(g70
g71
NtRp1834
(dp1835
g74
(dp1836
g82
I3
ssg83
g1830
sg76
(lp1837
S'3'
asbasbasbag69
(g85
g71
NtRp1838
(dp1839
g74
(dp1840
sg83
g1798
sg76
(lp1841
g69
(g90
g71
NtRp1842
(dp1843
g74
(dp1844
sg83
g1838
sg76
(lp1845
g69
(g70
g71
NtRp1846
(dp1847
g74
(dp1848
g82
I3
ssg83
g1842
sg76
(lp1849
S'datetime.datetime(2012, 8, 31, 5, 58, 31)'
p1850
asbasbasbag69
(g85
g71
NtRp1851
(dp1852
g74
(dp1853
sg83
g1798
sg76
(lp1854
g69
(g90
g71
NtRp1855
(dp1856
g74
(dp1857
sg83
g1851
sg76
(lp1858
g69
(g70
g71
NtRp1859
(dp1860
g74
(dp1861
g82
I3
ssg83
g1855
sg76
(lp1862
g1253
asbasbasbasbasbasbasbasbasbasbasbag69
(g85
g71
NtRp1863
(dp1864
g74
(dp1865
sg83
g79
sg76
(lp1866
g69
(g90
g71
NtRp1867
(dp1868
g74
(dp1869
g94
g95
ssg83
g1863
sg76
(lp1870
S'is_https'
p1871
asbag69
(g90
g71
NtRp1872
(dp1873
g74
(dp1874
g101
g102
ssg83
g1863
sg76
(lp1875
S':'
asbag69
(g90
g71
NtRp1876
(dp1877
g74
(dp1878
sg83
g1863
sg76
(lp1879
g69
(g70
g71
NtRp1880
(dp1881
g74
(dp1882
g82
I5
ssg83
g1876
sg76
(lp1883
g112
asbasbasbag69
(g85
g71
NtRp1884
(dp1885
g74
(dp1886
sg83
g79
sg76
(lp1887
g69
(g90
g71
NtRp1888
(dp1889
g74
(dp1890
g94
g95
ssg83
g1884
sg76
(lp1891
S'is_local'
p1892
asbag69
(g90
g71
NtRp1893
(dp1894
g74
(dp1895
g101
g102
ssg83
g1884
sg76
(lp1896
S':'
asbag69
(g90
g71
NtRp1897
(dp1898
g74
(dp1899
sg83
g1884
sg76
(lp1900
g69
(g70
g71
NtRp1901
(dp1902
g74
(dp1903
g82
I5
ssg83
g1897
sg76
(lp1904
g1362
asbasbasbag69
(g85
g71
NtRp1905
(dp1906
g74
(dp1907
sg83
g79
sg76
(lp1908
g69
(g90
g71
NtRp1909
(dp1910
g74
(dp1911
g94
g95
ssg83
g1905
sg76
(lp1912
S'is_restful'
p1913
asbag69
(g90
g71
NtRp1914
(dp1915
g74
(dp1916
g101
g102
ssg83
g1905
sg76
(lp1917
S':'
asbag69
(g90
g71
NtRp1918
(dp1919
g74
(dp1920
sg83
g1905
sg76
(lp1921
g69
(g70
g71
NtRp1922
(dp1923
g74
(dp1924
g82
I5
ssg83
g1918
sg76
(lp1925
g112
asbasbasbag69
(g85
g71
NtRp1926
(dp1927
g74
(dp1928
sg83
g79
sg76
(lp1929
g69
(g90
g71
NtRp1930
(dp1931
g74
(dp1932
g94
g95
ssg83
g1926
sg76
(lp1933
S'now'
p1934
asbag69
(g90
g71
NtRp1935
(dp1936
g74
(dp1937
g101
g102
ssg83
g1926
sg76
(lp1938
S':'
asbag69
(g90
g71
NtRp1939
(dp1940
g74
(dp1941
sg83
g1926
sg76
(lp1942
g69
(g70
g71
NtRp1943
(dp1944
g74
(dp1945
g82
I5
ssg83
g1939
sg76
(lp1946
S'datetime.datetime(2012, 12, 14, 15, 58, 26, 228000)'
p1947
asbasbasbag69
(g85
g71
NtRp1948
(dp1949
g74
(dp1950
sg83
g79
sg76
(lp1951
g69
(g90
g71
NtRp1952
(dp1953
g74
(dp1954
g94
g95
ssg83
g1948
sg76
(lp1955
S'post_vars'
p1956
asbag69
(g90
g71
NtRp1957
(dp1958
g74
(dp1959
g101
g102
ssg83
g1948
sg76
(lp1960
S':'
asbag69
(g90
g71
NtRp1961
(dp1962
g74
(dp1963
sg83
g1948
sg76
(lp1964
g69
(g70
g71
NtRp1965
(dp1966
g74
(dp1967
g82
I5
ssg83
g1961
sg76
(lp1968
g69
(g78
g71
NtRp1969
(dp1970
g74
(dp1971
g82
I4
ssg83
Nsg76
(lp1972
sbasbasbasbag69
(g85
g71
NtRp1973
(dp1974
g74
(dp1975
sg83
g79
sg76
(lp1976
g69
(g90
g71
NtRp1977
(dp1978
g74
(dp1979
g94
g95
ssg83
g1973
sg76
(lp1980
S'raw_args'
p1981
asbag69
(g90
g71
NtRp1982
(dp1983
g74
(dp1984
g101
g102
ssg83
g1973
sg76
(lp1985
S':'
asbag69
(g90
g71
NtRp1986
(dp1987
g74
(dp1988
sg83
g1973
sg76
(lp1989
g69
(g70
g71
NtRp1990
(dp1991
g74
(dp1992
g82
I5
ssg83
g1986
sg76
(lp1993
S'None'
p1994
asbasbasbag69
(g85
g71
NtRp1995
(dp1996
g74
(dp1997
sg83
g79
sg76
(lp1998
g69
(g90
g71
NtRp1999
(dp2000
g74
(dp2001
g94
g95
ssg83
g1995
sg76
(lp2002
S'raw_extension'
p2003
asbag69
(g90
g71
NtRp2004
(dp2005
g74
(dp2006
g101
g102
ssg83
g1995
sg76
(lp2007
S':'
asbag69
(g90
g71
NtRp2008
(dp2009
g74
(dp2010
sg83
g1995
sg76
(lp2011
g69
(g70
g71
NtRp2012
(dp2013
g74
(dp2014
g82
I5
ssg83
g2008
sg76
(lp2015
S'None'
p2016
asbasbasbag69
(g85
g71
NtRp2017
(dp2018
g74
(dp2019
sg83
g79
sg76
(lp2020
g69
(g90
g71
NtRp2021
(dp2022
g74
(dp2023
g94
g95
ssg83
g2017
sg76
(lp2024
S'url'
p2025
asbag69
(g90
g71
NtRp2026
(dp2027
g74
(dp2028
g101
g102
ssg83
g2017
sg76
(lp2029
S':'
asbag69
(g90
g71
NtRp2030
(dp2031
g74
(dp2032
sg83
g2017
sg76
(lp2033
g69
(g70
g71
NtRp2034
(dp2035
g74
(dp2036
g82
I5
ssg83
g2030
sg76
(lp2037
S'/testumgebung/default/index'
p2038
asbasbasbag69
(g85
g71
NtRp2039
(dp2040
g74
(dp2041
sg83
g79
sg76
(lp2042
g69
(g90
g71
NtRp2043
(dp2044
g74
(dp2045
g94
g95
ssg83
g2039
sg76
(lp2046
S'utcnow'
p2047
asbag69
(g90
g71
NtRp2048
(dp2049
g74
(dp2050
g101
g102
ssg83
g2039
sg76
(lp2051
S':'
asbag69
(g90
g71
NtRp2052
(dp2053
g74
(dp2054
sg83
g2039
sg76
(lp2055
g69
(g70
g71
NtRp2056
(dp2057
g74
(dp2058
g82
I5
ssg83
g2052
sg76
(lp2059
S'datetime.datetime(2012, 12, 14, 14, 58, 26, 228000)'
p2060
asbasbasbag69
(g85
g71
NtRp2061
(dp2062
g74
(dp2063
sg83
g79
sg76
(lp2064
g69
(g90
g71
NtRp2065
(dp2066
g74
(dp2067
g94
g95
ssg83
g2061
sg76
(lp2068
S'uuid'
p2069
asbag69
(g90
g71
NtRp2070
(dp2071
g74
(dp2072
g101
g102
ssg83
g2061
sg76
(lp2073
S':'
asbag69
(g90
g71
NtRp2074
(dp2075
g74
(dp2076
sg83
g2061
sg76
(lp2077
g69
(g70
g71
NtRp2078
(dp2079
g74
(dp2080
g82
I5
ssg83
g2074
sg76
(lp2081
S'testumgebung/10.0.0.109.2012-12-14.15-58-26.955fedc6-6162-45da-957c-c2753e7f40fb'
p2082
asbasbasbag69
(g85
g71
NtRp2083
(dp2084
g74
(dp2085
sg83
g79
sg76
(lp2086
g69
(g90
g71
NtRp2087
(dp2088
g74
(dp2089
g94
g95
ssg83
g2083
sg76
(lp2090
S'vars'
p2091
asbag69
(g90
g71
NtRp2092
(dp2093
g74
(dp2094
g101
g102
ssg83
g2083
sg76
(lp2095
S':'
asbag69
(g90
g71
NtRp2096
(dp2097
g74
(dp2098
sg83
g2083
sg76
(lp2099
g69
(g70
g71
NtRp2100
(dp2101
g74
(dp2102
g82
I5
ssg83
g2096
sg76
(lp2103
g69
(g78
g71
NtRp2104
(dp2105
g74
(dp2106
g82
I4
ssg83
Nsg76
(lp2107
sbasbasbasbag69
(g85
g71
NtRp2108
(dp2109
g74
(dp2110
sg83
g79
sg76
(lp2111
g69
(g90
g71
NtRp2112
(dp2113
g74
(dp2114
g94
g95
ssg83
g2108
sg76
(lp2115
S'wsgi'
p2116
asbag69
(g90
g71
NtRp2117
(dp2118
g74
(dp2119
g101
g102
ssg83
g2108
sg76
(lp2120
S':'
asbag69
(g90
g71
NtRp2121
(dp2122
g74
(dp2123
sg83
g2108
sg76
(lp2124
g69
(g70
g71
NtRp2125
(dp2126
g74
(dp2127
g82
I5
ssg83
g2121
sg76
(lp2128
g69
(g78
g71
NtRp2129
(dp2130
g74
(dp2131
g82
I4
ssg83
Nsg76
(lp2132
g69
(g85
g71
NtRp2133
(dp2134
g74
(dp2135
sg83
g2129
sg76
(lp2136
g69
(g90
g71
NtRp2137
(dp2138
g74
(dp2139
g94
g95
ssg83
g2133
sg76
(lp2140
S'environ'
p2141
asbag69
(g90
g71
NtRp2142
(dp2143
g74
(dp2144
g101
g102
ssg83
g2133
sg76
(lp2145
S':'
asbag69
(g90
g71
NtRp2146
(dp2147
g74
(dp2148
sg83
g2133
sg76
(lp2149
g69
(g70
g71
NtRp2150
(dp2151
g74
(dp2152
g82
I4
ssg83
g2146
sg76
(lp2153
g69
(g78
g71
NtRp2154
(dp2155
g74
(dp2156
g82
I3
ssg83
Nsg76
(lp2157
g69
(g85
g71
NtRp2158
(dp2159
g74
(dp2160
sg83
g2154
sg76
(lp2161
g69
(g90
g71
NtRp2162
(dp2163
g74
(dp2164
g94
g95
ssg83
g2158
sg76
(lp2165
S'HTTP_ACCEPT'
p2166
asbag69
(g90
g71
NtRp2167
(dp2168
g74
(dp2169
g101
g102
ssg83
g2158
sg76
(lp2170
S':'
asbag69
(g90
g71
NtRp2171
(dp2172
g74
(dp2173
sg83
g2158
sg76
(lp2174
g69
(g70
g71
NtRp2175
(dp2176
g74
(dp2177
g82
I3
ssg83
g2171
sg76
(lp2178
g668
asbasbasbag69
(g85
g71
NtRp2179
(dp2180
g74
(dp2181
sg83
g2154
sg76
(lp2182
g69
(g90
g71
NtRp2183
(dp2184
g74
(dp2185
g94
g95
ssg83
g2179
sg76
(lp2186
S'HTTP_ACCEPT_ENCODING'
p2187
asbag69
(g90
g71
NtRp2188
(dp2189
g74
(dp2190
g101
g102
ssg83
g2179
sg76
(lp2191
S':'
asbag69
(g90
g71
NtRp2192
(dp2193
g74
(dp2194
sg83
g2179
sg76
(lp2195
g69
(g70
g71
NtRp2196
(dp2197
g74
(dp2198
g82
I3
ssg83
g2192
sg76
(lp2199
g690
asbasbasbag69
(g85
g71
NtRp2200
(dp2201
g74
(dp2202
sg83
g2154
sg76
(lp2203
g69
(g90
g71
NtRp2204
(dp2205
g74
(dp2206
g94
g95
ssg83
g2200
sg76
(lp2207
S'HTTP_ACCEPT_LANGUAGE'
p2208
asbag69
(g90
g71
NtRp2209
(dp2210
g74
(dp2211
g101
g102
ssg83
g2200
sg76
(lp2212
S':'
asbag69
(g90
g71
NtRp2213
(dp2214
g74
(dp2215
sg83
g2200
sg76
(lp2216
g69
(g70
g71
NtRp2217
(dp2218
g74
(dp2219
g82
I3
ssg83
g2213
sg76
(lp2220
g712
asbasbasbag69
(g85
g71
NtRp2221
(dp2222
g74
(dp2223
sg83
g2154
sg76
(lp2224
g69
(g90
g71
NtRp2225
(dp2226
g74
(dp2227
g94
g95
ssg83
g2221
sg76
(lp2228
S'HTTP_CONNECTION'
p2229
asbag69
(g90
g71
NtRp2230
(dp2231
g74
(dp2232
g101
g102
ssg83
g2221
sg76
(lp2233
S':'
asbag69
(g90
g71
NtRp2234
(dp2235
g74
(dp2236
sg83
g2221
sg76
(lp2237
g69
(g70
g71
NtRp2238
(dp2239
g74
(dp2240
g82
I3
ssg83
g2234
sg76
(lp2241
g734
asbasbasbag69
(g85
g71
NtRp2242
(dp2243
g74
(dp2244
sg83
g2154
sg76
(lp2245
g69
(g90
g71
NtRp2246
(dp2247
g74
(dp2248
g94
g95
ssg83
g2242
sg76
(lp2249
S'HTTP_COOKIE'
p2250
asbag69
(g90
g71
NtRp2251
(dp2252
g74
(dp2253
g101
g102
ssg83
g2242
sg76
(lp2254
S':'
asbag69
(g90
g71
NtRp2255
(dp2256
g74
(dp2257
sg83
g2242
sg76
(lp2258
g69
(g70
g71
NtRp2259
(dp2260
g74
(dp2261
g82
I3
ssg83
g2255
sg76
(lp2262
g756
asbasbasbag69
(g85
g71
NtRp2263
(dp2264
g74
(dp2265
sg83
g2154
sg76
(lp2266
g69
(g90
g71
NtRp2267
(dp2268
g74
(dp2269
g94
g95
ssg83
g2263
sg76
(lp2270
S'HTTP_DNT'
p2271
asbag69
(g90
g71
NtRp2272
(dp2273
g74
(dp2274
g101
g102
ssg83
g2263
sg76
(lp2275
S':'
asbag69
(g90
g71
NtRp2276
(dp2277
g74
(dp2278
sg83
g2263
sg76
(lp2279
g69
(g70
g71
NtRp2280
(dp2281
g74
(dp2282
g82
I3
ssg83
g2276
sg76
(lp2283
S'1'
asbasbasbag69
(g85
g71
NtRp2284
(dp2285
g74
(dp2286
sg83
g2154
sg76
(lp2287
g69
(g90
g71
NtRp2288
(dp2289
g74
(dp2290
g94
g95
ssg83
g2284
sg76
(lp2291
S'HTTP_HOST'
p2292
asbag69
(g90
g71
NtRp2293
(dp2294
g74
(dp2295
g101
g102
ssg83
g2284
sg76
(lp2296
S':'
asbag69
(g90
g71
NtRp2297
(dp2298
g74
(dp2299
sg83
g2284
sg76
(lp2300
g69
(g70
g71
NtRp2301
(dp2302
g74
(dp2303
g82
I3
ssg83
g2297
sg76
(lp2304
g799
asbasbasbag69
(g85
g71
NtRp2305
(dp2306
g74
(dp2307
sg83
g2154
sg76
(lp2308
g69
(g90
g71
NtRp2309
(dp2310
g74
(dp2311
g94
g95
ssg83
g2305
sg76
(lp2312
S'HTTP_USER_AGENT'
p2313
asbag69
(g90
g71
NtRp2314
(dp2315
g74
(dp2316
g101
g102
ssg83
g2305
sg76
(lp2317
S':'
asbag69
(g90
g71
NtRp2318
(dp2319
g74
(dp2320
sg83
g2305
sg76
(lp2321
g69
(g70
g71
NtRp2322
(dp2323
g74
(dp2324
g82
I3
ssg83
g2318
sg76
(lp2325
g821
asbasbasbag69
(g85
g71
NtRp2326
(dp2327
g74
(dp2328
sg83
g2154
sg76
(lp2329
g69
(g90
g71
NtRp2330
(dp2331
g74
(dp2332
g94
g95
ssg83
g2326
sg76
(lp2333
S'HTTP_X_CLICKONCESUPPORT'
p2334
asbag69
(g90
g71
NtRp2335
(dp2336
g74
(dp2337
g101
g102
ssg83
g2326
sg76
(lp2338
S':'
asbag69
(g90
g71
NtRp2339
(dp2340
g74
(dp2341
sg83
g2326
sg76
(lp2342
g69
(g70
g71
NtRp2343
(dp2344
g74
(dp2345
g82
I3
ssg83
g2339
sg76
(lp2346
g843
asbasbasbag69
(g85
g71
NtRp2347
(dp2348
g74
(dp2349
sg83
g2154
sg76
(lp2350
g69
(g90
g71
NtRp2351
(dp2352
g74
(dp2353
g94
g95
ssg83
g2347
sg76
(lp2354
S'PATH_INFO'
p2355
asbag69
(g90
g71
NtRp2356
(dp2357
g74
(dp2358
g101
g102
ssg83
g2347
sg76
(lp2359
S':'
asbag69
(g90
g71
NtRp2360
(dp2361
g74
(dp2362
sg83
g2347
sg76
(lp2363
g69
(g70
g71
NtRp2364
(dp2365
g74
(dp2366
g82
I3
ssg83
g2360
sg76
(lp2367
g907
asbasbasbag69
(g85
g71
NtRp2368
(dp2369
g74
(dp2370
sg83
g2154
sg76
(lp2371
g69
(g90
g71
NtRp2372
(dp2373
g74
(dp2374
g94
g95
ssg83
g2368
sg76
(lp2375
S'QUERY_STRING'
p2376
asbag69
(g90
g71
NtRp2377
(dp2378
g74
(dp2379
g101
g102
ssg83
g2368
sg76
(lp2380
S':'
asbag69
(g90
g71
NtRp2381
(dp2382
g74
(dp2383
sg83
g2368
sg76
(lp2384
g69
(g70
g71
NtRp2385
(dp2386
g74
(dp2387
g82
I3
ssg83
g2381
sg76
(lp2388
S''
asbasbasbag69
(g85
g71
NtRp2389
(dp2390
g74
(dp2391
sg83
g2154
sg76
(lp2392
g69
(g90
g71
NtRp2393
(dp2394
g74
(dp2395
g94
g95
ssg83
g2389
sg76
(lp2396
S'REMOTE_ADDR'
p2397
asbag69
(g90
g71
NtRp2398
(dp2399
g74
(dp2400
g101
g102
ssg83
g2389
sg76
(lp2401
S':'
asbag69
(g90
g71
NtRp2402
(dp2403
g74
(dp2404
sg83
g2389
sg76
(lp2405
g69
(g70
g71
NtRp2406
(dp2407
g74
(dp2408
g82
I3
ssg83
g2402
sg76
(lp2409
g224
asbasbasbag69
(g85
g71
NtRp2410
(dp2411
g74
(dp2412
sg83
g2154
sg76
(lp2413
g69
(g90
g71
NtRp2414
(dp2415
g74
(dp2416
g94
g95
ssg83
g2410
sg76
(lp2417
S'REMOTE_PORT'
p2418
asbag69
(g90
g71
NtRp2419
(dp2420
g74
(dp2421
g101
g102
ssg83
g2410
sg76
(lp2422
S':'
asbag69
(g90
g71
NtRp2423
(dp2424
g74
(dp2425
sg83
g2410
sg76
(lp2426
g69
(g70
g71
NtRp2427
(dp2428
g74
(dp2429
g82
I3
ssg83
g2423
sg76
(lp2430
g971
asbasbasbag69
(g85
g71
NtRp2431
(dp2432
g74
(dp2433
sg83
g2154
sg76
(lp2434
g69
(g90
g71
NtRp2435
(dp2436
g74
(dp2437
g94
g95
ssg83
g2431
sg76
(lp2438
S'REQUEST_METHOD'
p2439
asbag69
(g90
g71
NtRp2440
(dp2441
g74
(dp2442
g101
g102
ssg83
g2431
sg76
(lp2443
S':'
asbag69
(g90
g71
NtRp2444
(dp2445
g74
(dp2446
sg83
g2431
sg76
(lp2447
g69
(g70
g71
NtRp2448
(dp2449
g74
(dp2450
g82
I3
ssg83
g2444
sg76
(lp2451
g993
asbasbasbag69
(g85
g71
NtRp2452
(dp2453
g74
(dp2454
sg83
g2154
sg76
(lp2455
g69
(g90
g71
NtRp2456
(dp2457
g74
(dp2458
g94
g95
ssg83
g2452
sg76
(lp2459
S'REQUEST_URI'
p2460
asbag69
(g90
g71
NtRp2461
(dp2462
g74
(dp2463
g101
g102
ssg83
g2452
sg76
(lp2464
S':'
asbag69
(g90
g71
NtRp2465
(dp2466
g74
(dp2467
sg83
g2452
sg76
(lp2468
g69
(g70
g71
NtRp2469
(dp2470
g74
(dp2471
g82
I3
ssg83
g2465
sg76
(lp2472
g907
asbasbasbag69
(g85
g71
NtRp2473
(dp2474
g74
(dp2475
sg83
g2154
sg76
(lp2476
g69
(g90
g71
NtRp2477
(dp2478
g74
(dp2479
g94
g95
ssg83
g2473
sg76
(lp2480
S'SCRIPT_NAME'
p2481
asbag69
(g90
g71
NtRp2482
(dp2483
g74
(dp2484
g101
g102
ssg83
g2473
sg76
(lp2485
S':'
asbag69
(g90
g71
NtRp2486
(dp2487
g74
(dp2488
sg83
g2473
sg76
(lp2489
g69
(g70
g71
NtRp2490
(dp2491
g74
(dp2492
g82
I3
ssg83
g2486
sg76
(lp2493
S''
asbasbasbag69
(g85
g71
NtRp2494
(dp2495
g74
(dp2496
sg83
g2154
sg76
(lp2497
g69
(g90
g71
NtRp2498
(dp2499
g74
(dp2500
g94
g95
ssg83
g2494
sg76
(lp2501
S'SERVER_NAME'
p2502
asbag69
(g90
g71
NtRp2503
(dp2504
g74
(dp2505
g101
g102
ssg83
g2494
sg76
(lp2506
S':'
asbag69
(g90
g71
NtRp2507
(dp2508
g74
(dp2509
sg83
g2494
sg76
(lp2510
g69
(g70
g71
NtRp2511
(dp2512
g74
(dp2513
g82
I3
ssg83
g2507
sg76
(lp2514
g1057
asbasbasbag69
(g85
g71
NtRp2515
(dp2516
g74
(dp2517
sg83
g2154
sg76
(lp2518
g69
(g90
g71
NtRp2519
(dp2520
g74
(dp2521
g94
g95
ssg83
g2515
sg76
(lp2522
S'SERVER_PORT'
p2523
asbag69
(g90
g71
NtRp2524
(dp2525
g74
(dp2526
g101
g102
ssg83
g2515
sg76
(lp2527
S':'
asbag69
(g90
g71
NtRp2528
(dp2529
g74
(dp2530
sg83
g2515
sg76
(lp2531
g69
(g70
g71
NtRp2532
(dp2533
g74
(dp2534
g82
I3
ssg83
g2528
sg76
(lp2535
g1079
asbasbasbag69
(g85
g71
NtRp2536
(dp2537
g74
(dp2538
sg83
g2154
sg76
(lp2539
g69
(g90
g71
NtRp2540
(dp2541
g74
(dp2542
g94
g95
ssg83
g2536
sg76
(lp2543
S'SERVER_PROTOCOL'
p2544
asbag69
(g90
g71
NtRp2545
(dp2546
g74
(dp2547
g101
g102
ssg83
g2536
sg76
(lp2548
S':'
asbag69
(g90
g71
NtRp2549
(dp2550
g74
(dp2551
sg83
g2536
sg76
(lp2552
g69
(g70
g71
NtRp2553
(dp2554
g74
(dp2555
g82
I3
ssg83
g2549
sg76
(lp2556
g1101
asbasbasbag69
(g85
g71
NtRp2557
(dp2558
g74
(dp2559
sg83
g2154
sg76
(lp2560
g69
(g90
g71
NtRp2561
(dp2562
g74
(dp2563
g94
g95
ssg83
g2557
sg76
(lp2564
S'SERVER_SOFTWARE'
p2565
asbag69
(g90
g71
NtRp2566
(dp2567
g74
(dp2568
g101
g102
ssg83
g2557
sg76
(lp2569
S':'
asbag69
(g90
g71
NtRp2570
(dp2571
g74
(dp2572
sg83
g2557
sg76
(lp2573
g69
(g70
g71
NtRp2574
(dp2575
g74
(dp2576
g82
I3
ssg83
g2570
sg76
(lp2577
g1123
asbasbasbag69
(g85
g71
NtRp2578
(dp2579
g74
(dp2580
sg83
g2154
sg76
(lp2581
g69
(g90
g71
NtRp2582
(dp2583
g74
(dp2584
g94
g95
ssg83
g2578
sg76
(lp2585
S'wsgi.errors'
p2586
asbag69
(g90
g71
NtRp2587
(dp2588
g74
(dp2589
g101
g102
ssg83
g2578
sg76
(lp2590
S':'
asbag69
(g90
g71
NtRp2591
(dp2592
g74
(dp2593
sg83
g2578
sg76
(lp2594
g69
(g70
g71
NtRp2595
(dp2596
g74
(dp2597
g82
I3
ssg83
g2591
sg76
(lp2598
S"<open file '<stderr>', mode 'w' at 0x021D50D0>"
p2599
asbasbasbag69
(g85
g71
NtRp2600
(dp2601
g74
(dp2602
sg83
g2154
sg76
(lp2603
g69
(g90
g71
NtRp2604
(dp2605
g74
(dp2606
g94
g95
ssg83
g2600
sg76
(lp2607
S'wsgi.file_wrapper'
p2608
asbag69
(g90
g71
NtRp2609
(dp2610
g74
(dp2611
g101
g102
ssg83
g2600
sg76
(lp2612
S':'
asbag69
(g90
g71
NtRp2613
(dp2614
g74
(dp2615
sg83
g2600
sg76
(lp2616
g69
(g70
g71
NtRp2617
(dp2618
g74
(dp2619
g82
I3
ssg83
g2613
sg76
(lp2620
S'<class wsgiref.util.FileWrapper at 0x02C1D030>'
p2621
asbasbasbag69
(g85
g71
NtRp2622
(dp2623
g74
(dp2624
sg83
g2154
sg76
(lp2625
g69
(g90
g71
NtRp2626
(dp2627
g74
(dp2628
g94
g95
ssg83
g2622
sg76
(lp2629
S'wsgi.input'
p2630
asbag69
(g90
g71
NtRp2631
(dp2632
g74
(dp2633
g101
g102
ssg83
g2622
sg76
(lp2634
S':'
asbag69
(g90
g71
NtRp2635
(dp2636
g74
(dp2637
sg83
g2622
sg76
(lp2638
g69
(g70
g71
NtRp2639
(dp2640
g74
(dp2641
g82
I3
ssg83
g2635
sg76
(lp2642
S'<cStringIO.StringO object at 0x068D5240>'
p2643
asbasbasbag69
(g85
g71
NtRp2644
(dp2645
g74
(dp2646
sg83
g2154
sg76
(lp2647
g69
(g90
g71
NtRp2648
(dp2649
g74
(dp2650
g94
g95
ssg83
g2644
sg76
(lp2651
S'wsgi.multiprocess'
p2652
asbag69
(g90
g71
NtRp2653
(dp2654
g74
(dp2655
g101
g102
ssg83
g2644
sg76
(lp2656
S':'
asbag69
(g90
g71
NtRp2657
(dp2658
g74
(dp2659
sg83
g2644
sg76
(lp2660
g69
(g70
g71
NtRp2661
(dp2662
g74
(dp2663
g82
I3
ssg83
g2657
sg76
(lp2664
g112
asbasbasbag69
(g85
g71
NtRp2665
(dp2666
g74
(dp2667
sg83
g2154
sg76
(lp2668
g69
(g90
g71
NtRp2669
(dp2670
g74
(dp2671
g94
g95
ssg83
g2665
sg76
(lp2672
S'wsgi.multithread'
p2673
asbag69
(g90
g71
NtRp2674
(dp2675
g74
(dp2676
g101
g102
ssg83
g2665
sg76
(lp2677
S':'
asbag69
(g90
g71
NtRp2678
(dp2679
g74
(dp2680
sg83
g2665
sg76
(lp2681
g69
(g70
g71
NtRp2682
(dp2683
g74
(dp2684
g82
I3
ssg83
g2678
sg76
(lp2685
g1362
asbasbasbag69
(g85
g71
NtRp2686
(dp2687
g74
(dp2688
sg83
g2154
sg76
(lp2689
g69
(g90
g71
NtRp2690
(dp2691
g74
(dp2692
g94
g95
ssg83
g2686
sg76
(lp2693
S'wsgi.run_once'
p2694
asbag69
(g90
g71
NtRp2695
(dp2696
g74
(dp2697
g101
g102
ssg83
g2686
sg76
(lp2698
S':'
asbag69
(g90
g71
NtRp2699
(dp2700
g74
(dp2701
sg83
g2686
sg76
(lp2702
g69
(g70
g71
NtRp2703
(dp2704
g74
(dp2705
g82
I3
ssg83
g2699
sg76
(lp2706
g112
asbasbasbag69
(g85
g71
NtRp2707
(dp2708
g74
(dp2709
sg83
g2154
sg76
(lp2710
g69
(g90
g71
NtRp2711
(dp2712
g74
(dp2713
g94
g95
ssg83
g2707
sg76
(lp2714
S'wsgi.url_scheme'
p2715
asbag69
(g90
g71
NtRp2716
(dp2717
g74
(dp2718
g101
g102
ssg83
g2707
sg76
(lp2719
S':'
asbag69
(g90
g71
NtRp2720
(dp2721
g74
(dp2722
sg83
g2707
sg76
(lp2723
g69
(g70
g71
NtRp2724
(dp2725
g74
(dp2726
g82
I3
ssg83
g2720
sg76
(lp2727
g1405
asbasbasbag69
(g85
g71
NtRp2728
(dp2729
g74
(dp2730
sg83
g2154
sg76
(lp2731
g69
(g90
g71
NtRp2732
(dp2733
g74
(dp2734
g94
g95
ssg83
g2728
sg76
(lp2735
S'wsgi.version'
p2736
asbag69
(g90
g71
NtRp2737
(dp2738
g74
(dp2739
g101
g102
ssg83
g2728
sg76
(lp2740
S':'
asbag69
(g90
g71
NtRp2741
(dp2742
g74
(dp2743
sg83
g2728
sg76
(lp2744
g69
(g70
g71
NtRp2745
(dp2746
g74
(dp2747
g82
I3
ssg83
g2741
sg76
(lp2748
S'1'
asbasbasbasbasbasbasbasbasbasbasbasbasbsS'frames'
p2749
(lp2750
(dp2751
S'file'
p2752
S'C:\\xampp\\htdocs\\web2py\\gluon\\restricted.py'
p2753
sS'dump'
p2754
(dp2755
sS'lnum'
p2756
I208
sS'lines'
p2757
(dp2758
sS'call'
p2759
S"(code='# -*- coding: utf-8 -*-\\nfrom gluon.custom_import...ble auditing\\n# auth.enable_record_versioning(db)\\n', environment={'A': <class 'gluon.html.A'>, 'B': <class 'gluon.html.B'>, 'BEAUTIFY': <class 'gluon.html.BEAUTIFY'>, 'BODY': <class 'gluon.html.BODY'>, 'BR': <class 'gluon.html.BR'>, 'BUTTON': <class 'gluon.html.BUTTON'>, 'CAT': <class 'gluon.html.CAT'>, 'CENTER': <class 'gluon.html.CENTER'>, 'CLEANUP': <class 'gluon.validators.CLEANUP'>, 'CODE': <class 'gluon.html.CODE'>, ...}, layer=r'C:\\xampp\\htdocs\\web2py\\applications\\testumgebung\\models\\db.py')"
p2760
sS'func'
p2761
S'restricted'
p2762
sa(dp2763
g2752
S'C:\\xampp\\htdocs\\web2py\\gluon\\restricted.py'
p2764
sg2754
(dp2765
sg2756
I193
sg2757
(dp2766
sg2759
S"(code='# -*- coding: utf-8 -*-\\nfrom gluon.custom_import...ble auditing\\n# auth.enable_record_versioning(db)\\n', layer=r'C:\\xampp\\htdocs\\web2py\\applications\\testumgebung\\models\\db.py')"
p2767
sg2761
S'compile2'
p2768
sasS'pyver'
p2769
S'Python 2.7: C:\\xampp\\htdocs\\web2py\\web2py.exe'
p2770
sS'session'
p2771
g69
(g70
g71
NtRp2772
(dp2773
g74
(dp2774
sg76
(lp2775
g69
(g78
g71
NtRp2776
(dp2777
g74
(dp2778
g82
I5
ssg83
Nsg76
(lp2779
sbasbsS'etype'
p2780
S"<type 'exceptions.SyntaxError'>"
p2781
sS'date'
p2782
S'Fri Dec 14 15:58:26 2012'
p2783
sS'response'
p2784
g69
(g70
g71
NtRp2785
(dp2786
g74
(dp2787
sg76
(lp2788
g69
(g78
g71
NtRp2789
(dp2790
g74
(dp2791
g82
I5
ssg83
Nsg76
(lp2792
g69
(g85
g71
NtRp2793
(dp2794
g74
(dp2795
sg83
g2789
sg76
(lp2796
g69
(g90
g71
NtRp2797
(dp2798
g74
(dp2799
g94
g95
ssg83
g2793
sg76
(lp2800
g167
asbag69
(g90
g71
NtRp2801
(dp2802
g74
(dp2803
g101
g102
ssg83
g2793
sg76
(lp2804
S':'
asbag69
(g90
g71
NtRp2805
(dp2806
g74
(dp2807
sg83
g2793
sg76
(lp2808
g69
(g70
g71
NtRp2809
(dp2810
g74
(dp2811
g82
I5
ssg83
g2805
sg76
(lp2812
S'<cStringIO.StringO object at 0x068D5460>'
p2813
asbasbasbag69
(g85
g71
NtRp2814
(dp2815
g74
(dp2816
sg83
g2789
sg76
(lp2817
g69
(g90
g71
NtRp2818
(dp2819
g74
(dp2820
g94
g95
ssg83
g2814
sg76
(lp2821
g255
asbag69
(g90
g71
NtRp2822
(dp2823
g74
(dp2824
g101
g102
ssg83
g2814
sg76
(lp2825
S':'
asbag69
(g90
g71
NtRp2826
(dp2827
g74
(dp2828
sg83
g2814
sg76
(lp2829
g69
(g70
g71
NtRp2830
(dp2831
g74
(dp2832
g82
I5
ssg83
g2826
sg76
(lp2833
g69
(g78
g71
NtRp2834
(dp2835
g74
(dp2836
g82
I4
ssg83
Nsg76
(lp2837
g69
(g85
g71
NtRp2838
(dp2839
g74
(dp2840
sg83
g2834
sg76
(lp2841
g69
(g90
g71
NtRp2842
(dp2843
g74
(dp2844
g94
g95
ssg83
g2838
sg76
(lp2845
S'session_id_testumgebung'
p2846
asbag69
(g90
g71
NtRp2847
(dp2848
g74
(dp2849
g101
g102
ssg83
g2838
sg76
(lp2850
S':'
asbag69
(g90
g71
NtRp2851
(dp2852
g74
(dp2853
sg83
g2838
sg76
(lp2854
g69
(g70
g71
NtRp2855
(dp2856
g74
(dp2857
g82
I4
ssg83
g2851
sg76
(lp2858
S'10.0.0.109-d3d2ae4a-363d-44ec-a1d2-aca30cba4d35'
p2859
ag69
(g78
g71
NtRp2860
(dp2861
g74
(dp2862
g82
I3
ssg83
Nsg76
(lp2863
g69
(g85
g71
NtRp2864
(dp2865
g74
(dp2866
sg83
g2860
sg76
(lp2867
g69
(g90
g71
NtRp2868
(dp2869
g74
(dp2870
g94
g95
ssg83
g2864
sg76
(lp2871
g306
asbag69
(g90
g71
NtRp2872
(dp2873
g74
(dp2874
g101
g102
ssg83
g2864
sg76
(lp2875
S':'
asbag69
(g90
g71
NtRp2876
(dp2877
g74
(dp2878
sg83
g2864
sg76
(lp2879
g69
(g70
g71
NtRp2880
(dp2881
g74
(dp2882
g82
I3
ssg83
g2876
sg76
(lp2883
S''
asbasbasbag69
(g85
g71
NtRp2884
(dp2885
g74
(dp2886
sg83
g2860
sg76
(lp2887
g69
(g90
g71
NtRp2888
(dp2889
g74
(dp2890
g94
g95
ssg83
g2884
sg76
(lp2891
g327
asbag69
(g90
g71
NtRp2892
(dp2893
g74
(dp2894
g101
g102
ssg83
g2884
sg76
(lp2895
S':'
asbag69
(g90
g71
NtRp2896
(dp2897
g74
(dp2898
sg83
g2884
sg76
(lp2899
g69
(g70
g71
NtRp2900
(dp2901
g74
(dp2902
g82
I3
ssg83
g2896
sg76
(lp2903
S''
asbasbasbag69
(g85
g71
NtRp2904
(dp2905
g74
(dp2906
sg83
g2860
sg76
(lp2907
g69
(g90
g71
NtRp2908
(dp2909
g74
(dp2910
g94
g95
ssg83
g2904
sg76
(lp2911
g348
asbag69
(g90
g71
NtRp2912
(dp2913
g74
(dp2914
g101
g102
ssg83
g2904
sg76
(lp2915
S':'
asbag69
(g90
g71
NtRp2916
(dp2917
g74
(dp2918
sg83
g2904
sg76
(lp2919
g69
(g70
g71
NtRp2920
(dp2921
g74
(dp2922
g82
I3
ssg83
g2916
sg76
(lp2923
S''
asbasbasbag69
(g85
g71
NtRp2924
(dp2925
g74
(dp2926
sg83
g2860
sg76
(lp2927
g69
(g90
g71
NtRp2928
(dp2929
g74
(dp2930
g94
g95
ssg83
g2924
sg76
(lp2931
g369
asbag69
(g90
g71
NtRp2932
(dp2933
g74
(dp2934
g101
g102
ssg83
g2924
sg76
(lp2935
S':'
asbag69
(g90
g71
NtRp2936
(dp2937
g74
(dp2938
sg83
g2924
sg76
(lp2939
g69
(g70
g71
NtRp2940
(dp2941
g74
(dp2942
g82
I3
ssg83
g2936
sg76
(lp2943
S''
asbasbasbag69
(g85
g71
NtRp2944
(dp2945
g74
(dp2946
sg83
g2860
sg76
(lp2947
g69
(g90
g71
NtRp2948
(dp2949
g74
(dp2950
g94
g95
ssg83
g2944
sg76
(lp2951
g390
asbag69
(g90
g71
NtRp2952
(dp2953
g74
(dp2954
g101
g102
ssg83
g2944
sg76
(lp2955
S':'
asbag69
(g90
g71
NtRp2956
(dp2957
g74
(dp2958
sg83
g2944
sg76
(lp2959
g69
(g70
g71
NtRp2960
(dp2961
g74
(dp2962
g82
I3
ssg83
g2956
sg76
(lp2963
S''
asbasbasbag69
(g85
g71
NtRp2964
(dp2965
g74
(dp2966
sg83
g2860
sg76
(lp2967
g69
(g90
g71
NtRp2968
(dp2969
g74
(dp2970
g94
g95
ssg83
g2964
sg76
(lp2971
g411
asbag69
(g90
g71
NtRp2972
(dp2973
g74
(dp2974
g101
g102
ssg83
g2964
sg76
(lp2975
S':'
asbag69
(g90
g71
NtRp2976
(dp2977
g74
(dp2978
sg83
g2964
sg76
(lp2979
g69
(g70
g71
NtRp2980
(dp2981
g74
(dp2982
g82
I3
ssg83
g2976
sg76
(lp2983
S'/'
asbasbasbag69
(g85
g71
NtRp2984
(dp2985
g74
(dp2986
sg83
g2860
sg76
(lp2987
g69
(g90
g71
NtRp2988
(dp2989
g74
(dp2990
g94
g95
ssg83
g2984
sg76
(lp2991
g432
asbag69
(g90
g71
NtRp2992
(dp2993
g74
(dp2994
g101
g102
ssg83
g2984
sg76
(lp2995
S':'
asbag69
(g90
g71
NtRp2996
(dp2997
g74
(dp2998
sg83
g2984
sg76
(lp2999
g69
(g70
g71
NtRp3000
(dp3001
g74
(dp3002
g82
I3
ssg83
g2996
sg76
(lp3003
S''
asbasbasbag69
(g85
g71
NtRp3004
(dp3005
g74
(dp3006
sg83
g2860
sg76
(lp3007
g69
(g90
g71
NtRp3008
(dp3009
g74
(dp3010
g94
g95
ssg83
g3004
sg76
(lp3011
g453
asbag69
(g90
g71
NtRp3012
(dp3013
g74
(dp3014
g101
g102
ssg83
g3004
sg76
(lp3015
S':'
asbag69
(g90
g71
NtRp3016
(dp3017
g74
(dp3018
sg83
g3004
sg76
(lp3019
g69
(g70
g71
NtRp3020
(dp3021
g74
(dp3022
g82
I3
ssg83
g3016
sg76
(lp3023
S''
asbasbasbasbasbasbasbasbasbasbasbag69
(g85
g71
NtRp3024
(dp3025
g74
(dp3026
sg83
g2789
sg76
(lp3027
g69
(g90
g71
NtRp3028
(dp3029
g74
(dp3030
g94
g95
ssg83
g3024
sg76
(lp3031
S'delimiters'
p3032
asbag69
(g90
g71
NtRp3033
(dp3034
g74
(dp3035
g101
g102
ssg83
g3024
sg76
(lp3036
S':'
asbag69
(g90
g71
NtRp3037
(dp3038
g74
(dp3039
sg83
g3024
sg76
(lp3040
g69
(g70
g71
NtRp3041
(dp3042
g74
(dp3043
g82
I5
ssg83
g3037
sg76
(lp3044
g69
(g78
g71
NtRp3045
(dp3046
g74
(dp3047
g82
I4
ssg83
Nsg76
(lp3048
g69
(g85
g71
NtRp3049
(dp3050
g74
(dp3051
sg83
g3045
sg76
(lp3052
g69
(g90
g71
NtRp3053
(dp3054
g74
(dp3055
sg83
g3049
sg76
(lp3056
g69
(g70
g71
NtRp3057
(dp3058
g74
(dp3059
g82
I4
ssg83
g3053
sg76
(lp3060
S'{{'
p3061
asbasbasbag69
(g85
g71
NtRp3062
(dp3063
g74
(dp3064
sg83
g3045
sg76
(lp3065
g69
(g90
g71
NtRp3066
(dp3067
g74
(dp3068
sg83
g3062
sg76
(lp3069
g69
(g70
g71
NtRp3070
(dp3071
g74
(dp3072
g82
I4
ssg83
g3066
sg76
(lp3073
S'}}'
p3074
asbasbasbasbasbasbasbag69
(g85
g71
NtRp3075
(dp3076
g74
(dp3077
sg83
g2789
sg76
(lp3078
g69
(g90
g71
NtRp3079
(dp3080
g74
(dp3081
g94
g95
ssg83
g3075
sg76
(lp3082
S'files'
p3083
asbag69
(g90
g71
NtRp3084
(dp3085
g74
(dp3086
g101
g102
ssg83
g3075
sg76
(lp3087
S':'
asbag69
(g90
g71
NtRp3088
(dp3089
g74
(dp3090
sg83
g3075
sg76
(lp3091
g69
(g70
g71
NtRp3092
(dp3093
g74
(dp3094
g82
I5
ssg83
g3088
sg76
(lp3095
g69
(g78
g71
NtRp3096
(dp3097
g74
(dp3098
g82
I4
ssg83
Nsg76
(lp3099
sbasbasbasbag69
(g85
g71
NtRp3100
(dp3101
g74
(dp3102
sg83
g2789
sg76
(lp3103
g69
(g90
g71
NtRp3104
(dp3105
g74
(dp3106
g94
g95
ssg83
g3100
sg76
(lp3107
S'flash'
p3108
asbag69
(g90
g71
NtRp3109
(dp3110
g74
(dp3111
g101
g102
ssg83
g3100
sg76
(lp3112
S':'
asbag69
(g90
g71
NtRp3113
(dp3114
g74
(dp3115
sg83
g3100
sg76
(lp3116
g69
(g70
g71
NtRp3117
(dp3118
g74
(dp3119
g82
I5
ssg83
g3113
sg76
(lp3120
S''
asbasbasbag69
(g85
g71
NtRp3121
(dp3122
g74
(dp3123
sg83
g2789
sg76
(lp3124
g69
(g90
g71
NtRp3125
(dp3126
g74
(dp3127
g94
g95
ssg83
g3121
sg76
(lp3128
S'generic_patterns'
p3129
asbag69
(g90
g71
NtRp3130
(dp3131
g74
(dp3132
g101
g102
ssg83
g3121
sg76
(lp3133
S':'
asbag69
(g90
g71
NtRp3134
(dp3135
g74
(dp3136
sg83
g3121
sg76
(lp3137
g69
(g70
g71
NtRp3138
(dp3139
g74
(dp3140
g82
I5
ssg83
g3134
sg76
(lp3141
g69
(g78
g71
NtRp3142
(dp3143
g74
(dp3144
g82
I4
ssg83
Nsg76
(lp3145
sbasbasbasbag69
(g85
g71
NtRp3146
(dp3147
g74
(dp3148
sg83
g2789
sg76
(lp3149
g69
(g90
g71
NtRp3150
(dp3151
g74
(dp3152
g94
g95
ssg83
g3146
sg76
(lp3153
S'headers'
p3154
asbag69
(g90
g71
NtRp3155
(dp3156
g74
(dp3157
g101
g102
ssg83
g3146
sg76
(lp3158
S':'
asbag69
(g90
g71
NtRp3159
(dp3160
g74
(dp3161
sg83
g3146
sg76
(lp3162
g69
(g70
g71
NtRp3163
(dp3164
g74
(dp3165
g82
I5
ssg83
g3159
sg76
(lp3166
g69
(g78
g71
NtRp3167
(dp3168
g74
(dp3169
g82
I4
ssg83
Nsg76
(lp3170
g69
(g85
g71
NtRp3171
(dp3172
g74
(dp3173
sg83
g3167
sg76
(lp3174
g69
(g90
g71
NtRp3175
(dp3176
g74
(dp3177
g94
g95
ssg83
g3171
sg76
(lp3178
S'Cache-Control'
p3179
asbag69
(g90
g71
NtRp3180
(dp3181
g74
(dp3182
g101
g102
ssg83
g3171
sg76
(lp3183
S':'
asbag69
(g90
g71
NtRp3184
(dp3185
g74
(dp3186
sg83
g3171
sg76
(lp3187
g69
(g70
g71
NtRp3188
(dp3189
g74
(dp3190
g82
I4
ssg83
g3184
sg76
(lp3191
S'no-store, no-cache, must-revalidate, post-check=0, pre-check=0'
p3192
asbasbasbag69
(g85
g71
NtRp3193
(dp3194
g74
(dp3195
sg83
g3167
sg76
(lp3196
g69
(g90
g71
NtRp3197
(dp3198
g74
(dp3199
g94
g95
ssg83
g3193
sg76
(lp3200
S'Content-Type'
p3201
asbag69
(g90
g71
NtRp3202
(dp3203
g74
(dp3204
g101
g102
ssg83
g3193
sg76
(lp3205
S':'
asbag69
(g90
g71
NtRp3206
(dp3207
g74
(dp3208
sg83
g3193
sg76
(lp3209
g69
(g70
g71
NtRp3210
(dp3211
g74
(dp3212
g82
I4
ssg83
g3206
sg76
(lp3213
S'text/html; charset=utf-8'
p3214
asbasbasbag69
(g85
g71
NtRp3215
(dp3216
g74
(dp3217
sg83
g3167
sg76
(lp3218
g69
(g90
g71
NtRp3219
(dp3220
g74
(dp3221
g94
g95
ssg83
g3215
sg76
(lp3222
S'Expires'
p3223
asbag69
(g90
g71
NtRp3224
(dp3225
g74
(dp3226
g101
g102
ssg83
g3215
sg76
(lp3227
S':'
asbag69
(g90
g71
NtRp3228
(dp3229
g74
(dp3230
sg83
g3215
sg76
(lp3231
g69
(g70
g71
NtRp3232
(dp3233
g74
(dp3234
g82
I4
ssg83
g3228
sg76
(lp3235
S'Fri, 14 Dec 2012 14:58:26 GMT'
p3236
asbasbasbag69
(g85
g71
NtRp3237
(dp3238
g74
(dp3239
sg83
g3167
sg76
(lp3240
g69
(g90
g71
NtRp3241
(dp3242
g74
(dp3243
g94
g95
ssg83
g3237
sg76
(lp3244
S'Pragma'
p3245
asbag69
(g90
g71
NtRp3246
(dp3247
g74
(dp3248
g101
g102
ssg83
g3237
sg76
(lp3249
S':'
asbag69
(g90
g71
NtRp3250
(dp3251
g74
(dp3252
sg83
g3237
sg76
(lp3253
g69
(g70
g71
NtRp3254
(dp3255
g74
(dp3256
g82
I4
ssg83
g3250
sg76
(lp3257
S'no-cache'
p3258
asbasbasbag69
(g85
g71
NtRp3259
(dp3260
g74
(dp3261
sg83
g3167
sg76
(lp3262
g69
(g90
g71
NtRp3263
(dp3264
g74
(dp3265
g94
g95
ssg83
g3259
sg76
(lp3266
S'X-Powered-By'
p3267
asbag69
(g90
g71
NtRp3268
(dp3269
g74
(dp3270
g101
g102
ssg83
g3259
sg76
(lp3271
S':'
asbag69
(g90
g71
NtRp3272
(dp3273
g74
(dp3274
sg83
g3259
sg76
(lp3275
g69
(g70
g71
NtRp3276
(dp3277
g74
(dp3278
g82
I4
ssg83
g3272
sg76
(lp3279
S'web2py'
p3280
asbasbasbasbasbasbasbag69
(g85
g71
NtRp3281
(dp3282
g74
(dp3283
sg83
g2789
sg76
(lp3284
g69
(g90
g71
NtRp3285
(dp3286
g74
(dp3287
g94
g95
ssg83
g3281
sg76
(lp3288
S'menu'
p3289
asbag69
(g90
g71
NtRp3290
(dp3291
g74
(dp3292
g101
g102
ssg83
g3281
sg76
(lp3293
S':'
asbag69
(g90
g71
NtRp3294
(dp3295
g74
(dp3296
sg83
g3281
sg76
(lp3297
g69
(g70
g71
NtRp3298
(dp3299
g74
(dp3300
g82
I5
ssg83
g3294
sg76
(lp3301
g69
(g78
g71
NtRp3302
(dp3303
g74
(dp3304
g82
I4
ssg83
Nsg76
(lp3305
sbasbasbasbag69
(g85
g71
NtRp3306
(dp3307
g74
(dp3308
sg83
g2789
sg76
(lp3309
g69
(g90
g71
NtRp3310
(dp3311
g74
(dp3312
g94
g95
ssg83
g3306
sg76
(lp3313
S'meta'
p3314
asbag69
(g90
g71
NtRp3315
(dp3316
g74
(dp3317
g101
g102
ssg83
g3306
sg76
(lp3318
S':'
asbag69
(g90
g71
NtRp3319
(dp3320
g74
(dp3321
sg83
g3306
sg76
(lp3322
g69
(g70
g71
NtRp3323
(dp3324
g74
(dp3325
g82
I5
ssg83
g3319
sg76
(lp3326
g69
(g78
g71
NtRp3327
(dp3328
g74
(dp3329
g82
I4
ssg83
Nsg76
(lp3330
sbasbasbasbag69
(g85
g71
NtRp3331
(dp3332
g74
(dp3333
sg83
g2789
sg76
(lp3334
g69
(g90
g71
NtRp3335
(dp3336
g74
(dp3337
g94
g95
ssg83
g3331
sg76
(lp3338
S'postprocessing'
p3339
asbag69
(g90
g71
NtRp3340
(dp3341
g74
(dp3342
g101
g102
ssg83
g3331
sg76
(lp3343
S':'
asbag69
(g90
g71
NtRp3344
(dp3345
g74
(dp3346
sg83
g3331
sg76
(lp3347
g69
(g70
g71
NtRp3348
(dp3349
g74
(dp3350
g82
I5
ssg83
g3344
sg76
(lp3351
g69
(g78
g71
NtRp3352
(dp3353
g74
(dp3354
g82
I4
ssg83
Nsg76
(lp3355
sbasbasbasbag69
(g85
g71
NtRp3356
(dp3357
g74
(dp3358
sg83
g2789
sg76
(lp3359
g69
(g90
g71
NtRp3360
(dp3361
g74
(dp3362
g94
g95
ssg83
g3356
sg76
(lp3363
S'session_filename'
p3364
asbag69
(g90
g71
NtRp3365
(dp3366
g74
(dp3367
g101
g102
ssg83
g3356
sg76
(lp3368
S':'
asbag69
(g90
g71
NtRp3369
(dp3370
g74
(dp3371
sg83
g3356
sg76
(lp3372
g69
(g70
g71
NtRp3373
(dp3374
g74
(dp3375
g82
I5
ssg83
g3369
sg76
(lp3376
S'C:\\xampp\\htdocs\\web2py\\applications\\testumgebung\\sessions\\10.0.0.109-d3d2ae4a-363d-44ec-a1d2-aca30cba4d35'
p3377
asbasbasbag69
(g85
g71
NtRp3378
(dp3379
g74
(dp3380
sg83
g2789
sg76
(lp3381
g69
(g90
g71
NtRp3382
(dp3383
g74
(dp3384
g94
g95
ssg83
g3378
sg76
(lp3385
S'session_id'
p3386
asbag69
(g90
g71
NtRp3387
(dp3388
g74
(dp3389
g101
g102
ssg83
g3378
sg76
(lp3390
S':'
asbag69
(g90
g71
NtRp3391
(dp3392
g74
(dp3393
sg83
g3378
sg76
(lp3394
g69
(g70
g71
NtRp3395
(dp3396
g74
(dp3397
g82
I5
ssg83
g3391
sg76
(lp3398
g2859
asbasbasbag69
(g85
g71
NtRp3399
(dp3400
g74
(dp3401
sg83
g2789
sg76
(lp3402
g69
(g90
g71
NtRp3403
(dp3404
g74
(dp3405
g94
g95
ssg83
g3399
sg76
(lp3406
S'session_id_name'
p3407
asbag69
(g90
g71
NtRp3408
(dp3409
g74
(dp3410
g101
g102
ssg83
g3399
sg76
(lp3411
S':'
asbag69
(g90
g71
NtRp3412
(dp3413
g74
(dp3414
sg83
g3399
sg76
(lp3415
g69
(g70
g71
NtRp3416
(dp3417
g74
(dp3418
g82
I5
ssg83
g3412
sg76
(lp3419
g2846
asbasbasbag69
(g85
g71
NtRp3420
(dp3421
g74
(dp3422
sg83
g2789
sg76
(lp3423
g69
(g90
g71
NtRp3424
(dp3425
g74
(dp3426
g94
g95
ssg83
g3420
sg76
(lp3427
S'session_new'
p3428
asbag69
(g90
g71
NtRp3429
(dp3430
g74
(dp3431
g101
g102
ssg83
g3420
sg76
(lp3432
S':'
asbag69
(g90
g71
NtRp3433
(dp3434
g74
(dp3435
sg83
g3420
sg76
(lp3436
g69
(g70
g71
NtRp3437
(dp3438
g74
(dp3439
g82
I5
ssg83
g3433
sg76
(lp3440
g1362
asbasbasbag69
(g85
g71
NtRp3441
(dp3442
g74
(dp3443
sg83
g2789
sg76
(lp3444
g69
(g90
g71
NtRp3445
(dp3446
g74
(dp3447
g94
g95
ssg83
g3441
sg76
(lp3448
S'status'
p3449
asbag69
(g90
g71
NtRp3450
(dp3451
g74
(dp3452
g101
g102
ssg83
g3441
sg76
(lp3453
S':'
asbag69
(g90
g71
NtRp3454
(dp3455
g74
(dp3456
sg83
g3441
sg76
(lp3457
g69
(g70
g71
NtRp3458
(dp3459
g74
(dp3460
g82
I5
ssg83
g3454
sg76
(lp3461
S'200'
p3462
asbasbasbag69
(g85
g71
NtRp3463
(dp3464
g74
(dp3465
sg83
g2789
sg76
(lp3466
g69
(g90
g71
NtRp3467
(dp3468
g74
(dp3469
g94
g95
ssg83
g3463
sg76
(lp3470
S'view'
p3471
asbag69
(g90
g71
NtRp3472
(dp3473
g74
(dp3474
g101
g102
ssg83
g3463
sg76
(lp3475
S':'
asbag69
(g90
g71
NtRp3476
(dp3477
g74
(dp3478
sg83
g3463
sg76
(lp3479
g69
(g70
g71
NtRp3480
(dp3481
g74
(dp3482
g82
I5
ssg83
g3476
sg76
(lp3483
S'default/index.html'
p3484
asbasbasbasbasbsS'locals'
p3485
(dp3486
g4
S"r'C:\\xampp\\htdocs\\web2py\\applications\\testumgebung\\models\\db.py'"
p3487
sg6
S"'# -*- coding: utf-8 -*-\\nfrom gluon.custom_import...ble auditing\\n# auth.enable_record_versioning(db)\\n'"
p3488
sssS'traceback'
p3489
S'Traceback (most recent call last):\n  File "gluon/restricted.py", line 208, in restricted\n  File "gluon/restricted.py", line 193, in compile2\n  File "C:\\xampp\\htdocs\\web2py\\applications\\testumgebung\\models\\db.py", line 104\n    DIV(*[] for i in range(1,6))\n              ^\nSyntaxError: invalid syntax\n'
p3490
s.