(dp1
S'output'
p2
S"<type 'exceptions.SyntaxError'> invalid syntax (db.py, line 104)"
p3
sS'layer'
p4
S'C:\\xampp\\htdocs\\web2py\\applications\\testumgebung\\models\\db.py'
p5
sS'code'
p6
S'# -*- coding: utf-8 -*-\nfrom gluon.custom_import import track_changes; track_changes(True) #todo: raus, wenn man online geht.\n#########################################################################\n## This scaffolding model makes your app work on Google App Engine too\n## File is released under public domain and you can use without limitations\n#########################################################################\n\n## if SSL/HTTPS is properly configured and you want all HTTP requests to\n## be redirected to HTTPS, uncomment the line below:\n# request.requires_https()\n\nif not request.env.web2py_runtime_gae:\n    ## if NOT running on Google App Engine use SQLite or other DB\n    db = DAL(\'sqlite://storage.sqlite\')\nelse:\n    ## connect to Google BigTable (optional \'google:datastore://namespace\')\n    db = DAL(\'google:datastore\')\n    ## store sessions and tickets there\n    session.connect(request, response, db = db)\n    ## or store session in Memcache, Redis, etc.\n    ## from gluon.contrib.memdb import MEMDB\n    ## from google.appengine.api.memcache import Client\n    ## session.connect(request, response, db = MEMDB(Client()))\n\n## by default give a view/generic.extension to all actions from localhost\n## none otherwise. a pattern can be \'controller/function.extension\'\nresponse.generic_patterns = [\'*\'] if request.is_local else []\n## (optional) optimize handling of static files\n# response.optimize_css = \'concat,minify,inline\'\n# response.optimize_js = \'concat,minify,inline\'\n\n#########################################################################\n## Here is sample code if you need for\n## - email capabilities\n## - authentication (registration, login, logout, ... )\n## - authorization (role based authorization)\n## - services (xml, csv, json, xmlrpc, jsonrpc, amf, rss)\n## - old style crud actions\n## (more options discussed in gluon/tools.py)\n#########################################################################\n\nfrom gluon.tools import Auth, Crud, Service, PluginManager, prettydate\nauth = Auth(db)\ncrud, service, plugins = Crud(db), Service(), PluginManager()\n\n## create all tables needed by auth if not custom tables\nauth.define_tables(username=False, signature=False)\n\n## configure email\nmail=auth.settings.mailer\nmail.settings.server = \'logging\' or \'smtp.gmail.com:587\'\nmail.settings.sender = \'you@gmail.com\'\nmail.settings.login = \'username:password\'\n\n## configure auth policy\nauth.settings.registration_requires_verification = False\nauth.settings.registration_requires_approval = False\nauth.settings.reset_password_requires_verification = True\n\n## if you need to use OpenID, Facebook, MySpace, Twitter, Linkedin, etc.\n## register with janrain.com, write your domain:api_key in private/janrain.key\nfrom gluon.contrib.login_methods.rpx_account import use_janrain\nuse_janrain(auth,filename=\'private/janrain.key\')\n\n#########################################################################\n## Define your tables below (or better in another model file) for example\n##\n## >>> db.define_table(\'mytable\',Field(\'myfield\',\'string\'))\n##\n## Fields can be \'string\',\'text\',\'password\',\'integer\',\'double\',\'boolean\'\n##       \'date\',\'time\',\'datetime\',\'blob\',\'upload\', \'reference TABLENAME\'\n## There is an implicit \'id integer autoincrement\' field\n## Consult manual for more options, validators, etc.\n##\n## More API examples for controllers:\n##\n## >>> db.mytable.insert(myfield=\'value\')\n## >>> rows=db(db.mytable.myfield==\'value\').select(db.mytable.ALL)\n## >>> for row in rows: print row.id, row.myfield\n#########################################################################\n\n\ndb.define_table("questions", \n                Field(\'title\', \'string\'))\n\ndb.define_table("answers",\n                Field("itemID", db.questions, requires = IS_IN_DB(db,db.questions.id,\'%(title)s\', error_message=T(\'Bitte w\xc3\xa4hlen Sie eine Frage aus\')), label = T(\'Frage\')),\n                Field(\'scale\', \'integer\', requires=IS_IN_SET({1:T(\'Trifft gar nicht zu\'),2:T(\'Trifft nicht zu\'), 3:T(\'teils-teils\'), 4:T(\'Trifft zu\'), 5:T(\'Trifft total zu\')})))\n\n\ndb.define_table("answers_smiley",\n                Field("itemID", db.questions, requires = IS_IN_DB(db,db.questions.id,\'%(title)s\', error_message=T(\'Bitte w\xc3\xa4hlen Sie eine Frage aus\')), label = T(\'Frage\')),\n                Field(\'scale\', \'integer\', requires=IS_IN_SET(range(1,6))))\n\ndb.define_table(\'answers_stars\',\n    Field(\'rating\', \'integer\',\n          requires=IS_IN_SET(range(1, 6)),  # "requires" is necessary for the rating widget\n))\n\n#db.questions.scale.widget = LikertWidget()\n\n\ndb.answers_stars.rating.represent = lambda v: \\\n    DIV(*[] for i in range(1,6))\n\n## after defining tables, uncomment below to enable auditing\n# auth.enable_record_versioning(db)\n'
p7
sS'snapshot'
p8
(dp9
S'exception'
p10
(dp11
S'__getslice__'
p12
S"<method-wrapper '__getslice__' of exceptions.SyntaxError object>"
p13
sS'text'
p14
S"'    DIV(*[] for i in range(1,6))\\n'"
p15
sS'__str__'
p16
S"<method-wrapper '__str__' of exceptions.SyntaxError object>"
p17
sS'__reduce__'
p18
S'<built-in method __reduce__ of exceptions.SyntaxError object>'
p19
sS'__dict__'
p20
S'{}'
p21
sS'__sizeof__'
p22
S'<built-in method __sizeof__ of exceptions.SyntaxError object>'
p23
sS'__init__'
p24
S"<method-wrapper '__init__' of exceptions.SyntaxError object>"
p25
sS'__setattr__'
p26
S"<method-wrapper '__setattr__' of exceptions.SyntaxError object>"
p27
sS'__reduce_ex__'
p28
S'<built-in method __reduce_ex__ of exceptions.SyntaxError object>'
p29
sS'__new__'
p30
S'<built-in method __new__ of type object>'
p31
sS'__format__'
p32
S'<built-in method __format__ of exceptions.SyntaxError object>'
p33
sS'__class__'
p34
S"<type 'exceptions.SyntaxError'>"
p35
sS'filename'
p36
S"r'C:\\xampp\\htdocs\\web2py\\applications\\testumgebung\\models\\db.py'"
p37
sS'lineno'
p38
S'104'
p39
sS'msg'
p40
S"'invalid syntax'"
p41
sS'__doc__'
p42
S"'Invalid syntax.'"
p43
sS'__getitem__'
p44
S"<method-wrapper '__getitem__' of exceptions.SyntaxError object>"
p45
sS'__setstate__'
p46
S'<built-in method __setstate__ of exceptions.SyntaxError object>'
p47
sS'__getattribute__'
p48
S"<method-wrapper '__getattribute__' of exceptions.SyntaxError object>"
p49
sS'print_file_and_line'
p50
S'None'
p51
sS'args'
p52
S"('invalid syntax', (r'C:\\xampp\\htdocs\\web2py\\applications\\testumgebung\\models\\db.py', 104, 15, '    DIV(*[] for i in range(1,6))\\n'))"
p53
sS'__subclasshook__'
p54
S'<built-in method __subclasshook__ of type object>'
p55
sS'offset'
p56
S'15'
p57
sS'__unicode__'
p58
S'<built-in method __unicode__ of exceptions.SyntaxError object>'
p59
sS'__delattr__'
p60
S"<method-wrapper '__delattr__' of exceptions.SyntaxError object>"
p61
sS'__repr__'
p62
S"<method-wrapper '__repr__' of exceptions.SyntaxError object>"
p63
sS'__hash__'
p64
S"<method-wrapper '__hash__' of exceptions.SyntaxError object>"
p65
ssS'evalue'
p66
S'invalid syntax (db.py, line 104)'
p67
sS'request'
p68
ccopy_reg
_reconstructor
p69
(cgluon.html
BEAUTIFY
p70
c__builtin__
object
p71
NtRp72
(dp73
S'attributes'
p74
(dp75
sS'components'
p76
(lp77
g69
(cgluon.html
TABLE
p78
g71
NtRp79
(dp80
g74
(dp81
S'level'
p82
I5
ssS'parent'
p83
Nsg76
(lp84
g69
(cgluon.html
TR
p85
g71
NtRp86
(dp87
g74
(dp88
sg83
g79
sg76
(lp89
g69
(cgluon.html
TD
p90
g71
NtRp91
(dp92
g74
(dp93
S'_style'
p94
S'font-weight:bold;vertical-align:top'
p95
ssg83
g86
sg76
(lp96
S'ajax'
p97
asbag69
(g90
g71
NtRp98
(dp99
g74
(dp100
S'_valign'
p101
S'top'
p102
ssg83
g86
sg76
(lp103
S':'
asbag69
(g90
g71
NtRp104
(dp105
g74
(dp106
sg83
g86
sg76
(lp107
g69
(g70
g71
NtRp108
(dp109
g74
(dp110
g82
I5
ssg83
g104
sg76
(lp111
S'False'
p112
asbasbasbag69
(g85
g71
NtRp113
(dp114
g74
(dp115
sg83
g79
sg76
(lp116
g69
(g90
g71
NtRp117
(dp118
g74
(dp119
g94
g95
ssg83
g113
sg76
(lp120
S'application'
p121
asbag69
(g90
g71
NtRp122
(dp123
g74
(dp124
g101
g102
ssg83
g113
sg76
(lp125
S':'
asbag69
(g90
g71
NtRp126
(dp127
g74
(dp128
sg83
g113
sg76
(lp129
g69
(g70
g71
NtRp130
(dp131
g74
(dp132
g82
I5
ssg83
g126
sg76
(lp133
S'testumgebung'
p134
asbasbasbag69
(g85
g71
NtRp135
(dp136
g74
(dp137
sg83
g79
sg76
(lp138
g69
(g90
g71
NtRp139
(dp140
g74
(dp141
g94
g95
ssg83
g135
sg76
(lp142
g52
asbag69
(g90
g71
NtRp143
(dp144
g74
(dp145
g101
g102
ssg83
g135
sg76
(lp146
S':'
asbag69
(g90
g71
NtRp147
(dp148
g74
(dp149
sg83
g135
sg76
(lp150
g69
(g70
g71
NtRp151
(dp152
g74
(dp153
g82
I5
ssg83
g147
sg76
(lp154
g69
(g78
g71
NtRp155
(dp156
g74
(dp157
g82
I4
ssg83
Nsg76
(lp158
sbasbasbasbag69
(g85
g71
NtRp159
(dp160
g74
(dp161
sg83
g79
sg76
(lp162
g69
(g90
g71
NtRp163
(dp164
g74
(dp165
g94
g95
ssg83
g159
sg76
(lp166
S'body'
p167
asbag69
(g90
g71
NtRp168
(dp169
g74
(dp170
g101
g102
ssg83
g159
sg76
(lp171
S':'
asbag69
(g90
g71
NtRp172
(dp173
g74
(dp174
sg83
g159
sg76
(lp175
g69
(g70
g71
NtRp176
(dp177
g74
(dp178
g82
I5
ssg83
g172
sg76
(lp179
S'<cStringIO.StringO object at 0x06FACBE0>'
p180
asbasbasbag69
(g85
g71
NtRp181
(dp182
g74
(dp183
sg83
g79
sg76
(lp184
g69
(g90
g71
NtRp185
(dp186
g74
(dp187
g94
g95
ssg83
g181
sg76
(lp188
S'cid'
p189
asbag69
(g90
g71
NtRp190
(dp191
g74
(dp192
g101
g102
ssg83
g181
sg76
(lp193
S':'
asbag69
(g90
g71
NtRp194
(dp195
g74
(dp196
sg83
g181
sg76
(lp197
g69
(g70
g71
NtRp198
(dp199
g74
(dp200
g82
I5
ssg83
g194
sg76
(lp201
S'None'
p202
asbasbasbag69
(g85
g71
NtRp203
(dp204
g74
(dp205
sg83
g79
sg76
(lp206
g69
(g90
g71
NtRp207
(dp208
g74
(dp209
g94
g95
ssg83
g203
sg76
(lp210
S'client'
p211
asbag69
(g90
g71
NtRp212
(dp213
g74
(dp214
g101
g102
ssg83
g203
sg76
(lp215
S':'
asbag69
(g90
g71
NtRp216
(dp217
g74
(dp218
sg83
g203
sg76
(lp219
g69
(g70
g71
NtRp220
(dp221
g74
(dp222
g82
I5
ssg83
g216
sg76
(lp223
S'10.0.0.156'
p224
asbasbasbag69
(g85
g71
NtRp225
(dp226
g74
(dp227
sg83
g79
sg76
(lp228
g69
(g90
g71
NtRp229
(dp230
g74
(dp231
g94
g95
ssg83
g225
sg76
(lp232
S'controller'
p233
asbag69
(g90
g71
NtRp234
(dp235
g74
(dp236
g101
g102
ssg83
g225
sg76
(lp237
S':'
asbag69
(g90
g71
NtRp238
(dp239
g74
(dp240
sg83
g225
sg76
(lp241
g69
(g70
g71
NtRp242
(dp243
g74
(dp244
g82
I5
ssg83
g238
sg76
(lp245
S'default'
p246
asbasbasbag69
(g85
g71
NtRp247
(dp248
g74
(dp249
sg83
g79
sg76
(lp250
g69
(g90
g71
NtRp251
(dp252
g74
(dp253
g94
g95
ssg83
g247
sg76
(lp254
S'cookies'
p255
asbag69
(g90
g71
NtRp256
(dp257
g74
(dp258
g101
g102
ssg83
g247
sg76
(lp259
S':'
asbag69
(g90
g71
NtRp260
(dp261
g74
(dp262
sg83
g247
sg76
(lp263
g69
(g70
g71
NtRp264
(dp265
g74
(dp266
g82
I5
ssg83
g260
sg76
(lp267
g69
(g78
g71
NtRp268
(dp269
g74
(dp270
g82
I4
ssg83
Nsg76
(lp271
sbasbasbasbag69
(g85
g71
NtRp272
(dp273
g74
(dp274
sg83
g79
sg76
(lp275
g69
(g90
g71
NtRp276
(dp277
g74
(dp278
g94
g95
ssg83
g272
sg76
(lp279
S'env'
p280
asbag69
(g90
g71
NtRp281
(dp282
g74
(dp283
g101
g102
ssg83
g272
sg76
(lp284
S':'
asbag69
(g90
g71
NtRp285
(dp286
g74
(dp287
sg83
g272
sg76
(lp288
g69
(g70
g71
NtRp289
(dp290
g74
(dp291
g82
I5
ssg83
g285
sg76
(lp292
g69
(g78
g71
NtRp293
(dp294
g74
(dp295
g82
I4
ssg83
Nsg76
(lp296
g69
(g85
g71
NtRp297
(dp298
g74
(dp299
sg83
g293
sg76
(lp300
g69
(g90
g71
NtRp301
(dp302
g74
(dp303
g94
g95
ssg83
g297
sg76
(lp304
S'app_folders'
p305
asbag69
(g90
g71
NtRp306
(dp307
g74
(dp308
g101
g102
ssg83
g297
sg76
(lp309
S':'
asbag69
(g90
g71
NtRp310
(dp311
g74
(dp312
sg83
g297
sg76
(lp313
g69
(g70
g71
NtRp314
(dp315
g74
(dp316
g82
I4
ssg83
g310
sg76
(lp317
S"set(['C:\\\\xampp\\\\htdocs\\\\web2py\\\\applications\\\\admin\\\\', 'C:\\\\xampp\\\\htdocs\\\\web2py\\\\applications\\\\welcome\\\\', 'C:\\\\xampp\\\\htdocs\\\\web2py\\\\applications\\\\testumgebung\\\\'])"
p318
asbasbasbag69
(g85
g71
NtRp319
(dp320
g74
(dp321
sg83
g293
sg76
(lp322
g69
(g90
g71
NtRp323
(dp324
g74
(dp325
g94
g95
ssg83
g319
sg76
(lp326
S'applications_parent'
p327
asbag69
(g90
g71
NtRp328
(dp329
g74
(dp330
g101
g102
ssg83
g319
sg76
(lp331
S':'
asbag69
(g90
g71
NtRp332
(dp333
g74
(dp334
sg83
g319
sg76
(lp335
g69
(g70
g71
NtRp336
(dp337
g74
(dp338
g82
I4
ssg83
g332
sg76
(lp339
S'C:\\xampp\\htdocs\\web2py'
p340
asbasbasbag69
(g85
g71
NtRp341
(dp342
g74
(dp343
sg83
g293
sg76
(lp344
g69
(g90
g71
NtRp345
(dp346
g74
(dp347
g94
g95
ssg83
g341
sg76
(lp348
S'cmd_args'
p349
asbag69
(g90
g71
NtRp350
(dp351
g74
(dp352
g101
g102
ssg83
g341
sg76
(lp353
S':'
asbag69
(g90
g71
NtRp354
(dp355
g74
(dp356
sg83
g341
sg76
(lp357
g69
(g70
g71
NtRp358
(dp359
g74
(dp360
g82
I4
ssg83
g354
sg76
(lp361
g69
(g78
g71
NtRp362
(dp363
g74
(dp364
g82
I3
ssg83
Nsg76
(lp365
sbasbasbasbag69
(g85
g71
NtRp366
(dp367
g74
(dp368
sg83
g293
sg76
(lp369
g69
(g90
g71
NtRp370
(dp371
g74
(dp372
g94
g95
ssg83
g366
sg76
(lp373
S'cmd_options'
p374
asbag69
(g90
g71
NtRp375
(dp376
g74
(dp377
g101
g102
ssg83
g366
sg76
(lp378
S':'
asbag69
(g90
g71
NtRp379
(dp380
g74
(dp381
sg83
g366
sg76
(lp382
g69
(g70
g71
NtRp383
(dp384
g74
(dp385
g82
I4
ssg83
g379
sg76
(lp386
S"<Values at 0x2c68e18: {'verbose': False, 'ip': '127.0.0.1', 'with_scheduler': False, 'ips': ['10.0.0.109', '192.168.189.1', '192.168.91.1'], 'shutdown_timeout': 5, 'taskbar': False, 'port': 8000, 'maxthreads': None, 'softcron': False, 'server_name': 'swLaptop', 'bpython': False, 'nogui': False, 'nocron': False, 'extcron': False, 'run_system_tests': False, 'test': None, 'folder': 'C:\\\\xampp\\\\htdocs\\\\web2py', 'config': '', 'import_models': False, 'winservice': '', 'shell': None, 'run': '', 'log_filename': 'httpserver.log', 'debuglevel': 30, 'args': [''], 'socket_timeout': 5, 'ssl_ca_certificate': None, 'scheduler': None, 'profiler_filename': None, 'ssl_private_key': '', 'scheduler_groups': None, 'password': '<ask>', 'request_queue_size': 5, 'ssl_certificate': '', 'cronjob': False, 'numthreads': None, 'quiet': False, 'interfaces': None, 'minthreads': None, 'timeout': 10, 'plain': False, 'nobanner': False, 'pid_filename': 'httpserver.pid'}>"
p387
asbasbasbag69
(g85
g71
NtRp388
(dp389
g74
(dp390
sg83
g293
sg76
(lp391
g69
(g90
g71
NtRp392
(dp393
g74
(dp394
g94
g95
ssg83
g388
sg76
(lp395
S'db_sessions'
p396
asbag69
(g90
g71
NtRp397
(dp398
g74
(dp399
g101
g102
ssg83
g388
sg76
(lp400
S':'
asbag69
(g90
g71
NtRp401
(dp402
g74
(dp403
sg83
g388
sg76
(lp404
g69
(g70
g71
NtRp405
(dp406
g74
(dp407
g82
I4
ssg83
g401
sg76
(lp408
S'set([])'
p409
asbasbasbag69
(g85
g71
NtRp410
(dp411
g74
(dp412
sg83
g293
sg76
(lp413
g69
(g90
g71
NtRp414
(dp415
g74
(dp416
g94
g95
ssg83
g410
sg76
(lp417
S'debugging'
p418
asbag69
(g90
g71
NtRp419
(dp420
g74
(dp421
g101
g102
ssg83
g410
sg76
(lp422
S':'
asbag69
(g90
g71
NtRp423
(dp424
g74
(dp425
sg83
g410
sg76
(lp426
g69
(g70
g71
NtRp427
(dp428
g74
(dp429
g82
I4
ssg83
g423
sg76
(lp430
g112
asbasbasbag69
(g85
g71
NtRp431
(dp432
g74
(dp433
sg83
g293
sg76
(lp434
g69
(g90
g71
NtRp435
(dp436
g74
(dp437
g94
g95
ssg83
g431
sg76
(lp438
S'gluon_parent'
p439
asbag69
(g90
g71
NtRp440
(dp441
g74
(dp442
g101
g102
ssg83
g431
sg76
(lp443
S':'
asbag69
(g90
g71
NtRp444
(dp445
g74
(dp446
sg83
g431
sg76
(lp447
g69
(g70
g71
NtRp448
(dp449
g74
(dp450
g82
I4
ssg83
g444
sg76
(lp451
S'C:\\xampp\\htdocs\\web2py'
p452
asbasbasbag69
(g85
g71
NtRp453
(dp454
g74
(dp455
sg83
g293
sg76
(lp456
g69
(g90
g71
NtRp457
(dp458
g74
(dp459
g94
g95
ssg83
g453
sg76
(lp460
S'http_accept'
p461
asbag69
(g90
g71
NtRp462
(dp463
g74
(dp464
g101
g102
ssg83
g453
sg76
(lp465
S':'
asbag69
(g90
g71
NtRp466
(dp467
g74
(dp468
sg83
g453
sg76
(lp469
g69
(g70
g71
NtRp470
(dp471
g74
(dp472
g82
I4
ssg83
g466
sg76
(lp473
S'text/html,application/xhtml+xml,application/xml;q=0.9,*/*;q=0.8'
p474
asbasbasbag69
(g85
g71
NtRp475
(dp476
g74
(dp477
sg83
g293
sg76
(lp478
g69
(g90
g71
NtRp479
(dp480
g74
(dp481
g94
g95
ssg83
g475
sg76
(lp482
S'http_accept_encoding'
p483
asbag69
(g90
g71
NtRp484
(dp485
g74
(dp486
g101
g102
ssg83
g475
sg76
(lp487
S':'
asbag69
(g90
g71
NtRp488
(dp489
g74
(dp490
sg83
g475
sg76
(lp491
g69
(g70
g71
NtRp492
(dp493
g74
(dp494
g82
I4
ssg83
g488
sg76
(lp495
S'gzip, deflate'
p496
asbasbasbag69
(g85
g71
NtRp497
(dp498
g74
(dp499
sg83
g293
sg76
(lp500
g69
(g90
g71
NtRp501
(dp502
g74
(dp503
g94
g95
ssg83
g497
sg76
(lp504
S'http_accept_language'
p505
asbag69
(g90
g71
NtRp506
(dp507
g74
(dp508
g101
g102
ssg83
g497
sg76
(lp509
S':'
asbag69
(g90
g71
NtRp510
(dp511
g74
(dp512
sg83
g497
sg76
(lp513
g69
(g70
g71
NtRp514
(dp515
g74
(dp516
g82
I4
ssg83
g510
sg76
(lp517
S'de-de'
p518
asbasbasbag69
(g85
g71
NtRp519
(dp520
g74
(dp521
sg83
g293
sg76
(lp522
g69
(g90
g71
NtRp523
(dp524
g74
(dp525
g94
g95
ssg83
g519
sg76
(lp526
S'http_connection'
p527
asbag69
(g90
g71
NtRp528
(dp529
g74
(dp530
g101
g102
ssg83
g519
sg76
(lp531
S':'
asbag69
(g90
g71
NtRp532
(dp533
g74
(dp534
sg83
g519
sg76
(lp535
g69
(g70
g71
NtRp536
(dp537
g74
(dp538
g82
I4
ssg83
g532
sg76
(lp539
S'keep-alive'
p540
asbasbasbag69
(g85
g71
NtRp541
(dp542
g74
(dp543
sg83
g293
sg76
(lp544
g69
(g90
g71
NtRp545
(dp546
g74
(dp547
g94
g95
ssg83
g541
sg76
(lp548
S'http_host'
p549
asbag69
(g90
g71
NtRp550
(dp551
g74
(dp552
g101
g102
ssg83
g541
sg76
(lp553
S':'
asbag69
(g90
g71
NtRp554
(dp555
g74
(dp556
sg83
g541
sg76
(lp557
g69
(g70
g71
NtRp558
(dp559
g74
(dp560
g82
I4
ssg83
g554
sg76
(lp561
S'10.0.0.109:8000'
p562
asbasbasbag69
(g85
g71
NtRp563
(dp564
g74
(dp565
sg83
g293
sg76
(lp566
g69
(g90
g71
NtRp567
(dp568
g74
(dp569
g94
g95
ssg83
g563
sg76
(lp570
S'http_user_agent'
p571
asbag69
(g90
g71
NtRp572
(dp573
g74
(dp574
g101
g102
ssg83
g563
sg76
(lp575
S':'
asbag69
(g90
g71
NtRp576
(dp577
g74
(dp578
sg83
g563
sg76
(lp579
g69
(g70
g71
NtRp580
(dp581
g74
(dp582
g82
I4
ssg83
g576
sg76
(lp583
S'Mozilla/5.0 (iPhone; CPU iPhone OS 6_0_1 like Mac OS X) AppleWebKit/536.26 (KHTML, like Gecko) Version/6.0 Mobile/10A525 Safari/8536.25'
p584
asbasbasbag69
(g85
g71
NtRp585
(dp586
g74
(dp587
sg83
g293
sg76
(lp588
g69
(g90
g71
NtRp589
(dp590
g74
(dp591
g94
g95
ssg83
g585
sg76
(lp592
S'is_jython'
p593
asbag69
(g90
g71
NtRp594
(dp595
g74
(dp596
g101
g102
ssg83
g585
sg76
(lp597
S':'
asbag69
(g90
g71
NtRp598
(dp599
g74
(dp600
sg83
g585
sg76
(lp601
g69
(g70
g71
NtRp602
(dp603
g74
(dp604
g82
I4
ssg83
g598
sg76
(lp605
g112
asbasbasbag69
(g85
g71
NtRp606
(dp607
g74
(dp608
sg83
g293
sg76
(lp609
g69
(g90
g71
NtRp610
(dp611
g74
(dp612
g94
g95
ssg83
g606
sg76
(lp613
S'is_pypy'
p614
asbag69
(g90
g71
NtRp615
(dp616
g74
(dp617
g101
g102
ssg83
g606
sg76
(lp618
S':'
asbag69
(g90
g71
NtRp619
(dp620
g74
(dp621
sg83
g606
sg76
(lp622
g69
(g70
g71
NtRp623
(dp624
g74
(dp625
g82
I4
ssg83
g619
sg76
(lp626
g112
asbasbasbag69
(g85
g71
NtRp627
(dp628
g74
(dp629
sg83
g293
sg76
(lp630
g69
(g90
g71
NtRp631
(dp632
g74
(dp633
g94
g95
ssg83
g627
sg76
(lp634
S'path_info'
p635
asbag69
(g90
g71
NtRp636
(dp637
g74
(dp638
g101
g102
ssg83
g627
sg76
(lp639
S':'
asbag69
(g90
g71
NtRp640
(dp641
g74
(dp642
sg83
g627
sg76
(lp643
g69
(g70
g71
NtRp644
(dp645
g74
(dp646
g82
I4
ssg83
g640
sg76
(lp647
S'/testumgebung'
p648
asbasbasbag69
(g85
g71
NtRp649
(dp650
g74
(dp651
sg83
g293
sg76
(lp652
g69
(g90
g71
NtRp653
(dp654
g74
(dp655
g94
g95
ssg83
g649
sg76
(lp656
S'query_string'
p657
asbag69
(g90
g71
NtRp658
(dp659
g74
(dp660
g101
g102
ssg83
g649
sg76
(lp661
S':'
asbag69
(g90
g71
NtRp662
(dp663
g74
(dp664
sg83
g649
sg76
(lp665
g69
(g70
g71
NtRp666
(dp667
g74
(dp668
g82
I4
ssg83
g662
sg76
(lp669
S''
asbasbasbag69
(g85
g71
NtRp670
(dp671
g74
(dp672
sg83
g293
sg76
(lp673
g69
(g90
g71
NtRp674
(dp675
g74
(dp676
g94
g95
ssg83
g670
sg76
(lp677
S'remote_addr'
p678
asbag69
(g90
g71
NtRp679
(dp680
g74
(dp681
g101
g102
ssg83
g670
sg76
(lp682
S':'
asbag69
(g90
g71
NtRp683
(dp684
g74
(dp685
sg83
g670
sg76
(lp686
g69
(g70
g71
NtRp687
(dp688
g74
(dp689
g82
I4
ssg83
g683
sg76
(lp690
g224
asbasbasbag69
(g85
g71
NtRp691
(dp692
g74
(dp693
sg83
g293
sg76
(lp694
g69
(g90
g71
NtRp695
(dp696
g74
(dp697
g94
g95
ssg83
g691
sg76
(lp698
S'remote_port'
p699
asbag69
(g90
g71
NtRp700
(dp701
g74
(dp702
g101
g102
ssg83
g691
sg76
(lp703
S':'
asbag69
(g90
g71
NtRp704
(dp705
g74
(dp706
sg83
g691
sg76
(lp707
g69
(g70
g71
NtRp708
(dp709
g74
(dp710
g82
I4
ssg83
g704
sg76
(lp711
S'49329'
p712
asbasbasbag69
(g85
g71
NtRp713
(dp714
g74
(dp715
sg83
g293
sg76
(lp716
g69
(g90
g71
NtRp717
(dp718
g74
(dp719
g94
g95
ssg83
g713
sg76
(lp720
S'request_method'
p721
asbag69
(g90
g71
NtRp722
(dp723
g74
(dp724
g101
g102
ssg83
g713
sg76
(lp725
S':'
asbag69
(g90
g71
NtRp726
(dp727
g74
(dp728
sg83
g713
sg76
(lp729
g69
(g70
g71
NtRp730
(dp731
g74
(dp732
g82
I4
ssg83
g726
sg76
(lp733
S'GET'
p734
asbasbasbag69
(g85
g71
NtRp735
(dp736
g74
(dp737
sg83
g293
sg76
(lp738
g69
(g90
g71
NtRp739
(dp740
g74
(dp741
g94
g95
ssg83
g735
sg76
(lp742
S'request_uri'
p743
asbag69
(g90
g71
NtRp744
(dp745
g74
(dp746
g101
g102
ssg83
g735
sg76
(lp747
S':'
asbag69
(g90
g71
NtRp748
(dp749
g74
(dp750
sg83
g735
sg76
(lp751
g69
(g70
g71
NtRp752
(dp753
g74
(dp754
g82
I4
ssg83
g748
sg76
(lp755
g648
asbasbasbag69
(g85
g71
NtRp756
(dp757
g74
(dp758
sg83
g293
sg76
(lp759
g69
(g90
g71
NtRp760
(dp761
g74
(dp762
g94
g95
ssg83
g756
sg76
(lp763
S'script_name'
p764
asbag69
(g90
g71
NtRp765
(dp766
g74
(dp767
g101
g102
ssg83
g756
sg76
(lp768
S':'
asbag69
(g90
g71
NtRp769
(dp770
g74
(dp771
sg83
g756
sg76
(lp772
g69
(g70
g71
NtRp773
(dp774
g74
(dp775
g82
I4
ssg83
g769
sg76
(lp776
S''
asbasbasbag69
(g85
g71
NtRp777
(dp778
g74
(dp779
sg83
g293
sg76
(lp780
g69
(g90
g71
NtRp781
(dp782
g74
(dp783
g94
g95
ssg83
g777
sg76
(lp784
S'server_name'
p785
asbag69
(g90
g71
NtRp786
(dp787
g74
(dp788
g101
g102
ssg83
g777
sg76
(lp789
S':'
asbag69
(g90
g71
NtRp790
(dp791
g74
(dp792
sg83
g777
sg76
(lp793
g69
(g70
g71
NtRp794
(dp795
g74
(dp796
g82
I4
ssg83
g790
sg76
(lp797
S'swLaptop'
p798
asbasbasbag69
(g85
g71
NtRp799
(dp800
g74
(dp801
sg83
g293
sg76
(lp802
g69
(g90
g71
NtRp803
(dp804
g74
(dp805
g94
g95
ssg83
g799
sg76
(lp806
S'server_port'
p807
asbag69
(g90
g71
NtRp808
(dp809
g74
(dp810
g101
g102
ssg83
g799
sg76
(lp811
S':'
asbag69
(g90
g71
NtRp812
(dp813
g74
(dp814
sg83
g799
sg76
(lp815
g69
(g70
g71
NtRp816
(dp817
g74
(dp818
g82
I4
ssg83
g812
sg76
(lp819
S'8000'
p820
asbasbasbag69
(g85
g71
NtRp821
(dp822
g74
(dp823
sg83
g293
sg76
(lp824
g69
(g90
g71
NtRp825
(dp826
g74
(dp827
g94
g95
ssg83
g821
sg76
(lp828
S'server_protocol'
p829
asbag69
(g90
g71
NtRp830
(dp831
g74
(dp832
g101
g102
ssg83
g821
sg76
(lp833
S':'
asbag69
(g90
g71
NtRp834
(dp835
g74
(dp836
sg83
g821
sg76
(lp837
g69
(g70
g71
NtRp838
(dp839
g74
(dp840
g82
I4
ssg83
g834
sg76
(lp841
S'HTTP/1.1'
p842
asbasbasbag69
(g85
g71
NtRp843
(dp844
g74
(dp845
sg83
g293
sg76
(lp846
g69
(g90
g71
NtRp847
(dp848
g74
(dp849
g94
g95
ssg83
g843
sg76
(lp850
S'server_software'
p851
asbag69
(g90
g71
NtRp852
(dp853
g74
(dp854
g101
g102
ssg83
g843
sg76
(lp855
S':'
asbag69
(g90
g71
NtRp856
(dp857
g74
(dp858
sg83
g843
sg76
(lp859
g69
(g70
g71
NtRp860
(dp861
g74
(dp862
g82
I4
ssg83
g856
sg76
(lp863
S'Rocket 1.2.4'
p864
asbasbasbag69
(g85
g71
NtRp865
(dp866
g74
(dp867
sg83
g293
sg76
(lp868
g69
(g90
g71
NtRp869
(dp870
g74
(dp871
g94
g95
ssg83
g865
sg76
(lp872
S'web2py_crontype'
p873
asbag69
(g90
g71
NtRp874
(dp875
g74
(dp876
g101
g102
ssg83
g865
sg76
(lp877
S':'
asbag69
(g90
g71
NtRp878
(dp879
g74
(dp880
sg83
g865
sg76
(lp881
g69
(g70
g71
NtRp882
(dp883
g74
(dp884
g82
I4
ssg83
g878
sg76
(lp885
S'hard'
p886
asbasbasbag69
(g85
g71
NtRp887
(dp888
g74
(dp889
sg83
g293
sg76
(lp890
g69
(g90
g71
NtRp891
(dp892
g74
(dp893
g94
g95
ssg83
g887
sg76
(lp894
S'web2py_path'
p895
asbag69
(g90
g71
NtRp896
(dp897
g74
(dp898
g101
g102
ssg83
g887
sg76
(lp899
S':'
asbag69
(g90
g71
NtRp900
(dp901
g74
(dp902
sg83
g887
sg76
(lp903
g69
(g70
g71
NtRp904
(dp905
g74
(dp906
g82
I4
ssg83
g900
sg76
(lp907
g340
asbasbasbag69
(g85
g71
NtRp908
(dp909
g74
(dp910
sg83
g293
sg76
(lp911
g69
(g90
g71
NtRp912
(dp913
g74
(dp914
g94
g95
ssg83
g908
sg76
(lp915
S'web2py_version'
p916
asbag69
(g90
g71
NtRp917
(dp918
g74
(dp919
g101
g102
ssg83
g908
sg76
(lp920
S':'
asbag69
(g90
g71
NtRp921
(dp922
g74
(dp923
sg83
g908
sg76
(lp924
g69
(g70
g71
NtRp925
(dp926
g74
(dp927
g82
I4
ssg83
g921
sg76
(lp928
g69
(g78
g71
NtRp929
(dp930
g74
(dp931
g82
I3
ssg83
Nsg76
(lp932
g69
(g85
g71
NtRp933
(dp934
g74
(dp935
sg83
g929
sg76
(lp936
g69
(g90
g71
NtRp937
(dp938
g74
(dp939
sg83
g933
sg76
(lp940
g69
(g70
g71
NtRp941
(dp942
g74
(dp943
g82
I3
ssg83
g937
sg76
(lp944
S'2'
asbasbasbag69
(g85
g71
NtRp945
(dp946
g74
(dp947
sg83
g929
sg76
(lp948
g69
(g90
g71
NtRp949
(dp950
g74
(dp951
sg83
g945
sg76
(lp952
g69
(g70
g71
NtRp953
(dp954
g74
(dp955
g82
I3
ssg83
g949
sg76
(lp956
S'0'
asbasbasbag69
(g85
g71
NtRp957
(dp958
g74
(dp959
sg83
g929
sg76
(lp960
g69
(g90
g71
NtRp961
(dp962
g74
(dp963
sg83
g957
sg76
(lp964
g69
(g70
g71
NtRp965
(dp966
g74
(dp967
g82
I3
ssg83
g961
sg76
(lp968
S'3'
asbasbasbag69
(g85
g71
NtRp969
(dp970
g74
(dp971
sg83
g929
sg76
(lp972
g69
(g90
g71
NtRp973
(dp974
g74
(dp975
sg83
g969
sg76
(lp976
g69
(g70
g71
NtRp977
(dp978
g74
(dp979
g82
I3
ssg83
g973
sg76
(lp980
S'datetime.datetime(2012, 8, 31, 5, 58, 31)'
p981
asbasbasbag69
(g85
g71
NtRp982
(dp983
g74
(dp984
sg83
g929
sg76
(lp985
g69
(g90
g71
NtRp986
(dp987
g74
(dp988
sg83
g982
sg76
(lp989
g69
(g70
g71
NtRp990
(dp991
g74
(dp992
g82
I3
ssg83
g986
sg76
(lp993
S'stable'
p994
asbasbasbasbasbasbasbag69
(g85
g71
NtRp995
(dp996
g74
(dp997
sg83
g293
sg76
(lp998
g69
(g90
g71
NtRp999
(dp1000
g74
(dp1001
g94
g95
ssg83
g995
sg76
(lp1002
S'wsgi_errors'
p1003
asbag69
(g90
g71
NtRp1004
(dp1005
g74
(dp1006
g101
g102
ssg83
g995
sg76
(lp1007
S':'
asbag69
(g90
g71
NtRp1008
(dp1009
g74
(dp1010
sg83
g995
sg76
(lp1011
g69
(g70
g71
NtRp1012
(dp1013
g74
(dp1014
g82
I4
ssg83
g1008
sg76
(lp1015
S"<open file '<stderr>', mode 'w' at 0x021D50D0>"
p1016
asbasbasbag69
(g85
g71
NtRp1017
(dp1018
g74
(dp1019
sg83
g293
sg76
(lp1020
g69
(g90
g71
NtRp1021
(dp1022
g74
(dp1023
g94
g95
ssg83
g1017
sg76
(lp1024
S'wsgi_file_wrapper'
p1025
asbag69
(g90
g71
NtRp1026
(dp1027
g74
(dp1028
g101
g102
ssg83
g1017
sg76
(lp1029
S':'
asbag69
(g90
g71
NtRp1030
(dp1031
g74
(dp1032
sg83
g1017
sg76
(lp1033
g69
(g70
g71
NtRp1034
(dp1035
g74
(dp1036
g82
I4
ssg83
g1030
sg76
(lp1037
S'<class wsgiref.util.FileWrapper at 0x02C1D030>'
p1038
asbasbasbag69
(g85
g71
NtRp1039
(dp1040
g74
(dp1041
sg83
g293
sg76
(lp1042
g69
(g90
g71
NtRp1043
(dp1044
g74
(dp1045
g94
g95
ssg83
g1039
sg76
(lp1046
S'wsgi_input'
p1047
asbag69
(g90
g71
NtRp1048
(dp1049
g74
(dp1050
g101
g102
ssg83
g1039
sg76
(lp1051
S':'
asbag69
(g90
g71
NtRp1052
(dp1053
g74
(dp1054
sg83
g1039
sg76
(lp1055
g69
(g70
g71
NtRp1056
(dp1057
g74
(dp1058
g82
I4
ssg83
g1052
sg76
(lp1059
S'<socket._fileobject object at 0x02E93970>'
p1060
asbasbasbag69
(g85
g71
NtRp1061
(dp1062
g74
(dp1063
sg83
g293
sg76
(lp1064
g69
(g90
g71
NtRp1065
(dp1066
g74
(dp1067
g94
g95
ssg83
g1061
sg76
(lp1068
S'wsgi_multiprocess'
p1069
asbag69
(g90
g71
NtRp1070
(dp1071
g74
(dp1072
g101
g102
ssg83
g1061
sg76
(lp1073
S':'
asbag69
(g90
g71
NtRp1074
(dp1075
g74
(dp1076
sg83
g1061
sg76
(lp1077
g69
(g70
g71
NtRp1078
(dp1079
g74
(dp1080
g82
I4
ssg83
g1074
sg76
(lp1081
g112
asbasbasbag69
(g85
g71
NtRp1082
(dp1083
g74
(dp1084
sg83
g293
sg76
(lp1085
g69
(g90
g71
NtRp1086
(dp1087
g74
(dp1088
g94
g95
ssg83
g1082
sg76
(lp1089
S'wsgi_multithread'
p1090
asbag69
(g90
g71
NtRp1091
(dp1092
g74
(dp1093
g101
g102
ssg83
g1082
sg76
(lp1094
S':'
asbag69
(g90
g71
NtRp1095
(dp1096
g74
(dp1097
sg83
g1082
sg76
(lp1098
g69
(g70
g71
NtRp1099
(dp1100
g74
(dp1101
g82
I4
ssg83
g1095
sg76
(lp1102
S'True'
p1103
asbasbasbag69
(g85
g71
NtRp1104
(dp1105
g74
(dp1106
sg83
g293
sg76
(lp1107
g69
(g90
g71
NtRp1108
(dp1109
g74
(dp1110
g94
g95
ssg83
g1104
sg76
(lp1111
S'wsgi_run_once'
p1112
asbag69
(g90
g71
NtRp1113
(dp1114
g74
(dp1115
g101
g102
ssg83
g1104
sg76
(lp1116
S':'
asbag69
(g90
g71
NtRp1117
(dp1118
g74
(dp1119
sg83
g1104
sg76
(lp1120
g69
(g70
g71
NtRp1121
(dp1122
g74
(dp1123
g82
I4
ssg83
g1117
sg76
(lp1124
g112
asbasbasbag69
(g85
g71
NtRp1125
(dp1126
g74
(dp1127
sg83
g293
sg76
(lp1128
g69
(g90
g71
NtRp1129
(dp1130
g74
(dp1131
g94
g95
ssg83
g1125
sg76
(lp1132
S'wsgi_url_scheme'
p1133
asbag69
(g90
g71
NtRp1134
(dp1135
g74
(dp1136
g101
g102
ssg83
g1125
sg76
(lp1137
S':'
asbag69
(g90
g71
NtRp1138
(dp1139
g74
(dp1140
sg83
g1125
sg76
(lp1141
g69
(g70
g71
NtRp1142
(dp1143
g74
(dp1144
g82
I4
ssg83
g1138
sg76
(lp1145
S'http'
p1146
asbasbasbag69
(g85
g71
NtRp1147
(dp1148
g74
(dp1149
sg83
g293
sg76
(lp1150
g69
(g90
g71
NtRp1151
(dp1152
g74
(dp1153
g94
g95
ssg83
g1147
sg76
(lp1154
S'wsgi_version'
p1155
asbag69
(g90
g71
NtRp1156
(dp1157
g74
(dp1158
g101
g102
ssg83
g1147
sg76
(lp1159
S':'
asbag69
(g90
g71
NtRp1160
(dp1161
g74
(dp1162
sg83
g1147
sg76
(lp1163
g69
(g70
g71
NtRp1164
(dp1165
g74
(dp1166
g82
I4
ssg83
g1160
sg76
(lp1167
g69
(g78
g71
NtRp1168
(dp1169
g74
(dp1170
g82
I3
ssg83
Nsg76
(lp1171
g69
(g85
g71
NtRp1172
(dp1173
g74
(dp1174
sg83
g1168
sg76
(lp1175
g69
(g90
g71
NtRp1176
(dp1177
g74
(dp1178
sg83
g1172
sg76
(lp1179
g69
(g70
g71
NtRp1180
(dp1181
g74
(dp1182
g82
I3
ssg83
g1176
sg76
(lp1183
S'1'
asbasbasbag69
(g85
g71
NtRp1184
(dp1185
g74
(dp1186
sg83
g1168
sg76
(lp1187
g69
(g90
g71
NtRp1188
(dp1189
g74
(dp1190
sg83
g1184
sg76
(lp1191
g69
(g70
g71
NtRp1192
(dp1193
g74
(dp1194
g82
I3
ssg83
g1188
sg76
(lp1195
S'0'
asbasbasbasbasbasbasbasbasbasbasbag69
(g85
g71
NtRp1196
(dp1197
g74
(dp1198
sg83
g79
sg76
(lp1199
g69
(g90
g71
NtRp1200
(dp1201
g74
(dp1202
g94
g95
ssg83
g1196
sg76
(lp1203
S'extension'
p1204
asbag69
(g90
g71
NtRp1205
(dp1206
g74
(dp1207
g101
g102
ssg83
g1196
sg76
(lp1208
S':'
asbag69
(g90
g71
NtRp1209
(dp1210
g74
(dp1211
sg83
g1196
sg76
(lp1212
g69
(g70
g71
NtRp1213
(dp1214
g74
(dp1215
g82
I5
ssg83
g1209
sg76
(lp1216
S'html'
p1217
asbasbasbag69
(g85
g71
NtRp1218
(dp1219
g74
(dp1220
sg83
g79
sg76
(lp1221
g69
(g90
g71
NtRp1222
(dp1223
g74
(dp1224
g94
g95
ssg83
g1218
sg76
(lp1225
S'folder'
p1226
asbag69
(g90
g71
NtRp1227
(dp1228
g74
(dp1229
g101
g102
ssg83
g1218
sg76
(lp1230
S':'
asbag69
(g90
g71
NtRp1231
(dp1232
g74
(dp1233
sg83
g1218
sg76
(lp1234
g69
(g70
g71
NtRp1235
(dp1236
g74
(dp1237
g82
I5
ssg83
g1231
sg76
(lp1238
S'C:\\xampp\\htdocs\\web2py\\applications\\testumgebung\\'
p1239
asbasbasbag69
(g85
g71
NtRp1240
(dp1241
g74
(dp1242
sg83
g79
sg76
(lp1243
g69
(g90
g71
NtRp1244
(dp1245
g74
(dp1246
g94
g95
ssg83
g1240
sg76
(lp1247
S'function'
p1248
asbag69
(g90
g71
NtRp1249
(dp1250
g74
(dp1251
g101
g102
ssg83
g1240
sg76
(lp1252
S':'
asbag69
(g90
g71
NtRp1253
(dp1254
g74
(dp1255
sg83
g1240
sg76
(lp1256
g69
(g70
g71
NtRp1257
(dp1258
g74
(dp1259
g82
I5
ssg83
g1253
sg76
(lp1260
S'index'
p1261
asbasbasbag69
(g85
g71
NtRp1262
(dp1263
g74
(dp1264
sg83
g79
sg76
(lp1265
g69
(g90
g71
NtRp1266
(dp1267
g74
(dp1268
g94
g95
ssg83
g1262
sg76
(lp1269
S'get_vars'
p1270
asbag69
(g90
g71
NtRp1271
(dp1272
g74
(dp1273
g101
g102
ssg83
g1262
sg76
(lp1274
S':'
asbag69
(g90
g71
NtRp1275
(dp1276
g74
(dp1277
sg83
g1262
sg76
(lp1278
g69
(g70
g71
NtRp1279
(dp1280
g74
(dp1281
g82
I5
ssg83
g1275
sg76
(lp1282
g69
(g78
g71
NtRp1283
(dp1284
g74
(dp1285
g82
I4
ssg83
Nsg76
(lp1286
sbasbasbasbag69
(g85
g71
NtRp1287
(dp1288
g74
(dp1289
sg83
g79
sg76
(lp1290
g69
(g90
g71
NtRp1291
(dp1292
g74
(dp1293
g94
g95
ssg83
g1287
sg76
(lp1294
S'global_settings'
p1295
asbag69
(g90
g71
NtRp1296
(dp1297
g74
(dp1298
g101
g102
ssg83
g1287
sg76
(lp1299
S':'
asbag69
(g90
g71
NtRp1300
(dp1301
g74
(dp1302
sg83
g1287
sg76
(lp1303
g69
(g70
g71
NtRp1304
(dp1305
g74
(dp1306
g82
I5
ssg83
g1300
sg76
(lp1307
g69
(g78
g71
NtRp1308
(dp1309
g74
(dp1310
g82
I4
ssg83
Nsg76
(lp1311
g69
(g85
g71
NtRp1312
(dp1313
g74
(dp1314
sg83
g1308
sg76
(lp1315
g69
(g90
g71
NtRp1316
(dp1317
g74
(dp1318
g94
g95
ssg83
g1312
sg76
(lp1319
g305
asbag69
(g90
g71
NtRp1320
(dp1321
g74
(dp1322
g101
g102
ssg83
g1312
sg76
(lp1323
S':'
asbag69
(g90
g71
NtRp1324
(dp1325
g74
(dp1326
sg83
g1312
sg76
(lp1327
g69
(g70
g71
NtRp1328
(dp1329
g74
(dp1330
g82
I4
ssg83
g1324
sg76
(lp1331
S"set(['C:\\\\xampp\\\\htdocs\\\\web2py\\\\applications\\\\admin\\\\', 'C:\\\\xampp\\\\htdocs\\\\web2py\\\\applications\\\\welcome\\\\', 'C:\\\\xampp\\\\htdocs\\\\web2py\\\\applications\\\\testumgebung\\\\'])"
p1332
asbasbasbag69
(g85
g71
NtRp1333
(dp1334
g74
(dp1335
sg83
g1308
sg76
(lp1336
g69
(g90
g71
NtRp1337
(dp1338
g74
(dp1339
g94
g95
ssg83
g1333
sg76
(lp1340
g327
asbag69
(g90
g71
NtRp1341
(dp1342
g74
(dp1343
g101
g102
ssg83
g1333
sg76
(lp1344
S':'
asbag69
(g90
g71
NtRp1345
(dp1346
g74
(dp1347
sg83
g1333
sg76
(lp1348
g69
(g70
g71
NtRp1349
(dp1350
g74
(dp1351
g82
I4
ssg83
g1345
sg76
(lp1352
g340
asbasbasbag69
(g85
g71
NtRp1353
(dp1354
g74
(dp1355
sg83
g1308
sg76
(lp1356
g69
(g90
g71
NtRp1357
(dp1358
g74
(dp1359
g94
g95
ssg83
g1353
sg76
(lp1360
g349
asbag69
(g90
g71
NtRp1361
(dp1362
g74
(dp1363
g101
g102
ssg83
g1353
sg76
(lp1364
S':'
asbag69
(g90
g71
NtRp1365
(dp1366
g74
(dp1367
sg83
g1353
sg76
(lp1368
g69
(g70
g71
NtRp1369
(dp1370
g74
(dp1371
g82
I4
ssg83
g1365
sg76
(lp1372
g69
(g78
g71
NtRp1373
(dp1374
g74
(dp1375
g82
I3
ssg83
Nsg76
(lp1376
sbasbasbasbag69
(g85
g71
NtRp1377
(dp1378
g74
(dp1379
sg83
g1308
sg76
(lp1380
g69
(g90
g71
NtRp1381
(dp1382
g74
(dp1383
g94
g95
ssg83
g1377
sg76
(lp1384
g374
asbag69
(g90
g71
NtRp1385
(dp1386
g74
(dp1387
g101
g102
ssg83
g1377
sg76
(lp1388
S':'
asbag69
(g90
g71
NtRp1389
(dp1390
g74
(dp1391
sg83
g1377
sg76
(lp1392
g69
(g70
g71
NtRp1393
(dp1394
g74
(dp1395
g82
I4
ssg83
g1389
sg76
(lp1396
S"<Values at 0x2c68e18: {'verbose': False, 'ip': '127.0.0.1', 'with_scheduler': False, 'ips': ['10.0.0.109', '192.168.189.1', '192.168.91.1'], 'shutdown_timeout': 5, 'taskbar': False, 'port': 8000, 'maxthreads': None, 'softcron': False, 'server_name': 'swLaptop', 'bpython': False, 'nogui': False, 'nocron': False, 'extcron': False, 'run_system_tests': False, 'test': None, 'folder': 'C:\\\\xampp\\\\htdocs\\\\web2py', 'config': '', 'import_models': False, 'winservice': '', 'shell': None, 'run': '', 'log_filename': 'httpserver.log', 'debuglevel': 30, 'args': [''], 'socket_timeout': 5, 'ssl_ca_certificate': None, 'scheduler': None, 'profiler_filename': None, 'ssl_private_key': '', 'scheduler_groups': None, 'password': '<ask>', 'request_queue_size': 5, 'ssl_certificate': '', 'cronjob': False, 'numthreads': None, 'quiet': False, 'interfaces': None, 'minthreads': None, 'timeout': 10, 'plain': False, 'nobanner': False, 'pid_filename': 'httpserver.pid'}>"
p1397
asbasbasbag69
(g85
g71
NtRp1398
(dp1399
g74
(dp1400
sg83
g1308
sg76
(lp1401
g69
(g90
g71
NtRp1402
(dp1403
g74
(dp1404
g94
g95
ssg83
g1398
sg76
(lp1405
g396
asbag69
(g90
g71
NtRp1406
(dp1407
g74
(dp1408
g101
g102
ssg83
g1398
sg76
(lp1409
S':'
asbag69
(g90
g71
NtRp1410
(dp1411
g74
(dp1412
sg83
g1398
sg76
(lp1413
g69
(g70
g71
NtRp1414
(dp1415
g74
(dp1416
g82
I4
ssg83
g1410
sg76
(lp1417
S'set([])'
p1418
asbasbasbag69
(g85
g71
NtRp1419
(dp1420
g74
(dp1421
sg83
g1308
sg76
(lp1422
g69
(g90
g71
NtRp1423
(dp1424
g74
(dp1425
g94
g95
ssg83
g1419
sg76
(lp1426
g418
asbag69
(g90
g71
NtRp1427
(dp1428
g74
(dp1429
g101
g102
ssg83
g1419
sg76
(lp1430
S':'
asbag69
(g90
g71
NtRp1431
(dp1432
g74
(dp1433
sg83
g1419
sg76
(lp1434
g69
(g70
g71
NtRp1435
(dp1436
g74
(dp1437
g82
I4
ssg83
g1431
sg76
(lp1438
g112
asbasbasbag69
(g85
g71
NtRp1439
(dp1440
g74
(dp1441
sg83
g1308
sg76
(lp1442
g69
(g90
g71
NtRp1443
(dp1444
g74
(dp1445
g94
g95
ssg83
g1439
sg76
(lp1446
g439
asbag69
(g90
g71
NtRp1447
(dp1448
g74
(dp1449
g101
g102
ssg83
g1439
sg76
(lp1450
S':'
asbag69
(g90
g71
NtRp1451
(dp1452
g74
(dp1453
sg83
g1439
sg76
(lp1454
g69
(g70
g71
NtRp1455
(dp1456
g74
(dp1457
g82
I4
ssg83
g1451
sg76
(lp1458
g452
asbasbasbag69
(g85
g71
NtRp1459
(dp1460
g74
(dp1461
sg83
g1308
sg76
(lp1462
g69
(g90
g71
NtRp1463
(dp1464
g74
(dp1465
g94
g95
ssg83
g1459
sg76
(lp1466
g593
asbag69
(g90
g71
NtRp1467
(dp1468
g74
(dp1469
g101
g102
ssg83
g1459
sg76
(lp1470
S':'
asbag69
(g90
g71
NtRp1471
(dp1472
g74
(dp1473
sg83
g1459
sg76
(lp1474
g69
(g70
g71
NtRp1475
(dp1476
g74
(dp1477
g82
I4
ssg83
g1471
sg76
(lp1478
g112
asbasbasbag69
(g85
g71
NtRp1479
(dp1480
g74
(dp1481
sg83
g1308
sg76
(lp1482
g69
(g90
g71
NtRp1483
(dp1484
g74
(dp1485
g94
g95
ssg83
g1479
sg76
(lp1486
g614
asbag69
(g90
g71
NtRp1487
(dp1488
g74
(dp1489
g101
g102
ssg83
g1479
sg76
(lp1490
S':'
asbag69
(g90
g71
NtRp1491
(dp1492
g74
(dp1493
sg83
g1479
sg76
(lp1494
g69
(g70
g71
NtRp1495
(dp1496
g74
(dp1497
g82
I4
ssg83
g1491
sg76
(lp1498
g112
asbasbasbag69
(g85
g71
NtRp1499
(dp1500
g74
(dp1501
sg83
g1308
sg76
(lp1502
g69
(g90
g71
NtRp1503
(dp1504
g74
(dp1505
g94
g95
ssg83
g1499
sg76
(lp1506
g873
asbag69
(g90
g71
NtRp1507
(dp1508
g74
(dp1509
g101
g102
ssg83
g1499
sg76
(lp1510
S':'
asbag69
(g90
g71
NtRp1511
(dp1512
g74
(dp1513
sg83
g1499
sg76
(lp1514
g69
(g70
g71
NtRp1515
(dp1516
g74
(dp1517
g82
I4
ssg83
g1511
sg76
(lp1518
g886
asbasbasbag69
(g85
g71
NtRp1519
(dp1520
g74
(dp1521
sg83
g1308
sg76
(lp1522
g69
(g90
g71
NtRp1523
(dp1524
g74
(dp1525
g94
g95
ssg83
g1519
sg76
(lp1526
g916
asbag69
(g90
g71
NtRp1527
(dp1528
g74
(dp1529
g101
g102
ssg83
g1519
sg76
(lp1530
S':'
asbag69
(g90
g71
NtRp1531
(dp1532
g74
(dp1533
sg83
g1519
sg76
(lp1534
g69
(g70
g71
NtRp1535
(dp1536
g74
(dp1537
g82
I4
ssg83
g1531
sg76
(lp1538
g69
(g78
g71
NtRp1539
(dp1540
g74
(dp1541
g82
I3
ssg83
Nsg76
(lp1542
g69
(g85
g71
NtRp1543
(dp1544
g74
(dp1545
sg83
g1539
sg76
(lp1546
g69
(g90
g71
NtRp1547
(dp1548
g74
(dp1549
sg83
g1543
sg76
(lp1550
g69
(g70
g71
NtRp1551
(dp1552
g74
(dp1553
g82
I3
ssg83
g1547
sg76
(lp1554
S'2'
asbasbasbag69
(g85
g71
NtRp1555
(dp1556
g74
(dp1557
sg83
g1539
sg76
(lp1558
g69
(g90
g71
NtRp1559
(dp1560
g74
(dp1561
sg83
g1555
sg76
(lp1562
g69
(g70
g71
NtRp1563
(dp1564
g74
(dp1565
g82
I3
ssg83
g1559
sg76
(lp1566
S'0'
asbasbasbag69
(g85
g71
NtRp1567
(dp1568
g74
(dp1569
sg83
g1539
sg76
(lp1570
g69
(g90
g71
NtRp1571
(dp1572
g74
(dp1573
sg83
g1567
sg76
(lp1574
g69
(g70
g71
NtRp1575
(dp1576
g74
(dp1577
g82
I3
ssg83
g1571
sg76
(lp1578
S'3'
asbasbasbag69
(g85
g71
NtRp1579
(dp1580
g74
(dp1581
sg83
g1539
sg76
(lp1582
g69
(g90
g71
NtRp1583
(dp1584
g74
(dp1585
sg83
g1579
sg76
(lp1586
g69
(g70
g71
NtRp1587
(dp1588
g74
(dp1589
g82
I3
ssg83
g1583
sg76
(lp1590
S'datetime.datetime(2012, 8, 31, 5, 58, 31)'
p1591
asbasbasbag69
(g85
g71
NtRp1592
(dp1593
g74
(dp1594
sg83
g1539
sg76
(lp1595
g69
(g90
g71
NtRp1596
(dp1597
g74
(dp1598
sg83
g1592
sg76
(lp1599
g69
(g70
g71
NtRp1600
(dp1601
g74
(dp1602
g82
I3
ssg83
g1596
sg76
(lp1603
g994
asbasbasbasbasbasbasbasbasbasbasbag69
(g85
g71
NtRp1604
(dp1605
g74
(dp1606
sg83
g79
sg76
(lp1607
g69
(g90
g71
NtRp1608
(dp1609
g74
(dp1610
g94
g95
ssg83
g1604
sg76
(lp1611
S'is_https'
p1612
asbag69
(g90
g71
NtRp1613
(dp1614
g74
(dp1615
g101
g102
ssg83
g1604
sg76
(lp1616
S':'
asbag69
(g90
g71
NtRp1617
(dp1618
g74
(dp1619
sg83
g1604
sg76
(lp1620
g69
(g70
g71
NtRp1621
(dp1622
g74
(dp1623
g82
I5
ssg83
g1617
sg76
(lp1624
g112
asbasbasbag69
(g85
g71
NtRp1625
(dp1626
g74
(dp1627
sg83
g79
sg76
(lp1628
g69
(g90
g71
NtRp1629
(dp1630
g74
(dp1631
g94
g95
ssg83
g1625
sg76
(lp1632
S'is_local'
p1633
asbag69
(g90
g71
NtRp1634
(dp1635
g74
(dp1636
g101
g102
ssg83
g1625
sg76
(lp1637
S':'
asbag69
(g90
g71
NtRp1638
(dp1639
g74
(dp1640
sg83
g1625
sg76
(lp1641
g69
(g70
g71
NtRp1642
(dp1643
g74
(dp1644
g82
I5
ssg83
g1638
sg76
(lp1645
g112
asbasbasbag69
(g85
g71
NtRp1646
(dp1647
g74
(dp1648
sg83
g79
sg76
(lp1649
g69
(g90
g71
NtRp1650
(dp1651
g74
(dp1652
g94
g95
ssg83
g1646
sg76
(lp1653
S'is_restful'
p1654
asbag69
(g90
g71
NtRp1655
(dp1656
g74
(dp1657
g101
g102
ssg83
g1646
sg76
(lp1658
S':'
asbag69
(g90
g71
NtRp1659
(dp1660
g74
(dp1661
sg83
g1646
sg76
(lp1662
g69
(g70
g71
NtRp1663
(dp1664
g74
(dp1665
g82
I5
ssg83
g1659
sg76
(lp1666
g112
asbasbasbag69
(g85
g71
NtRp1667
(dp1668
g74
(dp1669
sg83
g79
sg76
(lp1670
g69
(g90
g71
NtRp1671
(dp1672
g74
(dp1673
g94
g95
ssg83
g1667
sg76
(lp1674
S'now'
p1675
asbag69
(g90
g71
NtRp1676
(dp1677
g74
(dp1678
g101
g102
ssg83
g1667
sg76
(lp1679
S':'
asbag69
(g90
g71
NtRp1680
(dp1681
g74
(dp1682
sg83
g1667
sg76
(lp1683
g69
(g70
g71
NtRp1684
(dp1685
g74
(dp1686
g82
I5
ssg83
g1680
sg76
(lp1687
S'datetime.datetime(2012, 12, 14, 15, 57, 30, 716000)'
p1688
asbasbasbag69
(g85
g71
NtRp1689
(dp1690
g74
(dp1691
sg83
g79
sg76
(lp1692
g69
(g90
g71
NtRp1693
(dp1694
g74
(dp1695
g94
g95
ssg83
g1689
sg76
(lp1696
S'post_vars'
p1697
asbag69
(g90
g71
NtRp1698
(dp1699
g74
(dp1700
g101
g102
ssg83
g1689
sg76
(lp1701
S':'
asbag69
(g90
g71
NtRp1702
(dp1703
g74
(dp1704
sg83
g1689
sg76
(lp1705
g69
(g70
g71
NtRp1706
(dp1707
g74
(dp1708
g82
I5
ssg83
g1702
sg76
(lp1709
g69
(g78
g71
NtRp1710
(dp1711
g74
(dp1712
g82
I4
ssg83
Nsg76
(lp1713
sbasbasbasbag69
(g85
g71
NtRp1714
(dp1715
g74
(dp1716
sg83
g79
sg76
(lp1717
g69
(g90
g71
NtRp1718
(dp1719
g74
(dp1720
g94
g95
ssg83
g1714
sg76
(lp1721
S'raw_args'
p1722
asbag69
(g90
g71
NtRp1723
(dp1724
g74
(dp1725
g101
g102
ssg83
g1714
sg76
(lp1726
S':'
asbag69
(g90
g71
NtRp1727
(dp1728
g74
(dp1729
sg83
g1714
sg76
(lp1730
g69
(g70
g71
NtRp1731
(dp1732
g74
(dp1733
g82
I5
ssg83
g1727
sg76
(lp1734
S'None'
p1735
asbasbasbag69
(g85
g71
NtRp1736
(dp1737
g74
(dp1738
sg83
g79
sg76
(lp1739
g69
(g90
g71
NtRp1740
(dp1741
g74
(dp1742
g94
g95
ssg83
g1736
sg76
(lp1743
S'raw_extension'
p1744
asbag69
(g90
g71
NtRp1745
(dp1746
g74
(dp1747
g101
g102
ssg83
g1736
sg76
(lp1748
S':'
asbag69
(g90
g71
NtRp1749
(dp1750
g74
(dp1751
sg83
g1736
sg76
(lp1752
g69
(g70
g71
NtRp1753
(dp1754
g74
(dp1755
g82
I5
ssg83
g1749
sg76
(lp1756
S'None'
p1757
asbasbasbag69
(g85
g71
NtRp1758
(dp1759
g74
(dp1760
sg83
g79
sg76
(lp1761
g69
(g90
g71
NtRp1762
(dp1763
g74
(dp1764
g94
g95
ssg83
g1758
sg76
(lp1765
S'url'
p1766
asbag69
(g90
g71
NtRp1767
(dp1768
g74
(dp1769
g101
g102
ssg83
g1758
sg76
(lp1770
S':'
asbag69
(g90
g71
NtRp1771
(dp1772
g74
(dp1773
sg83
g1758
sg76
(lp1774
g69
(g70
g71
NtRp1775
(dp1776
g74
(dp1777
g82
I5
ssg83
g1771
sg76
(lp1778
S'/testumgebung/default/index'
p1779
asbasbasbag69
(g85
g71
NtRp1780
(dp1781
g74
(dp1782
sg83
g79
sg76
(lp1783
g69
(g90
g71
NtRp1784
(dp1785
g74
(dp1786
g94
g95
ssg83
g1780
sg76
(lp1787
S'utcnow'
p1788
asbag69
(g90
g71
NtRp1789
(dp1790
g74
(dp1791
g101
g102
ssg83
g1780
sg76
(lp1792
S':'
asbag69
(g90
g71
NtRp1793
(dp1794
g74
(dp1795
sg83
g1780
sg76
(lp1796
g69
(g70
g71
NtRp1797
(dp1798
g74
(dp1799
g82
I5
ssg83
g1793
sg76
(lp1800
S'datetime.datetime(2012, 12, 14, 14, 57, 30, 716000)'
p1801
asbasbasbag69
(g85
g71
NtRp1802
(dp1803
g74
(dp1804
sg83
g79
sg76
(lp1805
g69
(g90
g71
NtRp1806
(dp1807
g74
(dp1808
g94
g95
ssg83
g1802
sg76
(lp1809
S'uuid'
p1810
asbag69
(g90
g71
NtRp1811
(dp1812
g74
(dp1813
g101
g102
ssg83
g1802
sg76
(lp1814
S':'
asbag69
(g90
g71
NtRp1815
(dp1816
g74
(dp1817
sg83
g1802
sg76
(lp1818
g69
(g70
g71
NtRp1819
(dp1820
g74
(dp1821
g82
I5
ssg83
g1815
sg76
(lp1822
S'testumgebung/10.0.0.156.2012-12-14.15-57-30.9f3121b2-0688-487c-9f84-00faaecf5891'
p1823
asbasbasbag69
(g85
g71
NtRp1824
(dp1825
g74
(dp1826
sg83
g79
sg76
(lp1827
g69
(g90
g71
NtRp1828
(dp1829
g74
(dp1830
g94
g95
ssg83
g1824
sg76
(lp1831
S'vars'
p1832
asbag69
(g90
g71
NtRp1833
(dp1834
g74
(dp1835
g101
g102
ssg83
g1824
sg76
(lp1836
S':'
asbag69
(g90
g71
NtRp1837
(dp1838
g74
(dp1839
sg83
g1824
sg76
(lp1840
g69
(g70
g71
NtRp1841
(dp1842
g74
(dp1843
g82
I5
ssg83
g1837
sg76
(lp1844
g69
(g78
g71
NtRp1845
(dp1846
g74
(dp1847
g82
I4
ssg83
Nsg76
(lp1848
sbasbasbasbag69
(g85
g71
NtRp1849
(dp1850
g74
(dp1851
sg83
g79
sg76
(lp1852
g69
(g90
g71
NtRp1853
(dp1854
g74
(dp1855
g94
g95
ssg83
g1849
sg76
(lp1856
S'wsgi'
p1857
asbag69
(g90
g71
NtRp1858
(dp1859
g74
(dp1860
g101
g102
ssg83
g1849
sg76
(lp1861
S':'
asbag69
(g90
g71
NtRp1862
(dp1863
g74
(dp1864
sg83
g1849
sg76
(lp1865
g69
(g70
g71
NtRp1866
(dp1867
g74
(dp1868
g82
I5
ssg83
g1862
sg76
(lp1869
g69
(g78
g71
NtRp1870
(dp1871
g74
(dp1872
g82
I4
ssg83
Nsg76
(lp1873
g69
(g85
g71
NtRp1874
(dp1875
g74
(dp1876
sg83
g1870
sg76
(lp1877
g69
(g90
g71
NtRp1878
(dp1879
g74
(dp1880
g94
g95
ssg83
g1874
sg76
(lp1881
S'environ'
p1882
asbag69
(g90
g71
NtRp1883
(dp1884
g74
(dp1885
g101
g102
ssg83
g1874
sg76
(lp1886
S':'
asbag69
(g90
g71
NtRp1887
(dp1888
g74
(dp1889
sg83
g1874
sg76
(lp1890
g69
(g70
g71
NtRp1891
(dp1892
g74
(dp1893
g82
I4
ssg83
g1887
sg76
(lp1894
g69
(g78
g71
NtRp1895
(dp1896
g74
(dp1897
g82
I3
ssg83
Nsg76
(lp1898
g69
(g85
g71
NtRp1899
(dp1900
g74
(dp1901
sg83
g1895
sg76
(lp1902
g69
(g90
g71
NtRp1903
(dp1904
g74
(dp1905
g94
g95
ssg83
g1899
sg76
(lp1906
S'HTTP_ACCEPT'
p1907
asbag69
(g90
g71
NtRp1908
(dp1909
g74
(dp1910
g101
g102
ssg83
g1899
sg76
(lp1911
S':'
asbag69
(g90
g71
NtRp1912
(dp1913
g74
(dp1914
sg83
g1899
sg76
(lp1915
g69
(g70
g71
NtRp1916
(dp1917
g74
(dp1918
g82
I3
ssg83
g1912
sg76
(lp1919
g474
asbasbasbag69
(g85
g71
NtRp1920
(dp1921
g74
(dp1922
sg83
g1895
sg76
(lp1923
g69
(g90
g71
NtRp1924
(dp1925
g74
(dp1926
g94
g95
ssg83
g1920
sg76
(lp1927
S'HTTP_ACCEPT_ENCODING'
p1928
asbag69
(g90
g71
NtRp1929
(dp1930
g74
(dp1931
g101
g102
ssg83
g1920
sg76
(lp1932
S':'
asbag69
(g90
g71
NtRp1933
(dp1934
g74
(dp1935
sg83
g1920
sg76
(lp1936
g69
(g70
g71
NtRp1937
(dp1938
g74
(dp1939
g82
I3
ssg83
g1933
sg76
(lp1940
g496
asbasbasbag69
(g85
g71
NtRp1941
(dp1942
g74
(dp1943
sg83
g1895
sg76
(lp1944
g69
(g90
g71
NtRp1945
(dp1946
g74
(dp1947
g94
g95
ssg83
g1941
sg76
(lp1948
S'HTTP_ACCEPT_LANGUAGE'
p1949
asbag69
(g90
g71
NtRp1950
(dp1951
g74
(dp1952
g101
g102
ssg83
g1941
sg76
(lp1953
S':'
asbag69
(g90
g71
NtRp1954
(dp1955
g74
(dp1956
sg83
g1941
sg76
(lp1957
g69
(g70
g71
NtRp1958
(dp1959
g74
(dp1960
g82
I3
ssg83
g1954
sg76
(lp1961
g518
asbasbasbag69
(g85
g71
NtRp1962
(dp1963
g74
(dp1964
sg83
g1895
sg76
(lp1965
g69
(g90
g71
NtRp1966
(dp1967
g74
(dp1968
g94
g95
ssg83
g1962
sg76
(lp1969
S'HTTP_CONNECTION'
p1970
asbag69
(g90
g71
NtRp1971
(dp1972
g74
(dp1973
g101
g102
ssg83
g1962
sg76
(lp1974
S':'
asbag69
(g90
g71
NtRp1975
(dp1976
g74
(dp1977
sg83
g1962
sg76
(lp1978
g69
(g70
g71
NtRp1979
(dp1980
g74
(dp1981
g82
I3
ssg83
g1975
sg76
(lp1982
g540
asbasbasbag69
(g85
g71
NtRp1983
(dp1984
g74
(dp1985
sg83
g1895
sg76
(lp1986
g69
(g90
g71
NtRp1987
(dp1988
g74
(dp1989
g94
g95
ssg83
g1983
sg76
(lp1990
S'HTTP_HOST'
p1991
asbag69
(g90
g71
NtRp1992
(dp1993
g74
(dp1994
g101
g102
ssg83
g1983
sg76
(lp1995
S':'
asbag69
(g90
g71
NtRp1996
(dp1997
g74
(dp1998
sg83
g1983
sg76
(lp1999
g69
(g70
g71
NtRp2000
(dp2001
g74
(dp2002
g82
I3
ssg83
g1996
sg76
(lp2003
g562
asbasbasbag69
(g85
g71
NtRp2004
(dp2005
g74
(dp2006
sg83
g1895
sg76
(lp2007
g69
(g90
g71
NtRp2008
(dp2009
g74
(dp2010
g94
g95
ssg83
g2004
sg76
(lp2011
S'HTTP_USER_AGENT'
p2012
asbag69
(g90
g71
NtRp2013
(dp2014
g74
(dp2015
g101
g102
ssg83
g2004
sg76
(lp2016
S':'
asbag69
(g90
g71
NtRp2017
(dp2018
g74
(dp2019
sg83
g2004
sg76
(lp2020
g69
(g70
g71
NtRp2021
(dp2022
g74
(dp2023
g82
I3
ssg83
g2017
sg76
(lp2024
g584
asbasbasbag69
(g85
g71
NtRp2025
(dp2026
g74
(dp2027
sg83
g1895
sg76
(lp2028
g69
(g90
g71
NtRp2029
(dp2030
g74
(dp2031
g94
g95
ssg83
g2025
sg76
(lp2032
S'PATH_INFO'
p2033
asbag69
(g90
g71
NtRp2034
(dp2035
g74
(dp2036
g101
g102
ssg83
g2025
sg76
(lp2037
S':'
asbag69
(g90
g71
NtRp2038
(dp2039
g74
(dp2040
sg83
g2025
sg76
(lp2041
g69
(g70
g71
NtRp2042
(dp2043
g74
(dp2044
g82
I3
ssg83
g2038
sg76
(lp2045
g648
asbasbasbag69
(g85
g71
NtRp2046
(dp2047
g74
(dp2048
sg83
g1895
sg76
(lp2049
g69
(g90
g71
NtRp2050
(dp2051
g74
(dp2052
g94
g95
ssg83
g2046
sg76
(lp2053
S'QUERY_STRING'
p2054
asbag69
(g90
g71
NtRp2055
(dp2056
g74
(dp2057
g101
g102
ssg83
g2046
sg76
(lp2058
S':'
asbag69
(g90
g71
NtRp2059
(dp2060
g74
(dp2061
sg83
g2046
sg76
(lp2062
g69
(g70
g71
NtRp2063
(dp2064
g74
(dp2065
g82
I3
ssg83
g2059
sg76
(lp2066
S''
asbasbasbag69
(g85
g71
NtRp2067
(dp2068
g74
(dp2069
sg83
g1895
sg76
(lp2070
g69
(g90
g71
NtRp2071
(dp2072
g74
(dp2073
g94
g95
ssg83
g2067
sg76
(lp2074
S'REMOTE_ADDR'
p2075
asbag69
(g90
g71
NtRp2076
(dp2077
g74
(dp2078
g101
g102
ssg83
g2067
sg76
(lp2079
S':'
asbag69
(g90
g71
NtRp2080
(dp2081
g74
(dp2082
sg83
g2067
sg76
(lp2083
g69
(g70
g71
NtRp2084
(dp2085
g74
(dp2086
g82
I3
ssg83
g2080
sg76
(lp2087
g224
asbasbasbag69
(g85
g71
NtRp2088
(dp2089
g74
(dp2090
sg83
g1895
sg76
(lp2091
g69
(g90
g71
NtRp2092
(dp2093
g74
(dp2094
g94
g95
ssg83
g2088
sg76
(lp2095
S'REMOTE_PORT'
p2096
asbag69
(g90
g71
NtRp2097
(dp2098
g74
(dp2099
g101
g102
ssg83
g2088
sg76
(lp2100
S':'
asbag69
(g90
g71
NtRp2101
(dp2102
g74
(dp2103
sg83
g2088
sg76
(lp2104
g69
(g70
g71
NtRp2105
(dp2106
g74
(dp2107
g82
I3
ssg83
g2101
sg76
(lp2108
g712
asbasbasbag69
(g85
g71
NtRp2109
(dp2110
g74
(dp2111
sg83
g1895
sg76
(lp2112
g69
(g90
g71
NtRp2113
(dp2114
g74
(dp2115
g94
g95
ssg83
g2109
sg76
(lp2116
S'REQUEST_METHOD'
p2117
asbag69
(g90
g71
NtRp2118
(dp2119
g74
(dp2120
g101
g102
ssg83
g2109
sg76
(lp2121
S':'
asbag69
(g90
g71
NtRp2122
(dp2123
g74
(dp2124
sg83
g2109
sg76
(lp2125
g69
(g70
g71
NtRp2126
(dp2127
g74
(dp2128
g82
I3
ssg83
g2122
sg76
(lp2129
g734
asbasbasbag69
(g85
g71
NtRp2130
(dp2131
g74
(dp2132
sg83
g1895
sg76
(lp2133
g69
(g90
g71
NtRp2134
(dp2135
g74
(dp2136
g94
g95
ssg83
g2130
sg76
(lp2137
S'REQUEST_URI'
p2138
asbag69
(g90
g71
NtRp2139
(dp2140
g74
(dp2141
g101
g102
ssg83
g2130
sg76
(lp2142
S':'
asbag69
(g90
g71
NtRp2143
(dp2144
g74
(dp2145
sg83
g2130
sg76
(lp2146
g69
(g70
g71
NtRp2147
(dp2148
g74
(dp2149
g82
I3
ssg83
g2143
sg76
(lp2150
g648
asbasbasbag69
(g85
g71
NtRp2151
(dp2152
g74
(dp2153
sg83
g1895
sg76
(lp2154
g69
(g90
g71
NtRp2155
(dp2156
g74
(dp2157
g94
g95
ssg83
g2151
sg76
(lp2158
S'SCRIPT_NAME'
p2159
asbag69
(g90
g71
NtRp2160
(dp2161
g74
(dp2162
g101
g102
ssg83
g2151
sg76
(lp2163
S':'
asbag69
(g90
g71
NtRp2164
(dp2165
g74
(dp2166
sg83
g2151
sg76
(lp2167
g69
(g70
g71
NtRp2168
(dp2169
g74
(dp2170
g82
I3
ssg83
g2164
sg76
(lp2171
S''
asbasbasbag69
(g85
g71
NtRp2172
(dp2173
g74
(dp2174
sg83
g1895
sg76
(lp2175
g69
(g90
g71
NtRp2176
(dp2177
g74
(dp2178
g94
g95
ssg83
g2172
sg76
(lp2179
S'SERVER_NAME'
p2180
asbag69
(g90
g71
NtRp2181
(dp2182
g74
(dp2183
g101
g102
ssg83
g2172
sg76
(lp2184
S':'
asbag69
(g90
g71
NtRp2185
(dp2186
g74
(dp2187
sg83
g2172
sg76
(lp2188
g69
(g70
g71
NtRp2189
(dp2190
g74
(dp2191
g82
I3
ssg83
g2185
sg76
(lp2192
g798
asbasbasbag69
(g85
g71
NtRp2193
(dp2194
g74
(dp2195
sg83
g1895
sg76
(lp2196
g69
(g90
g71
NtRp2197
(dp2198
g74
(dp2199
g94
g95
ssg83
g2193
sg76
(lp2200
S'SERVER_PORT'
p2201
asbag69
(g90
g71
NtRp2202
(dp2203
g74
(dp2204
g101
g102
ssg83
g2193
sg76
(lp2205
S':'
asbag69
(g90
g71
NtRp2206
(dp2207
g74
(dp2208
sg83
g2193
sg76
(lp2209
g69
(g70
g71
NtRp2210
(dp2211
g74
(dp2212
g82
I3
ssg83
g2206
sg76
(lp2213
g820
asbasbasbag69
(g85
g71
NtRp2214
(dp2215
g74
(dp2216
sg83
g1895
sg76
(lp2217
g69
(g90
g71
NtRp2218
(dp2219
g74
(dp2220
g94
g95
ssg83
g2214
sg76
(lp2221
S'SERVER_PROTOCOL'
p2222
asbag69
(g90
g71
NtRp2223
(dp2224
g74
(dp2225
g101
g102
ssg83
g2214
sg76
(lp2226
S':'
asbag69
(g90
g71
NtRp2227
(dp2228
g74
(dp2229
sg83
g2214
sg76
(lp2230
g69
(g70
g71
NtRp2231
(dp2232
g74
(dp2233
g82
I3
ssg83
g2227
sg76
(lp2234
g842
asbasbasbag69
(g85
g71
NtRp2235
(dp2236
g74
(dp2237
sg83
g1895
sg76
(lp2238
g69
(g90
g71
NtRp2239
(dp2240
g74
(dp2241
g94
g95
ssg83
g2235
sg76
(lp2242
S'SERVER_SOFTWARE'
p2243
asbag69
(g90
g71
NtRp2244
(dp2245
g74
(dp2246
g101
g102
ssg83
g2235
sg76
(lp2247
S':'
asbag69
(g90
g71
NtRp2248
(dp2249
g74
(dp2250
sg83
g2235
sg76
(lp2251
g69
(g70
g71
NtRp2252
(dp2253
g74
(dp2254
g82
I3
ssg83
g2248
sg76
(lp2255
g864
asbasbasbag69
(g85
g71
NtRp2256
(dp2257
g74
(dp2258
sg83
g1895
sg76
(lp2259
g69
(g90
g71
NtRp2260
(dp2261
g74
(dp2262
g94
g95
ssg83
g2256
sg76
(lp2263
S'wsgi.errors'
p2264
asbag69
(g90
g71
NtRp2265
(dp2266
g74
(dp2267
g101
g102
ssg83
g2256
sg76
(lp2268
S':'
asbag69
(g90
g71
NtRp2269
(dp2270
g74
(dp2271
sg83
g2256
sg76
(lp2272
g69
(g70
g71
NtRp2273
(dp2274
g74
(dp2275
g82
I3
ssg83
g2269
sg76
(lp2276
S"<open file '<stderr>', mode 'w' at 0x021D50D0>"
p2277
asbasbasbag69
(g85
g71
NtRp2278
(dp2279
g74
(dp2280
sg83
g1895
sg76
(lp2281
g69
(g90
g71
NtRp2282
(dp2283
g74
(dp2284
g94
g95
ssg83
g2278
sg76
(lp2285
S'wsgi.file_wrapper'
p2286
asbag69
(g90
g71
NtRp2287
(dp2288
g74
(dp2289
g101
g102
ssg83
g2278
sg76
(lp2290
S':'
asbag69
(g90
g71
NtRp2291
(dp2292
g74
(dp2293
sg83
g2278
sg76
(lp2294
g69
(g70
g71
NtRp2295
(dp2296
g74
(dp2297
g82
I3
ssg83
g2291
sg76
(lp2298
S'<class wsgiref.util.FileWrapper at 0x02C1D030>'
p2299
asbasbasbag69
(g85
g71
NtRp2300
(dp2301
g74
(dp2302
sg83
g1895
sg76
(lp2303
g69
(g90
g71
NtRp2304
(dp2305
g74
(dp2306
g94
g95
ssg83
g2300
sg76
(lp2307
S'wsgi.input'
p2308
asbag69
(g90
g71
NtRp2309
(dp2310
g74
(dp2311
g101
g102
ssg83
g2300
sg76
(lp2312
S':'
asbag69
(g90
g71
NtRp2313
(dp2314
g74
(dp2315
sg83
g2300
sg76
(lp2316
g69
(g70
g71
NtRp2317
(dp2318
g74
(dp2319
g82
I3
ssg83
g2313
sg76
(lp2320
S'<cStringIO.StringO object at 0x06FACBE0>'
p2321
asbasbasbag69
(g85
g71
NtRp2322
(dp2323
g74
(dp2324
sg83
g1895
sg76
(lp2325
g69
(g90
g71
NtRp2326
(dp2327
g74
(dp2328
g94
g95
ssg83
g2322
sg76
(lp2329
S'wsgi.multiprocess'
p2330
asbag69
(g90
g71
NtRp2331
(dp2332
g74
(dp2333
g101
g102
ssg83
g2322
sg76
(lp2334
S':'
asbag69
(g90
g71
NtRp2335
(dp2336
g74
(dp2337
sg83
g2322
sg76
(lp2338
g69
(g70
g71
NtRp2339
(dp2340
g74
(dp2341
g82
I3
ssg83
g2335
sg76
(lp2342
g112
asbasbasbag69
(g85
g71
NtRp2343
(dp2344
g74
(dp2345
sg83
g1895
sg76
(lp2346
g69
(g90
g71
NtRp2347
(dp2348
g74
(dp2349
g94
g95
ssg83
g2343
sg76
(lp2350
S'wsgi.multithread'
p2351
asbag69
(g90
g71
NtRp2352
(dp2353
g74
(dp2354
g101
g102
ssg83
g2343
sg76
(lp2355
S':'
asbag69
(g90
g71
NtRp2356
(dp2357
g74
(dp2358
sg83
g2343
sg76
(lp2359
g69
(g70
g71
NtRp2360
(dp2361
g74
(dp2362
g82
I3
ssg83
g2356
sg76
(lp2363
g1103
asbasbasbag69
(g85
g71
NtRp2364
(dp2365
g74
(dp2366
sg83
g1895
sg76
(lp2367
g69
(g90
g71
NtRp2368
(dp2369
g74
(dp2370
g94
g95
ssg83
g2364
sg76
(lp2371
S'wsgi.run_once'
p2372
asbag69
(g90
g71
NtRp2373
(dp2374
g74
(dp2375
g101
g102
ssg83
g2364
sg76
(lp2376
S':'
asbag69
(g90
g71
NtRp2377
(dp2378
g74
(dp2379
sg83
g2364
sg76
(lp2380
g69
(g70
g71
NtRp2381
(dp2382
g74
(dp2383
g82
I3
ssg83
g2377
sg76
(lp2384
g112
asbasbasbag69
(g85
g71
NtRp2385
(dp2386
g74
(dp2387
sg83
g1895
sg76
(lp2388
g69
(g90
g71
NtRp2389
(dp2390
g74
(dp2391
g94
g95
ssg83
g2385
sg76
(lp2392
S'wsgi.url_scheme'
p2393
asbag69
(g90
g71
NtRp2394
(dp2395
g74
(dp2396
g101
g102
ssg83
g2385
sg76
(lp2397
S':'
asbag69
(g90
g71
NtRp2398
(dp2399
g74
(dp2400
sg83
g2385
sg76
(lp2401
g69
(g70
g71
NtRp2402
(dp2403
g74
(dp2404
g82
I3
ssg83
g2398
sg76
(lp2405
g1146
asbasbasbag69
(g85
g71
NtRp2406
(dp2407
g74
(dp2408
sg83
g1895
sg76
(lp2409
g69
(g90
g71
NtRp2410
(dp2411
g74
(dp2412
g94
g95
ssg83
g2406
sg76
(lp2413
S'wsgi.version'
p2414
asbag69
(g90
g71
NtRp2415
(dp2416
g74
(dp2417
g101
g102
ssg83
g2406
sg76
(lp2418
S':'
asbag69
(g90
g71
NtRp2419
(dp2420
g74
(dp2421
sg83
g2406
sg76
(lp2422
g69
(g70
g71
NtRp2423
(dp2424
g74
(dp2425
g82
I3
ssg83
g2419
sg76
(lp2426
S'1'
asbasbasbasbasbasbasbasbasbasbasbasbasbsS'frames'
p2427
(lp2428
(dp2429
S'file'
p2430
S'C:\\xampp\\htdocs\\web2py\\gluon\\restricted.py'
p2431
sS'dump'
p2432
(dp2433
sS'lnum'
p2434
I208
sS'lines'
p2435
(dp2436
sS'call'
p2437
S"(code='# -*- coding: utf-8 -*-\\nfrom gluon.custom_import...ble auditing\\n# auth.enable_record_versioning(db)\\n', environment={'A': <class 'gluon.html.A'>, 'B': <class 'gluon.html.B'>, 'BEAUTIFY': <class 'gluon.html.BEAUTIFY'>, 'BODY': <class 'gluon.html.BODY'>, 'BR': <class 'gluon.html.BR'>, 'BUTTON': <class 'gluon.html.BUTTON'>, 'CAT': <class 'gluon.html.CAT'>, 'CENTER': <class 'gluon.html.CENTER'>, 'CLEANUP': <class 'gluon.validators.CLEANUP'>, 'CODE': <class 'gluon.html.CODE'>, ...}, layer=r'C:\\xampp\\htdocs\\web2py\\applications\\testumgebung\\models\\db.py')"
p2438
sS'func'
p2439
S'restricted'
p2440
sa(dp2441
g2430
S'C:\\xampp\\htdocs\\web2py\\gluon\\restricted.py'
p2442
sg2432
(dp2443
sg2434
I193
sg2435
(dp2444
sg2437
S"(code='# -*- coding: utf-8 -*-\\nfrom gluon.custom_import...ble auditing\\n# auth.enable_record_versioning(db)\\n', layer=r'C:\\xampp\\htdocs\\web2py\\applications\\testumgebung\\models\\db.py')"
p2445
sg2439
S'compile2'
p2446
sasS'pyver'
p2447
S'Python 2.7: C:\\xampp\\htdocs\\web2py\\web2py.exe'
p2448
sS'session'
p2449
g69
(g70
g71
NtRp2450
(dp2451
g74
(dp2452
sg76
(lp2453
g69
(g78
g71
NtRp2454
(dp2455
g74
(dp2456
g82
I5
ssg83
Nsg76
(lp2457
sbasbsS'etype'
p2458
S"<type 'exceptions.SyntaxError'>"
p2459
sS'date'
p2460
S'Fri Dec 14 15:57:30 2012'
p2461
sS'response'
p2462
g69
(g70
g71
NtRp2463
(dp2464
g74
(dp2465
sg76
(lp2466
g69
(g78
g71
NtRp2467
(dp2468
g74
(dp2469
g82
I5
ssg83
Nsg76
(lp2470
g69
(g85
g71
NtRp2471
(dp2472
g74
(dp2473
sg83
g2467
sg76
(lp2474
g69
(g90
g71
NtRp2475
(dp2476
g74
(dp2477
g94
g95
ssg83
g2471
sg76
(lp2478
g167
asbag69
(g90
g71
NtRp2479
(dp2480
g74
(dp2481
g101
g102
ssg83
g2471
sg76
(lp2482
S':'
asbag69
(g90
g71
NtRp2483
(dp2484
g74
(dp2485
sg83
g2471
sg76
(lp2486
g69
(g70
g71
NtRp2487
(dp2488
g74
(dp2489
g82
I5
ssg83
g2483
sg76
(lp2490
S'<cStringIO.StringO object at 0x06D1F480>'
p2491
asbasbasbag69
(g85
g71
NtRp2492
(dp2493
g74
(dp2494
sg83
g2467
sg76
(lp2495
g69
(g90
g71
NtRp2496
(dp2497
g74
(dp2498
g94
g95
ssg83
g2492
sg76
(lp2499
g255
asbag69
(g90
g71
NtRp2500
(dp2501
g74
(dp2502
g101
g102
ssg83
g2492
sg76
(lp2503
S':'
asbag69
(g90
g71
NtRp2504
(dp2505
g74
(dp2506
sg83
g2492
sg76
(lp2507
g69
(g70
g71
NtRp2508
(dp2509
g74
(dp2510
g82
I5
ssg83
g2504
sg76
(lp2511
g69
(g78
g71
NtRp2512
(dp2513
g74
(dp2514
g82
I4
ssg83
Nsg76
(lp2515
g69
(g85
g71
NtRp2516
(dp2517
g74
(dp2518
sg83
g2512
sg76
(lp2519
g69
(g90
g71
NtRp2520
(dp2521
g74
(dp2522
g94
g95
ssg83
g2516
sg76
(lp2523
S'session_id_testumgebung'
p2524
asbag69
(g90
g71
NtRp2525
(dp2526
g74
(dp2527
g101
g102
ssg83
g2516
sg76
(lp2528
S':'
asbag69
(g90
g71
NtRp2529
(dp2530
g74
(dp2531
sg83
g2516
sg76
(lp2532
g69
(g70
g71
NtRp2533
(dp2534
g74
(dp2535
g82
I4
ssg83
g2529
sg76
(lp2536
S'10.0.0.156-e87b5ace-7678-4127-bfe7-b98a359e147c'
p2537
ag69
(g78
g71
NtRp2538
(dp2539
g74
(dp2540
g82
I3
ssg83
Nsg76
(lp2541
g69
(g85
g71
NtRp2542
(dp2543
g74
(dp2544
sg83
g2538
sg76
(lp2545
g69
(g90
g71
NtRp2546
(dp2547
g74
(dp2548
g94
g95
ssg83
g2542
sg76
(lp2549
S'comment'
p2550
asbag69
(g90
g71
NtRp2551
(dp2552
g74
(dp2553
g101
g102
ssg83
g2542
sg76
(lp2554
S':'
asbag69
(g90
g71
NtRp2555
(dp2556
g74
(dp2557
sg83
g2542
sg76
(lp2558
g69
(g70
g71
NtRp2559
(dp2560
g74
(dp2561
g82
I3
ssg83
g2555
sg76
(lp2562
S''
asbasbasbag69
(g85
g71
NtRp2563
(dp2564
g74
(dp2565
sg83
g2538
sg76
(lp2566
g69
(g90
g71
NtRp2567
(dp2568
g74
(dp2569
g94
g95
ssg83
g2563
sg76
(lp2570
S'domain'
p2571
asbag69
(g90
g71
NtRp2572
(dp2573
g74
(dp2574
g101
g102
ssg83
g2563
sg76
(lp2575
S':'
asbag69
(g90
g71
NtRp2576
(dp2577
g74
(dp2578
sg83
g2563
sg76
(lp2579
g69
(g70
g71
NtRp2580
(dp2581
g74
(dp2582
g82
I3
ssg83
g2576
sg76
(lp2583
S''
asbasbasbag69
(g85
g71
NtRp2584
(dp2585
g74
(dp2586
sg83
g2538
sg76
(lp2587
g69
(g90
g71
NtRp2588
(dp2589
g74
(dp2590
g94
g95
ssg83
g2584
sg76
(lp2591
S'expires'
p2592
asbag69
(g90
g71
NtRp2593
(dp2594
g74
(dp2595
g101
g102
ssg83
g2584
sg76
(lp2596
S':'
asbag69
(g90
g71
NtRp2597
(dp2598
g74
(dp2599
sg83
g2584
sg76
(lp2600
g69
(g70
g71
NtRp2601
(dp2602
g74
(dp2603
g82
I3
ssg83
g2597
sg76
(lp2604
S''
asbasbasbag69
(g85
g71
NtRp2605
(dp2606
g74
(dp2607
sg83
g2538
sg76
(lp2608
g69
(g90
g71
NtRp2609
(dp2610
g74
(dp2611
g94
g95
ssg83
g2605
sg76
(lp2612
S'httponly'
p2613
asbag69
(g90
g71
NtRp2614
(dp2615
g74
(dp2616
g101
g102
ssg83
g2605
sg76
(lp2617
S':'
asbag69
(g90
g71
NtRp2618
(dp2619
g74
(dp2620
sg83
g2605
sg76
(lp2621
g69
(g70
g71
NtRp2622
(dp2623
g74
(dp2624
g82
I3
ssg83
g2618
sg76
(lp2625
S''
asbasbasbag69
(g85
g71
NtRp2626
(dp2627
g74
(dp2628
sg83
g2538
sg76
(lp2629
g69
(g90
g71
NtRp2630
(dp2631
g74
(dp2632
g94
g95
ssg83
g2626
sg76
(lp2633
S'max-age'
p2634
asbag69
(g90
g71
NtRp2635
(dp2636
g74
(dp2637
g101
g102
ssg83
g2626
sg76
(lp2638
S':'
asbag69
(g90
g71
NtRp2639
(dp2640
g74
(dp2641
sg83
g2626
sg76
(lp2642
g69
(g70
g71
NtRp2643
(dp2644
g74
(dp2645
g82
I3
ssg83
g2639
sg76
(lp2646
S''
asbasbasbag69
(g85
g71
NtRp2647
(dp2648
g74
(dp2649
sg83
g2538
sg76
(lp2650
g69
(g90
g71
NtRp2651
(dp2652
g74
(dp2653
g94
g95
ssg83
g2647
sg76
(lp2654
S'path'
p2655
asbag69
(g90
g71
NtRp2656
(dp2657
g74
(dp2658
g101
g102
ssg83
g2647
sg76
(lp2659
S':'
asbag69
(g90
g71
NtRp2660
(dp2661
g74
(dp2662
sg83
g2647
sg76
(lp2663
g69
(g70
g71
NtRp2664
(dp2665
g74
(dp2666
g82
I3
ssg83
g2660
sg76
(lp2667
S'/'
asbasbasbag69
(g85
g71
NtRp2668
(dp2669
g74
(dp2670
sg83
g2538
sg76
(lp2671
g69
(g90
g71
NtRp2672
(dp2673
g74
(dp2674
g94
g95
ssg83
g2668
sg76
(lp2675
S'secure'
p2676
asbag69
(g90
g71
NtRp2677
(dp2678
g74
(dp2679
g101
g102
ssg83
g2668
sg76
(lp2680
S':'
asbag69
(g90
g71
NtRp2681
(dp2682
g74
(dp2683
sg83
g2668
sg76
(lp2684
g69
(g70
g71
NtRp2685
(dp2686
g74
(dp2687
g82
I3
ssg83
g2681
sg76
(lp2688
S''
asbasbasbag69
(g85
g71
NtRp2689
(dp2690
g74
(dp2691
sg83
g2538
sg76
(lp2692
g69
(g90
g71
NtRp2693
(dp2694
g74
(dp2695
g94
g95
ssg83
g2689
sg76
(lp2696
S'version'
p2697
asbag69
(g90
g71
NtRp2698
(dp2699
g74
(dp2700
g101
g102
ssg83
g2689
sg76
(lp2701
S':'
asbag69
(g90
g71
NtRp2702
(dp2703
g74
(dp2704
sg83
g2689
sg76
(lp2705
g69
(g70
g71
NtRp2706
(dp2707
g74
(dp2708
g82
I3
ssg83
g2702
sg76
(lp2709
S''
asbasbasbasbasbasbasbasbasbasbasbag69
(g85
g71
NtRp2710
(dp2711
g74
(dp2712
sg83
g2467
sg76
(lp2713
g69
(g90
g71
NtRp2714
(dp2715
g74
(dp2716
g94
g95
ssg83
g2710
sg76
(lp2717
S'delimiters'
p2718
asbag69
(g90
g71
NtRp2719
(dp2720
g74
(dp2721
g101
g102
ssg83
g2710
sg76
(lp2722
S':'
asbag69
(g90
g71
NtRp2723
(dp2724
g74
(dp2725
sg83
g2710
sg76
(lp2726
g69
(g70
g71
NtRp2727
(dp2728
g74
(dp2729
g82
I5
ssg83
g2723
sg76
(lp2730
g69
(g78
g71
NtRp2731
(dp2732
g74
(dp2733
g82
I4
ssg83
Nsg76
(lp2734
g69
(g85
g71
NtRp2735
(dp2736
g74
(dp2737
sg83
g2731
sg76
(lp2738
g69
(g90
g71
NtRp2739
(dp2740
g74
(dp2741
sg83
g2735
sg76
(lp2742
g69
(g70
g71
NtRp2743
(dp2744
g74
(dp2745
g82
I4
ssg83
g2739
sg76
(lp2746
S'{{'
p2747
asbasbasbag69
(g85
g71
NtRp2748
(dp2749
g74
(dp2750
sg83
g2731
sg76
(lp2751
g69
(g90
g71
NtRp2752
(dp2753
g74
(dp2754
sg83
g2748
sg76
(lp2755
g69
(g70
g71
NtRp2756
(dp2757
g74
(dp2758
g82
I4
ssg83
g2752
sg76
(lp2759
S'}}'
p2760
asbasbasbasbasbasbasbag69
(g85
g71
NtRp2761
(dp2762
g74
(dp2763
sg83
g2467
sg76
(lp2764
g69
(g90
g71
NtRp2765
(dp2766
g74
(dp2767
g94
g95
ssg83
g2761
sg76
(lp2768
S'files'
p2769
asbag69
(g90
g71
NtRp2770
(dp2771
g74
(dp2772
g101
g102
ssg83
g2761
sg76
(lp2773
S':'
asbag69
(g90
g71
NtRp2774
(dp2775
g74
(dp2776
sg83
g2761
sg76
(lp2777
g69
(g70
g71
NtRp2778
(dp2779
g74
(dp2780
g82
I5
ssg83
g2774
sg76
(lp2781
g69
(g78
g71
NtRp2782
(dp2783
g74
(dp2784
g82
I4
ssg83
Nsg76
(lp2785
sbasbasbasbag69
(g85
g71
NtRp2786
(dp2787
g74
(dp2788
sg83
g2467
sg76
(lp2789
g69
(g90
g71
NtRp2790
(dp2791
g74
(dp2792
g94
g95
ssg83
g2786
sg76
(lp2793
S'flash'
p2794
asbag69
(g90
g71
NtRp2795
(dp2796
g74
(dp2797
g101
g102
ssg83
g2786
sg76
(lp2798
S':'
asbag69
(g90
g71
NtRp2799
(dp2800
g74
(dp2801
sg83
g2786
sg76
(lp2802
g69
(g70
g71
NtRp2803
(dp2804
g74
(dp2805
g82
I5
ssg83
g2799
sg76
(lp2806
S''
asbasbasbag69
(g85
g71
NtRp2807
(dp2808
g74
(dp2809
sg83
g2467
sg76
(lp2810
g69
(g90
g71
NtRp2811
(dp2812
g74
(dp2813
g94
g95
ssg83
g2807
sg76
(lp2814
S'generic_patterns'
p2815
asbag69
(g90
g71
NtRp2816
(dp2817
g74
(dp2818
g101
g102
ssg83
g2807
sg76
(lp2819
S':'
asbag69
(g90
g71
NtRp2820
(dp2821
g74
(dp2822
sg83
g2807
sg76
(lp2823
g69
(g70
g71
NtRp2824
(dp2825
g74
(dp2826
g82
I5
ssg83
g2820
sg76
(lp2827
g69
(g78
g71
NtRp2828
(dp2829
g74
(dp2830
g82
I4
ssg83
Nsg76
(lp2831
sbasbasbasbag69
(g85
g71
NtRp2832
(dp2833
g74
(dp2834
sg83
g2467
sg76
(lp2835
g69
(g90
g71
NtRp2836
(dp2837
g74
(dp2838
g94
g95
ssg83
g2832
sg76
(lp2839
S'headers'
p2840
asbag69
(g90
g71
NtRp2841
(dp2842
g74
(dp2843
g101
g102
ssg83
g2832
sg76
(lp2844
S':'
asbag69
(g90
g71
NtRp2845
(dp2846
g74
(dp2847
sg83
g2832
sg76
(lp2848
g69
(g70
g71
NtRp2849
(dp2850
g74
(dp2851
g82
I5
ssg83
g2845
sg76
(lp2852
g69
(g78
g71
NtRp2853
(dp2854
g74
(dp2855
g82
I4
ssg83
Nsg76
(lp2856
g69
(g85
g71
NtRp2857
(dp2858
g74
(dp2859
sg83
g2853
sg76
(lp2860
g69
(g90
g71
NtRp2861
(dp2862
g74
(dp2863
g94
g95
ssg83
g2857
sg76
(lp2864
S'Cache-Control'
p2865
asbag69
(g90
g71
NtRp2866
(dp2867
g74
(dp2868
g101
g102
ssg83
g2857
sg76
(lp2869
S':'
asbag69
(g90
g71
NtRp2870
(dp2871
g74
(dp2872
sg83
g2857
sg76
(lp2873
g69
(g70
g71
NtRp2874
(dp2875
g74
(dp2876
g82
I4
ssg83
g2870
sg76
(lp2877
S'no-store, no-cache, must-revalidate, post-check=0, pre-check=0'
p2878
asbasbasbag69
(g85
g71
NtRp2879
(dp2880
g74
(dp2881
sg83
g2853
sg76
(lp2882
g69
(g90
g71
NtRp2883
(dp2884
g74
(dp2885
g94
g95
ssg83
g2879
sg76
(lp2886
S'Content-Type'
p2887
asbag69
(g90
g71
NtRp2888
(dp2889
g74
(dp2890
g101
g102
ssg83
g2879
sg76
(lp2891
S':'
asbag69
(g90
g71
NtRp2892
(dp2893
g74
(dp2894
sg83
g2879
sg76
(lp2895
g69
(g70
g71
NtRp2896
(dp2897
g74
(dp2898
g82
I4
ssg83
g2892
sg76
(lp2899
S'text/html; charset=utf-8'
p2900
asbasbasbag69
(g85
g71
NtRp2901
(dp2902
g74
(dp2903
sg83
g2853
sg76
(lp2904
g69
(g90
g71
NtRp2905
(dp2906
g74
(dp2907
g94
g95
ssg83
g2901
sg76
(lp2908
S'Expires'
p2909
asbag69
(g90
g71
NtRp2910
(dp2911
g74
(dp2912
g101
g102
ssg83
g2901
sg76
(lp2913
S':'
asbag69
(g90
g71
NtRp2914
(dp2915
g74
(dp2916
sg83
g2901
sg76
(lp2917
g69
(g70
g71
NtRp2918
(dp2919
g74
(dp2920
g82
I4
ssg83
g2914
sg76
(lp2921
S'Fri, 14 Dec 2012 14:57:30 GMT'
p2922
asbasbasbag69
(g85
g71
NtRp2923
(dp2924
g74
(dp2925
sg83
g2853
sg76
(lp2926
g69
(g90
g71
NtRp2927
(dp2928
g74
(dp2929
g94
g95
ssg83
g2923
sg76
(lp2930
S'Pragma'
p2931
asbag69
(g90
g71
NtRp2932
(dp2933
g74
(dp2934
g101
g102
ssg83
g2923
sg76
(lp2935
S':'
asbag69
(g90
g71
NtRp2936
(dp2937
g74
(dp2938
sg83
g2923
sg76
(lp2939
g69
(g70
g71
NtRp2940
(dp2941
g74
(dp2942
g82
I4
ssg83
g2936
sg76
(lp2943
S'no-cache'
p2944
asbasbasbag69
(g85
g71
NtRp2945
(dp2946
g74
(dp2947
sg83
g2853
sg76
(lp2948
g69
(g90
g71
NtRp2949
(dp2950
g74
(dp2951
g94
g95
ssg83
g2945
sg76
(lp2952
S'X-Powered-By'
p2953
asbag69
(g90
g71
NtRp2954
(dp2955
g74
(dp2956
g101
g102
ssg83
g2945
sg76
(lp2957
S':'
asbag69
(g90
g71
NtRp2958
(dp2959
g74
(dp2960
sg83
g2945
sg76
(lp2961
g69
(g70
g71
NtRp2962
(dp2963
g74
(dp2964
g82
I4
ssg83
g2958
sg76
(lp2965
S'web2py'
p2966
asbasbasbasbasbasbasbag69
(g85
g71
NtRp2967
(dp2968
g74
(dp2969
sg83
g2467
sg76
(lp2970
g69
(g90
g71
NtRp2971
(dp2972
g74
(dp2973
g94
g95
ssg83
g2967
sg76
(lp2974
S'menu'
p2975
asbag69
(g90
g71
NtRp2976
(dp2977
g74
(dp2978
g101
g102
ssg83
g2967
sg76
(lp2979
S':'
asbag69
(g90
g71
NtRp2980
(dp2981
g74
(dp2982
sg83
g2967
sg76
(lp2983
g69
(g70
g71
NtRp2984
(dp2985
g74
(dp2986
g82
I5
ssg83
g2980
sg76
(lp2987
g69
(g78
g71
NtRp2988
(dp2989
g74
(dp2990
g82
I4
ssg83
Nsg76
(lp2991
sbasbasbasbag69
(g85
g71
NtRp2992
(dp2993
g74
(dp2994
sg83
g2467
sg76
(lp2995
g69
(g90
g71
NtRp2996
(dp2997
g74
(dp2998
g94
g95
ssg83
g2992
sg76
(lp2999
S'meta'
p3000
asbag69
(g90
g71
NtRp3001
(dp3002
g74
(dp3003
g101
g102
ssg83
g2992
sg76
(lp3004
S':'
asbag69
(g90
g71
NtRp3005
(dp3006
g74
(dp3007
sg83
g2992
sg76
(lp3008
g69
(g70
g71
NtRp3009
(dp3010
g74
(dp3011
g82
I5
ssg83
g3005
sg76
(lp3012
g69
(g78
g71
NtRp3013
(dp3014
g74
(dp3015
g82
I4
ssg83
Nsg76
(lp3016
sbasbasbasbag69
(g85
g71
NtRp3017
(dp3018
g74
(dp3019
sg83
g2467
sg76
(lp3020
g69
(g90
g71
NtRp3021
(dp3022
g74
(dp3023
g94
g95
ssg83
g3017
sg76
(lp3024
S'postprocessing'
p3025
asbag69
(g90
g71
NtRp3026
(dp3027
g74
(dp3028
g101
g102
ssg83
g3017
sg76
(lp3029
S':'
asbag69
(g90
g71
NtRp3030
(dp3031
g74
(dp3032
sg83
g3017
sg76
(lp3033
g69
(g70
g71
NtRp3034
(dp3035
g74
(dp3036
g82
I5
ssg83
g3030
sg76
(lp3037
g69
(g78
g71
NtRp3038
(dp3039
g74
(dp3040
g82
I4
ssg83
Nsg76
(lp3041
sbasbasbasbag69
(g85
g71
NtRp3042
(dp3043
g74
(dp3044
sg83
g2467
sg76
(lp3045
g69
(g90
g71
NtRp3046
(dp3047
g74
(dp3048
g94
g95
ssg83
g3042
sg76
(lp3049
S'session_filename'
p3050
asbag69
(g90
g71
NtRp3051
(dp3052
g74
(dp3053
g101
g102
ssg83
g3042
sg76
(lp3054
S':'
asbag69
(g90
g71
NtRp3055
(dp3056
g74
(dp3057
sg83
g3042
sg76
(lp3058
g69
(g70
g71
NtRp3059
(dp3060
g74
(dp3061
g82
I5
ssg83
g3055
sg76
(lp3062
S'C:\\xampp\\htdocs\\web2py\\applications\\testumgebung\\sessions\\10.0.0.156-e87b5ace-7678-4127-bfe7-b98a359e147c'
p3063
asbasbasbag69
(g85
g71
NtRp3064
(dp3065
g74
(dp3066
sg83
g2467
sg76
(lp3067
g69
(g90
g71
NtRp3068
(dp3069
g74
(dp3070
g94
g95
ssg83
g3064
sg76
(lp3071
S'session_id'
p3072
asbag69
(g90
g71
NtRp3073
(dp3074
g74
(dp3075
g101
g102
ssg83
g3064
sg76
(lp3076
S':'
asbag69
(g90
g71
NtRp3077
(dp3078
g74
(dp3079
sg83
g3064
sg76
(lp3080
g69
(g70
g71
NtRp3081
(dp3082
g74
(dp3083
g82
I5
ssg83
g3077
sg76
(lp3084
g2537
asbasbasbag69
(g85
g71
NtRp3085
(dp3086
g74
(dp3087
sg83
g2467
sg76
(lp3088
g69
(g90
g71
NtRp3089
(dp3090
g74
(dp3091
g94
g95
ssg83
g3085
sg76
(lp3092
S'session_id_name'
p3093
asbag69
(g90
g71
NtRp3094
(dp3095
g74
(dp3096
g101
g102
ssg83
g3085
sg76
(lp3097
S':'
asbag69
(g90
g71
NtRp3098
(dp3099
g74
(dp3100
sg83
g3085
sg76
(lp3101
g69
(g70
g71
NtRp3102
(dp3103
g74
(dp3104
g82
I5
ssg83
g3098
sg76
(lp3105
g2524
asbasbasbag69
(g85
g71
NtRp3106
(dp3107
g74
(dp3108
sg83
g2467
sg76
(lp3109
g69
(g90
g71
NtRp3110
(dp3111
g74
(dp3112
g94
g95
ssg83
g3106
sg76
(lp3113
S'session_new'
p3114
asbag69
(g90
g71
NtRp3115
(dp3116
g74
(dp3117
g101
g102
ssg83
g3106
sg76
(lp3118
S':'
asbag69
(g90
g71
NtRp3119
(dp3120
g74
(dp3121
sg83
g3106
sg76
(lp3122
g69
(g70
g71
NtRp3123
(dp3124
g74
(dp3125
g82
I5
ssg83
g3119
sg76
(lp3126
g1103
asbasbasbag69
(g85
g71
NtRp3127
(dp3128
g74
(dp3129
sg83
g2467
sg76
(lp3130
g69
(g90
g71
NtRp3131
(dp3132
g74
(dp3133
g94
g95
ssg83
g3127
sg76
(lp3134
S'status'
p3135
asbag69
(g90
g71
NtRp3136
(dp3137
g74
(dp3138
g101
g102
ssg83
g3127
sg76
(lp3139
S':'
asbag69
(g90
g71
NtRp3140
(dp3141
g74
(dp3142
sg83
g3127
sg76
(lp3143
g69
(g70
g71
NtRp3144
(dp3145
g74
(dp3146
g82
I5
ssg83
g3140
sg76
(lp3147
S'200'
p3148
asbasbasbag69
(g85
g71
NtRp3149
(dp3150
g74
(dp3151
sg83
g2467
sg76
(lp3152
g69
(g90
g71
NtRp3153
(dp3154
g74
(dp3155
g94
g95
ssg83
g3149
sg76
(lp3156
S'view'
p3157
asbag69
(g90
g71
NtRp3158
(dp3159
g74
(dp3160
g101
g102
ssg83
g3149
sg76
(lp3161
S':'
asbag69
(g90
g71
NtRp3162
(dp3163
g74
(dp3164
sg83
g3149
sg76
(lp3165
g69
(g70
g71
NtRp3166
(dp3167
g74
(dp3168
g82
I5
ssg83
g3162
sg76
(lp3169
S'default/index.html'
p3170
asbasbasbasbasbsS'locals'
p3171
(dp3172
g4
S"r'C:\\xampp\\htdocs\\web2py\\applications\\testumgebung\\models\\db.py'"
p3173
sg6
S"'# -*- coding: utf-8 -*-\\nfrom gluon.custom_import...ble auditing\\n# auth.enable_record_versioning(db)\\n'"
p3174
sssS'traceback'
p3175
S'Traceback (most recent call last):\n  File "gluon/restricted.py", line 208, in restricted\n  File "gluon/restricted.py", line 193, in compile2\n  File "C:\\xampp\\htdocs\\web2py\\applications\\testumgebung\\models\\db.py", line 104\n    DIV(*[] for i in range(1,6))\n              ^\nSyntaxError: invalid syntax\n'
p3176
s.