(dp1
S'output'
p2
S"<type 'exceptions.SyntaxError'> invalid syntax (db.py, line 104)"
p3
sS'layer'
p4
S'C:\\xampp\\htdocs\\web2py\\applications\\testumgebung\\models\\db.py'
p5
sS'code'
p6
S'# -*- coding: utf-8 -*-\nfrom gluon.custom_import import track_changes; track_changes(True) #todo: raus, wenn man online geht.\n#########################################################################\n## This scaffolding model makes your app work on Google App Engine too\n## File is released under public domain and you can use without limitations\n#########################################################################\n\n## if SSL/HTTPS is properly configured and you want all HTTP requests to\n## be redirected to HTTPS, uncomment the line below:\n# request.requires_https()\n\nif not request.env.web2py_runtime_gae:\n    ## if NOT running on Google App Engine use SQLite or other DB\n    db = DAL(\'sqlite://storage.sqlite\')\nelse:\n    ## connect to Google BigTable (optional \'google:datastore://namespace\')\n    db = DAL(\'google:datastore\')\n    ## store sessions and tickets there\n    session.connect(request, response, db = db)\n    ## or store session in Memcache, Redis, etc.\n    ## from gluon.contrib.memdb import MEMDB\n    ## from google.appengine.api.memcache import Client\n    ## session.connect(request, response, db = MEMDB(Client()))\n\n## by default give a view/generic.extension to all actions from localhost\n## none otherwise. a pattern can be \'controller/function.extension\'\nresponse.generic_patterns = [\'*\'] if request.is_local else []\n## (optional) optimize handling of static files\n# response.optimize_css = \'concat,minify,inline\'\n# response.optimize_js = \'concat,minify,inline\'\n\n#########################################################################\n## Here is sample code if you need for\n## - email capabilities\n## - authentication (registration, login, logout, ... )\n## - authorization (role based authorization)\n## - services (xml, csv, json, xmlrpc, jsonrpc, amf, rss)\n## - old style crud actions\n## (more options discussed in gluon/tools.py)\n#########################################################################\n\nfrom gluon.tools import Auth, Crud, Service, PluginManager, prettydate\nauth = Auth(db)\ncrud, service, plugins = Crud(db), Service(), PluginManager()\n\n## create all tables needed by auth if not custom tables\nauth.define_tables(username=False, signature=False)\n\n## configure email\nmail=auth.settings.mailer\nmail.settings.server = \'logging\' or \'smtp.gmail.com:587\'\nmail.settings.sender = \'you@gmail.com\'\nmail.settings.login = \'username:password\'\n\n## configure auth policy\nauth.settings.registration_requires_verification = False\nauth.settings.registration_requires_approval = False\nauth.settings.reset_password_requires_verification = True\n\n## if you need to use OpenID, Facebook, MySpace, Twitter, Linkedin, etc.\n## register with janrain.com, write your domain:api_key in private/janrain.key\nfrom gluon.contrib.login_methods.rpx_account import use_janrain\nuse_janrain(auth,filename=\'private/janrain.key\')\n\n#########################################################################\n## Define your tables below (or better in another model file) for example\n##\n## >>> db.define_table(\'mytable\',Field(\'myfield\',\'string\'))\n##\n## Fields can be \'string\',\'text\',\'password\',\'integer\',\'double\',\'boolean\'\n##       \'date\',\'time\',\'datetime\',\'blob\',\'upload\', \'reference TABLENAME\'\n## There is an implicit \'id integer autoincrement\' field\n## Consult manual for more options, validators, etc.\n##\n## More API examples for controllers:\n##\n## >>> db.mytable.insert(myfield=\'value\')\n## >>> rows=db(db.mytable.myfield==\'value\').select(db.mytable.ALL)\n## >>> for row in rows: print row.id, row.myfield\n#########################################################################\n\n\ndb.define_table("questions", \n                Field(\'title\', \'string\'))\n\ndb.define_table("answers",\n                Field("itemID", db.questions, requires = IS_IN_DB(db,db.questions.id,\'%(title)s\', error_message=T(\'Bitte w\xc3\xa4hlen Sie eine Frage aus\')), label = T(\'Frage\')),\n                Field(\'scale\', \'integer\', requires=IS_IN_SET({1:T(\'Trifft gar nicht zu\'),2:T(\'Trifft nicht zu\'), 3:T(\'teils-teils\'), 4:T(\'Trifft zu\'), 5:T(\'Trifft total zu\')})))\n\n\ndb.define_table("answers_smiley",\n                Field("itemID", db.questions, requires = IS_IN_DB(db,db.questions.id,\'%(title)s\', error_message=T(\'Bitte w\xc3\xa4hlen Sie eine Frage aus\')), label = T(\'Frage\')),\n                Field(\'scale\', \'integer\', requires=IS_IN_SET(range(1,6))))\n\ndb.define_table(\'answers_stars\',\n    Field(\'rating\', \'integer\',\n          requires=IS_IN_SET(range(1, 6)),  # "requires" is necessary for the rating widget\n))\n\n#db.questions.scale.widget = LikertWidget()\n\n\ndb.answers_stars.rating.represent = lambda v: \\\n    DIV(*[] for i in range(1,6))\n\n## after defining tables, uncomment below to enable auditing\n# auth.enable_record_versioning(db)\n'
p7
sS'snapshot'
p8
(dp9
S'exception'
p10
(dp11
S'__getslice__'
p12
S"<method-wrapper '__getslice__' of exceptions.SyntaxError object>"
p13
sS'text'
p14
S"'    DIV(*[] for i in range(1,6))\\n'"
p15
sS'__str__'
p16
S"<method-wrapper '__str__' of exceptions.SyntaxError object>"
p17
sS'__reduce__'
p18
S'<built-in method __reduce__ of exceptions.SyntaxError object>'
p19
sS'__dict__'
p20
S'{}'
p21
sS'__sizeof__'
p22
S'<built-in method __sizeof__ of exceptions.SyntaxError object>'
p23
sS'__init__'
p24
S"<method-wrapper '__init__' of exceptions.SyntaxError object>"
p25
sS'__setattr__'
p26
S"<method-wrapper '__setattr__' of exceptions.SyntaxError object>"
p27
sS'__reduce_ex__'
p28
S'<built-in method __reduce_ex__ of exceptions.SyntaxError object>'
p29
sS'__new__'
p30
S'<built-in method __new__ of type object>'
p31
sS'__format__'
p32
S'<built-in method __format__ of exceptions.SyntaxError object>'
p33
sS'__class__'
p34
S"<type 'exceptions.SyntaxError'>"
p35
sS'filename'
p36
S"r'C:\\xampp\\htdocs\\web2py\\applications\\testumgebung\\models\\db.py'"
p37
sS'lineno'
p38
S'104'
p39
sS'msg'
p40
S"'invalid syntax'"
p41
sS'__doc__'
p42
S"'Invalid syntax.'"
p43
sS'__getitem__'
p44
S"<method-wrapper '__getitem__' of exceptions.SyntaxError object>"
p45
sS'__setstate__'
p46
S'<built-in method __setstate__ of exceptions.SyntaxError object>'
p47
sS'__getattribute__'
p48
S"<method-wrapper '__getattribute__' of exceptions.SyntaxError object>"
p49
sS'print_file_and_line'
p50
S'None'
p51
sS'args'
p52
S"('invalid syntax', (r'C:\\xampp\\htdocs\\web2py\\applications\\testumgebung\\models\\db.py', 104, 15, '    DIV(*[] for i in range(1,6))\\n'))"
p53
sS'__subclasshook__'
p54
S'<built-in method __subclasshook__ of type object>'
p55
sS'offset'
p56
S'15'
p57
sS'__unicode__'
p58
S'<built-in method __unicode__ of exceptions.SyntaxError object>'
p59
sS'__delattr__'
p60
S"<method-wrapper '__delattr__' of exceptions.SyntaxError object>"
p61
sS'__repr__'
p62
S"<method-wrapper '__repr__' of exceptions.SyntaxError object>"
p63
sS'__hash__'
p64
S"<method-wrapper '__hash__' of exceptions.SyntaxError object>"
p65
ssS'evalue'
p66
S'invalid syntax (db.py, line 104)'
p67
sS'request'
p68
ccopy_reg
_reconstructor
p69
(cgluon.html
BEAUTIFY
p70
c__builtin__
object
p71
NtRp72
(dp73
S'attributes'
p74
(dp75
sS'components'
p76
(lp77
g69
(cgluon.html
TABLE
p78
g71
NtRp79
(dp80
g74
(dp81
S'level'
p82
I5
ssS'parent'
p83
Nsg76
(lp84
g69
(cgluon.html
TR
p85
g71
NtRp86
(dp87
g74
(dp88
sg83
g79
sg76
(lp89
g69
(cgluon.html
TD
p90
g71
NtRp91
(dp92
g74
(dp93
S'_style'
p94
S'font-weight:bold;vertical-align:top'
p95
ssg83
g86
sg76
(lp96
S'ajax'
p97
asbag69
(g90
g71
NtRp98
(dp99
g74
(dp100
S'_valign'
p101
S'top'
p102
ssg83
g86
sg76
(lp103
S':'
asbag69
(g90
g71
NtRp104
(dp105
g74
(dp106
sg83
g86
sg76
(lp107
g69
(g70
g71
NtRp108
(dp109
g74
(dp110
g82
I5
ssg83
g104
sg76
(lp111
S'False'
p112
asbasbasbag69
(g85
g71
NtRp113
(dp114
g74
(dp115
sg83
g79
sg76
(lp116
g69
(g90
g71
NtRp117
(dp118
g74
(dp119
g94
g95
ssg83
g113
sg76
(lp120
S'application'
p121
asbag69
(g90
g71
NtRp122
(dp123
g74
(dp124
g101
g102
ssg83
g113
sg76
(lp125
S':'
asbag69
(g90
g71
NtRp126
(dp127
g74
(dp128
sg83
g113
sg76
(lp129
g69
(g70
g71
NtRp130
(dp131
g74
(dp132
g82
I5
ssg83
g126
sg76
(lp133
S'testumgebung'
p134
asbasbasbag69
(g85
g71
NtRp135
(dp136
g74
(dp137
sg83
g79
sg76
(lp138
g69
(g90
g71
NtRp139
(dp140
g74
(dp141
g94
g95
ssg83
g135
sg76
(lp142
g52
asbag69
(g90
g71
NtRp143
(dp144
g74
(dp145
g101
g102
ssg83
g135
sg76
(lp146
S':'
asbag69
(g90
g71
NtRp147
(dp148
g74
(dp149
sg83
g135
sg76
(lp150
g69
(g70
g71
NtRp151
(dp152
g74
(dp153
g82
I5
ssg83
g147
sg76
(lp154
g69
(g78
g71
NtRp155
(dp156
g74
(dp157
g82
I4
ssg83
Nsg76
(lp158
sbasbasbasbag69
(g85
g71
NtRp159
(dp160
g74
(dp161
sg83
g79
sg76
(lp162
g69
(g90
g71
NtRp163
(dp164
g74
(dp165
g94
g95
ssg83
g159
sg76
(lp166
S'body'
p167
asbag69
(g90
g71
NtRp168
(dp169
g74
(dp170
g101
g102
ssg83
g159
sg76
(lp171
S':'
asbag69
(g90
g71
NtRp172
(dp173
g74
(dp174
sg83
g159
sg76
(lp175
g69
(g70
g71
NtRp176
(dp177
g74
(dp178
g82
I5
ssg83
g172
sg76
(lp179
S'<cStringIO.StringO object at 0x067C7F80>'
p180
asbasbasbag69
(g85
g71
NtRp181
(dp182
g74
(dp183
sg83
g79
sg76
(lp184
g69
(g90
g71
NtRp185
(dp186
g74
(dp187
g94
g95
ssg83
g181
sg76
(lp188
S'cid'
p189
asbag69
(g90
g71
NtRp190
(dp191
g74
(dp192
g101
g102
ssg83
g181
sg76
(lp193
S':'
asbag69
(g90
g71
NtRp194
(dp195
g74
(dp196
sg83
g181
sg76
(lp197
g69
(g70
g71
NtRp198
(dp199
g74
(dp200
g82
I5
ssg83
g194
sg76
(lp201
S'None'
p202
asbasbasbag69
(g85
g71
NtRp203
(dp204
g74
(dp205
sg83
g79
sg76
(lp206
g69
(g90
g71
NtRp207
(dp208
g74
(dp209
g94
g95
ssg83
g203
sg76
(lp210
S'client'
p211
asbag69
(g90
g71
NtRp212
(dp213
g74
(dp214
g101
g102
ssg83
g203
sg76
(lp215
S':'
asbag69
(g90
g71
NtRp216
(dp217
g74
(dp218
sg83
g203
sg76
(lp219
g69
(g70
g71
NtRp220
(dp221
g74
(dp222
g82
I5
ssg83
g216
sg76
(lp223
S'10.0.0.156'
p224
asbasbasbag69
(g85
g71
NtRp225
(dp226
g74
(dp227
sg83
g79
sg76
(lp228
g69
(g90
g71
NtRp229
(dp230
g74
(dp231
g94
g95
ssg83
g225
sg76
(lp232
S'controller'
p233
asbag69
(g90
g71
NtRp234
(dp235
g74
(dp236
g101
g102
ssg83
g225
sg76
(lp237
S':'
asbag69
(g90
g71
NtRp238
(dp239
g74
(dp240
sg83
g225
sg76
(lp241
g69
(g70
g71
NtRp242
(dp243
g74
(dp244
g82
I5
ssg83
g238
sg76
(lp245
S'default'
p246
asbasbasbag69
(g85
g71
NtRp247
(dp248
g74
(dp249
sg83
g79
sg76
(lp250
g69
(g90
g71
NtRp251
(dp252
g74
(dp253
g94
g95
ssg83
g247
sg76
(lp254
S'cookies'
p255
asbag69
(g90
g71
NtRp256
(dp257
g74
(dp258
g101
g102
ssg83
g247
sg76
(lp259
S':'
asbag69
(g90
g71
NtRp260
(dp261
g74
(dp262
sg83
g247
sg76
(lp263
g69
(g70
g71
NtRp264
(dp265
g74
(dp266
g82
I5
ssg83
g260
sg76
(lp267
g69
(g78
g71
NtRp268
(dp269
g74
(dp270
g82
I4
ssg83
Nsg76
(lp271
g69
(g85
g71
NtRp272
(dp273
g74
(dp274
sg83
g268
sg76
(lp275
g69
(g90
g71
NtRp276
(dp277
g74
(dp278
g94
g95
ssg83
g272
sg76
(lp279
S'session_id_admin'
p280
asbag69
(g90
g71
NtRp281
(dp282
g74
(dp283
g101
g102
ssg83
g272
sg76
(lp284
S':'
asbag69
(g90
g71
NtRp285
(dp286
g74
(dp287
sg83
g272
sg76
(lp288
g69
(g70
g71
NtRp289
(dp290
g74
(dp291
g82
I4
ssg83
g285
sg76
(lp292
S'10.0.0.156-48693c84-6b0c-427a-be0f-4ca7c2353dcd'
p293
ag69
(g78
g71
NtRp294
(dp295
g74
(dp296
g82
I3
ssg83
Nsg76
(lp297
g69
(g85
g71
NtRp298
(dp299
g74
(dp300
sg83
g294
sg76
(lp301
g69
(g90
g71
NtRp302
(dp303
g74
(dp304
g94
g95
ssg83
g298
sg76
(lp305
S'comment'
p306
asbag69
(g90
g71
NtRp307
(dp308
g74
(dp309
g101
g102
ssg83
g298
sg76
(lp310
S':'
asbag69
(g90
g71
NtRp311
(dp312
g74
(dp313
sg83
g298
sg76
(lp314
g69
(g70
g71
NtRp315
(dp316
g74
(dp317
g82
I3
ssg83
g311
sg76
(lp318
S''
asbasbasbag69
(g85
g71
NtRp319
(dp320
g74
(dp321
sg83
g294
sg76
(lp322
g69
(g90
g71
NtRp323
(dp324
g74
(dp325
g94
g95
ssg83
g319
sg76
(lp326
S'domain'
p327
asbag69
(g90
g71
NtRp328
(dp329
g74
(dp330
g101
g102
ssg83
g319
sg76
(lp331
S':'
asbag69
(g90
g71
NtRp332
(dp333
g74
(dp334
sg83
g319
sg76
(lp335
g69
(g70
g71
NtRp336
(dp337
g74
(dp338
g82
I3
ssg83
g332
sg76
(lp339
S''
asbasbasbag69
(g85
g71
NtRp340
(dp341
g74
(dp342
sg83
g294
sg76
(lp343
g69
(g90
g71
NtRp344
(dp345
g74
(dp346
g94
g95
ssg83
g340
sg76
(lp347
S'expires'
p348
asbag69
(g90
g71
NtRp349
(dp350
g74
(dp351
g101
g102
ssg83
g340
sg76
(lp352
S':'
asbag69
(g90
g71
NtRp353
(dp354
g74
(dp355
sg83
g340
sg76
(lp356
g69
(g70
g71
NtRp357
(dp358
g74
(dp359
g82
I3
ssg83
g353
sg76
(lp360
S''
asbasbasbag69
(g85
g71
NtRp361
(dp362
g74
(dp363
sg83
g294
sg76
(lp364
g69
(g90
g71
NtRp365
(dp366
g74
(dp367
g94
g95
ssg83
g361
sg76
(lp368
S'httponly'
p369
asbag69
(g90
g71
NtRp370
(dp371
g74
(dp372
g101
g102
ssg83
g361
sg76
(lp373
S':'
asbag69
(g90
g71
NtRp374
(dp375
g74
(dp376
sg83
g361
sg76
(lp377
g69
(g70
g71
NtRp378
(dp379
g74
(dp380
g82
I3
ssg83
g374
sg76
(lp381
S''
asbasbasbag69
(g85
g71
NtRp382
(dp383
g74
(dp384
sg83
g294
sg76
(lp385
g69
(g90
g71
NtRp386
(dp387
g74
(dp388
g94
g95
ssg83
g382
sg76
(lp389
S'max-age'
p390
asbag69
(g90
g71
NtRp391
(dp392
g74
(dp393
g101
g102
ssg83
g382
sg76
(lp394
S':'
asbag69
(g90
g71
NtRp395
(dp396
g74
(dp397
sg83
g382
sg76
(lp398
g69
(g70
g71
NtRp399
(dp400
g74
(dp401
g82
I3
ssg83
g395
sg76
(lp402
S''
asbasbasbag69
(g85
g71
NtRp403
(dp404
g74
(dp405
sg83
g294
sg76
(lp406
g69
(g90
g71
NtRp407
(dp408
g74
(dp409
g94
g95
ssg83
g403
sg76
(lp410
S'path'
p411
asbag69
(g90
g71
NtRp412
(dp413
g74
(dp414
g101
g102
ssg83
g403
sg76
(lp415
S':'
asbag69
(g90
g71
NtRp416
(dp417
g74
(dp418
sg83
g403
sg76
(lp419
g69
(g70
g71
NtRp420
(dp421
g74
(dp422
g82
I3
ssg83
g416
sg76
(lp423
S''
asbasbasbag69
(g85
g71
NtRp424
(dp425
g74
(dp426
sg83
g294
sg76
(lp427
g69
(g90
g71
NtRp428
(dp429
g74
(dp430
g94
g95
ssg83
g424
sg76
(lp431
S'secure'
p432
asbag69
(g90
g71
NtRp433
(dp434
g74
(dp435
g101
g102
ssg83
g424
sg76
(lp436
S':'
asbag69
(g90
g71
NtRp437
(dp438
g74
(dp439
sg83
g424
sg76
(lp440
g69
(g70
g71
NtRp441
(dp442
g74
(dp443
g82
I3
ssg83
g437
sg76
(lp444
S''
asbasbasbag69
(g85
g71
NtRp445
(dp446
g74
(dp447
sg83
g294
sg76
(lp448
g69
(g90
g71
NtRp449
(dp450
g74
(dp451
g94
g95
ssg83
g445
sg76
(lp452
S'version'
p453
asbag69
(g90
g71
NtRp454
(dp455
g74
(dp456
g101
g102
ssg83
g445
sg76
(lp457
S':'
asbag69
(g90
g71
NtRp458
(dp459
g74
(dp460
sg83
g445
sg76
(lp461
g69
(g70
g71
NtRp462
(dp463
g74
(dp464
g82
I3
ssg83
g458
sg76
(lp465
S''
asbasbasbasbasbasbasbasbasbasbasbag69
(g85
g71
NtRp466
(dp467
g74
(dp468
sg83
g79
sg76
(lp469
g69
(g90
g71
NtRp470
(dp471
g74
(dp472
g94
g95
ssg83
g466
sg76
(lp473
S'env'
p474
asbag69
(g90
g71
NtRp475
(dp476
g74
(dp477
g101
g102
ssg83
g466
sg76
(lp478
S':'
asbag69
(g90
g71
NtRp479
(dp480
g74
(dp481
sg83
g466
sg76
(lp482
g69
(g70
g71
NtRp483
(dp484
g74
(dp485
g82
I5
ssg83
g479
sg76
(lp486
g69
(g78
g71
NtRp487
(dp488
g74
(dp489
g82
I4
ssg83
Nsg76
(lp490
g69
(g85
g71
NtRp491
(dp492
g74
(dp493
sg83
g487
sg76
(lp494
g69
(g90
g71
NtRp495
(dp496
g74
(dp497
g94
g95
ssg83
g491
sg76
(lp498
S'app_folders'
p499
asbag69
(g90
g71
NtRp500
(dp501
g74
(dp502
g101
g102
ssg83
g491
sg76
(lp503
S':'
asbag69
(g90
g71
NtRp504
(dp505
g74
(dp506
sg83
g491
sg76
(lp507
g69
(g70
g71
NtRp508
(dp509
g74
(dp510
g82
I4
ssg83
g504
sg76
(lp511
S"set(['C:\\\\xampp\\\\htdocs\\\\web2py\\\\applications\\\\admin\\\\', 'C:\\\\xampp\\\\htdocs\\\\web2py\\\\applications\\\\welcome\\\\', 'C:\\\\xampp\\\\htdocs\\\\web2py\\\\applications\\\\testumgebung\\\\'])"
p512
asbasbasbag69
(g85
g71
NtRp513
(dp514
g74
(dp515
sg83
g487
sg76
(lp516
g69
(g90
g71
NtRp517
(dp518
g74
(dp519
g94
g95
ssg83
g513
sg76
(lp520
S'applications_parent'
p521
asbag69
(g90
g71
NtRp522
(dp523
g74
(dp524
g101
g102
ssg83
g513
sg76
(lp525
S':'
asbag69
(g90
g71
NtRp526
(dp527
g74
(dp528
sg83
g513
sg76
(lp529
g69
(g70
g71
NtRp530
(dp531
g74
(dp532
g82
I4
ssg83
g526
sg76
(lp533
S'C:\\xampp\\htdocs\\web2py'
p534
asbasbasbag69
(g85
g71
NtRp535
(dp536
g74
(dp537
sg83
g487
sg76
(lp538
g69
(g90
g71
NtRp539
(dp540
g74
(dp541
g94
g95
ssg83
g535
sg76
(lp542
S'cmd_args'
p543
asbag69
(g90
g71
NtRp544
(dp545
g74
(dp546
g101
g102
ssg83
g535
sg76
(lp547
S':'
asbag69
(g90
g71
NtRp548
(dp549
g74
(dp550
sg83
g535
sg76
(lp551
g69
(g70
g71
NtRp552
(dp553
g74
(dp554
g82
I4
ssg83
g548
sg76
(lp555
g69
(g78
g71
NtRp556
(dp557
g74
(dp558
g82
I3
ssg83
Nsg76
(lp559
sbasbasbasbag69
(g85
g71
NtRp560
(dp561
g74
(dp562
sg83
g487
sg76
(lp563
g69
(g90
g71
NtRp564
(dp565
g74
(dp566
g94
g95
ssg83
g560
sg76
(lp567
S'cmd_options'
p568
asbag69
(g90
g71
NtRp569
(dp570
g74
(dp571
g101
g102
ssg83
g560
sg76
(lp572
S':'
asbag69
(g90
g71
NtRp573
(dp574
g74
(dp575
sg83
g560
sg76
(lp576
g69
(g70
g71
NtRp577
(dp578
g74
(dp579
g82
I4
ssg83
g573
sg76
(lp580
S"<Values at 0x2c68e18: {'verbose': False, 'ip': '127.0.0.1', 'with_scheduler': False, 'ips': ['10.0.0.109', '192.168.189.1', '192.168.91.1'], 'shutdown_timeout': 5, 'taskbar': False, 'port': 8000, 'maxthreads': None, 'softcron': False, 'server_name': 'swLaptop', 'bpython': False, 'nogui': False, 'nocron': False, 'extcron': False, 'run_system_tests': False, 'test': None, 'folder': 'C:\\\\xampp\\\\htdocs\\\\web2py', 'config': '', 'import_models': False, 'winservice': '', 'shell': None, 'run': '', 'log_filename': 'httpserver.log', 'debuglevel': 30, 'args': [''], 'socket_timeout': 5, 'ssl_ca_certificate': None, 'scheduler': None, 'profiler_filename': None, 'ssl_private_key': '', 'scheduler_groups': None, 'password': '<ask>', 'request_queue_size': 5, 'ssl_certificate': '', 'cronjob': False, 'numthreads': None, 'quiet': False, 'interfaces': None, 'minthreads': None, 'timeout': 10, 'plain': False, 'nobanner': False, 'pid_filename': 'httpserver.pid'}>"
p581
asbasbasbag69
(g85
g71
NtRp582
(dp583
g74
(dp584
sg83
g487
sg76
(lp585
g69
(g90
g71
NtRp586
(dp587
g74
(dp588
g94
g95
ssg83
g582
sg76
(lp589
S'db_sessions'
p590
asbag69
(g90
g71
NtRp591
(dp592
g74
(dp593
g101
g102
ssg83
g582
sg76
(lp594
S':'
asbag69
(g90
g71
NtRp595
(dp596
g74
(dp597
sg83
g582
sg76
(lp598
g69
(g70
g71
NtRp599
(dp600
g74
(dp601
g82
I4
ssg83
g595
sg76
(lp602
S'set([])'
p603
asbasbasbag69
(g85
g71
NtRp604
(dp605
g74
(dp606
sg83
g487
sg76
(lp607
g69
(g90
g71
NtRp608
(dp609
g74
(dp610
g94
g95
ssg83
g604
sg76
(lp611
S'debugging'
p612
asbag69
(g90
g71
NtRp613
(dp614
g74
(dp615
g101
g102
ssg83
g604
sg76
(lp616
S':'
asbag69
(g90
g71
NtRp617
(dp618
g74
(dp619
sg83
g604
sg76
(lp620
g69
(g70
g71
NtRp621
(dp622
g74
(dp623
g82
I4
ssg83
g617
sg76
(lp624
g112
asbasbasbag69
(g85
g71
NtRp625
(dp626
g74
(dp627
sg83
g487
sg76
(lp628
g69
(g90
g71
NtRp629
(dp630
g74
(dp631
g94
g95
ssg83
g625
sg76
(lp632
S'gluon_parent'
p633
asbag69
(g90
g71
NtRp634
(dp635
g74
(dp636
g101
g102
ssg83
g625
sg76
(lp637
S':'
asbag69
(g90
g71
NtRp638
(dp639
g74
(dp640
sg83
g625
sg76
(lp641
g69
(g70
g71
NtRp642
(dp643
g74
(dp644
g82
I4
ssg83
g638
sg76
(lp645
S'C:\\xampp\\htdocs\\web2py'
p646
asbasbasbag69
(g85
g71
NtRp647
(dp648
g74
(dp649
sg83
g487
sg76
(lp650
g69
(g90
g71
NtRp651
(dp652
g74
(dp653
g94
g95
ssg83
g647
sg76
(lp654
S'http_accept'
p655
asbag69
(g90
g71
NtRp656
(dp657
g74
(dp658
g101
g102
ssg83
g647
sg76
(lp659
S':'
asbag69
(g90
g71
NtRp660
(dp661
g74
(dp662
sg83
g647
sg76
(lp663
g69
(g70
g71
NtRp664
(dp665
g74
(dp666
g82
I4
ssg83
g660
sg76
(lp667
S'text/html,application/xhtml+xml,application/xml;q=0.9,*/*;q=0.8'
p668
asbasbasbag69
(g85
g71
NtRp669
(dp670
g74
(dp671
sg83
g487
sg76
(lp672
g69
(g90
g71
NtRp673
(dp674
g74
(dp675
g94
g95
ssg83
g669
sg76
(lp676
S'http_accept_encoding'
p677
asbag69
(g90
g71
NtRp678
(dp679
g74
(dp680
g101
g102
ssg83
g669
sg76
(lp681
S':'
asbag69
(g90
g71
NtRp682
(dp683
g74
(dp684
sg83
g669
sg76
(lp685
g69
(g70
g71
NtRp686
(dp687
g74
(dp688
g82
I4
ssg83
g682
sg76
(lp689
S'gzip, deflate'
p690
asbasbasbag69
(g85
g71
NtRp691
(dp692
g74
(dp693
sg83
g487
sg76
(lp694
g69
(g90
g71
NtRp695
(dp696
g74
(dp697
g94
g95
ssg83
g691
sg76
(lp698
S'http_accept_language'
p699
asbag69
(g90
g71
NtRp700
(dp701
g74
(dp702
g101
g102
ssg83
g691
sg76
(lp703
S':'
asbag69
(g90
g71
NtRp704
(dp705
g74
(dp706
sg83
g691
sg76
(lp707
g69
(g70
g71
NtRp708
(dp709
g74
(dp710
g82
I4
ssg83
g704
sg76
(lp711
S'de-de'
p712
asbasbasbag69
(g85
g71
NtRp713
(dp714
g74
(dp715
sg83
g487
sg76
(lp716
g69
(g90
g71
NtRp717
(dp718
g74
(dp719
g94
g95
ssg83
g713
sg76
(lp720
S'http_connection'
p721
asbag69
(g90
g71
NtRp722
(dp723
g74
(dp724
g101
g102
ssg83
g713
sg76
(lp725
S':'
asbag69
(g90
g71
NtRp726
(dp727
g74
(dp728
sg83
g713
sg76
(lp729
g69
(g70
g71
NtRp730
(dp731
g74
(dp732
g82
I4
ssg83
g726
sg76
(lp733
S'keep-alive'
p734
asbasbasbag69
(g85
g71
NtRp735
(dp736
g74
(dp737
sg83
g487
sg76
(lp738
g69
(g90
g71
NtRp739
(dp740
g74
(dp741
g94
g95
ssg83
g735
sg76
(lp742
S'http_cookie'
p743
asbag69
(g90
g71
NtRp744
(dp745
g74
(dp746
g101
g102
ssg83
g735
sg76
(lp747
S':'
asbag69
(g90
g71
NtRp748
(dp749
g74
(dp750
sg83
g735
sg76
(lp751
g69
(g70
g71
NtRp752
(dp753
g74
(dp754
g82
I4
ssg83
g748
sg76
(lp755
S'session_id_admin=10.0.0.156-48693c84-6b0c-427a-be0f-4ca7c2353dcd'
p756
asbasbasbag69
(g85
g71
NtRp757
(dp758
g74
(dp759
sg83
g487
sg76
(lp760
g69
(g90
g71
NtRp761
(dp762
g74
(dp763
g94
g95
ssg83
g757
sg76
(lp764
S'http_host'
p765
asbag69
(g90
g71
NtRp766
(dp767
g74
(dp768
g101
g102
ssg83
g757
sg76
(lp769
S':'
asbag69
(g90
g71
NtRp770
(dp771
g74
(dp772
sg83
g757
sg76
(lp773
g69
(g70
g71
NtRp774
(dp775
g74
(dp776
g82
I4
ssg83
g770
sg76
(lp777
S'10.0.0.109:8000'
p778
asbasbasbag69
(g85
g71
NtRp779
(dp780
g74
(dp781
sg83
g487
sg76
(lp782
g69
(g90
g71
NtRp783
(dp784
g74
(dp785
g94
g95
ssg83
g779
sg76
(lp786
S'http_user_agent'
p787
asbag69
(g90
g71
NtRp788
(dp789
g74
(dp790
g101
g102
ssg83
g779
sg76
(lp791
S':'
asbag69
(g90
g71
NtRp792
(dp793
g74
(dp794
sg83
g779
sg76
(lp795
g69
(g70
g71
NtRp796
(dp797
g74
(dp798
g82
I4
ssg83
g792
sg76
(lp799
S'Mozilla/5.0 (iPhone; CPU iPhone OS 6_0_1 like Mac OS X) AppleWebKit/536.26 (KHTML, like Gecko) Version/6.0 Mobile/10A525 Safari/8536.25'
p800
asbasbasbag69
(g85
g71
NtRp801
(dp802
g74
(dp803
sg83
g487
sg76
(lp804
g69
(g90
g71
NtRp805
(dp806
g74
(dp807
g94
g95
ssg83
g801
sg76
(lp808
S'is_jython'
p809
asbag69
(g90
g71
NtRp810
(dp811
g74
(dp812
g101
g102
ssg83
g801
sg76
(lp813
S':'
asbag69
(g90
g71
NtRp814
(dp815
g74
(dp816
sg83
g801
sg76
(lp817
g69
(g70
g71
NtRp818
(dp819
g74
(dp820
g82
I4
ssg83
g814
sg76
(lp821
g112
asbasbasbag69
(g85
g71
NtRp822
(dp823
g74
(dp824
sg83
g487
sg76
(lp825
g69
(g90
g71
NtRp826
(dp827
g74
(dp828
g94
g95
ssg83
g822
sg76
(lp829
S'is_pypy'
p830
asbag69
(g90
g71
NtRp831
(dp832
g74
(dp833
g101
g102
ssg83
g822
sg76
(lp834
S':'
asbag69
(g90
g71
NtRp835
(dp836
g74
(dp837
sg83
g822
sg76
(lp838
g69
(g70
g71
NtRp839
(dp840
g74
(dp841
g82
I4
ssg83
g835
sg76
(lp842
g112
asbasbasbag69
(g85
g71
NtRp843
(dp844
g74
(dp845
sg83
g487
sg76
(lp846
g69
(g90
g71
NtRp847
(dp848
g74
(dp849
g94
g95
ssg83
g843
sg76
(lp850
S'path_info'
p851
asbag69
(g90
g71
NtRp852
(dp853
g74
(dp854
g101
g102
ssg83
g843
sg76
(lp855
S':'
asbag69
(g90
g71
NtRp856
(dp857
g74
(dp858
sg83
g843
sg76
(lp859
g69
(g70
g71
NtRp860
(dp861
g74
(dp862
g82
I4
ssg83
g856
sg76
(lp863
S'/testumgebung'
p864
asbasbasbag69
(g85
g71
NtRp865
(dp866
g74
(dp867
sg83
g487
sg76
(lp868
g69
(g90
g71
NtRp869
(dp870
g74
(dp871
g94
g95
ssg83
g865
sg76
(lp872
S'query_string'
p873
asbag69
(g90
g71
NtRp874
(dp875
g74
(dp876
g101
g102
ssg83
g865
sg76
(lp877
S':'
asbag69
(g90
g71
NtRp878
(dp879
g74
(dp880
sg83
g865
sg76
(lp881
g69
(g70
g71
NtRp882
(dp883
g74
(dp884
g82
I4
ssg83
g878
sg76
(lp885
S''
asbasbasbag69
(g85
g71
NtRp886
(dp887
g74
(dp888
sg83
g487
sg76
(lp889
g69
(g90
g71
NtRp890
(dp891
g74
(dp892
g94
g95
ssg83
g886
sg76
(lp893
S'remote_addr'
p894
asbag69
(g90
g71
NtRp895
(dp896
g74
(dp897
g101
g102
ssg83
g886
sg76
(lp898
S':'
asbag69
(g90
g71
NtRp899
(dp900
g74
(dp901
sg83
g886
sg76
(lp902
g69
(g70
g71
NtRp903
(dp904
g74
(dp905
g82
I4
ssg83
g899
sg76
(lp906
g224
asbasbasbag69
(g85
g71
NtRp907
(dp908
g74
(dp909
sg83
g487
sg76
(lp910
g69
(g90
g71
NtRp911
(dp912
g74
(dp913
g94
g95
ssg83
g907
sg76
(lp914
S'remote_port'
p915
asbag69
(g90
g71
NtRp916
(dp917
g74
(dp918
g101
g102
ssg83
g907
sg76
(lp919
S':'
asbag69
(g90
g71
NtRp920
(dp921
g74
(dp922
sg83
g907
sg76
(lp923
g69
(g70
g71
NtRp924
(dp925
g74
(dp926
g82
I4
ssg83
g920
sg76
(lp927
S'49330'
p928
asbasbasbag69
(g85
g71
NtRp929
(dp930
g74
(dp931
sg83
g487
sg76
(lp932
g69
(g90
g71
NtRp933
(dp934
g74
(dp935
g94
g95
ssg83
g929
sg76
(lp936
S'request_method'
p937
asbag69
(g90
g71
NtRp938
(dp939
g74
(dp940
g101
g102
ssg83
g929
sg76
(lp941
S':'
asbag69
(g90
g71
NtRp942
(dp943
g74
(dp944
sg83
g929
sg76
(lp945
g69
(g70
g71
NtRp946
(dp947
g74
(dp948
g82
I4
ssg83
g942
sg76
(lp949
S'GET'
p950
asbasbasbag69
(g85
g71
NtRp951
(dp952
g74
(dp953
sg83
g487
sg76
(lp954
g69
(g90
g71
NtRp955
(dp956
g74
(dp957
g94
g95
ssg83
g951
sg76
(lp958
S'request_uri'
p959
asbag69
(g90
g71
NtRp960
(dp961
g74
(dp962
g101
g102
ssg83
g951
sg76
(lp963
S':'
asbag69
(g90
g71
NtRp964
(dp965
g74
(dp966
sg83
g951
sg76
(lp967
g69
(g70
g71
NtRp968
(dp969
g74
(dp970
g82
I4
ssg83
g964
sg76
(lp971
g864
asbasbasbag69
(g85
g71
NtRp972
(dp973
g74
(dp974
sg83
g487
sg76
(lp975
g69
(g90
g71
NtRp976
(dp977
g74
(dp978
g94
g95
ssg83
g972
sg76
(lp979
S'script_name'
p980
asbag69
(g90
g71
NtRp981
(dp982
g74
(dp983
g101
g102
ssg83
g972
sg76
(lp984
S':'
asbag69
(g90
g71
NtRp985
(dp986
g74
(dp987
sg83
g972
sg76
(lp988
g69
(g70
g71
NtRp989
(dp990
g74
(dp991
g82
I4
ssg83
g985
sg76
(lp992
S''
asbasbasbag69
(g85
g71
NtRp993
(dp994
g74
(dp995
sg83
g487
sg76
(lp996
g69
(g90
g71
NtRp997
(dp998
g74
(dp999
g94
g95
ssg83
g993
sg76
(lp1000
S'server_name'
p1001
asbag69
(g90
g71
NtRp1002
(dp1003
g74
(dp1004
g101
g102
ssg83
g993
sg76
(lp1005
S':'
asbag69
(g90
g71
NtRp1006
(dp1007
g74
(dp1008
sg83
g993
sg76
(lp1009
g69
(g70
g71
NtRp1010
(dp1011
g74
(dp1012
g82
I4
ssg83
g1006
sg76
(lp1013
S'swLaptop'
p1014
asbasbasbag69
(g85
g71
NtRp1015
(dp1016
g74
(dp1017
sg83
g487
sg76
(lp1018
g69
(g90
g71
NtRp1019
(dp1020
g74
(dp1021
g94
g95
ssg83
g1015
sg76
(lp1022
S'server_port'
p1023
asbag69
(g90
g71
NtRp1024
(dp1025
g74
(dp1026
g101
g102
ssg83
g1015
sg76
(lp1027
S':'
asbag69
(g90
g71
NtRp1028
(dp1029
g74
(dp1030
sg83
g1015
sg76
(lp1031
g69
(g70
g71
NtRp1032
(dp1033
g74
(dp1034
g82
I4
ssg83
g1028
sg76
(lp1035
S'8000'
p1036
asbasbasbag69
(g85
g71
NtRp1037
(dp1038
g74
(dp1039
sg83
g487
sg76
(lp1040
g69
(g90
g71
NtRp1041
(dp1042
g74
(dp1043
g94
g95
ssg83
g1037
sg76
(lp1044
S'server_protocol'
p1045
asbag69
(g90
g71
NtRp1046
(dp1047
g74
(dp1048
g101
g102
ssg83
g1037
sg76
(lp1049
S':'
asbag69
(g90
g71
NtRp1050
(dp1051
g74
(dp1052
sg83
g1037
sg76
(lp1053
g69
(g70
g71
NtRp1054
(dp1055
g74
(dp1056
g82
I4
ssg83
g1050
sg76
(lp1057
S'HTTP/1.1'
p1058
asbasbasbag69
(g85
g71
NtRp1059
(dp1060
g74
(dp1061
sg83
g487
sg76
(lp1062
g69
(g90
g71
NtRp1063
(dp1064
g74
(dp1065
g94
g95
ssg83
g1059
sg76
(lp1066
S'server_software'
p1067
asbag69
(g90
g71
NtRp1068
(dp1069
g74
(dp1070
g101
g102
ssg83
g1059
sg76
(lp1071
S':'
asbag69
(g90
g71
NtRp1072
(dp1073
g74
(dp1074
sg83
g1059
sg76
(lp1075
g69
(g70
g71
NtRp1076
(dp1077
g74
(dp1078
g82
I4
ssg83
g1072
sg76
(lp1079
S'Rocket 1.2.4'
p1080
asbasbasbag69
(g85
g71
NtRp1081
(dp1082
g74
(dp1083
sg83
g487
sg76
(lp1084
g69
(g90
g71
NtRp1085
(dp1086
g74
(dp1087
g94
g95
ssg83
g1081
sg76
(lp1088
S'web2py_crontype'
p1089
asbag69
(g90
g71
NtRp1090
(dp1091
g74
(dp1092
g101
g102
ssg83
g1081
sg76
(lp1093
S':'
asbag69
(g90
g71
NtRp1094
(dp1095
g74
(dp1096
sg83
g1081
sg76
(lp1097
g69
(g70
g71
NtRp1098
(dp1099
g74
(dp1100
g82
I4
ssg83
g1094
sg76
(lp1101
S'hard'
p1102
asbasbasbag69
(g85
g71
NtRp1103
(dp1104
g74
(dp1105
sg83
g487
sg76
(lp1106
g69
(g90
g71
NtRp1107
(dp1108
g74
(dp1109
g94
g95
ssg83
g1103
sg76
(lp1110
S'web2py_path'
p1111
asbag69
(g90
g71
NtRp1112
(dp1113
g74
(dp1114
g101
g102
ssg83
g1103
sg76
(lp1115
S':'
asbag69
(g90
g71
NtRp1116
(dp1117
g74
(dp1118
sg83
g1103
sg76
(lp1119
g69
(g70
g71
NtRp1120
(dp1121
g74
(dp1122
g82
I4
ssg83
g1116
sg76
(lp1123
g534
asbasbasbag69
(g85
g71
NtRp1124
(dp1125
g74
(dp1126
sg83
g487
sg76
(lp1127
g69
(g90
g71
NtRp1128
(dp1129
g74
(dp1130
g94
g95
ssg83
g1124
sg76
(lp1131
S'web2py_version'
p1132
asbag69
(g90
g71
NtRp1133
(dp1134
g74
(dp1135
g101
g102
ssg83
g1124
sg76
(lp1136
S':'
asbag69
(g90
g71
NtRp1137
(dp1138
g74
(dp1139
sg83
g1124
sg76
(lp1140
g69
(g70
g71
NtRp1141
(dp1142
g74
(dp1143
g82
I4
ssg83
g1137
sg76
(lp1144
g69
(g78
g71
NtRp1145
(dp1146
g74
(dp1147
g82
I3
ssg83
Nsg76
(lp1148
g69
(g85
g71
NtRp1149
(dp1150
g74
(dp1151
sg83
g1145
sg76
(lp1152
g69
(g90
g71
NtRp1153
(dp1154
g74
(dp1155
sg83
g1149
sg76
(lp1156
g69
(g70
g71
NtRp1157
(dp1158
g74
(dp1159
g82
I3
ssg83
g1153
sg76
(lp1160
S'2'
asbasbasbag69
(g85
g71
NtRp1161
(dp1162
g74
(dp1163
sg83
g1145
sg76
(lp1164
g69
(g90
g71
NtRp1165
(dp1166
g74
(dp1167
sg83
g1161
sg76
(lp1168
g69
(g70
g71
NtRp1169
(dp1170
g74
(dp1171
g82
I3
ssg83
g1165
sg76
(lp1172
S'0'
asbasbasbag69
(g85
g71
NtRp1173
(dp1174
g74
(dp1175
sg83
g1145
sg76
(lp1176
g69
(g90
g71
NtRp1177
(dp1178
g74
(dp1179
sg83
g1173
sg76
(lp1180
g69
(g70
g71
NtRp1181
(dp1182
g74
(dp1183
g82
I3
ssg83
g1177
sg76
(lp1184
S'3'
asbasbasbag69
(g85
g71
NtRp1185
(dp1186
g74
(dp1187
sg83
g1145
sg76
(lp1188
g69
(g90
g71
NtRp1189
(dp1190
g74
(dp1191
sg83
g1185
sg76
(lp1192
g69
(g70
g71
NtRp1193
(dp1194
g74
(dp1195
g82
I3
ssg83
g1189
sg76
(lp1196
S'datetime.datetime(2012, 8, 31, 5, 58, 31)'
p1197
asbasbasbag69
(g85
g71
NtRp1198
(dp1199
g74
(dp1200
sg83
g1145
sg76
(lp1201
g69
(g90
g71
NtRp1202
(dp1203
g74
(dp1204
sg83
g1198
sg76
(lp1205
g69
(g70
g71
NtRp1206
(dp1207
g74
(dp1208
g82
I3
ssg83
g1202
sg76
(lp1209
S'stable'
p1210
asbasbasbasbasbasbasbag69
(g85
g71
NtRp1211
(dp1212
g74
(dp1213
sg83
g487
sg76
(lp1214
g69
(g90
g71
NtRp1215
(dp1216
g74
(dp1217
g94
g95
ssg83
g1211
sg76
(lp1218
S'wsgi_errors'
p1219
asbag69
(g90
g71
NtRp1220
(dp1221
g74
(dp1222
g101
g102
ssg83
g1211
sg76
(lp1223
S':'
asbag69
(g90
g71
NtRp1224
(dp1225
g74
(dp1226
sg83
g1211
sg76
(lp1227
g69
(g70
g71
NtRp1228
(dp1229
g74
(dp1230
g82
I4
ssg83
g1224
sg76
(lp1231
S"<open file '<stderr>', mode 'w' at 0x021D50D0>"
p1232
asbasbasbag69
(g85
g71
NtRp1233
(dp1234
g74
(dp1235
sg83
g487
sg76
(lp1236
g69
(g90
g71
NtRp1237
(dp1238
g74
(dp1239
g94
g95
ssg83
g1233
sg76
(lp1240
S'wsgi_file_wrapper'
p1241
asbag69
(g90
g71
NtRp1242
(dp1243
g74
(dp1244
g101
g102
ssg83
g1233
sg76
(lp1245
S':'
asbag69
(g90
g71
NtRp1246
(dp1247
g74
(dp1248
sg83
g1233
sg76
(lp1249
g69
(g70
g71
NtRp1250
(dp1251
g74
(dp1252
g82
I4
ssg83
g1246
sg76
(lp1253
S'<class wsgiref.util.FileWrapper at 0x02C1D030>'
p1254
asbasbasbag69
(g85
g71
NtRp1255
(dp1256
g74
(dp1257
sg83
g487
sg76
(lp1258
g69
(g90
g71
NtRp1259
(dp1260
g74
(dp1261
g94
g95
ssg83
g1255
sg76
(lp1262
S'wsgi_input'
p1263
asbag69
(g90
g71
NtRp1264
(dp1265
g74
(dp1266
g101
g102
ssg83
g1255
sg76
(lp1267
S':'
asbag69
(g90
g71
NtRp1268
(dp1269
g74
(dp1270
sg83
g1255
sg76
(lp1271
g69
(g70
g71
NtRp1272
(dp1273
g74
(dp1274
g82
I4
ssg83
g1268
sg76
(lp1275
S'<socket._fileobject object at 0x06736830>'
p1276
asbasbasbag69
(g85
g71
NtRp1277
(dp1278
g74
(dp1279
sg83
g487
sg76
(lp1280
g69
(g90
g71
NtRp1281
(dp1282
g74
(dp1283
g94
g95
ssg83
g1277
sg76
(lp1284
S'wsgi_multiprocess'
p1285
asbag69
(g90
g71
NtRp1286
(dp1287
g74
(dp1288
g101
g102
ssg83
g1277
sg76
(lp1289
S':'
asbag69
(g90
g71
NtRp1290
(dp1291
g74
(dp1292
sg83
g1277
sg76
(lp1293
g69
(g70
g71
NtRp1294
(dp1295
g74
(dp1296
g82
I4
ssg83
g1290
sg76
(lp1297
g112
asbasbasbag69
(g85
g71
NtRp1298
(dp1299
g74
(dp1300
sg83
g487
sg76
(lp1301
g69
(g90
g71
NtRp1302
(dp1303
g74
(dp1304
g94
g95
ssg83
g1298
sg76
(lp1305
S'wsgi_multithread'
p1306
asbag69
(g90
g71
NtRp1307
(dp1308
g74
(dp1309
g101
g102
ssg83
g1298
sg76
(lp1310
S':'
asbag69
(g90
g71
NtRp1311
(dp1312
g74
(dp1313
sg83
g1298
sg76
(lp1314
g69
(g70
g71
NtRp1315
(dp1316
g74
(dp1317
g82
I4
ssg83
g1311
sg76
(lp1318
S'True'
p1319
asbasbasbag69
(g85
g71
NtRp1320
(dp1321
g74
(dp1322
sg83
g487
sg76
(lp1323
g69
(g90
g71
NtRp1324
(dp1325
g74
(dp1326
g94
g95
ssg83
g1320
sg76
(lp1327
S'wsgi_run_once'
p1328
asbag69
(g90
g71
NtRp1329
(dp1330
g74
(dp1331
g101
g102
ssg83
g1320
sg76
(lp1332
S':'
asbag69
(g90
g71
NtRp1333
(dp1334
g74
(dp1335
sg83
g1320
sg76
(lp1336
g69
(g70
g71
NtRp1337
(dp1338
g74
(dp1339
g82
I4
ssg83
g1333
sg76
(lp1340
g112
asbasbasbag69
(g85
g71
NtRp1341
(dp1342
g74
(dp1343
sg83
g487
sg76
(lp1344
g69
(g90
g71
NtRp1345
(dp1346
g74
(dp1347
g94
g95
ssg83
g1341
sg76
(lp1348
S'wsgi_url_scheme'
p1349
asbag69
(g90
g71
NtRp1350
(dp1351
g74
(dp1352
g101
g102
ssg83
g1341
sg76
(lp1353
S':'
asbag69
(g90
g71
NtRp1354
(dp1355
g74
(dp1356
sg83
g1341
sg76
(lp1357
g69
(g70
g71
NtRp1358
(dp1359
g74
(dp1360
g82
I4
ssg83
g1354
sg76
(lp1361
S'http'
p1362
asbasbasbag69
(g85
g71
NtRp1363
(dp1364
g74
(dp1365
sg83
g487
sg76
(lp1366
g69
(g90
g71
NtRp1367
(dp1368
g74
(dp1369
g94
g95
ssg83
g1363
sg76
(lp1370
S'wsgi_version'
p1371
asbag69
(g90
g71
NtRp1372
(dp1373
g74
(dp1374
g101
g102
ssg83
g1363
sg76
(lp1375
S':'
asbag69
(g90
g71
NtRp1376
(dp1377
g74
(dp1378
sg83
g1363
sg76
(lp1379
g69
(g70
g71
NtRp1380
(dp1381
g74
(dp1382
g82
I4
ssg83
g1376
sg76
(lp1383
g69
(g78
g71
NtRp1384
(dp1385
g74
(dp1386
g82
I3
ssg83
Nsg76
(lp1387
g69
(g85
g71
NtRp1388
(dp1389
g74
(dp1390
sg83
g1384
sg76
(lp1391
g69
(g90
g71
NtRp1392
(dp1393
g74
(dp1394
sg83
g1388
sg76
(lp1395
g69
(g70
g71
NtRp1396
(dp1397
g74
(dp1398
g82
I3
ssg83
g1392
sg76
(lp1399
S'1'
asbasbasbag69
(g85
g71
NtRp1400
(dp1401
g74
(dp1402
sg83
g1384
sg76
(lp1403
g69
(g90
g71
NtRp1404
(dp1405
g74
(dp1406
sg83
g1400
sg76
(lp1407
g69
(g70
g71
NtRp1408
(dp1409
g74
(dp1410
g82
I3
ssg83
g1404
sg76
(lp1411
S'0'
asbasbasbasbasbasbasbasbasbasbasbag69
(g85
g71
NtRp1412
(dp1413
g74
(dp1414
sg83
g79
sg76
(lp1415
g69
(g90
g71
NtRp1416
(dp1417
g74
(dp1418
g94
g95
ssg83
g1412
sg76
(lp1419
S'extension'
p1420
asbag69
(g90
g71
NtRp1421
(dp1422
g74
(dp1423
g101
g102
ssg83
g1412
sg76
(lp1424
S':'
asbag69
(g90
g71
NtRp1425
(dp1426
g74
(dp1427
sg83
g1412
sg76
(lp1428
g69
(g70
g71
NtRp1429
(dp1430
g74
(dp1431
g82
I5
ssg83
g1425
sg76
(lp1432
S'html'
p1433
asbasbasbag69
(g85
g71
NtRp1434
(dp1435
g74
(dp1436
sg83
g79
sg76
(lp1437
g69
(g90
g71
NtRp1438
(dp1439
g74
(dp1440
g94
g95
ssg83
g1434
sg76
(lp1441
S'folder'
p1442
asbag69
(g90
g71
NtRp1443
(dp1444
g74
(dp1445
g101
g102
ssg83
g1434
sg76
(lp1446
S':'
asbag69
(g90
g71
NtRp1447
(dp1448
g74
(dp1449
sg83
g1434
sg76
(lp1450
g69
(g70
g71
NtRp1451
(dp1452
g74
(dp1453
g82
I5
ssg83
g1447
sg76
(lp1454
S'C:\\xampp\\htdocs\\web2py\\applications\\testumgebung\\'
p1455
asbasbasbag69
(g85
g71
NtRp1456
(dp1457
g74
(dp1458
sg83
g79
sg76
(lp1459
g69
(g90
g71
NtRp1460
(dp1461
g74
(dp1462
g94
g95
ssg83
g1456
sg76
(lp1463
S'function'
p1464
asbag69
(g90
g71
NtRp1465
(dp1466
g74
(dp1467
g101
g102
ssg83
g1456
sg76
(lp1468
S':'
asbag69
(g90
g71
NtRp1469
(dp1470
g74
(dp1471
sg83
g1456
sg76
(lp1472
g69
(g70
g71
NtRp1473
(dp1474
g74
(dp1475
g82
I5
ssg83
g1469
sg76
(lp1476
S'index'
p1477
asbasbasbag69
(g85
g71
NtRp1478
(dp1479
g74
(dp1480
sg83
g79
sg76
(lp1481
g69
(g90
g71
NtRp1482
(dp1483
g74
(dp1484
g94
g95
ssg83
g1478
sg76
(lp1485
S'get_vars'
p1486
asbag69
(g90
g71
NtRp1487
(dp1488
g74
(dp1489
g101
g102
ssg83
g1478
sg76
(lp1490
S':'
asbag69
(g90
g71
NtRp1491
(dp1492
g74
(dp1493
sg83
g1478
sg76
(lp1494
g69
(g70
g71
NtRp1495
(dp1496
g74
(dp1497
g82
I5
ssg83
g1491
sg76
(lp1498
g69
(g78
g71
NtRp1499
(dp1500
g74
(dp1501
g82
I4
ssg83
Nsg76
(lp1502
sbasbasbasbag69
(g85
g71
NtRp1503
(dp1504
g74
(dp1505
sg83
g79
sg76
(lp1506
g69
(g90
g71
NtRp1507
(dp1508
g74
(dp1509
g94
g95
ssg83
g1503
sg76
(lp1510
S'global_settings'
p1511
asbag69
(g90
g71
NtRp1512
(dp1513
g74
(dp1514
g101
g102
ssg83
g1503
sg76
(lp1515
S':'
asbag69
(g90
g71
NtRp1516
(dp1517
g74
(dp1518
sg83
g1503
sg76
(lp1519
g69
(g70
g71
NtRp1520
(dp1521
g74
(dp1522
g82
I5
ssg83
g1516
sg76
(lp1523
g69
(g78
g71
NtRp1524
(dp1525
g74
(dp1526
g82
I4
ssg83
Nsg76
(lp1527
g69
(g85
g71
NtRp1528
(dp1529
g74
(dp1530
sg83
g1524
sg76
(lp1531
g69
(g90
g71
NtRp1532
(dp1533
g74
(dp1534
g94
g95
ssg83
g1528
sg76
(lp1535
g499
asbag69
(g90
g71
NtRp1536
(dp1537
g74
(dp1538
g101
g102
ssg83
g1528
sg76
(lp1539
S':'
asbag69
(g90
g71
NtRp1540
(dp1541
g74
(dp1542
sg83
g1528
sg76
(lp1543
g69
(g70
g71
NtRp1544
(dp1545
g74
(dp1546
g82
I4
ssg83
g1540
sg76
(lp1547
S"set(['C:\\\\xampp\\\\htdocs\\\\web2py\\\\applications\\\\admin\\\\', 'C:\\\\xampp\\\\htdocs\\\\web2py\\\\applications\\\\welcome\\\\', 'C:\\\\xampp\\\\htdocs\\\\web2py\\\\applications\\\\testumgebung\\\\'])"
p1548
asbasbasbag69
(g85
g71
NtRp1549
(dp1550
g74
(dp1551
sg83
g1524
sg76
(lp1552
g69
(g90
g71
NtRp1553
(dp1554
g74
(dp1555
g94
g95
ssg83
g1549
sg76
(lp1556
g521
asbag69
(g90
g71
NtRp1557
(dp1558
g74
(dp1559
g101
g102
ssg83
g1549
sg76
(lp1560
S':'
asbag69
(g90
g71
NtRp1561
(dp1562
g74
(dp1563
sg83
g1549
sg76
(lp1564
g69
(g70
g71
NtRp1565
(dp1566
g74
(dp1567
g82
I4
ssg83
g1561
sg76
(lp1568
g534
asbasbasbag69
(g85
g71
NtRp1569
(dp1570
g74
(dp1571
sg83
g1524
sg76
(lp1572
g69
(g90
g71
NtRp1573
(dp1574
g74
(dp1575
g94
g95
ssg83
g1569
sg76
(lp1576
g543
asbag69
(g90
g71
NtRp1577
(dp1578
g74
(dp1579
g101
g102
ssg83
g1569
sg76
(lp1580
S':'
asbag69
(g90
g71
NtRp1581
(dp1582
g74
(dp1583
sg83
g1569
sg76
(lp1584
g69
(g70
g71
NtRp1585
(dp1586
g74
(dp1587
g82
I4
ssg83
g1581
sg76
(lp1588
g69
(g78
g71
NtRp1589
(dp1590
g74
(dp1591
g82
I3
ssg83
Nsg76
(lp1592
sbasbasbasbag69
(g85
g71
NtRp1593
(dp1594
g74
(dp1595
sg83
g1524
sg76
(lp1596
g69
(g90
g71
NtRp1597
(dp1598
g74
(dp1599
g94
g95
ssg83
g1593
sg76
(lp1600
g568
asbag69
(g90
g71
NtRp1601
(dp1602
g74
(dp1603
g101
g102
ssg83
g1593
sg76
(lp1604
S':'
asbag69
(g90
g71
NtRp1605
(dp1606
g74
(dp1607
sg83
g1593
sg76
(lp1608
g69
(g70
g71
NtRp1609
(dp1610
g74
(dp1611
g82
I4
ssg83
g1605
sg76
(lp1612
S"<Values at 0x2c68e18: {'verbose': False, 'ip': '127.0.0.1', 'with_scheduler': False, 'ips': ['10.0.0.109', '192.168.189.1', '192.168.91.1'], 'shutdown_timeout': 5, 'taskbar': False, 'port': 8000, 'maxthreads': None, 'softcron': False, 'server_name': 'swLaptop', 'bpython': False, 'nogui': False, 'nocron': False, 'extcron': False, 'run_system_tests': False, 'test': None, 'folder': 'C:\\\\xampp\\\\htdocs\\\\web2py', 'config': '', 'import_models': False, 'winservice': '', 'shell': None, 'run': '', 'log_filename': 'httpserver.log', 'debuglevel': 30, 'args': [''], 'socket_timeout': 5, 'ssl_ca_certificate': None, 'scheduler': None, 'profiler_filename': None, 'ssl_private_key': '', 'scheduler_groups': None, 'password': '<ask>', 'request_queue_size': 5, 'ssl_certificate': '', 'cronjob': False, 'numthreads': None, 'quiet': False, 'interfaces': None, 'minthreads': None, 'timeout': 10, 'plain': False, 'nobanner': False, 'pid_filename': 'httpserver.pid'}>"
p1613
asbasbasbag69
(g85
g71
NtRp1614
(dp1615
g74
(dp1616
sg83
g1524
sg76
(lp1617
g69
(g90
g71
NtRp1618
(dp1619
g74
(dp1620
g94
g95
ssg83
g1614
sg76
(lp1621
g590
asbag69
(g90
g71
NtRp1622
(dp1623
g74
(dp1624
g101
g102
ssg83
g1614
sg76
(lp1625
S':'
asbag69
(g90
g71
NtRp1626
(dp1627
g74
(dp1628
sg83
g1614
sg76
(lp1629
g69
(g70
g71
NtRp1630
(dp1631
g74
(dp1632
g82
I4
ssg83
g1626
sg76
(lp1633
S'set([])'
p1634
asbasbasbag69
(g85
g71
NtRp1635
(dp1636
g74
(dp1637
sg83
g1524
sg76
(lp1638
g69
(g90
g71
NtRp1639
(dp1640
g74
(dp1641
g94
g95
ssg83
g1635
sg76
(lp1642
g612
asbag69
(g90
g71
NtRp1643
(dp1644
g74
(dp1645
g101
g102
ssg83
g1635
sg76
(lp1646
S':'
asbag69
(g90
g71
NtRp1647
(dp1648
g74
(dp1649
sg83
g1635
sg76
(lp1650
g69
(g70
g71
NtRp1651
(dp1652
g74
(dp1653
g82
I4
ssg83
g1647
sg76
(lp1654
g112
asbasbasbag69
(g85
g71
NtRp1655
(dp1656
g74
(dp1657
sg83
g1524
sg76
(lp1658
g69
(g90
g71
NtRp1659
(dp1660
g74
(dp1661
g94
g95
ssg83
g1655
sg76
(lp1662
g633
asbag69
(g90
g71
NtRp1663
(dp1664
g74
(dp1665
g101
g102
ssg83
g1655
sg76
(lp1666
S':'
asbag69
(g90
g71
NtRp1667
(dp1668
g74
(dp1669
sg83
g1655
sg76
(lp1670
g69
(g70
g71
NtRp1671
(dp1672
g74
(dp1673
g82
I4
ssg83
g1667
sg76
(lp1674
g646
asbasbasbag69
(g85
g71
NtRp1675
(dp1676
g74
(dp1677
sg83
g1524
sg76
(lp1678
g69
(g90
g71
NtRp1679
(dp1680
g74
(dp1681
g94
g95
ssg83
g1675
sg76
(lp1682
g809
asbag69
(g90
g71
NtRp1683
(dp1684
g74
(dp1685
g101
g102
ssg83
g1675
sg76
(lp1686
S':'
asbag69
(g90
g71
NtRp1687
(dp1688
g74
(dp1689
sg83
g1675
sg76
(lp1690
g69
(g70
g71
NtRp1691
(dp1692
g74
(dp1693
g82
I4
ssg83
g1687
sg76
(lp1694
g112
asbasbasbag69
(g85
g71
NtRp1695
(dp1696
g74
(dp1697
sg83
g1524
sg76
(lp1698
g69
(g90
g71
NtRp1699
(dp1700
g74
(dp1701
g94
g95
ssg83
g1695
sg76
(lp1702
g830
asbag69
(g90
g71
NtRp1703
(dp1704
g74
(dp1705
g101
g102
ssg83
g1695
sg76
(lp1706
S':'
asbag69
(g90
g71
NtRp1707
(dp1708
g74
(dp1709
sg83
g1695
sg76
(lp1710
g69
(g70
g71
NtRp1711
(dp1712
g74
(dp1713
g82
I4
ssg83
g1707
sg76
(lp1714
g112
asbasbasbag69
(g85
g71
NtRp1715
(dp1716
g74
(dp1717
sg83
g1524
sg76
(lp1718
g69
(g90
g71
NtRp1719
(dp1720
g74
(dp1721
g94
g95
ssg83
g1715
sg76
(lp1722
g1089
asbag69
(g90
g71
NtRp1723
(dp1724
g74
(dp1725
g101
g102
ssg83
g1715
sg76
(lp1726
S':'
asbag69
(g90
g71
NtRp1727
(dp1728
g74
(dp1729
sg83
g1715
sg76
(lp1730
g69
(g70
g71
NtRp1731
(dp1732
g74
(dp1733
g82
I4
ssg83
g1727
sg76
(lp1734
g1102
asbasbasbag69
(g85
g71
NtRp1735
(dp1736
g74
(dp1737
sg83
g1524
sg76
(lp1738
g69
(g90
g71
NtRp1739
(dp1740
g74
(dp1741
g94
g95
ssg83
g1735
sg76
(lp1742
g1132
asbag69
(g90
g71
NtRp1743
(dp1744
g74
(dp1745
g101
g102
ssg83
g1735
sg76
(lp1746
S':'
asbag69
(g90
g71
NtRp1747
(dp1748
g74
(dp1749
sg83
g1735
sg76
(lp1750
g69
(g70
g71
NtRp1751
(dp1752
g74
(dp1753
g82
I4
ssg83
g1747
sg76
(lp1754
g69
(g78
g71
NtRp1755
(dp1756
g74
(dp1757
g82
I3
ssg83
Nsg76
(lp1758
g69
(g85
g71
NtRp1759
(dp1760
g74
(dp1761
sg83
g1755
sg76
(lp1762
g69
(g90
g71
NtRp1763
(dp1764
g74
(dp1765
sg83
g1759
sg76
(lp1766
g69
(g70
g71
NtRp1767
(dp1768
g74
(dp1769
g82
I3
ssg83
g1763
sg76
(lp1770
S'2'
asbasbasbag69
(g85
g71
NtRp1771
(dp1772
g74
(dp1773
sg83
g1755
sg76
(lp1774
g69
(g90
g71
NtRp1775
(dp1776
g74
(dp1777
sg83
g1771
sg76
(lp1778
g69
(g70
g71
NtRp1779
(dp1780
g74
(dp1781
g82
I3
ssg83
g1775
sg76
(lp1782
S'0'
asbasbasbag69
(g85
g71
NtRp1783
(dp1784
g74
(dp1785
sg83
g1755
sg76
(lp1786
g69
(g90
g71
NtRp1787
(dp1788
g74
(dp1789
sg83
g1783
sg76
(lp1790
g69
(g70
g71
NtRp1791
(dp1792
g74
(dp1793
g82
I3
ssg83
g1787
sg76
(lp1794
S'3'
asbasbasbag69
(g85
g71
NtRp1795
(dp1796
g74
(dp1797
sg83
g1755
sg76
(lp1798
g69
(g90
g71
NtRp1799
(dp1800
g74
(dp1801
sg83
g1795
sg76
(lp1802
g69
(g70
g71
NtRp1803
(dp1804
g74
(dp1805
g82
I3
ssg83
g1799
sg76
(lp1806
S'datetime.datetime(2012, 8, 31, 5, 58, 31)'
p1807
asbasbasbag69
(g85
g71
NtRp1808
(dp1809
g74
(dp1810
sg83
g1755
sg76
(lp1811
g69
(g90
g71
NtRp1812
(dp1813
g74
(dp1814
sg83
g1808
sg76
(lp1815
g69
(g70
g71
NtRp1816
(dp1817
g74
(dp1818
g82
I3
ssg83
g1812
sg76
(lp1819
g1210
asbasbasbasbasbasbasbasbasbasbasbag69
(g85
g71
NtRp1820
(dp1821
g74
(dp1822
sg83
g79
sg76
(lp1823
g69
(g90
g71
NtRp1824
(dp1825
g74
(dp1826
g94
g95
ssg83
g1820
sg76
(lp1827
S'is_https'
p1828
asbag69
(g90
g71
NtRp1829
(dp1830
g74
(dp1831
g101
g102
ssg83
g1820
sg76
(lp1832
S':'
asbag69
(g90
g71
NtRp1833
(dp1834
g74
(dp1835
sg83
g1820
sg76
(lp1836
g69
(g70
g71
NtRp1837
(dp1838
g74
(dp1839
g82
I5
ssg83
g1833
sg76
(lp1840
g112
asbasbasbag69
(g85
g71
NtRp1841
(dp1842
g74
(dp1843
sg83
g79
sg76
(lp1844
g69
(g90
g71
NtRp1845
(dp1846
g74
(dp1847
g94
g95
ssg83
g1841
sg76
(lp1848
S'is_local'
p1849
asbag69
(g90
g71
NtRp1850
(dp1851
g74
(dp1852
g101
g102
ssg83
g1841
sg76
(lp1853
S':'
asbag69
(g90
g71
NtRp1854
(dp1855
g74
(dp1856
sg83
g1841
sg76
(lp1857
g69
(g70
g71
NtRp1858
(dp1859
g74
(dp1860
g82
I5
ssg83
g1854
sg76
(lp1861
g112
asbasbasbag69
(g85
g71
NtRp1862
(dp1863
g74
(dp1864
sg83
g79
sg76
(lp1865
g69
(g90
g71
NtRp1866
(dp1867
g74
(dp1868
g94
g95
ssg83
g1862
sg76
(lp1869
S'is_restful'
p1870
asbag69
(g90
g71
NtRp1871
(dp1872
g74
(dp1873
g101
g102
ssg83
g1862
sg76
(lp1874
S':'
asbag69
(g90
g71
NtRp1875
(dp1876
g74
(dp1877
sg83
g1862
sg76
(lp1878
g69
(g70
g71
NtRp1879
(dp1880
g74
(dp1881
g82
I5
ssg83
g1875
sg76
(lp1882
g112
asbasbasbag69
(g85
g71
NtRp1883
(dp1884
g74
(dp1885
sg83
g79
sg76
(lp1886
g69
(g90
g71
NtRp1887
(dp1888
g74
(dp1889
g94
g95
ssg83
g1883
sg76
(lp1890
S'now'
p1891
asbag69
(g90
g71
NtRp1892
(dp1893
g74
(dp1894
g101
g102
ssg83
g1883
sg76
(lp1895
S':'
asbag69
(g90
g71
NtRp1896
(dp1897
g74
(dp1898
sg83
g1883
sg76
(lp1899
g69
(g70
g71
NtRp1900
(dp1901
g74
(dp1902
g82
I5
ssg83
g1896
sg76
(lp1903
S'datetime.datetime(2012, 12, 14, 15, 58, 13, 497000)'
p1904
asbasbasbag69
(g85
g71
NtRp1905
(dp1906
g74
(dp1907
sg83
g79
sg76
(lp1908
g69
(g90
g71
NtRp1909
(dp1910
g74
(dp1911
g94
g95
ssg83
g1905
sg76
(lp1912
S'post_vars'
p1913
asbag69
(g90
g71
NtRp1914
(dp1915
g74
(dp1916
g101
g102
ssg83
g1905
sg76
(lp1917
S':'
asbag69
(g90
g71
NtRp1918
(dp1919
g74
(dp1920
sg83
g1905
sg76
(lp1921
g69
(g70
g71
NtRp1922
(dp1923
g74
(dp1924
g82
I5
ssg83
g1918
sg76
(lp1925
g69
(g78
g71
NtRp1926
(dp1927
g74
(dp1928
g82
I4
ssg83
Nsg76
(lp1929
sbasbasbasbag69
(g85
g71
NtRp1930
(dp1931
g74
(dp1932
sg83
g79
sg76
(lp1933
g69
(g90
g71
NtRp1934
(dp1935
g74
(dp1936
g94
g95
ssg83
g1930
sg76
(lp1937
S'raw_args'
p1938
asbag69
(g90
g71
NtRp1939
(dp1940
g74
(dp1941
g101
g102
ssg83
g1930
sg76
(lp1942
S':'
asbag69
(g90
g71
NtRp1943
(dp1944
g74
(dp1945
sg83
g1930
sg76
(lp1946
g69
(g70
g71
NtRp1947
(dp1948
g74
(dp1949
g82
I5
ssg83
g1943
sg76
(lp1950
S'None'
p1951
asbasbasbag69
(g85
g71
NtRp1952
(dp1953
g74
(dp1954
sg83
g79
sg76
(lp1955
g69
(g90
g71
NtRp1956
(dp1957
g74
(dp1958
g94
g95
ssg83
g1952
sg76
(lp1959
S'raw_extension'
p1960
asbag69
(g90
g71
NtRp1961
(dp1962
g74
(dp1963
g101
g102
ssg83
g1952
sg76
(lp1964
S':'
asbag69
(g90
g71
NtRp1965
(dp1966
g74
(dp1967
sg83
g1952
sg76
(lp1968
g69
(g70
g71
NtRp1969
(dp1970
g74
(dp1971
g82
I5
ssg83
g1965
sg76
(lp1972
S'None'
p1973
asbasbasbag69
(g85
g71
NtRp1974
(dp1975
g74
(dp1976
sg83
g79
sg76
(lp1977
g69
(g90
g71
NtRp1978
(dp1979
g74
(dp1980
g94
g95
ssg83
g1974
sg76
(lp1981
S'url'
p1982
asbag69
(g90
g71
NtRp1983
(dp1984
g74
(dp1985
g101
g102
ssg83
g1974
sg76
(lp1986
S':'
asbag69
(g90
g71
NtRp1987
(dp1988
g74
(dp1989
sg83
g1974
sg76
(lp1990
g69
(g70
g71
NtRp1991
(dp1992
g74
(dp1993
g82
I5
ssg83
g1987
sg76
(lp1994
S'/testumgebung/default/index'
p1995
asbasbasbag69
(g85
g71
NtRp1996
(dp1997
g74
(dp1998
sg83
g79
sg76
(lp1999
g69
(g90
g71
NtRp2000
(dp2001
g74
(dp2002
g94
g95
ssg83
g1996
sg76
(lp2003
S'utcnow'
p2004
asbag69
(g90
g71
NtRp2005
(dp2006
g74
(dp2007
g101
g102
ssg83
g1996
sg76
(lp2008
S':'
asbag69
(g90
g71
NtRp2009
(dp2010
g74
(dp2011
sg83
g1996
sg76
(lp2012
g69
(g70
g71
NtRp2013
(dp2014
g74
(dp2015
g82
I5
ssg83
g2009
sg76
(lp2016
S'datetime.datetime(2012, 12, 14, 14, 58, 13, 497000)'
p2017
asbasbasbag69
(g85
g71
NtRp2018
(dp2019
g74
(dp2020
sg83
g79
sg76
(lp2021
g69
(g90
g71
NtRp2022
(dp2023
g74
(dp2024
g94
g95
ssg83
g2018
sg76
(lp2025
S'uuid'
p2026
asbag69
(g90
g71
NtRp2027
(dp2028
g74
(dp2029
g101
g102
ssg83
g2018
sg76
(lp2030
S':'
asbag69
(g90
g71
NtRp2031
(dp2032
g74
(dp2033
sg83
g2018
sg76
(lp2034
g69
(g70
g71
NtRp2035
(dp2036
g74
(dp2037
g82
I5
ssg83
g2031
sg76
(lp2038
S'testumgebung/10.0.0.156.2012-12-14.15-58-13.fec67352-f2b8-49e8-b9c9-53bd89c5dc1e'
p2039
asbasbasbag69
(g85
g71
NtRp2040
(dp2041
g74
(dp2042
sg83
g79
sg76
(lp2043
g69
(g90
g71
NtRp2044
(dp2045
g74
(dp2046
g94
g95
ssg83
g2040
sg76
(lp2047
S'vars'
p2048
asbag69
(g90
g71
NtRp2049
(dp2050
g74
(dp2051
g101
g102
ssg83
g2040
sg76
(lp2052
S':'
asbag69
(g90
g71
NtRp2053
(dp2054
g74
(dp2055
sg83
g2040
sg76
(lp2056
g69
(g70
g71
NtRp2057
(dp2058
g74
(dp2059
g82
I5
ssg83
g2053
sg76
(lp2060
g69
(g78
g71
NtRp2061
(dp2062
g74
(dp2063
g82
I4
ssg83
Nsg76
(lp2064
sbasbasbasbag69
(g85
g71
NtRp2065
(dp2066
g74
(dp2067
sg83
g79
sg76
(lp2068
g69
(g90
g71
NtRp2069
(dp2070
g74
(dp2071
g94
g95
ssg83
g2065
sg76
(lp2072
S'wsgi'
p2073
asbag69
(g90
g71
NtRp2074
(dp2075
g74
(dp2076
g101
g102
ssg83
g2065
sg76
(lp2077
S':'
asbag69
(g90
g71
NtRp2078
(dp2079
g74
(dp2080
sg83
g2065
sg76
(lp2081
g69
(g70
g71
NtRp2082
(dp2083
g74
(dp2084
g82
I5
ssg83
g2078
sg76
(lp2085
g69
(g78
g71
NtRp2086
(dp2087
g74
(dp2088
g82
I4
ssg83
Nsg76
(lp2089
g69
(g85
g71
NtRp2090
(dp2091
g74
(dp2092
sg83
g2086
sg76
(lp2093
g69
(g90
g71
NtRp2094
(dp2095
g74
(dp2096
g94
g95
ssg83
g2090
sg76
(lp2097
S'environ'
p2098
asbag69
(g90
g71
NtRp2099
(dp2100
g74
(dp2101
g101
g102
ssg83
g2090
sg76
(lp2102
S':'
asbag69
(g90
g71
NtRp2103
(dp2104
g74
(dp2105
sg83
g2090
sg76
(lp2106
g69
(g70
g71
NtRp2107
(dp2108
g74
(dp2109
g82
I4
ssg83
g2103
sg76
(lp2110
g69
(g78
g71
NtRp2111
(dp2112
g74
(dp2113
g82
I3
ssg83
Nsg76
(lp2114
g69
(g85
g71
NtRp2115
(dp2116
g74
(dp2117
sg83
g2111
sg76
(lp2118
g69
(g90
g71
NtRp2119
(dp2120
g74
(dp2121
g94
g95
ssg83
g2115
sg76
(lp2122
S'HTTP_ACCEPT'
p2123
asbag69
(g90
g71
NtRp2124
(dp2125
g74
(dp2126
g101
g102
ssg83
g2115
sg76
(lp2127
S':'
asbag69
(g90
g71
NtRp2128
(dp2129
g74
(dp2130
sg83
g2115
sg76
(lp2131
g69
(g70
g71
NtRp2132
(dp2133
g74
(dp2134
g82
I3
ssg83
g2128
sg76
(lp2135
g668
asbasbasbag69
(g85
g71
NtRp2136
(dp2137
g74
(dp2138
sg83
g2111
sg76
(lp2139
g69
(g90
g71
NtRp2140
(dp2141
g74
(dp2142
g94
g95
ssg83
g2136
sg76
(lp2143
S'HTTP_ACCEPT_ENCODING'
p2144
asbag69
(g90
g71
NtRp2145
(dp2146
g74
(dp2147
g101
g102
ssg83
g2136
sg76
(lp2148
S':'
asbag69
(g90
g71
NtRp2149
(dp2150
g74
(dp2151
sg83
g2136
sg76
(lp2152
g69
(g70
g71
NtRp2153
(dp2154
g74
(dp2155
g82
I3
ssg83
g2149
sg76
(lp2156
g690
asbasbasbag69
(g85
g71
NtRp2157
(dp2158
g74
(dp2159
sg83
g2111
sg76
(lp2160
g69
(g90
g71
NtRp2161
(dp2162
g74
(dp2163
g94
g95
ssg83
g2157
sg76
(lp2164
S'HTTP_ACCEPT_LANGUAGE'
p2165
asbag69
(g90
g71
NtRp2166
(dp2167
g74
(dp2168
g101
g102
ssg83
g2157
sg76
(lp2169
S':'
asbag69
(g90
g71
NtRp2170
(dp2171
g74
(dp2172
sg83
g2157
sg76
(lp2173
g69
(g70
g71
NtRp2174
(dp2175
g74
(dp2176
g82
I3
ssg83
g2170
sg76
(lp2177
g712
asbasbasbag69
(g85
g71
NtRp2178
(dp2179
g74
(dp2180
sg83
g2111
sg76
(lp2181
g69
(g90
g71
NtRp2182
(dp2183
g74
(dp2184
g94
g95
ssg83
g2178
sg76
(lp2185
S'HTTP_CONNECTION'
p2186
asbag69
(g90
g71
NtRp2187
(dp2188
g74
(dp2189
g101
g102
ssg83
g2178
sg76
(lp2190
S':'
asbag69
(g90
g71
NtRp2191
(dp2192
g74
(dp2193
sg83
g2178
sg76
(lp2194
g69
(g70
g71
NtRp2195
(dp2196
g74
(dp2197
g82
I3
ssg83
g2191
sg76
(lp2198
g734
asbasbasbag69
(g85
g71
NtRp2199
(dp2200
g74
(dp2201
sg83
g2111
sg76
(lp2202
g69
(g90
g71
NtRp2203
(dp2204
g74
(dp2205
g94
g95
ssg83
g2199
sg76
(lp2206
S'HTTP_COOKIE'
p2207
asbag69
(g90
g71
NtRp2208
(dp2209
g74
(dp2210
g101
g102
ssg83
g2199
sg76
(lp2211
S':'
asbag69
(g90
g71
NtRp2212
(dp2213
g74
(dp2214
sg83
g2199
sg76
(lp2215
g69
(g70
g71
NtRp2216
(dp2217
g74
(dp2218
g82
I3
ssg83
g2212
sg76
(lp2219
g756
asbasbasbag69
(g85
g71
NtRp2220
(dp2221
g74
(dp2222
sg83
g2111
sg76
(lp2223
g69
(g90
g71
NtRp2224
(dp2225
g74
(dp2226
g94
g95
ssg83
g2220
sg76
(lp2227
S'HTTP_HOST'
p2228
asbag69
(g90
g71
NtRp2229
(dp2230
g74
(dp2231
g101
g102
ssg83
g2220
sg76
(lp2232
S':'
asbag69
(g90
g71
NtRp2233
(dp2234
g74
(dp2235
sg83
g2220
sg76
(lp2236
g69
(g70
g71
NtRp2237
(dp2238
g74
(dp2239
g82
I3
ssg83
g2233
sg76
(lp2240
g778
asbasbasbag69
(g85
g71
NtRp2241
(dp2242
g74
(dp2243
sg83
g2111
sg76
(lp2244
g69
(g90
g71
NtRp2245
(dp2246
g74
(dp2247
g94
g95
ssg83
g2241
sg76
(lp2248
S'HTTP_USER_AGENT'
p2249
asbag69
(g90
g71
NtRp2250
(dp2251
g74
(dp2252
g101
g102
ssg83
g2241
sg76
(lp2253
S':'
asbag69
(g90
g71
NtRp2254
(dp2255
g74
(dp2256
sg83
g2241
sg76
(lp2257
g69
(g70
g71
NtRp2258
(dp2259
g74
(dp2260
g82
I3
ssg83
g2254
sg76
(lp2261
g800
asbasbasbag69
(g85
g71
NtRp2262
(dp2263
g74
(dp2264
sg83
g2111
sg76
(lp2265
g69
(g90
g71
NtRp2266
(dp2267
g74
(dp2268
g94
g95
ssg83
g2262
sg76
(lp2269
S'PATH_INFO'
p2270
asbag69
(g90
g71
NtRp2271
(dp2272
g74
(dp2273
g101
g102
ssg83
g2262
sg76
(lp2274
S':'
asbag69
(g90
g71
NtRp2275
(dp2276
g74
(dp2277
sg83
g2262
sg76
(lp2278
g69
(g70
g71
NtRp2279
(dp2280
g74
(dp2281
g82
I3
ssg83
g2275
sg76
(lp2282
g864
asbasbasbag69
(g85
g71
NtRp2283
(dp2284
g74
(dp2285
sg83
g2111
sg76
(lp2286
g69
(g90
g71
NtRp2287
(dp2288
g74
(dp2289
g94
g95
ssg83
g2283
sg76
(lp2290
S'QUERY_STRING'
p2291
asbag69
(g90
g71
NtRp2292
(dp2293
g74
(dp2294
g101
g102
ssg83
g2283
sg76
(lp2295
S':'
asbag69
(g90
g71
NtRp2296
(dp2297
g74
(dp2298
sg83
g2283
sg76
(lp2299
g69
(g70
g71
NtRp2300
(dp2301
g74
(dp2302
g82
I3
ssg83
g2296
sg76
(lp2303
S''
asbasbasbag69
(g85
g71
NtRp2304
(dp2305
g74
(dp2306
sg83
g2111
sg76
(lp2307
g69
(g90
g71
NtRp2308
(dp2309
g74
(dp2310
g94
g95
ssg83
g2304
sg76
(lp2311
S'REMOTE_ADDR'
p2312
asbag69
(g90
g71
NtRp2313
(dp2314
g74
(dp2315
g101
g102
ssg83
g2304
sg76
(lp2316
S':'
asbag69
(g90
g71
NtRp2317
(dp2318
g74
(dp2319
sg83
g2304
sg76
(lp2320
g69
(g70
g71
NtRp2321
(dp2322
g74
(dp2323
g82
I3
ssg83
g2317
sg76
(lp2324
g224
asbasbasbag69
(g85
g71
NtRp2325
(dp2326
g74
(dp2327
sg83
g2111
sg76
(lp2328
g69
(g90
g71
NtRp2329
(dp2330
g74
(dp2331
g94
g95
ssg83
g2325
sg76
(lp2332
S'REMOTE_PORT'
p2333
asbag69
(g90
g71
NtRp2334
(dp2335
g74
(dp2336
g101
g102
ssg83
g2325
sg76
(lp2337
S':'
asbag69
(g90
g71
NtRp2338
(dp2339
g74
(dp2340
sg83
g2325
sg76
(lp2341
g69
(g70
g71
NtRp2342
(dp2343
g74
(dp2344
g82
I3
ssg83
g2338
sg76
(lp2345
g928
asbasbasbag69
(g85
g71
NtRp2346
(dp2347
g74
(dp2348
sg83
g2111
sg76
(lp2349
g69
(g90
g71
NtRp2350
(dp2351
g74
(dp2352
g94
g95
ssg83
g2346
sg76
(lp2353
S'REQUEST_METHOD'
p2354
asbag69
(g90
g71
NtRp2355
(dp2356
g74
(dp2357
g101
g102
ssg83
g2346
sg76
(lp2358
S':'
asbag69
(g90
g71
NtRp2359
(dp2360
g74
(dp2361
sg83
g2346
sg76
(lp2362
g69
(g70
g71
NtRp2363
(dp2364
g74
(dp2365
g82
I3
ssg83
g2359
sg76
(lp2366
g950
asbasbasbag69
(g85
g71
NtRp2367
(dp2368
g74
(dp2369
sg83
g2111
sg76
(lp2370
g69
(g90
g71
NtRp2371
(dp2372
g74
(dp2373
g94
g95
ssg83
g2367
sg76
(lp2374
S'REQUEST_URI'
p2375
asbag69
(g90
g71
NtRp2376
(dp2377
g74
(dp2378
g101
g102
ssg83
g2367
sg76
(lp2379
S':'
asbag69
(g90
g71
NtRp2380
(dp2381
g74
(dp2382
sg83
g2367
sg76
(lp2383
g69
(g70
g71
NtRp2384
(dp2385
g74
(dp2386
g82
I3
ssg83
g2380
sg76
(lp2387
g864
asbasbasbag69
(g85
g71
NtRp2388
(dp2389
g74
(dp2390
sg83
g2111
sg76
(lp2391
g69
(g90
g71
NtRp2392
(dp2393
g74
(dp2394
g94
g95
ssg83
g2388
sg76
(lp2395
S'SCRIPT_NAME'
p2396
asbag69
(g90
g71
NtRp2397
(dp2398
g74
(dp2399
g101
g102
ssg83
g2388
sg76
(lp2400
S':'
asbag69
(g90
g71
NtRp2401
(dp2402
g74
(dp2403
sg83
g2388
sg76
(lp2404
g69
(g70
g71
NtRp2405
(dp2406
g74
(dp2407
g82
I3
ssg83
g2401
sg76
(lp2408
S''
asbasbasbag69
(g85
g71
NtRp2409
(dp2410
g74
(dp2411
sg83
g2111
sg76
(lp2412
g69
(g90
g71
NtRp2413
(dp2414
g74
(dp2415
g94
g95
ssg83
g2409
sg76
(lp2416
S'SERVER_NAME'
p2417
asbag69
(g90
g71
NtRp2418
(dp2419
g74
(dp2420
g101
g102
ssg83
g2409
sg76
(lp2421
S':'
asbag69
(g90
g71
NtRp2422
(dp2423
g74
(dp2424
sg83
g2409
sg76
(lp2425
g69
(g70
g71
NtRp2426
(dp2427
g74
(dp2428
g82
I3
ssg83
g2422
sg76
(lp2429
g1014
asbasbasbag69
(g85
g71
NtRp2430
(dp2431
g74
(dp2432
sg83
g2111
sg76
(lp2433
g69
(g90
g71
NtRp2434
(dp2435
g74
(dp2436
g94
g95
ssg83
g2430
sg76
(lp2437
S'SERVER_PORT'
p2438
asbag69
(g90
g71
NtRp2439
(dp2440
g74
(dp2441
g101
g102
ssg83
g2430
sg76
(lp2442
S':'
asbag69
(g90
g71
NtRp2443
(dp2444
g74
(dp2445
sg83
g2430
sg76
(lp2446
g69
(g70
g71
NtRp2447
(dp2448
g74
(dp2449
g82
I3
ssg83
g2443
sg76
(lp2450
g1036
asbasbasbag69
(g85
g71
NtRp2451
(dp2452
g74
(dp2453
sg83
g2111
sg76
(lp2454
g69
(g90
g71
NtRp2455
(dp2456
g74
(dp2457
g94
g95
ssg83
g2451
sg76
(lp2458
S'SERVER_PROTOCOL'
p2459
asbag69
(g90
g71
NtRp2460
(dp2461
g74
(dp2462
g101
g102
ssg83
g2451
sg76
(lp2463
S':'
asbag69
(g90
g71
NtRp2464
(dp2465
g74
(dp2466
sg83
g2451
sg76
(lp2467
g69
(g70
g71
NtRp2468
(dp2469
g74
(dp2470
g82
I3
ssg83
g2464
sg76
(lp2471
g1058
asbasbasbag69
(g85
g71
NtRp2472
(dp2473
g74
(dp2474
sg83
g2111
sg76
(lp2475
g69
(g90
g71
NtRp2476
(dp2477
g74
(dp2478
g94
g95
ssg83
g2472
sg76
(lp2479
S'SERVER_SOFTWARE'
p2480
asbag69
(g90
g71
NtRp2481
(dp2482
g74
(dp2483
g101
g102
ssg83
g2472
sg76
(lp2484
S':'
asbag69
(g90
g71
NtRp2485
(dp2486
g74
(dp2487
sg83
g2472
sg76
(lp2488
g69
(g70
g71
NtRp2489
(dp2490
g74
(dp2491
g82
I3
ssg83
g2485
sg76
(lp2492
g1080
asbasbasbag69
(g85
g71
NtRp2493
(dp2494
g74
(dp2495
sg83
g2111
sg76
(lp2496
g69
(g90
g71
NtRp2497
(dp2498
g74
(dp2499
g94
g95
ssg83
g2493
sg76
(lp2500
S'wsgi.errors'
p2501
asbag69
(g90
g71
NtRp2502
(dp2503
g74
(dp2504
g101
g102
ssg83
g2493
sg76
(lp2505
S':'
asbag69
(g90
g71
NtRp2506
(dp2507
g74
(dp2508
sg83
g2493
sg76
(lp2509
g69
(g70
g71
NtRp2510
(dp2511
g74
(dp2512
g82
I3
ssg83
g2506
sg76
(lp2513
S"<open file '<stderr>', mode 'w' at 0x021D50D0>"
p2514
asbasbasbag69
(g85
g71
NtRp2515
(dp2516
g74
(dp2517
sg83
g2111
sg76
(lp2518
g69
(g90
g71
NtRp2519
(dp2520
g74
(dp2521
g94
g95
ssg83
g2515
sg76
(lp2522
S'wsgi.file_wrapper'
p2523
asbag69
(g90
g71
NtRp2524
(dp2525
g74
(dp2526
g101
g102
ssg83
g2515
sg76
(lp2527
S':'
asbag69
(g90
g71
NtRp2528
(dp2529
g74
(dp2530
sg83
g2515
sg76
(lp2531
g69
(g70
g71
NtRp2532
(dp2533
g74
(dp2534
g82
I3
ssg83
g2528
sg76
(lp2535
S'<class wsgiref.util.FileWrapper at 0x02C1D030>'
p2536
asbasbasbag69
(g85
g71
NtRp2537
(dp2538
g74
(dp2539
sg83
g2111
sg76
(lp2540
g69
(g90
g71
NtRp2541
(dp2542
g74
(dp2543
g94
g95
ssg83
g2537
sg76
(lp2544
S'wsgi.input'
p2545
asbag69
(g90
g71
NtRp2546
(dp2547
g74
(dp2548
g101
g102
ssg83
g2537
sg76
(lp2549
S':'
asbag69
(g90
g71
NtRp2550
(dp2551
g74
(dp2552
sg83
g2537
sg76
(lp2553
g69
(g70
g71
NtRp2554
(dp2555
g74
(dp2556
g82
I3
ssg83
g2550
sg76
(lp2557
S'<cStringIO.StringO object at 0x067C7F80>'
p2558
asbasbasbag69
(g85
g71
NtRp2559
(dp2560
g74
(dp2561
sg83
g2111
sg76
(lp2562
g69
(g90
g71
NtRp2563
(dp2564
g74
(dp2565
g94
g95
ssg83
g2559
sg76
(lp2566
S'wsgi.multiprocess'
p2567
asbag69
(g90
g71
NtRp2568
(dp2569
g74
(dp2570
g101
g102
ssg83
g2559
sg76
(lp2571
S':'
asbag69
(g90
g71
NtRp2572
(dp2573
g74
(dp2574
sg83
g2559
sg76
(lp2575
g69
(g70
g71
NtRp2576
(dp2577
g74
(dp2578
g82
I3
ssg83
g2572
sg76
(lp2579
g112
asbasbasbag69
(g85
g71
NtRp2580
(dp2581
g74
(dp2582
sg83
g2111
sg76
(lp2583
g69
(g90
g71
NtRp2584
(dp2585
g74
(dp2586
g94
g95
ssg83
g2580
sg76
(lp2587
S'wsgi.multithread'
p2588
asbag69
(g90
g71
NtRp2589
(dp2590
g74
(dp2591
g101
g102
ssg83
g2580
sg76
(lp2592
S':'
asbag69
(g90
g71
NtRp2593
(dp2594
g74
(dp2595
sg83
g2580
sg76
(lp2596
g69
(g70
g71
NtRp2597
(dp2598
g74
(dp2599
g82
I3
ssg83
g2593
sg76
(lp2600
g1319
asbasbasbag69
(g85
g71
NtRp2601
(dp2602
g74
(dp2603
sg83
g2111
sg76
(lp2604
g69
(g90
g71
NtRp2605
(dp2606
g74
(dp2607
g94
g95
ssg83
g2601
sg76
(lp2608
S'wsgi.run_once'
p2609
asbag69
(g90
g71
NtRp2610
(dp2611
g74
(dp2612
g101
g102
ssg83
g2601
sg76
(lp2613
S':'
asbag69
(g90
g71
NtRp2614
(dp2615
g74
(dp2616
sg83
g2601
sg76
(lp2617
g69
(g70
g71
NtRp2618
(dp2619
g74
(dp2620
g82
I3
ssg83
g2614
sg76
(lp2621
g112
asbasbasbag69
(g85
g71
NtRp2622
(dp2623
g74
(dp2624
sg83
g2111
sg76
(lp2625
g69
(g90
g71
NtRp2626
(dp2627
g74
(dp2628
g94
g95
ssg83
g2622
sg76
(lp2629
S'wsgi.url_scheme'
p2630
asbag69
(g90
g71
NtRp2631
(dp2632
g74
(dp2633
g101
g102
ssg83
g2622
sg76
(lp2634
S':'
asbag69
(g90
g71
NtRp2635
(dp2636
g74
(dp2637
sg83
g2622
sg76
(lp2638
g69
(g70
g71
NtRp2639
(dp2640
g74
(dp2641
g82
I3
ssg83
g2635
sg76
(lp2642
g1362
asbasbasbag69
(g85
g71
NtRp2643
(dp2644
g74
(dp2645
sg83
g2111
sg76
(lp2646
g69
(g90
g71
NtRp2647
(dp2648
g74
(dp2649
g94
g95
ssg83
g2643
sg76
(lp2650
S'wsgi.version'
p2651
asbag69
(g90
g71
NtRp2652
(dp2653
g74
(dp2654
g101
g102
ssg83
g2643
sg76
(lp2655
S':'
asbag69
(g90
g71
NtRp2656
(dp2657
g74
(dp2658
sg83
g2643
sg76
(lp2659
g69
(g70
g71
NtRp2660
(dp2661
g74
(dp2662
g82
I3
ssg83
g2656
sg76
(lp2663
S'1'
asbasbasbasbasbasbasbasbasbasbasbasbasbsS'frames'
p2664
(lp2665
(dp2666
S'file'
p2667
S'C:\\xampp\\htdocs\\web2py\\gluon\\restricted.py'
p2668
sS'dump'
p2669
(dp2670
sS'lnum'
p2671
I208
sS'lines'
p2672
(dp2673
sS'call'
p2674
S"(code='# -*- coding: utf-8 -*-\\nfrom gluon.custom_import...ble auditing\\n# auth.enable_record_versioning(db)\\n', environment={'A': <class 'gluon.html.A'>, 'B': <class 'gluon.html.B'>, 'BEAUTIFY': <class 'gluon.html.BEAUTIFY'>, 'BODY': <class 'gluon.html.BODY'>, 'BR': <class 'gluon.html.BR'>, 'BUTTON': <class 'gluon.html.BUTTON'>, 'CAT': <class 'gluon.html.CAT'>, 'CENTER': <class 'gluon.html.CENTER'>, 'CLEANUP': <class 'gluon.validators.CLEANUP'>, 'CODE': <class 'gluon.html.CODE'>, ...}, layer=r'C:\\xampp\\htdocs\\web2py\\applications\\testumgebung\\models\\db.py')"
p2675
sS'func'
p2676
S'restricted'
p2677
sa(dp2678
g2667
S'C:\\xampp\\htdocs\\web2py\\gluon\\restricted.py'
p2679
sg2669
(dp2680
sg2671
I193
sg2672
(dp2681
sg2674
S"(code='# -*- coding: utf-8 -*-\\nfrom gluon.custom_import...ble auditing\\n# auth.enable_record_versioning(db)\\n', layer=r'C:\\xampp\\htdocs\\web2py\\applications\\testumgebung\\models\\db.py')"
p2682
sg2676
S'compile2'
p2683
sasS'pyver'
p2684
S'Python 2.7: C:\\xampp\\htdocs\\web2py\\web2py.exe'
p2685
sS'session'
p2686
g69
(g70
g71
NtRp2687
(dp2688
g74
(dp2689
sg76
(lp2690
g69
(g78
g71
NtRp2691
(dp2692
g74
(dp2693
g82
I5
ssg83
Nsg76
(lp2694
sbasbsS'etype'
p2695
S"<type 'exceptions.SyntaxError'>"
p2696
sS'date'
p2697
S'Fri Dec 14 15:58:13 2012'
p2698
sS'response'
p2699
g69
(g70
g71
NtRp2700
(dp2701
g74
(dp2702
sg76
(lp2703
g69
(g78
g71
NtRp2704
(dp2705
g74
(dp2706
g82
I5
ssg83
Nsg76
(lp2707
g69
(g85
g71
NtRp2708
(dp2709
g74
(dp2710
sg83
g2704
sg76
(lp2711
g69
(g90
g71
NtRp2712
(dp2713
g74
(dp2714
g94
g95
ssg83
g2708
sg76
(lp2715
g167
asbag69
(g90
g71
NtRp2716
(dp2717
g74
(dp2718
g101
g102
ssg83
g2708
sg76
(lp2719
S':'
asbag69
(g90
g71
NtRp2720
(dp2721
g74
(dp2722
sg83
g2708
sg76
(lp2723
g69
(g70
g71
NtRp2724
(dp2725
g74
(dp2726
g82
I5
ssg83
g2720
sg76
(lp2727
S'<cStringIO.StringO object at 0x0698F160>'
p2728
asbasbasbag69
(g85
g71
NtRp2729
(dp2730
g74
(dp2731
sg83
g2704
sg76
(lp2732
g69
(g90
g71
NtRp2733
(dp2734
g74
(dp2735
g94
g95
ssg83
g2729
sg76
(lp2736
g255
asbag69
(g90
g71
NtRp2737
(dp2738
g74
(dp2739
g101
g102
ssg83
g2729
sg76
(lp2740
S':'
asbag69
(g90
g71
NtRp2741
(dp2742
g74
(dp2743
sg83
g2729
sg76
(lp2744
g69
(g70
g71
NtRp2745
(dp2746
g74
(dp2747
g82
I5
ssg83
g2741
sg76
(lp2748
g69
(g78
g71
NtRp2749
(dp2750
g74
(dp2751
g82
I4
ssg83
Nsg76
(lp2752
g69
(g85
g71
NtRp2753
(dp2754
g74
(dp2755
sg83
g2749
sg76
(lp2756
g69
(g90
g71
NtRp2757
(dp2758
g74
(dp2759
g94
g95
ssg83
g2753
sg76
(lp2760
S'session_id_testumgebung'
p2761
asbag69
(g90
g71
NtRp2762
(dp2763
g74
(dp2764
g101
g102
ssg83
g2753
sg76
(lp2765
S':'
asbag69
(g90
g71
NtRp2766
(dp2767
g74
(dp2768
sg83
g2753
sg76
(lp2769
g69
(g70
g71
NtRp2770
(dp2771
g74
(dp2772
g82
I4
ssg83
g2766
sg76
(lp2773
S'10.0.0.156-21b98595-ae0b-47df-b28f-109bd47c441a'
p2774
ag69
(g78
g71
NtRp2775
(dp2776
g74
(dp2777
g82
I3
ssg83
Nsg76
(lp2778
g69
(g85
g71
NtRp2779
(dp2780
g74
(dp2781
sg83
g2775
sg76
(lp2782
g69
(g90
g71
NtRp2783
(dp2784
g74
(dp2785
g94
g95
ssg83
g2779
sg76
(lp2786
g306
asbag69
(g90
g71
NtRp2787
(dp2788
g74
(dp2789
g101
g102
ssg83
g2779
sg76
(lp2790
S':'
asbag69
(g90
g71
NtRp2791
(dp2792
g74
(dp2793
sg83
g2779
sg76
(lp2794
g69
(g70
g71
NtRp2795
(dp2796
g74
(dp2797
g82
I3
ssg83
g2791
sg76
(lp2798
S''
asbasbasbag69
(g85
g71
NtRp2799
(dp2800
g74
(dp2801
sg83
g2775
sg76
(lp2802
g69
(g90
g71
NtRp2803
(dp2804
g74
(dp2805
g94
g95
ssg83
g2799
sg76
(lp2806
g327
asbag69
(g90
g71
NtRp2807
(dp2808
g74
(dp2809
g101
g102
ssg83
g2799
sg76
(lp2810
S':'
asbag69
(g90
g71
NtRp2811
(dp2812
g74
(dp2813
sg83
g2799
sg76
(lp2814
g69
(g70
g71
NtRp2815
(dp2816
g74
(dp2817
g82
I3
ssg83
g2811
sg76
(lp2818
S''
asbasbasbag69
(g85
g71
NtRp2819
(dp2820
g74
(dp2821
sg83
g2775
sg76
(lp2822
g69
(g90
g71
NtRp2823
(dp2824
g74
(dp2825
g94
g95
ssg83
g2819
sg76
(lp2826
g348
asbag69
(g90
g71
NtRp2827
(dp2828
g74
(dp2829
g101
g102
ssg83
g2819
sg76
(lp2830
S':'
asbag69
(g90
g71
NtRp2831
(dp2832
g74
(dp2833
sg83
g2819
sg76
(lp2834
g69
(g70
g71
NtRp2835
(dp2836
g74
(dp2837
g82
I3
ssg83
g2831
sg76
(lp2838
S''
asbasbasbag69
(g85
g71
NtRp2839
(dp2840
g74
(dp2841
sg83
g2775
sg76
(lp2842
g69
(g90
g71
NtRp2843
(dp2844
g74
(dp2845
g94
g95
ssg83
g2839
sg76
(lp2846
g369
asbag69
(g90
g71
NtRp2847
(dp2848
g74
(dp2849
g101
g102
ssg83
g2839
sg76
(lp2850
S':'
asbag69
(g90
g71
NtRp2851
(dp2852
g74
(dp2853
sg83
g2839
sg76
(lp2854
g69
(g70
g71
NtRp2855
(dp2856
g74
(dp2857
g82
I3
ssg83
g2851
sg76
(lp2858
S''
asbasbasbag69
(g85
g71
NtRp2859
(dp2860
g74
(dp2861
sg83
g2775
sg76
(lp2862
g69
(g90
g71
NtRp2863
(dp2864
g74
(dp2865
g94
g95
ssg83
g2859
sg76
(lp2866
g390
asbag69
(g90
g71
NtRp2867
(dp2868
g74
(dp2869
g101
g102
ssg83
g2859
sg76
(lp2870
S':'
asbag69
(g90
g71
NtRp2871
(dp2872
g74
(dp2873
sg83
g2859
sg76
(lp2874
g69
(g70
g71
NtRp2875
(dp2876
g74
(dp2877
g82
I3
ssg83
g2871
sg76
(lp2878
S''
asbasbasbag69
(g85
g71
NtRp2879
(dp2880
g74
(dp2881
sg83
g2775
sg76
(lp2882
g69
(g90
g71
NtRp2883
(dp2884
g74
(dp2885
g94
g95
ssg83
g2879
sg76
(lp2886
g411
asbag69
(g90
g71
NtRp2887
(dp2888
g74
(dp2889
g101
g102
ssg83
g2879
sg76
(lp2890
S':'
asbag69
(g90
g71
NtRp2891
(dp2892
g74
(dp2893
sg83
g2879
sg76
(lp2894
g69
(g70
g71
NtRp2895
(dp2896
g74
(dp2897
g82
I3
ssg83
g2891
sg76
(lp2898
S'/'
asbasbasbag69
(g85
g71
NtRp2899
(dp2900
g74
(dp2901
sg83
g2775
sg76
(lp2902
g69
(g90
g71
NtRp2903
(dp2904
g74
(dp2905
g94
g95
ssg83
g2899
sg76
(lp2906
g432
asbag69
(g90
g71
NtRp2907
(dp2908
g74
(dp2909
g101
g102
ssg83
g2899
sg76
(lp2910
S':'
asbag69
(g90
g71
NtRp2911
(dp2912
g74
(dp2913
sg83
g2899
sg76
(lp2914
g69
(g70
g71
NtRp2915
(dp2916
g74
(dp2917
g82
I3
ssg83
g2911
sg76
(lp2918
S''
asbasbasbag69
(g85
g71
NtRp2919
(dp2920
g74
(dp2921
sg83
g2775
sg76
(lp2922
g69
(g90
g71
NtRp2923
(dp2924
g74
(dp2925
g94
g95
ssg83
g2919
sg76
(lp2926
g453
asbag69
(g90
g71
NtRp2927
(dp2928
g74
(dp2929
g101
g102
ssg83
g2919
sg76
(lp2930
S':'
asbag69
(g90
g71
NtRp2931
(dp2932
g74
(dp2933
sg83
g2919
sg76
(lp2934
g69
(g70
g71
NtRp2935
(dp2936
g74
(dp2937
g82
I3
ssg83
g2931
sg76
(lp2938
S''
asbasbasbasbasbasbasbasbasbasbasbag69
(g85
g71
NtRp2939
(dp2940
g74
(dp2941
sg83
g2704
sg76
(lp2942
g69
(g90
g71
NtRp2943
(dp2944
g74
(dp2945
g94
g95
ssg83
g2939
sg76
(lp2946
S'delimiters'
p2947
asbag69
(g90
g71
NtRp2948
(dp2949
g74
(dp2950
g101
g102
ssg83
g2939
sg76
(lp2951
S':'
asbag69
(g90
g71
NtRp2952
(dp2953
g74
(dp2954
sg83
g2939
sg76
(lp2955
g69
(g70
g71
NtRp2956
(dp2957
g74
(dp2958
g82
I5
ssg83
g2952
sg76
(lp2959
g69
(g78
g71
NtRp2960
(dp2961
g74
(dp2962
g82
I4
ssg83
Nsg76
(lp2963
g69
(g85
g71
NtRp2964
(dp2965
g74
(dp2966
sg83
g2960
sg76
(lp2967
g69
(g90
g71
NtRp2968
(dp2969
g74
(dp2970
sg83
g2964
sg76
(lp2971
g69
(g70
g71
NtRp2972
(dp2973
g74
(dp2974
g82
I4
ssg83
g2968
sg76
(lp2975
S'{{'
p2976
asbasbasbag69
(g85
g71
NtRp2977
(dp2978
g74
(dp2979
sg83
g2960
sg76
(lp2980
g69
(g90
g71
NtRp2981
(dp2982
g74
(dp2983
sg83
g2977
sg76
(lp2984
g69
(g70
g71
NtRp2985
(dp2986
g74
(dp2987
g82
I4
ssg83
g2981
sg76
(lp2988
S'}}'
p2989
asbasbasbasbasbasbasbag69
(g85
g71
NtRp2990
(dp2991
g74
(dp2992
sg83
g2704
sg76
(lp2993
g69
(g90
g71
NtRp2994
(dp2995
g74
(dp2996
g94
g95
ssg83
g2990
sg76
(lp2997
S'files'
p2998
asbag69
(g90
g71
NtRp2999
(dp3000
g74
(dp3001
g101
g102
ssg83
g2990
sg76
(lp3002
S':'
asbag69
(g90
g71
NtRp3003
(dp3004
g74
(dp3005
sg83
g2990
sg76
(lp3006
g69
(g70
g71
NtRp3007
(dp3008
g74
(dp3009
g82
I5
ssg83
g3003
sg76
(lp3010
g69
(g78
g71
NtRp3011
(dp3012
g74
(dp3013
g82
I4
ssg83
Nsg76
(lp3014
sbasbasbasbag69
(g85
g71
NtRp3015
(dp3016
g74
(dp3017
sg83
g2704
sg76
(lp3018
g69
(g90
g71
NtRp3019
(dp3020
g74
(dp3021
g94
g95
ssg83
g3015
sg76
(lp3022
S'flash'
p3023
asbag69
(g90
g71
NtRp3024
(dp3025
g74
(dp3026
g101
g102
ssg83
g3015
sg76
(lp3027
S':'
asbag69
(g90
g71
NtRp3028
(dp3029
g74
(dp3030
sg83
g3015
sg76
(lp3031
g69
(g70
g71
NtRp3032
(dp3033
g74
(dp3034
g82
I5
ssg83
g3028
sg76
(lp3035
S''
asbasbasbag69
(g85
g71
NtRp3036
(dp3037
g74
(dp3038
sg83
g2704
sg76
(lp3039
g69
(g90
g71
NtRp3040
(dp3041
g74
(dp3042
g94
g95
ssg83
g3036
sg76
(lp3043
S'generic_patterns'
p3044
asbag69
(g90
g71
NtRp3045
(dp3046
g74
(dp3047
g101
g102
ssg83
g3036
sg76
(lp3048
S':'
asbag69
(g90
g71
NtRp3049
(dp3050
g74
(dp3051
sg83
g3036
sg76
(lp3052
g69
(g70
g71
NtRp3053
(dp3054
g74
(dp3055
g82
I5
ssg83
g3049
sg76
(lp3056
g69
(g78
g71
NtRp3057
(dp3058
g74
(dp3059
g82
I4
ssg83
Nsg76
(lp3060
sbasbasbasbag69
(g85
g71
NtRp3061
(dp3062
g74
(dp3063
sg83
g2704
sg76
(lp3064
g69
(g90
g71
NtRp3065
(dp3066
g74
(dp3067
g94
g95
ssg83
g3061
sg76
(lp3068
S'headers'
p3069
asbag69
(g90
g71
NtRp3070
(dp3071
g74
(dp3072
g101
g102
ssg83
g3061
sg76
(lp3073
S':'
asbag69
(g90
g71
NtRp3074
(dp3075
g74
(dp3076
sg83
g3061
sg76
(lp3077
g69
(g70
g71
NtRp3078
(dp3079
g74
(dp3080
g82
I5
ssg83
g3074
sg76
(lp3081
g69
(g78
g71
NtRp3082
(dp3083
g74
(dp3084
g82
I4
ssg83
Nsg76
(lp3085
g69
(g85
g71
NtRp3086
(dp3087
g74
(dp3088
sg83
g3082
sg76
(lp3089
g69
(g90
g71
NtRp3090
(dp3091
g74
(dp3092
g94
g95
ssg83
g3086
sg76
(lp3093
S'Cache-Control'
p3094
asbag69
(g90
g71
NtRp3095
(dp3096
g74
(dp3097
g101
g102
ssg83
g3086
sg76
(lp3098
S':'
asbag69
(g90
g71
NtRp3099
(dp3100
g74
(dp3101
sg83
g3086
sg76
(lp3102
g69
(g70
g71
NtRp3103
(dp3104
g74
(dp3105
g82
I4
ssg83
g3099
sg76
(lp3106
S'no-store, no-cache, must-revalidate, post-check=0, pre-check=0'
p3107
asbasbasbag69
(g85
g71
NtRp3108
(dp3109
g74
(dp3110
sg83
g3082
sg76
(lp3111
g69
(g90
g71
NtRp3112
(dp3113
g74
(dp3114
g94
g95
ssg83
g3108
sg76
(lp3115
S'Content-Type'
p3116
asbag69
(g90
g71
NtRp3117
(dp3118
g74
(dp3119
g101
g102
ssg83
g3108
sg76
(lp3120
S':'
asbag69
(g90
g71
NtRp3121
(dp3122
g74
(dp3123
sg83
g3108
sg76
(lp3124
g69
(g70
g71
NtRp3125
(dp3126
g74
(dp3127
g82
I4
ssg83
g3121
sg76
(lp3128
S'text/html; charset=utf-8'
p3129
asbasbasbag69
(g85
g71
NtRp3130
(dp3131
g74
(dp3132
sg83
g3082
sg76
(lp3133
g69
(g90
g71
NtRp3134
(dp3135
g74
(dp3136
g94
g95
ssg83
g3130
sg76
(lp3137
S'Expires'
p3138
asbag69
(g90
g71
NtRp3139
(dp3140
g74
(dp3141
g101
g102
ssg83
g3130
sg76
(lp3142
S':'
asbag69
(g90
g71
NtRp3143
(dp3144
g74
(dp3145
sg83
g3130
sg76
(lp3146
g69
(g70
g71
NtRp3147
(dp3148
g74
(dp3149
g82
I4
ssg83
g3143
sg76
(lp3150
S'Fri, 14 Dec 2012 14:58:13 GMT'
p3151
asbasbasbag69
(g85
g71
NtRp3152
(dp3153
g74
(dp3154
sg83
g3082
sg76
(lp3155
g69
(g90
g71
NtRp3156
(dp3157
g74
(dp3158
g94
g95
ssg83
g3152
sg76
(lp3159
S'Pragma'
p3160
asbag69
(g90
g71
NtRp3161
(dp3162
g74
(dp3163
g101
g102
ssg83
g3152
sg76
(lp3164
S':'
asbag69
(g90
g71
NtRp3165
(dp3166
g74
(dp3167
sg83
g3152
sg76
(lp3168
g69
(g70
g71
NtRp3169
(dp3170
g74
(dp3171
g82
I4
ssg83
g3165
sg76
(lp3172
S'no-cache'
p3173
asbasbasbag69
(g85
g71
NtRp3174
(dp3175
g74
(dp3176
sg83
g3082
sg76
(lp3177
g69
(g90
g71
NtRp3178
(dp3179
g74
(dp3180
g94
g95
ssg83
g3174
sg76
(lp3181
S'X-Powered-By'
p3182
asbag69
(g90
g71
NtRp3183
(dp3184
g74
(dp3185
g101
g102
ssg83
g3174
sg76
(lp3186
S':'
asbag69
(g90
g71
NtRp3187
(dp3188
g74
(dp3189
sg83
g3174
sg76
(lp3190
g69
(g70
g71
NtRp3191
(dp3192
g74
(dp3193
g82
I4
ssg83
g3187
sg76
(lp3194
S'web2py'
p3195
asbasbasbasbasbasbasbag69
(g85
g71
NtRp3196
(dp3197
g74
(dp3198
sg83
g2704
sg76
(lp3199
g69
(g90
g71
NtRp3200
(dp3201
g74
(dp3202
g94
g95
ssg83
g3196
sg76
(lp3203
S'menu'
p3204
asbag69
(g90
g71
NtRp3205
(dp3206
g74
(dp3207
g101
g102
ssg83
g3196
sg76
(lp3208
S':'
asbag69
(g90
g71
NtRp3209
(dp3210
g74
(dp3211
sg83
g3196
sg76
(lp3212
g69
(g70
g71
NtRp3213
(dp3214
g74
(dp3215
g82
I5
ssg83
g3209
sg76
(lp3216
g69
(g78
g71
NtRp3217
(dp3218
g74
(dp3219
g82
I4
ssg83
Nsg76
(lp3220
sbasbasbasbag69
(g85
g71
NtRp3221
(dp3222
g74
(dp3223
sg83
g2704
sg76
(lp3224
g69
(g90
g71
NtRp3225
(dp3226
g74
(dp3227
g94
g95
ssg83
g3221
sg76
(lp3228
S'meta'
p3229
asbag69
(g90
g71
NtRp3230
(dp3231
g74
(dp3232
g101
g102
ssg83
g3221
sg76
(lp3233
S':'
asbag69
(g90
g71
NtRp3234
(dp3235
g74
(dp3236
sg83
g3221
sg76
(lp3237
g69
(g70
g71
NtRp3238
(dp3239
g74
(dp3240
g82
I5
ssg83
g3234
sg76
(lp3241
g69
(g78
g71
NtRp3242
(dp3243
g74
(dp3244
g82
I4
ssg83
Nsg76
(lp3245
sbasbasbasbag69
(g85
g71
NtRp3246
(dp3247
g74
(dp3248
sg83
g2704
sg76
(lp3249
g69
(g90
g71
NtRp3250
(dp3251
g74
(dp3252
g94
g95
ssg83
g3246
sg76
(lp3253
S'postprocessing'
p3254
asbag69
(g90
g71
NtRp3255
(dp3256
g74
(dp3257
g101
g102
ssg83
g3246
sg76
(lp3258
S':'
asbag69
(g90
g71
NtRp3259
(dp3260
g74
(dp3261
sg83
g3246
sg76
(lp3262
g69
(g70
g71
NtRp3263
(dp3264
g74
(dp3265
g82
I5
ssg83
g3259
sg76
(lp3266
g69
(g78
g71
NtRp3267
(dp3268
g74
(dp3269
g82
I4
ssg83
Nsg76
(lp3270
sbasbasbasbag69
(g85
g71
NtRp3271
(dp3272
g74
(dp3273
sg83
g2704
sg76
(lp3274
g69
(g90
g71
NtRp3275
(dp3276
g74
(dp3277
g94
g95
ssg83
g3271
sg76
(lp3278
S'session_filename'
p3279
asbag69
(g90
g71
NtRp3280
(dp3281
g74
(dp3282
g101
g102
ssg83
g3271
sg76
(lp3283
S':'
asbag69
(g90
g71
NtRp3284
(dp3285
g74
(dp3286
sg83
g3271
sg76
(lp3287
g69
(g70
g71
NtRp3288
(dp3289
g74
(dp3290
g82
I5
ssg83
g3284
sg76
(lp3291
S'C:\\xampp\\htdocs\\web2py\\applications\\testumgebung\\sessions\\10.0.0.156-21b98595-ae0b-47df-b28f-109bd47c441a'
p3292
asbasbasbag69
(g85
g71
NtRp3293
(dp3294
g74
(dp3295
sg83
g2704
sg76
(lp3296
g69
(g90
g71
NtRp3297
(dp3298
g74
(dp3299
g94
g95
ssg83
g3293
sg76
(lp3300
S'session_id'
p3301
asbag69
(g90
g71
NtRp3302
(dp3303
g74
(dp3304
g101
g102
ssg83
g3293
sg76
(lp3305
S':'
asbag69
(g90
g71
NtRp3306
(dp3307
g74
(dp3308
sg83
g3293
sg76
(lp3309
g69
(g70
g71
NtRp3310
(dp3311
g74
(dp3312
g82
I5
ssg83
g3306
sg76
(lp3313
g2774
asbasbasbag69
(g85
g71
NtRp3314
(dp3315
g74
(dp3316
sg83
g2704
sg76
(lp3317
g69
(g90
g71
NtRp3318
(dp3319
g74
(dp3320
g94
g95
ssg83
g3314
sg76
(lp3321
S'session_id_name'
p3322
asbag69
(g90
g71
NtRp3323
(dp3324
g74
(dp3325
g101
g102
ssg83
g3314
sg76
(lp3326
S':'
asbag69
(g90
g71
NtRp3327
(dp3328
g74
(dp3329
sg83
g3314
sg76
(lp3330
g69
(g70
g71
NtRp3331
(dp3332
g74
(dp3333
g82
I5
ssg83
g3327
sg76
(lp3334
g2761
asbasbasbag69
(g85
g71
NtRp3335
(dp3336
g74
(dp3337
sg83
g2704
sg76
(lp3338
g69
(g90
g71
NtRp3339
(dp3340
g74
(dp3341
g94
g95
ssg83
g3335
sg76
(lp3342
S'session_new'
p3343
asbag69
(g90
g71
NtRp3344
(dp3345
g74
(dp3346
g101
g102
ssg83
g3335
sg76
(lp3347
S':'
asbag69
(g90
g71
NtRp3348
(dp3349
g74
(dp3350
sg83
g3335
sg76
(lp3351
g69
(g70
g71
NtRp3352
(dp3353
g74
(dp3354
g82
I5
ssg83
g3348
sg76
(lp3355
g1319
asbasbasbag69
(g85
g71
NtRp3356
(dp3357
g74
(dp3358
sg83
g2704
sg76
(lp3359
g69
(g90
g71
NtRp3360
(dp3361
g74
(dp3362
g94
g95
ssg83
g3356
sg76
(lp3363
S'status'
p3364
asbag69
(g90
g71
NtRp3365
(dp3366
g74
(dp3367
g101
g102
ssg83
g3356
sg76
(lp3368
S':'
asbag69
(g90
g71
NtRp3369
(dp3370
g74
(dp3371
sg83
g3356
sg76
(lp3372
g69
(g70
g71
NtRp3373
(dp3374
g74
(dp3375
g82
I5
ssg83
g3369
sg76
(lp3376
S'200'
p3377
asbasbasbag69
(g85
g71
NtRp3378
(dp3379
g74
(dp3380
sg83
g2704
sg76
(lp3381
g69
(g90
g71
NtRp3382
(dp3383
g74
(dp3384
g94
g95
ssg83
g3378
sg76
(lp3385
S'view'
p3386
asbag69
(g90
g71
NtRp3387
(dp3388
g74
(dp3389
g101
g102
ssg83
g3378
sg76
(lp3390
S':'
asbag69
(g90
g71
NtRp3391
(dp3392
g74
(dp3393
sg83
g3378
sg76
(lp3394
g69
(g70
g71
NtRp3395
(dp3396
g74
(dp3397
g82
I5
ssg83
g3391
sg76
(lp3398
S'default/index.html'
p3399
asbasbasbasbasbsS'locals'
p3400
(dp3401
g4
S"r'C:\\xampp\\htdocs\\web2py\\applications\\testumgebung\\models\\db.py'"
p3402
sg6
S"'# -*- coding: utf-8 -*-\\nfrom gluon.custom_import...ble auditing\\n# auth.enable_record_versioning(db)\\n'"
p3403
sssS'traceback'
p3404
S'Traceback (most recent call last):\n  File "gluon/restricted.py", line 208, in restricted\n  File "gluon/restricted.py", line 193, in compile2\n  File "C:\\xampp\\htdocs\\web2py\\applications\\testumgebung\\models\\db.py", line 104\n    DIV(*[] for i in range(1,6))\n              ^\nSyntaxError: invalid syntax\n'
p3405
s.