(dp1
S'output'
p2
S"<type 'exceptions.SyntaxError'> invalid syntax (db.py, line 104)"
p3
sS'layer'
p4
S'C:\\xampp\\htdocs\\web2py\\applications\\testumgebung\\models\\db.py'
p5
sS'code'
p6
S'# -*- coding: utf-8 -*-\nfrom gluon.custom_import import track_changes; track_changes(True) #todo: raus, wenn man online geht.\n#########################################################################\n## This scaffolding model makes your app work on Google App Engine too\n## File is released under public domain and you can use without limitations\n#########################################################################\n\n## if SSL/HTTPS is properly configured and you want all HTTP requests to\n## be redirected to HTTPS, uncomment the line below:\n# request.requires_https()\n\nif not request.env.web2py_runtime_gae:\n    ## if NOT running on Google App Engine use SQLite or other DB\n    db = DAL(\'sqlite://storage.sqlite\')\nelse:\n    ## connect to Google BigTable (optional \'google:datastore://namespace\')\n    db = DAL(\'google:datastore\')\n    ## store sessions and tickets there\n    session.connect(request, response, db = db)\n    ## or store session in Memcache, Redis, etc.\n    ## from gluon.contrib.memdb import MEMDB\n    ## from google.appengine.api.memcache import Client\n    ## session.connect(request, response, db = MEMDB(Client()))\n\n## by default give a view/generic.extension to all actions from localhost\n## none otherwise. a pattern can be \'controller/function.extension\'\nresponse.generic_patterns = [\'*\'] if request.is_local else []\n## (optional) optimize handling of static files\n# response.optimize_css = \'concat,minify,inline\'\n# response.optimize_js = \'concat,minify,inline\'\n\n#########################################################################\n## Here is sample code if you need for\n## - email capabilities\n## - authentication (registration, login, logout, ... )\n## - authorization (role based authorization)\n## - services (xml, csv, json, xmlrpc, jsonrpc, amf, rss)\n## - old style crud actions\n## (more options discussed in gluon/tools.py)\n#########################################################################\n\nfrom gluon.tools import Auth, Crud, Service, PluginManager, prettydate\nauth = Auth(db)\ncrud, service, plugins = Crud(db), Service(), PluginManager()\n\n## create all tables needed by auth if not custom tables\nauth.define_tables(username=False, signature=False)\n\n## configure email\nmail=auth.settings.mailer\nmail.settings.server = \'logging\' or \'smtp.gmail.com:587\'\nmail.settings.sender = \'you@gmail.com\'\nmail.settings.login = \'username:password\'\n\n## configure auth policy\nauth.settings.registration_requires_verification = False\nauth.settings.registration_requires_approval = False\nauth.settings.reset_password_requires_verification = True\n\n## if you need to use OpenID, Facebook, MySpace, Twitter, Linkedin, etc.\n## register with janrain.com, write your domain:api_key in private/janrain.key\nfrom gluon.contrib.login_methods.rpx_account import use_janrain\nuse_janrain(auth,filename=\'private/janrain.key\')\n\n#########################################################################\n## Define your tables below (or better in another model file) for example\n##\n## >>> db.define_table(\'mytable\',Field(\'myfield\',\'string\'))\n##\n## Fields can be \'string\',\'text\',\'password\',\'integer\',\'double\',\'boolean\'\n##       \'date\',\'time\',\'datetime\',\'blob\',\'upload\', \'reference TABLENAME\'\n## There is an implicit \'id integer autoincrement\' field\n## Consult manual for more options, validators, etc.\n##\n## More API examples for controllers:\n##\n## >>> db.mytable.insert(myfield=\'value\')\n## >>> rows=db(db.mytable.myfield==\'value\').select(db.mytable.ALL)\n## >>> for row in rows: print row.id, row.myfield\n#########################################################################\n\n\ndb.define_table("questions", \n                Field(\'title\', \'string\'))\n\ndb.define_table("answers",\n                Field("itemID", db.questions, requires = IS_IN_DB(db,db.questions.id,\'%(title)s\', error_message=T(\'Bitte w\xc3\xa4hlen Sie eine Frage aus\')), label = T(\'Frage\')),\n                Field(\'scale\', \'integer\', requires=IS_IN_SET({1:T(\'Trifft gar nicht zu\'),2:T(\'Trifft nicht zu\'), 3:T(\'teils-teils\'), 4:T(\'Trifft zu\'), 5:T(\'Trifft total zu\')})))\n\n\ndb.define_table("answers_smiley",\n                Field("itemID", db.questions, requires = IS_IN_DB(db,db.questions.id,\'%(title)s\', error_message=T(\'Bitte w\xc3\xa4hlen Sie eine Frage aus\')), label = T(\'Frage\')),\n                Field(\'scale\', \'integer\', requires=IS_IN_SET(range(1,6))))\n\ndb.define_table(\'answers_stars\',\n    Field(\'rating\', \'integer\',\n          requires=IS_IN_SET(range(1, 6)),  # "requires" is necessary for the rating widget\n))\n\n#db.questions.scale.widget = LikertWidget()\n\n\ndb.answers_stars.rating.represent = lambda v: \\\n    DIV(*[SPAN(i)] for i in range(1,6))\n\n## after defining tables, uncomment below to enable auditing\n# auth.enable_record_versioning(db)\n'
p7
sS'snapshot'
p8
(dp9
S'exception'
p10
(dp11
S'__getslice__'
p12
S"<method-wrapper '__getslice__' of exceptions.SyntaxError object>"
p13
sS'text'
p14
S"'    DIV(*[SPAN(i)] for i in range(1,6))\\n'"
p15
sS'__str__'
p16
S"<method-wrapper '__str__' of exceptions.SyntaxError object>"
p17
sS'__reduce__'
p18
S'<built-in method __reduce__ of exceptions.SyntaxError object>'
p19
sS'__dict__'
p20
S'{}'
p21
sS'__sizeof__'
p22
S'<built-in method __sizeof__ of exceptions.SyntaxError object>'
p23
sS'__init__'
p24
S"<method-wrapper '__init__' of exceptions.SyntaxError object>"
p25
sS'__setattr__'
p26
S"<method-wrapper '__setattr__' of exceptions.SyntaxError object>"
p27
sS'__reduce_ex__'
p28
S'<built-in method __reduce_ex__ of exceptions.SyntaxError object>'
p29
sS'__new__'
p30
S'<built-in method __new__ of type object>'
p31
sS'__format__'
p32
S'<built-in method __format__ of exceptions.SyntaxError object>'
p33
sS'__class__'
p34
S"<type 'exceptions.SyntaxError'>"
p35
sS'filename'
p36
S"r'C:\\xampp\\htdocs\\web2py\\applications\\testumgebung\\models\\db.py'"
p37
sS'lineno'
p38
S'104'
p39
sS'msg'
p40
S"'invalid syntax'"
p41
sS'__doc__'
p42
S"'Invalid syntax.'"
p43
sS'__getitem__'
p44
S"<method-wrapper '__getitem__' of exceptions.SyntaxError object>"
p45
sS'__setstate__'
p46
S'<built-in method __setstate__ of exceptions.SyntaxError object>'
p47
sS'__getattribute__'
p48
S"<method-wrapper '__getattribute__' of exceptions.SyntaxError object>"
p49
sS'print_file_and_line'
p50
S'None'
p51
sS'args'
p52
S"('invalid syntax', (r'C:\\xampp\\htdocs\\web2py\\applications\\testumgebung\\models\\db.py', 104, 22, '    DIV(*[SPAN(i)] for i in range(1,6))\\n'))"
p53
sS'__subclasshook__'
p54
S'<built-in method __subclasshook__ of type object>'
p55
sS'offset'
p56
S'22'
p57
sS'__unicode__'
p58
S'<built-in method __unicode__ of exceptions.SyntaxError object>'
p59
sS'__delattr__'
p60
S"<method-wrapper '__delattr__' of exceptions.SyntaxError object>"
p61
sS'__repr__'
p62
S"<method-wrapper '__repr__' of exceptions.SyntaxError object>"
p63
sS'__hash__'
p64
S"<method-wrapper '__hash__' of exceptions.SyntaxError object>"
p65
ssS'evalue'
p66
S'invalid syntax (db.py, line 104)'
p67
sS'request'
p68
ccopy_reg
_reconstructor
p69
(cgluon.html
BEAUTIFY
p70
c__builtin__
object
p71
NtRp72
(dp73
S'attributes'
p74
(dp75
sS'components'
p76
(lp77
g69
(cgluon.html
TABLE
p78
g71
NtRp79
(dp80
g74
(dp81
S'level'
p82
I5
ssS'parent'
p83
Nsg76
(lp84
g69
(cgluon.html
TR
p85
g71
NtRp86
(dp87
g74
(dp88
sg83
g79
sg76
(lp89
g69
(cgluon.html
TD
p90
g71
NtRp91
(dp92
g74
(dp93
S'_style'
p94
S'font-weight:bold;vertical-align:top'
p95
ssg83
g86
sg76
(lp96
S'ajax'
p97
asbag69
(g90
g71
NtRp98
(dp99
g74
(dp100
S'_valign'
p101
S'top'
p102
ssg83
g86
sg76
(lp103
S':'
asbag69
(g90
g71
NtRp104
(dp105
g74
(dp106
sg83
g86
sg76
(lp107
g69
(g70
g71
NtRp108
(dp109
g74
(dp110
g82
I5
ssg83
g104
sg76
(lp111
S'False'
p112
asbasbasbag69
(g85
g71
NtRp113
(dp114
g74
(dp115
sg83
g79
sg76
(lp116
g69
(g90
g71
NtRp117
(dp118
g74
(dp119
g94
g95
ssg83
g113
sg76
(lp120
S'application'
p121
asbag69
(g90
g71
NtRp122
(dp123
g74
(dp124
g101
g102
ssg83
g113
sg76
(lp125
S':'
asbag69
(g90
g71
NtRp126
(dp127
g74
(dp128
sg83
g113
sg76
(lp129
g69
(g70
g71
NtRp130
(dp131
g74
(dp132
g82
I5
ssg83
g126
sg76
(lp133
S'testumgebung'
p134
asbasbasbag69
(g85
g71
NtRp135
(dp136
g74
(dp137
sg83
g79
sg76
(lp138
g69
(g90
g71
NtRp139
(dp140
g74
(dp141
g94
g95
ssg83
g135
sg76
(lp142
g52
asbag69
(g90
g71
NtRp143
(dp144
g74
(dp145
g101
g102
ssg83
g135
sg76
(lp146
S':'
asbag69
(g90
g71
NtRp147
(dp148
g74
(dp149
sg83
g135
sg76
(lp150
g69
(g70
g71
NtRp151
(dp152
g74
(dp153
g82
I5
ssg83
g147
sg76
(lp154
g69
(g78
g71
NtRp155
(dp156
g74
(dp157
g82
I4
ssg83
Nsg76
(lp158
sbasbasbasbag69
(g85
g71
NtRp159
(dp160
g74
(dp161
sg83
g79
sg76
(lp162
g69
(g90
g71
NtRp163
(dp164
g74
(dp165
g94
g95
ssg83
g159
sg76
(lp166
S'body'
p167
asbag69
(g90
g71
NtRp168
(dp169
g74
(dp170
g101
g102
ssg83
g159
sg76
(lp171
S':'
asbag69
(g90
g71
NtRp172
(dp173
g74
(dp174
sg83
g159
sg76
(lp175
g69
(g70
g71
NtRp176
(dp177
g74
(dp178
g82
I5
ssg83
g172
sg76
(lp179
S'<cStringIO.StringO object at 0x068D5440>'
p180
asbasbasbag69
(g85
g71
NtRp181
(dp182
g74
(dp183
sg83
g79
sg76
(lp184
g69
(g90
g71
NtRp185
(dp186
g74
(dp187
g94
g95
ssg83
g181
sg76
(lp188
S'cid'
p189
asbag69
(g90
g71
NtRp190
(dp191
g74
(dp192
g101
g102
ssg83
g181
sg76
(lp193
S':'
asbag69
(g90
g71
NtRp194
(dp195
g74
(dp196
sg83
g181
sg76
(lp197
g69
(g70
g71
NtRp198
(dp199
g74
(dp200
g82
I5
ssg83
g194
sg76
(lp201
S'None'
p202
asbasbasbag69
(g85
g71
NtRp203
(dp204
g74
(dp205
sg83
g79
sg76
(lp206
g69
(g90
g71
NtRp207
(dp208
g74
(dp209
g94
g95
ssg83
g203
sg76
(lp210
S'client'
p211
asbag69
(g90
g71
NtRp212
(dp213
g74
(dp214
g101
g102
ssg83
g203
sg76
(lp215
S':'
asbag69
(g90
g71
NtRp216
(dp217
g74
(dp218
sg83
g203
sg76
(lp219
g69
(g70
g71
NtRp220
(dp221
g74
(dp222
g82
I5
ssg83
g216
sg76
(lp223
S'10.0.0.109'
p224
asbasbasbag69
(g85
g71
NtRp225
(dp226
g74
(dp227
sg83
g79
sg76
(lp228
g69
(g90
g71
NtRp229
(dp230
g74
(dp231
g94
g95
ssg83
g225
sg76
(lp232
S'controller'
p233
asbag69
(g90
g71
NtRp234
(dp235
g74
(dp236
g101
g102
ssg83
g225
sg76
(lp237
S':'
asbag69
(g90
g71
NtRp238
(dp239
g74
(dp240
sg83
g225
sg76
(lp241
g69
(g70
g71
NtRp242
(dp243
g74
(dp244
g82
I5
ssg83
g238
sg76
(lp245
S'default'
p246
asbasbasbag69
(g85
g71
NtRp247
(dp248
g74
(dp249
sg83
g79
sg76
(lp250
g69
(g90
g71
NtRp251
(dp252
g74
(dp253
g94
g95
ssg83
g247
sg76
(lp254
S'cookies'
p255
asbag69
(g90
g71
NtRp256
(dp257
g74
(dp258
g101
g102
ssg83
g247
sg76
(lp259
S':'
asbag69
(g90
g71
NtRp260
(dp261
g74
(dp262
sg83
g247
sg76
(lp263
g69
(g70
g71
NtRp264
(dp265
g74
(dp266
g82
I5
ssg83
g260
sg76
(lp267
g69
(g78
g71
NtRp268
(dp269
g74
(dp270
g82
I4
ssg83
Nsg76
(lp271
g69
(g85
g71
NtRp272
(dp273
g74
(dp274
sg83
g268
sg76
(lp275
g69
(g90
g71
NtRp276
(dp277
g74
(dp278
g94
g95
ssg83
g272
sg76
(lp279
S'session_id_admin'
p280
asbag69
(g90
g71
NtRp281
(dp282
g74
(dp283
g101
g102
ssg83
g272
sg76
(lp284
S':'
asbag69
(g90
g71
NtRp285
(dp286
g74
(dp287
sg83
g272
sg76
(lp288
g69
(g70
g71
NtRp289
(dp290
g74
(dp291
g82
I4
ssg83
g285
sg76
(lp292
S'10.0.0.109-eb529c1b-622c-4281-9611-602509a746f1'
p293
ag69
(g78
g71
NtRp294
(dp295
g74
(dp296
g82
I3
ssg83
Nsg76
(lp297
g69
(g85
g71
NtRp298
(dp299
g74
(dp300
sg83
g294
sg76
(lp301
g69
(g90
g71
NtRp302
(dp303
g74
(dp304
g94
g95
ssg83
g298
sg76
(lp305
S'comment'
p306
asbag69
(g90
g71
NtRp307
(dp308
g74
(dp309
g101
g102
ssg83
g298
sg76
(lp310
S':'
asbag69
(g90
g71
NtRp311
(dp312
g74
(dp313
sg83
g298
sg76
(lp314
g69
(g70
g71
NtRp315
(dp316
g74
(dp317
g82
I3
ssg83
g311
sg76
(lp318
S''
asbasbasbag69
(g85
g71
NtRp319
(dp320
g74
(dp321
sg83
g294
sg76
(lp322
g69
(g90
g71
NtRp323
(dp324
g74
(dp325
g94
g95
ssg83
g319
sg76
(lp326
S'domain'
p327
asbag69
(g90
g71
NtRp328
(dp329
g74
(dp330
g101
g102
ssg83
g319
sg76
(lp331
S':'
asbag69
(g90
g71
NtRp332
(dp333
g74
(dp334
sg83
g319
sg76
(lp335
g69
(g70
g71
NtRp336
(dp337
g74
(dp338
g82
I3
ssg83
g332
sg76
(lp339
S''
asbasbasbag69
(g85
g71
NtRp340
(dp341
g74
(dp342
sg83
g294
sg76
(lp343
g69
(g90
g71
NtRp344
(dp345
g74
(dp346
g94
g95
ssg83
g340
sg76
(lp347
S'expires'
p348
asbag69
(g90
g71
NtRp349
(dp350
g74
(dp351
g101
g102
ssg83
g340
sg76
(lp352
S':'
asbag69
(g90
g71
NtRp353
(dp354
g74
(dp355
sg83
g340
sg76
(lp356
g69
(g70
g71
NtRp357
(dp358
g74
(dp359
g82
I3
ssg83
g353
sg76
(lp360
S''
asbasbasbag69
(g85
g71
NtRp361
(dp362
g74
(dp363
sg83
g294
sg76
(lp364
g69
(g90
g71
NtRp365
(dp366
g74
(dp367
g94
g95
ssg83
g361
sg76
(lp368
S'httponly'
p369
asbag69
(g90
g71
NtRp370
(dp371
g74
(dp372
g101
g102
ssg83
g361
sg76
(lp373
S':'
asbag69
(g90
g71
NtRp374
(dp375
g74
(dp376
sg83
g361
sg76
(lp377
g69
(g70
g71
NtRp378
(dp379
g74
(dp380
g82
I3
ssg83
g374
sg76
(lp381
S''
asbasbasbag69
(g85
g71
NtRp382
(dp383
g74
(dp384
sg83
g294
sg76
(lp385
g69
(g90
g71
NtRp386
(dp387
g74
(dp388
g94
g95
ssg83
g382
sg76
(lp389
S'max-age'
p390
asbag69
(g90
g71
NtRp391
(dp392
g74
(dp393
g101
g102
ssg83
g382
sg76
(lp394
S':'
asbag69
(g90
g71
NtRp395
(dp396
g74
(dp397
sg83
g382
sg76
(lp398
g69
(g70
g71
NtRp399
(dp400
g74
(dp401
g82
I3
ssg83
g395
sg76
(lp402
S''
asbasbasbag69
(g85
g71
NtRp403
(dp404
g74
(dp405
sg83
g294
sg76
(lp406
g69
(g90
g71
NtRp407
(dp408
g74
(dp409
g94
g95
ssg83
g403
sg76
(lp410
S'path'
p411
asbag69
(g90
g71
NtRp412
(dp413
g74
(dp414
g101
g102
ssg83
g403
sg76
(lp415
S':'
asbag69
(g90
g71
NtRp416
(dp417
g74
(dp418
sg83
g403
sg76
(lp419
g69
(g70
g71
NtRp420
(dp421
g74
(dp422
g82
I3
ssg83
g416
sg76
(lp423
S''
asbasbasbag69
(g85
g71
NtRp424
(dp425
g74
(dp426
sg83
g294
sg76
(lp427
g69
(g90
g71
NtRp428
(dp429
g74
(dp430
g94
g95
ssg83
g424
sg76
(lp431
S'secure'
p432
asbag69
(g90
g71
NtRp433
(dp434
g74
(dp435
g101
g102
ssg83
g424
sg76
(lp436
S':'
asbag69
(g90
g71
NtRp437
(dp438
g74
(dp439
sg83
g424
sg76
(lp440
g69
(g70
g71
NtRp441
(dp442
g74
(dp443
g82
I3
ssg83
g437
sg76
(lp444
S''
asbasbasbag69
(g85
g71
NtRp445
(dp446
g74
(dp447
sg83
g294
sg76
(lp448
g69
(g90
g71
NtRp449
(dp450
g74
(dp451
g94
g95
ssg83
g445
sg76
(lp452
S'version'
p453
asbag69
(g90
g71
NtRp454
(dp455
g74
(dp456
g101
g102
ssg83
g445
sg76
(lp457
S':'
asbag69
(g90
g71
NtRp458
(dp459
g74
(dp460
sg83
g445
sg76
(lp461
g69
(g70
g71
NtRp462
(dp463
g74
(dp464
g82
I3
ssg83
g458
sg76
(lp465
S''
asbasbasbasbasbasbasbag69
(g85
g71
NtRp466
(dp467
g74
(dp468
sg83
g268
sg76
(lp469
g69
(g90
g71
NtRp470
(dp471
g74
(dp472
g94
g95
ssg83
g466
sg76
(lp473
S'session_id_welcome'
p474
asbag69
(g90
g71
NtRp475
(dp476
g74
(dp477
g101
g102
ssg83
g466
sg76
(lp478
S':'
asbag69
(g90
g71
NtRp479
(dp480
g74
(dp481
sg83
g466
sg76
(lp482
g69
(g70
g71
NtRp483
(dp484
g74
(dp485
g82
I4
ssg83
g479
sg76
(lp486
S'10.0.0.109-0aa4b5ad-9c6f-4f2c-bfe5-621d38e03c33'
p487
ag69
(g78
g71
NtRp488
(dp489
g74
(dp490
g82
I3
ssg83
Nsg76
(lp491
g69
(g85
g71
NtRp492
(dp493
g74
(dp494
sg83
g488
sg76
(lp495
g69
(g90
g71
NtRp496
(dp497
g74
(dp498
g94
g95
ssg83
g492
sg76
(lp499
g306
asbag69
(g90
g71
NtRp500
(dp501
g74
(dp502
g101
g102
ssg83
g492
sg76
(lp503
S':'
asbag69
(g90
g71
NtRp504
(dp505
g74
(dp506
sg83
g492
sg76
(lp507
g69
(g70
g71
NtRp508
(dp509
g74
(dp510
g82
I3
ssg83
g504
sg76
(lp511
S''
asbasbasbag69
(g85
g71
NtRp512
(dp513
g74
(dp514
sg83
g488
sg76
(lp515
g69
(g90
g71
NtRp516
(dp517
g74
(dp518
g94
g95
ssg83
g512
sg76
(lp519
g327
asbag69
(g90
g71
NtRp520
(dp521
g74
(dp522
g101
g102
ssg83
g512
sg76
(lp523
S':'
asbag69
(g90
g71
NtRp524
(dp525
g74
(dp526
sg83
g512
sg76
(lp527
g69
(g70
g71
NtRp528
(dp529
g74
(dp530
g82
I3
ssg83
g524
sg76
(lp531
S''
asbasbasbag69
(g85
g71
NtRp532
(dp533
g74
(dp534
sg83
g488
sg76
(lp535
g69
(g90
g71
NtRp536
(dp537
g74
(dp538
g94
g95
ssg83
g532
sg76
(lp539
g348
asbag69
(g90
g71
NtRp540
(dp541
g74
(dp542
g101
g102
ssg83
g532
sg76
(lp543
S':'
asbag69
(g90
g71
NtRp544
(dp545
g74
(dp546
sg83
g532
sg76
(lp547
g69
(g70
g71
NtRp548
(dp549
g74
(dp550
g82
I3
ssg83
g544
sg76
(lp551
S''
asbasbasbag69
(g85
g71
NtRp552
(dp553
g74
(dp554
sg83
g488
sg76
(lp555
g69
(g90
g71
NtRp556
(dp557
g74
(dp558
g94
g95
ssg83
g552
sg76
(lp559
g369
asbag69
(g90
g71
NtRp560
(dp561
g74
(dp562
g101
g102
ssg83
g552
sg76
(lp563
S':'
asbag69
(g90
g71
NtRp564
(dp565
g74
(dp566
sg83
g552
sg76
(lp567
g69
(g70
g71
NtRp568
(dp569
g74
(dp570
g82
I3
ssg83
g564
sg76
(lp571
S''
asbasbasbag69
(g85
g71
NtRp572
(dp573
g74
(dp574
sg83
g488
sg76
(lp575
g69
(g90
g71
NtRp576
(dp577
g74
(dp578
g94
g95
ssg83
g572
sg76
(lp579
g390
asbag69
(g90
g71
NtRp580
(dp581
g74
(dp582
g101
g102
ssg83
g572
sg76
(lp583
S':'
asbag69
(g90
g71
NtRp584
(dp585
g74
(dp586
sg83
g572
sg76
(lp587
g69
(g70
g71
NtRp588
(dp589
g74
(dp590
g82
I3
ssg83
g584
sg76
(lp591
S''
asbasbasbag69
(g85
g71
NtRp592
(dp593
g74
(dp594
sg83
g488
sg76
(lp595
g69
(g90
g71
NtRp596
(dp597
g74
(dp598
g94
g95
ssg83
g592
sg76
(lp599
g411
asbag69
(g90
g71
NtRp600
(dp601
g74
(dp602
g101
g102
ssg83
g592
sg76
(lp603
S':'
asbag69
(g90
g71
NtRp604
(dp605
g74
(dp606
sg83
g592
sg76
(lp607
g69
(g70
g71
NtRp608
(dp609
g74
(dp610
g82
I3
ssg83
g604
sg76
(lp611
S''
asbasbasbag69
(g85
g71
NtRp612
(dp613
g74
(dp614
sg83
g488
sg76
(lp615
g69
(g90
g71
NtRp616
(dp617
g74
(dp618
g94
g95
ssg83
g612
sg76
(lp619
g432
asbag69
(g90
g71
NtRp620
(dp621
g74
(dp622
g101
g102
ssg83
g612
sg76
(lp623
S':'
asbag69
(g90
g71
NtRp624
(dp625
g74
(dp626
sg83
g612
sg76
(lp627
g69
(g70
g71
NtRp628
(dp629
g74
(dp630
g82
I3
ssg83
g624
sg76
(lp631
S''
asbasbasbag69
(g85
g71
NtRp632
(dp633
g74
(dp634
sg83
g488
sg76
(lp635
g69
(g90
g71
NtRp636
(dp637
g74
(dp638
g94
g95
ssg83
g632
sg76
(lp639
g453
asbag69
(g90
g71
NtRp640
(dp641
g74
(dp642
g101
g102
ssg83
g632
sg76
(lp643
S':'
asbag69
(g90
g71
NtRp644
(dp645
g74
(dp646
sg83
g632
sg76
(lp647
g69
(g70
g71
NtRp648
(dp649
g74
(dp650
g82
I3
ssg83
g644
sg76
(lp651
S''
asbasbasbasbasbasbasbasbasbasbasbag69
(g85
g71
NtRp652
(dp653
g74
(dp654
sg83
g79
sg76
(lp655
g69
(g90
g71
NtRp656
(dp657
g74
(dp658
g94
g95
ssg83
g652
sg76
(lp659
S'env'
p660
asbag69
(g90
g71
NtRp661
(dp662
g74
(dp663
g101
g102
ssg83
g652
sg76
(lp664
S':'
asbag69
(g90
g71
NtRp665
(dp666
g74
(dp667
sg83
g652
sg76
(lp668
g69
(g70
g71
NtRp669
(dp670
g74
(dp671
g82
I5
ssg83
g665
sg76
(lp672
g69
(g78
g71
NtRp673
(dp674
g74
(dp675
g82
I4
ssg83
Nsg76
(lp676
g69
(g85
g71
NtRp677
(dp678
g74
(dp679
sg83
g673
sg76
(lp680
g69
(g90
g71
NtRp681
(dp682
g74
(dp683
g94
g95
ssg83
g677
sg76
(lp684
S'app_folders'
p685
asbag69
(g90
g71
NtRp686
(dp687
g74
(dp688
g101
g102
ssg83
g677
sg76
(lp689
S':'
asbag69
(g90
g71
NtRp690
(dp691
g74
(dp692
sg83
g677
sg76
(lp693
g69
(g70
g71
NtRp694
(dp695
g74
(dp696
g82
I4
ssg83
g690
sg76
(lp697
S"set(['C:\\\\xampp\\\\htdocs\\\\web2py\\\\applications\\\\admin\\\\', 'C:\\\\xampp\\\\htdocs\\\\web2py\\\\applications\\\\welcome\\\\', 'C:\\\\xampp\\\\htdocs\\\\web2py\\\\applications\\\\testumgebung\\\\'])"
p698
asbasbasbag69
(g85
g71
NtRp699
(dp700
g74
(dp701
sg83
g673
sg76
(lp702
g69
(g90
g71
NtRp703
(dp704
g74
(dp705
g94
g95
ssg83
g699
sg76
(lp706
S'applications_parent'
p707
asbag69
(g90
g71
NtRp708
(dp709
g74
(dp710
g101
g102
ssg83
g699
sg76
(lp711
S':'
asbag69
(g90
g71
NtRp712
(dp713
g74
(dp714
sg83
g699
sg76
(lp715
g69
(g70
g71
NtRp716
(dp717
g74
(dp718
g82
I4
ssg83
g712
sg76
(lp719
S'C:\\xampp\\htdocs\\web2py'
p720
asbasbasbag69
(g85
g71
NtRp721
(dp722
g74
(dp723
sg83
g673
sg76
(lp724
g69
(g90
g71
NtRp725
(dp726
g74
(dp727
g94
g95
ssg83
g721
sg76
(lp728
S'cmd_args'
p729
asbag69
(g90
g71
NtRp730
(dp731
g74
(dp732
g101
g102
ssg83
g721
sg76
(lp733
S':'
asbag69
(g90
g71
NtRp734
(dp735
g74
(dp736
sg83
g721
sg76
(lp737
g69
(g70
g71
NtRp738
(dp739
g74
(dp740
g82
I4
ssg83
g734
sg76
(lp741
g69
(g78
g71
NtRp742
(dp743
g74
(dp744
g82
I3
ssg83
Nsg76
(lp745
sbasbasbasbag69
(g85
g71
NtRp746
(dp747
g74
(dp748
sg83
g673
sg76
(lp749
g69
(g90
g71
NtRp750
(dp751
g74
(dp752
g94
g95
ssg83
g746
sg76
(lp753
S'cmd_options'
p754
asbag69
(g90
g71
NtRp755
(dp756
g74
(dp757
g101
g102
ssg83
g746
sg76
(lp758
S':'
asbag69
(g90
g71
NtRp759
(dp760
g74
(dp761
sg83
g746
sg76
(lp762
g69
(g70
g71
NtRp763
(dp764
g74
(dp765
g82
I4
ssg83
g759
sg76
(lp766
S"<Values at 0x2c68e18: {'verbose': False, 'ip': '127.0.0.1', 'with_scheduler': False, 'ips': ['10.0.0.109', '192.168.189.1', '192.168.91.1'], 'shutdown_timeout': 5, 'taskbar': False, 'port': 8000, 'maxthreads': None, 'softcron': False, 'server_name': 'swLaptop', 'bpython': False, 'nogui': False, 'nocron': False, 'extcron': False, 'run_system_tests': False, 'test': None, 'folder': 'C:\\\\xampp\\\\htdocs\\\\web2py', 'config': '', 'import_models': False, 'winservice': '', 'shell': None, 'run': '', 'log_filename': 'httpserver.log', 'debuglevel': 30, 'args': [''], 'socket_timeout': 5, 'ssl_ca_certificate': None, 'scheduler': None, 'profiler_filename': None, 'ssl_private_key': '', 'scheduler_groups': None, 'password': '<ask>', 'request_queue_size': 5, 'ssl_certificate': '', 'cronjob': False, 'numthreads': None, 'quiet': False, 'interfaces': None, 'minthreads': None, 'timeout': 10, 'plain': False, 'nobanner': False, 'pid_filename': 'httpserver.pid'}>"
p767
asbasbasbag69
(g85
g71
NtRp768
(dp769
g74
(dp770
sg83
g673
sg76
(lp771
g69
(g90
g71
NtRp772
(dp773
g74
(dp774
g94
g95
ssg83
g768
sg76
(lp775
S'db_sessions'
p776
asbag69
(g90
g71
NtRp777
(dp778
g74
(dp779
g101
g102
ssg83
g768
sg76
(lp780
S':'
asbag69
(g90
g71
NtRp781
(dp782
g74
(dp783
sg83
g768
sg76
(lp784
g69
(g70
g71
NtRp785
(dp786
g74
(dp787
g82
I4
ssg83
g781
sg76
(lp788
S'set([])'
p789
asbasbasbag69
(g85
g71
NtRp790
(dp791
g74
(dp792
sg83
g673
sg76
(lp793
g69
(g90
g71
NtRp794
(dp795
g74
(dp796
g94
g95
ssg83
g790
sg76
(lp797
S'debugging'
p798
asbag69
(g90
g71
NtRp799
(dp800
g74
(dp801
g101
g102
ssg83
g790
sg76
(lp802
S':'
asbag69
(g90
g71
NtRp803
(dp804
g74
(dp805
sg83
g790
sg76
(lp806
g69
(g70
g71
NtRp807
(dp808
g74
(dp809
g82
I4
ssg83
g803
sg76
(lp810
g112
asbasbasbag69
(g85
g71
NtRp811
(dp812
g74
(dp813
sg83
g673
sg76
(lp814
g69
(g90
g71
NtRp815
(dp816
g74
(dp817
g94
g95
ssg83
g811
sg76
(lp818
S'gluon_parent'
p819
asbag69
(g90
g71
NtRp820
(dp821
g74
(dp822
g101
g102
ssg83
g811
sg76
(lp823
S':'
asbag69
(g90
g71
NtRp824
(dp825
g74
(dp826
sg83
g811
sg76
(lp827
g69
(g70
g71
NtRp828
(dp829
g74
(dp830
g82
I4
ssg83
g824
sg76
(lp831
S'C:\\xampp\\htdocs\\web2py'
p832
asbasbasbag69
(g85
g71
NtRp833
(dp834
g74
(dp835
sg83
g673
sg76
(lp836
g69
(g90
g71
NtRp837
(dp838
g74
(dp839
g94
g95
ssg83
g833
sg76
(lp840
S'http_accept'
p841
asbag69
(g90
g71
NtRp842
(dp843
g74
(dp844
g101
g102
ssg83
g833
sg76
(lp845
S':'
asbag69
(g90
g71
NtRp846
(dp847
g74
(dp848
sg83
g833
sg76
(lp849
g69
(g70
g71
NtRp850
(dp851
g74
(dp852
g82
I4
ssg83
g846
sg76
(lp853
S'text/html,application/xhtml+xml,application/xml;q=0.9,*/*;q=0.8'
p854
asbasbasbag69
(g85
g71
NtRp855
(dp856
g74
(dp857
sg83
g673
sg76
(lp858
g69
(g90
g71
NtRp859
(dp860
g74
(dp861
g94
g95
ssg83
g855
sg76
(lp862
S'http_accept_encoding'
p863
asbag69
(g90
g71
NtRp864
(dp865
g74
(dp866
g101
g102
ssg83
g855
sg76
(lp867
S':'
asbag69
(g90
g71
NtRp868
(dp869
g74
(dp870
sg83
g855
sg76
(lp871
g69
(g70
g71
NtRp872
(dp873
g74
(dp874
g82
I4
ssg83
g868
sg76
(lp875
S'gzip, deflate'
p876
asbasbasbag69
(g85
g71
NtRp877
(dp878
g74
(dp879
sg83
g673
sg76
(lp880
g69
(g90
g71
NtRp881
(dp882
g74
(dp883
g94
g95
ssg83
g877
sg76
(lp884
S'http_accept_language'
p885
asbag69
(g90
g71
NtRp886
(dp887
g74
(dp888
g101
g102
ssg83
g877
sg76
(lp889
S':'
asbag69
(g90
g71
NtRp890
(dp891
g74
(dp892
sg83
g877
sg76
(lp893
g69
(g70
g71
NtRp894
(dp895
g74
(dp896
g82
I4
ssg83
g890
sg76
(lp897
S'de-de,de;q=0.8,en-us;q=0.5,en;q=0.3'
p898
asbasbasbag69
(g85
g71
NtRp899
(dp900
g74
(dp901
sg83
g673
sg76
(lp902
g69
(g90
g71
NtRp903
(dp904
g74
(dp905
g94
g95
ssg83
g899
sg76
(lp906
S'http_cache_control'
p907
asbag69
(g90
g71
NtRp908
(dp909
g74
(dp910
g101
g102
ssg83
g899
sg76
(lp911
S':'
asbag69
(g90
g71
NtRp912
(dp913
g74
(dp914
sg83
g899
sg76
(lp915
g69
(g70
g71
NtRp916
(dp917
g74
(dp918
g82
I4
ssg83
g912
sg76
(lp919
S'max-age=0'
p920
asbasbasbag69
(g85
g71
NtRp921
(dp922
g74
(dp923
sg83
g673
sg76
(lp924
g69
(g90
g71
NtRp925
(dp926
g74
(dp927
g94
g95
ssg83
g921
sg76
(lp928
S'http_connection'
p929
asbag69
(g90
g71
NtRp930
(dp931
g74
(dp932
g101
g102
ssg83
g921
sg76
(lp933
S':'
asbag69
(g90
g71
NtRp934
(dp935
g74
(dp936
sg83
g921
sg76
(lp937
g69
(g70
g71
NtRp938
(dp939
g74
(dp940
g82
I4
ssg83
g934
sg76
(lp941
S'keep-alive'
p942
asbasbasbag69
(g85
g71
NtRp943
(dp944
g74
(dp945
sg83
g673
sg76
(lp946
g69
(g90
g71
NtRp947
(dp948
g74
(dp949
g94
g95
ssg83
g943
sg76
(lp950
S'http_cookie'
p951
asbag69
(g90
g71
NtRp952
(dp953
g74
(dp954
g101
g102
ssg83
g943
sg76
(lp955
S':'
asbag69
(g90
g71
NtRp956
(dp957
g74
(dp958
sg83
g943
sg76
(lp959
g69
(g70
g71
NtRp960
(dp961
g74
(dp962
g82
I4
ssg83
g956
sg76
(lp963
S'session_id_welcome=10.0.0.109-0aa4b5ad-9c6f-4f2c-bfe5-621d38e03c33; session_id_admin=10.0.0.109-eb529c1b-622c-4281-9611-602509a746f1'
p964
asbasbasbag69
(g85
g71
NtRp965
(dp966
g74
(dp967
sg83
g673
sg76
(lp968
g69
(g90
g71
NtRp969
(dp970
g74
(dp971
g94
g95
ssg83
g965
sg76
(lp972
S'http_dnt'
p973
asbag69
(g90
g71
NtRp974
(dp975
g74
(dp976
g101
g102
ssg83
g965
sg76
(lp977
S':'
asbag69
(g90
g71
NtRp978
(dp979
g74
(dp980
sg83
g965
sg76
(lp981
g69
(g70
g71
NtRp982
(dp983
g74
(dp984
g82
I4
ssg83
g978
sg76
(lp985
S'1'
asbasbasbag69
(g85
g71
NtRp986
(dp987
g74
(dp988
sg83
g673
sg76
(lp989
g69
(g90
g71
NtRp990
(dp991
g74
(dp992
g94
g95
ssg83
g986
sg76
(lp993
S'http_host'
p994
asbag69
(g90
g71
NtRp995
(dp996
g74
(dp997
g101
g102
ssg83
g986
sg76
(lp998
S':'
asbag69
(g90
g71
NtRp999
(dp1000
g74
(dp1001
sg83
g986
sg76
(lp1002
g69
(g70
g71
NtRp1003
(dp1004
g74
(dp1005
g82
I4
ssg83
g999
sg76
(lp1006
S'10.0.0.109:8000'
p1007
asbasbasbag69
(g85
g71
NtRp1008
(dp1009
g74
(dp1010
sg83
g673
sg76
(lp1011
g69
(g90
g71
NtRp1012
(dp1013
g74
(dp1014
g94
g95
ssg83
g1008
sg76
(lp1015
S'http_user_agent'
p1016
asbag69
(g90
g71
NtRp1017
(dp1018
g74
(dp1019
g101
g102
ssg83
g1008
sg76
(lp1020
S':'
asbag69
(g90
g71
NtRp1021
(dp1022
g74
(dp1023
sg83
g1008
sg76
(lp1024
g69
(g70
g71
NtRp1025
(dp1026
g74
(dp1027
g82
I4
ssg83
g1021
sg76
(lp1028
S'Mozilla/5.0 (Windows NT 6.1; WOW64; rv:17.0) Gecko/20100101 Firefox/17.0'
p1029
asbasbasbag69
(g85
g71
NtRp1030
(dp1031
g74
(dp1032
sg83
g673
sg76
(lp1033
g69
(g90
g71
NtRp1034
(dp1035
g74
(dp1036
g94
g95
ssg83
g1030
sg76
(lp1037
S'http_x_clickoncesupport'
p1038
asbag69
(g90
g71
NtRp1039
(dp1040
g74
(dp1041
g101
g102
ssg83
g1030
sg76
(lp1042
S':'
asbag69
(g90
g71
NtRp1043
(dp1044
g74
(dp1045
sg83
g1030
sg76
(lp1046
g69
(g70
g71
NtRp1047
(dp1048
g74
(dp1049
g82
I4
ssg83
g1043
sg76
(lp1050
S'(.NET CLR 2.0.50727; .NET CLR 3.5.30729; .NET CLR 3.0.30729; .NET4.0C; .NET4.0E)'
p1051
asbasbasbag69
(g85
g71
NtRp1052
(dp1053
g74
(dp1054
sg83
g673
sg76
(lp1055
g69
(g90
g71
NtRp1056
(dp1057
g74
(dp1058
g94
g95
ssg83
g1052
sg76
(lp1059
S'is_jython'
p1060
asbag69
(g90
g71
NtRp1061
(dp1062
g74
(dp1063
g101
g102
ssg83
g1052
sg76
(lp1064
S':'
asbag69
(g90
g71
NtRp1065
(dp1066
g74
(dp1067
sg83
g1052
sg76
(lp1068
g69
(g70
g71
NtRp1069
(dp1070
g74
(dp1071
g82
I4
ssg83
g1065
sg76
(lp1072
g112
asbasbasbag69
(g85
g71
NtRp1073
(dp1074
g74
(dp1075
sg83
g673
sg76
(lp1076
g69
(g90
g71
NtRp1077
(dp1078
g74
(dp1079
g94
g95
ssg83
g1073
sg76
(lp1080
S'is_pypy'
p1081
asbag69
(g90
g71
NtRp1082
(dp1083
g74
(dp1084
g101
g102
ssg83
g1073
sg76
(lp1085
S':'
asbag69
(g90
g71
NtRp1086
(dp1087
g74
(dp1088
sg83
g1073
sg76
(lp1089
g69
(g70
g71
NtRp1090
(dp1091
g74
(dp1092
g82
I4
ssg83
g1086
sg76
(lp1093
g112
asbasbasbag69
(g85
g71
NtRp1094
(dp1095
g74
(dp1096
sg83
g673
sg76
(lp1097
g69
(g90
g71
NtRp1098
(dp1099
g74
(dp1100
g94
g95
ssg83
g1094
sg76
(lp1101
S'path_info'
p1102
asbag69
(g90
g71
NtRp1103
(dp1104
g74
(dp1105
g101
g102
ssg83
g1094
sg76
(lp1106
S':'
asbag69
(g90
g71
NtRp1107
(dp1108
g74
(dp1109
sg83
g1094
sg76
(lp1110
g69
(g70
g71
NtRp1111
(dp1112
g74
(dp1113
g82
I4
ssg83
g1107
sg76
(lp1114
S'/testumgebung'
p1115
asbasbasbag69
(g85
g71
NtRp1116
(dp1117
g74
(dp1118
sg83
g673
sg76
(lp1119
g69
(g90
g71
NtRp1120
(dp1121
g74
(dp1122
g94
g95
ssg83
g1116
sg76
(lp1123
S'query_string'
p1124
asbag69
(g90
g71
NtRp1125
(dp1126
g74
(dp1127
g101
g102
ssg83
g1116
sg76
(lp1128
S':'
asbag69
(g90
g71
NtRp1129
(dp1130
g74
(dp1131
sg83
g1116
sg76
(lp1132
g69
(g70
g71
NtRp1133
(dp1134
g74
(dp1135
g82
I4
ssg83
g1129
sg76
(lp1136
S''
asbasbasbag69
(g85
g71
NtRp1137
(dp1138
g74
(dp1139
sg83
g673
sg76
(lp1140
g69
(g90
g71
NtRp1141
(dp1142
g74
(dp1143
g94
g95
ssg83
g1137
sg76
(lp1144
S'remote_addr'
p1145
asbag69
(g90
g71
NtRp1146
(dp1147
g74
(dp1148
g101
g102
ssg83
g1137
sg76
(lp1149
S':'
asbag69
(g90
g71
NtRp1150
(dp1151
g74
(dp1152
sg83
g1137
sg76
(lp1153
g69
(g70
g71
NtRp1154
(dp1155
g74
(dp1156
g82
I4
ssg83
g1150
sg76
(lp1157
g224
asbasbasbag69
(g85
g71
NtRp1158
(dp1159
g74
(dp1160
sg83
g673
sg76
(lp1161
g69
(g90
g71
NtRp1162
(dp1163
g74
(dp1164
g94
g95
ssg83
g1158
sg76
(lp1165
S'remote_port'
p1166
asbag69
(g90
g71
NtRp1167
(dp1168
g74
(dp1169
g101
g102
ssg83
g1158
sg76
(lp1170
S':'
asbag69
(g90
g71
NtRp1171
(dp1172
g74
(dp1173
sg83
g1158
sg76
(lp1174
g69
(g70
g71
NtRp1175
(dp1176
g74
(dp1177
g82
I4
ssg83
g1171
sg76
(lp1178
S'58070'
p1179
asbasbasbag69
(g85
g71
NtRp1180
(dp1181
g74
(dp1182
sg83
g673
sg76
(lp1183
g69
(g90
g71
NtRp1184
(dp1185
g74
(dp1186
g94
g95
ssg83
g1180
sg76
(lp1187
S'request_method'
p1188
asbag69
(g90
g71
NtRp1189
(dp1190
g74
(dp1191
g101
g102
ssg83
g1180
sg76
(lp1192
S':'
asbag69
(g90
g71
NtRp1193
(dp1194
g74
(dp1195
sg83
g1180
sg76
(lp1196
g69
(g70
g71
NtRp1197
(dp1198
g74
(dp1199
g82
I4
ssg83
g1193
sg76
(lp1200
S'GET'
p1201
asbasbasbag69
(g85
g71
NtRp1202
(dp1203
g74
(dp1204
sg83
g673
sg76
(lp1205
g69
(g90
g71
NtRp1206
(dp1207
g74
(dp1208
g94
g95
ssg83
g1202
sg76
(lp1209
S'request_uri'
p1210
asbag69
(g90
g71
NtRp1211
(dp1212
g74
(dp1213
g101
g102
ssg83
g1202
sg76
(lp1214
S':'
asbag69
(g90
g71
NtRp1215
(dp1216
g74
(dp1217
sg83
g1202
sg76
(lp1218
g69
(g70
g71
NtRp1219
(dp1220
g74
(dp1221
g82
I4
ssg83
g1215
sg76
(lp1222
g1115
asbasbasbag69
(g85
g71
NtRp1223
(dp1224
g74
(dp1225
sg83
g673
sg76
(lp1226
g69
(g90
g71
NtRp1227
(dp1228
g74
(dp1229
g94
g95
ssg83
g1223
sg76
(lp1230
S'script_name'
p1231
asbag69
(g90
g71
NtRp1232
(dp1233
g74
(dp1234
g101
g102
ssg83
g1223
sg76
(lp1235
S':'
asbag69
(g90
g71
NtRp1236
(dp1237
g74
(dp1238
sg83
g1223
sg76
(lp1239
g69
(g70
g71
NtRp1240
(dp1241
g74
(dp1242
g82
I4
ssg83
g1236
sg76
(lp1243
S''
asbasbasbag69
(g85
g71
NtRp1244
(dp1245
g74
(dp1246
sg83
g673
sg76
(lp1247
g69
(g90
g71
NtRp1248
(dp1249
g74
(dp1250
g94
g95
ssg83
g1244
sg76
(lp1251
S'server_name'
p1252
asbag69
(g90
g71
NtRp1253
(dp1254
g74
(dp1255
g101
g102
ssg83
g1244
sg76
(lp1256
S':'
asbag69
(g90
g71
NtRp1257
(dp1258
g74
(dp1259
sg83
g1244
sg76
(lp1260
g69
(g70
g71
NtRp1261
(dp1262
g74
(dp1263
g82
I4
ssg83
g1257
sg76
(lp1264
S'swLaptop'
p1265
asbasbasbag69
(g85
g71
NtRp1266
(dp1267
g74
(dp1268
sg83
g673
sg76
(lp1269
g69
(g90
g71
NtRp1270
(dp1271
g74
(dp1272
g94
g95
ssg83
g1266
sg76
(lp1273
S'server_port'
p1274
asbag69
(g90
g71
NtRp1275
(dp1276
g74
(dp1277
g101
g102
ssg83
g1266
sg76
(lp1278
S':'
asbag69
(g90
g71
NtRp1279
(dp1280
g74
(dp1281
sg83
g1266
sg76
(lp1282
g69
(g70
g71
NtRp1283
(dp1284
g74
(dp1285
g82
I4
ssg83
g1279
sg76
(lp1286
S'8000'
p1287
asbasbasbag69
(g85
g71
NtRp1288
(dp1289
g74
(dp1290
sg83
g673
sg76
(lp1291
g69
(g90
g71
NtRp1292
(dp1293
g74
(dp1294
g94
g95
ssg83
g1288
sg76
(lp1295
S'server_protocol'
p1296
asbag69
(g90
g71
NtRp1297
(dp1298
g74
(dp1299
g101
g102
ssg83
g1288
sg76
(lp1300
S':'
asbag69
(g90
g71
NtRp1301
(dp1302
g74
(dp1303
sg83
g1288
sg76
(lp1304
g69
(g70
g71
NtRp1305
(dp1306
g74
(dp1307
g82
I4
ssg83
g1301
sg76
(lp1308
S'HTTP/1.1'
p1309
asbasbasbag69
(g85
g71
NtRp1310
(dp1311
g74
(dp1312
sg83
g673
sg76
(lp1313
g69
(g90
g71
NtRp1314
(dp1315
g74
(dp1316
g94
g95
ssg83
g1310
sg76
(lp1317
S'server_software'
p1318
asbag69
(g90
g71
NtRp1319
(dp1320
g74
(dp1321
g101
g102
ssg83
g1310
sg76
(lp1322
S':'
asbag69
(g90
g71
NtRp1323
(dp1324
g74
(dp1325
sg83
g1310
sg76
(lp1326
g69
(g70
g71
NtRp1327
(dp1328
g74
(dp1329
g82
I4
ssg83
g1323
sg76
(lp1330
S'Rocket 1.2.4'
p1331
asbasbasbag69
(g85
g71
NtRp1332
(dp1333
g74
(dp1334
sg83
g673
sg76
(lp1335
g69
(g90
g71
NtRp1336
(dp1337
g74
(dp1338
g94
g95
ssg83
g1332
sg76
(lp1339
S'web2py_crontype'
p1340
asbag69
(g90
g71
NtRp1341
(dp1342
g74
(dp1343
g101
g102
ssg83
g1332
sg76
(lp1344
S':'
asbag69
(g90
g71
NtRp1345
(dp1346
g74
(dp1347
sg83
g1332
sg76
(lp1348
g69
(g70
g71
NtRp1349
(dp1350
g74
(dp1351
g82
I4
ssg83
g1345
sg76
(lp1352
S'hard'
p1353
asbasbasbag69
(g85
g71
NtRp1354
(dp1355
g74
(dp1356
sg83
g673
sg76
(lp1357
g69
(g90
g71
NtRp1358
(dp1359
g74
(dp1360
g94
g95
ssg83
g1354
sg76
(lp1361
S'web2py_path'
p1362
asbag69
(g90
g71
NtRp1363
(dp1364
g74
(dp1365
g101
g102
ssg83
g1354
sg76
(lp1366
S':'
asbag69
(g90
g71
NtRp1367
(dp1368
g74
(dp1369
sg83
g1354
sg76
(lp1370
g69
(g70
g71
NtRp1371
(dp1372
g74
(dp1373
g82
I4
ssg83
g1367
sg76
(lp1374
g720
asbasbasbag69
(g85
g71
NtRp1375
(dp1376
g74
(dp1377
sg83
g673
sg76
(lp1378
g69
(g90
g71
NtRp1379
(dp1380
g74
(dp1381
g94
g95
ssg83
g1375
sg76
(lp1382
S'web2py_version'
p1383
asbag69
(g90
g71
NtRp1384
(dp1385
g74
(dp1386
g101
g102
ssg83
g1375
sg76
(lp1387
S':'
asbag69
(g90
g71
NtRp1388
(dp1389
g74
(dp1390
sg83
g1375
sg76
(lp1391
g69
(g70
g71
NtRp1392
(dp1393
g74
(dp1394
g82
I4
ssg83
g1388
sg76
(lp1395
g69
(g78
g71
NtRp1396
(dp1397
g74
(dp1398
g82
I3
ssg83
Nsg76
(lp1399
g69
(g85
g71
NtRp1400
(dp1401
g74
(dp1402
sg83
g1396
sg76
(lp1403
g69
(g90
g71
NtRp1404
(dp1405
g74
(dp1406
sg83
g1400
sg76
(lp1407
g69
(g70
g71
NtRp1408
(dp1409
g74
(dp1410
g82
I3
ssg83
g1404
sg76
(lp1411
S'2'
asbasbasbag69
(g85
g71
NtRp1412
(dp1413
g74
(dp1414
sg83
g1396
sg76
(lp1415
g69
(g90
g71
NtRp1416
(dp1417
g74
(dp1418
sg83
g1412
sg76
(lp1419
g69
(g70
g71
NtRp1420
(dp1421
g74
(dp1422
g82
I3
ssg83
g1416
sg76
(lp1423
S'0'
asbasbasbag69
(g85
g71
NtRp1424
(dp1425
g74
(dp1426
sg83
g1396
sg76
(lp1427
g69
(g90
g71
NtRp1428
(dp1429
g74
(dp1430
sg83
g1424
sg76
(lp1431
g69
(g70
g71
NtRp1432
(dp1433
g74
(dp1434
g82
I3
ssg83
g1428
sg76
(lp1435
S'3'
asbasbasbag69
(g85
g71
NtRp1436
(dp1437
g74
(dp1438
sg83
g1396
sg76
(lp1439
g69
(g90
g71
NtRp1440
(dp1441
g74
(dp1442
sg83
g1436
sg76
(lp1443
g69
(g70
g71
NtRp1444
(dp1445
g74
(dp1446
g82
I3
ssg83
g1440
sg76
(lp1447
S'datetime.datetime(2012, 8, 31, 5, 58, 31)'
p1448
asbasbasbag69
(g85
g71
NtRp1449
(dp1450
g74
(dp1451
sg83
g1396
sg76
(lp1452
g69
(g90
g71
NtRp1453
(dp1454
g74
(dp1455
sg83
g1449
sg76
(lp1456
g69
(g70
g71
NtRp1457
(dp1458
g74
(dp1459
g82
I3
ssg83
g1453
sg76
(lp1460
S'stable'
p1461
asbasbasbasbasbasbasbag69
(g85
g71
NtRp1462
(dp1463
g74
(dp1464
sg83
g673
sg76
(lp1465
g69
(g90
g71
NtRp1466
(dp1467
g74
(dp1468
g94
g95
ssg83
g1462
sg76
(lp1469
S'wsgi_errors'
p1470
asbag69
(g90
g71
NtRp1471
(dp1472
g74
(dp1473
g101
g102
ssg83
g1462
sg76
(lp1474
S':'
asbag69
(g90
g71
NtRp1475
(dp1476
g74
(dp1477
sg83
g1462
sg76
(lp1478
g69
(g70
g71
NtRp1479
(dp1480
g74
(dp1481
g82
I4
ssg83
g1475
sg76
(lp1482
S"<open file '<stderr>', mode 'w' at 0x021D50D0>"
p1483
asbasbasbag69
(g85
g71
NtRp1484
(dp1485
g74
(dp1486
sg83
g673
sg76
(lp1487
g69
(g90
g71
NtRp1488
(dp1489
g74
(dp1490
g94
g95
ssg83
g1484
sg76
(lp1491
S'wsgi_file_wrapper'
p1492
asbag69
(g90
g71
NtRp1493
(dp1494
g74
(dp1495
g101
g102
ssg83
g1484
sg76
(lp1496
S':'
asbag69
(g90
g71
NtRp1497
(dp1498
g74
(dp1499
sg83
g1484
sg76
(lp1500
g69
(g70
g71
NtRp1501
(dp1502
g74
(dp1503
g82
I4
ssg83
g1497
sg76
(lp1504
S'<class wsgiref.util.FileWrapper at 0x02C1D030>'
p1505
asbasbasbag69
(g85
g71
NtRp1506
(dp1507
g74
(dp1508
sg83
g673
sg76
(lp1509
g69
(g90
g71
NtRp1510
(dp1511
g74
(dp1512
g94
g95
ssg83
g1506
sg76
(lp1513
S'wsgi_input'
p1514
asbag69
(g90
g71
NtRp1515
(dp1516
g74
(dp1517
g101
g102
ssg83
g1506
sg76
(lp1518
S':'
asbag69
(g90
g71
NtRp1519
(dp1520
g74
(dp1521
sg83
g1506
sg76
(lp1522
g69
(g70
g71
NtRp1523
(dp1524
g74
(dp1525
g82
I4
ssg83
g1519
sg76
(lp1526
S'<socket._fileobject object at 0x02DE25B0>'
p1527
asbasbasbag69
(g85
g71
NtRp1528
(dp1529
g74
(dp1530
sg83
g673
sg76
(lp1531
g69
(g90
g71
NtRp1532
(dp1533
g74
(dp1534
g94
g95
ssg83
g1528
sg76
(lp1535
S'wsgi_multiprocess'
p1536
asbag69
(g90
g71
NtRp1537
(dp1538
g74
(dp1539
g101
g102
ssg83
g1528
sg76
(lp1540
S':'
asbag69
(g90
g71
NtRp1541
(dp1542
g74
(dp1543
sg83
g1528
sg76
(lp1544
g69
(g70
g71
NtRp1545
(dp1546
g74
(dp1547
g82
I4
ssg83
g1541
sg76
(lp1548
g112
asbasbasbag69
(g85
g71
NtRp1549
(dp1550
g74
(dp1551
sg83
g673
sg76
(lp1552
g69
(g90
g71
NtRp1553
(dp1554
g74
(dp1555
g94
g95
ssg83
g1549
sg76
(lp1556
S'wsgi_multithread'
p1557
asbag69
(g90
g71
NtRp1558
(dp1559
g74
(dp1560
g101
g102
ssg83
g1549
sg76
(lp1561
S':'
asbag69
(g90
g71
NtRp1562
(dp1563
g74
(dp1564
sg83
g1549
sg76
(lp1565
g69
(g70
g71
NtRp1566
(dp1567
g74
(dp1568
g82
I4
ssg83
g1562
sg76
(lp1569
S'True'
p1570
asbasbasbag69
(g85
g71
NtRp1571
(dp1572
g74
(dp1573
sg83
g673
sg76
(lp1574
g69
(g90
g71
NtRp1575
(dp1576
g74
(dp1577
g94
g95
ssg83
g1571
sg76
(lp1578
S'wsgi_run_once'
p1579
asbag69
(g90
g71
NtRp1580
(dp1581
g74
(dp1582
g101
g102
ssg83
g1571
sg76
(lp1583
S':'
asbag69
(g90
g71
NtRp1584
(dp1585
g74
(dp1586
sg83
g1571
sg76
(lp1587
g69
(g70
g71
NtRp1588
(dp1589
g74
(dp1590
g82
I4
ssg83
g1584
sg76
(lp1591
g112
asbasbasbag69
(g85
g71
NtRp1592
(dp1593
g74
(dp1594
sg83
g673
sg76
(lp1595
g69
(g90
g71
NtRp1596
(dp1597
g74
(dp1598
g94
g95
ssg83
g1592
sg76
(lp1599
S'wsgi_url_scheme'
p1600
asbag69
(g90
g71
NtRp1601
(dp1602
g74
(dp1603
g101
g102
ssg83
g1592
sg76
(lp1604
S':'
asbag69
(g90
g71
NtRp1605
(dp1606
g74
(dp1607
sg83
g1592
sg76
(lp1608
g69
(g70
g71
NtRp1609
(dp1610
g74
(dp1611
g82
I4
ssg83
g1605
sg76
(lp1612
S'http'
p1613
asbasbasbag69
(g85
g71
NtRp1614
(dp1615
g74
(dp1616
sg83
g673
sg76
(lp1617
g69
(g90
g71
NtRp1618
(dp1619
g74
(dp1620
g94
g95
ssg83
g1614
sg76
(lp1621
S'wsgi_version'
p1622
asbag69
(g90
g71
NtRp1623
(dp1624
g74
(dp1625
g101
g102
ssg83
g1614
sg76
(lp1626
S':'
asbag69
(g90
g71
NtRp1627
(dp1628
g74
(dp1629
sg83
g1614
sg76
(lp1630
g69
(g70
g71
NtRp1631
(dp1632
g74
(dp1633
g82
I4
ssg83
g1627
sg76
(lp1634
g69
(g78
g71
NtRp1635
(dp1636
g74
(dp1637
g82
I3
ssg83
Nsg76
(lp1638
g69
(g85
g71
NtRp1639
(dp1640
g74
(dp1641
sg83
g1635
sg76
(lp1642
g69
(g90
g71
NtRp1643
(dp1644
g74
(dp1645
sg83
g1639
sg76
(lp1646
g69
(g70
g71
NtRp1647
(dp1648
g74
(dp1649
g82
I3
ssg83
g1643
sg76
(lp1650
S'1'
asbasbasbag69
(g85
g71
NtRp1651
(dp1652
g74
(dp1653
sg83
g1635
sg76
(lp1654
g69
(g90
g71
NtRp1655
(dp1656
g74
(dp1657
sg83
g1651
sg76
(lp1658
g69
(g70
g71
NtRp1659
(dp1660
g74
(dp1661
g82
I3
ssg83
g1655
sg76
(lp1662
S'0'
asbasbasbasbasbasbasbasbasbasbasbag69
(g85
g71
NtRp1663
(dp1664
g74
(dp1665
sg83
g79
sg76
(lp1666
g69
(g90
g71
NtRp1667
(dp1668
g74
(dp1669
g94
g95
ssg83
g1663
sg76
(lp1670
S'extension'
p1671
asbag69
(g90
g71
NtRp1672
(dp1673
g74
(dp1674
g101
g102
ssg83
g1663
sg76
(lp1675
S':'
asbag69
(g90
g71
NtRp1676
(dp1677
g74
(dp1678
sg83
g1663
sg76
(lp1679
g69
(g70
g71
NtRp1680
(dp1681
g74
(dp1682
g82
I5
ssg83
g1676
sg76
(lp1683
S'html'
p1684
asbasbasbag69
(g85
g71
NtRp1685
(dp1686
g74
(dp1687
sg83
g79
sg76
(lp1688
g69
(g90
g71
NtRp1689
(dp1690
g74
(dp1691
g94
g95
ssg83
g1685
sg76
(lp1692
S'folder'
p1693
asbag69
(g90
g71
NtRp1694
(dp1695
g74
(dp1696
g101
g102
ssg83
g1685
sg76
(lp1697
S':'
asbag69
(g90
g71
NtRp1698
(dp1699
g74
(dp1700
sg83
g1685
sg76
(lp1701
g69
(g70
g71
NtRp1702
(dp1703
g74
(dp1704
g82
I5
ssg83
g1698
sg76
(lp1705
S'C:\\xampp\\htdocs\\web2py\\applications\\testumgebung\\'
p1706
asbasbasbag69
(g85
g71
NtRp1707
(dp1708
g74
(dp1709
sg83
g79
sg76
(lp1710
g69
(g90
g71
NtRp1711
(dp1712
g74
(dp1713
g94
g95
ssg83
g1707
sg76
(lp1714
S'function'
p1715
asbag69
(g90
g71
NtRp1716
(dp1717
g74
(dp1718
g101
g102
ssg83
g1707
sg76
(lp1719
S':'
asbag69
(g90
g71
NtRp1720
(dp1721
g74
(dp1722
sg83
g1707
sg76
(lp1723
g69
(g70
g71
NtRp1724
(dp1725
g74
(dp1726
g82
I5
ssg83
g1720
sg76
(lp1727
S'index'
p1728
asbasbasbag69
(g85
g71
NtRp1729
(dp1730
g74
(dp1731
sg83
g79
sg76
(lp1732
g69
(g90
g71
NtRp1733
(dp1734
g74
(dp1735
g94
g95
ssg83
g1729
sg76
(lp1736
S'get_vars'
p1737
asbag69
(g90
g71
NtRp1738
(dp1739
g74
(dp1740
g101
g102
ssg83
g1729
sg76
(lp1741
S':'
asbag69
(g90
g71
NtRp1742
(dp1743
g74
(dp1744
sg83
g1729
sg76
(lp1745
g69
(g70
g71
NtRp1746
(dp1747
g74
(dp1748
g82
I5
ssg83
g1742
sg76
(lp1749
g69
(g78
g71
NtRp1750
(dp1751
g74
(dp1752
g82
I4
ssg83
Nsg76
(lp1753
sbasbasbasbag69
(g85
g71
NtRp1754
(dp1755
g74
(dp1756
sg83
g79
sg76
(lp1757
g69
(g90
g71
NtRp1758
(dp1759
g74
(dp1760
g94
g95
ssg83
g1754
sg76
(lp1761
S'global_settings'
p1762
asbag69
(g90
g71
NtRp1763
(dp1764
g74
(dp1765
g101
g102
ssg83
g1754
sg76
(lp1766
S':'
asbag69
(g90
g71
NtRp1767
(dp1768
g74
(dp1769
sg83
g1754
sg76
(lp1770
g69
(g70
g71
NtRp1771
(dp1772
g74
(dp1773
g82
I5
ssg83
g1767
sg76
(lp1774
g69
(g78
g71
NtRp1775
(dp1776
g74
(dp1777
g82
I4
ssg83
Nsg76
(lp1778
g69
(g85
g71
NtRp1779
(dp1780
g74
(dp1781
sg83
g1775
sg76
(lp1782
g69
(g90
g71
NtRp1783
(dp1784
g74
(dp1785
g94
g95
ssg83
g1779
sg76
(lp1786
g685
asbag69
(g90
g71
NtRp1787
(dp1788
g74
(dp1789
g101
g102
ssg83
g1779
sg76
(lp1790
S':'
asbag69
(g90
g71
NtRp1791
(dp1792
g74
(dp1793
sg83
g1779
sg76
(lp1794
g69
(g70
g71
NtRp1795
(dp1796
g74
(dp1797
g82
I4
ssg83
g1791
sg76
(lp1798
S"set(['C:\\\\xampp\\\\htdocs\\\\web2py\\\\applications\\\\admin\\\\', 'C:\\\\xampp\\\\htdocs\\\\web2py\\\\applications\\\\welcome\\\\', 'C:\\\\xampp\\\\htdocs\\\\web2py\\\\applications\\\\testumgebung\\\\'])"
p1799
asbasbasbag69
(g85
g71
NtRp1800
(dp1801
g74
(dp1802
sg83
g1775
sg76
(lp1803
g69
(g90
g71
NtRp1804
(dp1805
g74
(dp1806
g94
g95
ssg83
g1800
sg76
(lp1807
g707
asbag69
(g90
g71
NtRp1808
(dp1809
g74
(dp1810
g101
g102
ssg83
g1800
sg76
(lp1811
S':'
asbag69
(g90
g71
NtRp1812
(dp1813
g74
(dp1814
sg83
g1800
sg76
(lp1815
g69
(g70
g71
NtRp1816
(dp1817
g74
(dp1818
g82
I4
ssg83
g1812
sg76
(lp1819
g720
asbasbasbag69
(g85
g71
NtRp1820
(dp1821
g74
(dp1822
sg83
g1775
sg76
(lp1823
g69
(g90
g71
NtRp1824
(dp1825
g74
(dp1826
g94
g95
ssg83
g1820
sg76
(lp1827
g729
asbag69
(g90
g71
NtRp1828
(dp1829
g74
(dp1830
g101
g102
ssg83
g1820
sg76
(lp1831
S':'
asbag69
(g90
g71
NtRp1832
(dp1833
g74
(dp1834
sg83
g1820
sg76
(lp1835
g69
(g70
g71
NtRp1836
(dp1837
g74
(dp1838
g82
I4
ssg83
g1832
sg76
(lp1839
g69
(g78
g71
NtRp1840
(dp1841
g74
(dp1842
g82
I3
ssg83
Nsg76
(lp1843
sbasbasbasbag69
(g85
g71
NtRp1844
(dp1845
g74
(dp1846
sg83
g1775
sg76
(lp1847
g69
(g90
g71
NtRp1848
(dp1849
g74
(dp1850
g94
g95
ssg83
g1844
sg76
(lp1851
g754
asbag69
(g90
g71
NtRp1852
(dp1853
g74
(dp1854
g101
g102
ssg83
g1844
sg76
(lp1855
S':'
asbag69
(g90
g71
NtRp1856
(dp1857
g74
(dp1858
sg83
g1844
sg76
(lp1859
g69
(g70
g71
NtRp1860
(dp1861
g74
(dp1862
g82
I4
ssg83
g1856
sg76
(lp1863
S"<Values at 0x2c68e18: {'verbose': False, 'ip': '127.0.0.1', 'with_scheduler': False, 'ips': ['10.0.0.109', '192.168.189.1', '192.168.91.1'], 'shutdown_timeout': 5, 'taskbar': False, 'port': 8000, 'maxthreads': None, 'softcron': False, 'server_name': 'swLaptop', 'bpython': False, 'nogui': False, 'nocron': False, 'extcron': False, 'run_system_tests': False, 'test': None, 'folder': 'C:\\\\xampp\\\\htdocs\\\\web2py', 'config': '', 'import_models': False, 'winservice': '', 'shell': None, 'run': '', 'log_filename': 'httpserver.log', 'debuglevel': 30, 'args': [''], 'socket_timeout': 5, 'ssl_ca_certificate': None, 'scheduler': None, 'profiler_filename': None, 'ssl_private_key': '', 'scheduler_groups': None, 'password': '<ask>', 'request_queue_size': 5, 'ssl_certificate': '', 'cronjob': False, 'numthreads': None, 'quiet': False, 'interfaces': None, 'minthreads': None, 'timeout': 10, 'plain': False, 'nobanner': False, 'pid_filename': 'httpserver.pid'}>"
p1864
asbasbasbag69
(g85
g71
NtRp1865
(dp1866
g74
(dp1867
sg83
g1775
sg76
(lp1868
g69
(g90
g71
NtRp1869
(dp1870
g74
(dp1871
g94
g95
ssg83
g1865
sg76
(lp1872
g776
asbag69
(g90
g71
NtRp1873
(dp1874
g74
(dp1875
g101
g102
ssg83
g1865
sg76
(lp1876
S':'
asbag69
(g90
g71
NtRp1877
(dp1878
g74
(dp1879
sg83
g1865
sg76
(lp1880
g69
(g70
g71
NtRp1881
(dp1882
g74
(dp1883
g82
I4
ssg83
g1877
sg76
(lp1884
S'set([])'
p1885
asbasbasbag69
(g85
g71
NtRp1886
(dp1887
g74
(dp1888
sg83
g1775
sg76
(lp1889
g69
(g90
g71
NtRp1890
(dp1891
g74
(dp1892
g94
g95
ssg83
g1886
sg76
(lp1893
g798
asbag69
(g90
g71
NtRp1894
(dp1895
g74
(dp1896
g101
g102
ssg83
g1886
sg76
(lp1897
S':'
asbag69
(g90
g71
NtRp1898
(dp1899
g74
(dp1900
sg83
g1886
sg76
(lp1901
g69
(g70
g71
NtRp1902
(dp1903
g74
(dp1904
g82
I4
ssg83
g1898
sg76
(lp1905
g112
asbasbasbag69
(g85
g71
NtRp1906
(dp1907
g74
(dp1908
sg83
g1775
sg76
(lp1909
g69
(g90
g71
NtRp1910
(dp1911
g74
(dp1912
g94
g95
ssg83
g1906
sg76
(lp1913
g819
asbag69
(g90
g71
NtRp1914
(dp1915
g74
(dp1916
g101
g102
ssg83
g1906
sg76
(lp1917
S':'
asbag69
(g90
g71
NtRp1918
(dp1919
g74
(dp1920
sg83
g1906
sg76
(lp1921
g69
(g70
g71
NtRp1922
(dp1923
g74
(dp1924
g82
I4
ssg83
g1918
sg76
(lp1925
g832
asbasbasbag69
(g85
g71
NtRp1926
(dp1927
g74
(dp1928
sg83
g1775
sg76
(lp1929
g69
(g90
g71
NtRp1930
(dp1931
g74
(dp1932
g94
g95
ssg83
g1926
sg76
(lp1933
g1060
asbag69
(g90
g71
NtRp1934
(dp1935
g74
(dp1936
g101
g102
ssg83
g1926
sg76
(lp1937
S':'
asbag69
(g90
g71
NtRp1938
(dp1939
g74
(dp1940
sg83
g1926
sg76
(lp1941
g69
(g70
g71
NtRp1942
(dp1943
g74
(dp1944
g82
I4
ssg83
g1938
sg76
(lp1945
g112
asbasbasbag69
(g85
g71
NtRp1946
(dp1947
g74
(dp1948
sg83
g1775
sg76
(lp1949
g69
(g90
g71
NtRp1950
(dp1951
g74
(dp1952
g94
g95
ssg83
g1946
sg76
(lp1953
g1081
asbag69
(g90
g71
NtRp1954
(dp1955
g74
(dp1956
g101
g102
ssg83
g1946
sg76
(lp1957
S':'
asbag69
(g90
g71
NtRp1958
(dp1959
g74
(dp1960
sg83
g1946
sg76
(lp1961
g69
(g70
g71
NtRp1962
(dp1963
g74
(dp1964
g82
I4
ssg83
g1958
sg76
(lp1965
g112
asbasbasbag69
(g85
g71
NtRp1966
(dp1967
g74
(dp1968
sg83
g1775
sg76
(lp1969
g69
(g90
g71
NtRp1970
(dp1971
g74
(dp1972
g94
g95
ssg83
g1966
sg76
(lp1973
g1340
asbag69
(g90
g71
NtRp1974
(dp1975
g74
(dp1976
g101
g102
ssg83
g1966
sg76
(lp1977
S':'
asbag69
(g90
g71
NtRp1978
(dp1979
g74
(dp1980
sg83
g1966
sg76
(lp1981
g69
(g70
g71
NtRp1982
(dp1983
g74
(dp1984
g82
I4
ssg83
g1978
sg76
(lp1985
g1353
asbasbasbag69
(g85
g71
NtRp1986
(dp1987
g74
(dp1988
sg83
g1775
sg76
(lp1989
g69
(g90
g71
NtRp1990
(dp1991
g74
(dp1992
g94
g95
ssg83
g1986
sg76
(lp1993
g1383
asbag69
(g90
g71
NtRp1994
(dp1995
g74
(dp1996
g101
g102
ssg83
g1986
sg76
(lp1997
S':'
asbag69
(g90
g71
NtRp1998
(dp1999
g74
(dp2000
sg83
g1986
sg76
(lp2001
g69
(g70
g71
NtRp2002
(dp2003
g74
(dp2004
g82
I4
ssg83
g1998
sg76
(lp2005
g69
(g78
g71
NtRp2006
(dp2007
g74
(dp2008
g82
I3
ssg83
Nsg76
(lp2009
g69
(g85
g71
NtRp2010
(dp2011
g74
(dp2012
sg83
g2006
sg76
(lp2013
g69
(g90
g71
NtRp2014
(dp2015
g74
(dp2016
sg83
g2010
sg76
(lp2017
g69
(g70
g71
NtRp2018
(dp2019
g74
(dp2020
g82
I3
ssg83
g2014
sg76
(lp2021
S'2'
asbasbasbag69
(g85
g71
NtRp2022
(dp2023
g74
(dp2024
sg83
g2006
sg76
(lp2025
g69
(g90
g71
NtRp2026
(dp2027
g74
(dp2028
sg83
g2022
sg76
(lp2029
g69
(g70
g71
NtRp2030
(dp2031
g74
(dp2032
g82
I3
ssg83
g2026
sg76
(lp2033
S'0'
asbasbasbag69
(g85
g71
NtRp2034
(dp2035
g74
(dp2036
sg83
g2006
sg76
(lp2037
g69
(g90
g71
NtRp2038
(dp2039
g74
(dp2040
sg83
g2034
sg76
(lp2041
g69
(g70
g71
NtRp2042
(dp2043
g74
(dp2044
g82
I3
ssg83
g2038
sg76
(lp2045
S'3'
asbasbasbag69
(g85
g71
NtRp2046
(dp2047
g74
(dp2048
sg83
g2006
sg76
(lp2049
g69
(g90
g71
NtRp2050
(dp2051
g74
(dp2052
sg83
g2046
sg76
(lp2053
g69
(g70
g71
NtRp2054
(dp2055
g74
(dp2056
g82
I3
ssg83
g2050
sg76
(lp2057
S'datetime.datetime(2012, 8, 31, 5, 58, 31)'
p2058
asbasbasbag69
(g85
g71
NtRp2059
(dp2060
g74
(dp2061
sg83
g2006
sg76
(lp2062
g69
(g90
g71
NtRp2063
(dp2064
g74
(dp2065
sg83
g2059
sg76
(lp2066
g69
(g70
g71
NtRp2067
(dp2068
g74
(dp2069
g82
I3
ssg83
g2063
sg76
(lp2070
g1461
asbasbasbasbasbasbasbasbasbasbasbag69
(g85
g71
NtRp2071
(dp2072
g74
(dp2073
sg83
g79
sg76
(lp2074
g69
(g90
g71
NtRp2075
(dp2076
g74
(dp2077
g94
g95
ssg83
g2071
sg76
(lp2078
S'is_https'
p2079
asbag69
(g90
g71
NtRp2080
(dp2081
g74
(dp2082
g101
g102
ssg83
g2071
sg76
(lp2083
S':'
asbag69
(g90
g71
NtRp2084
(dp2085
g74
(dp2086
sg83
g2071
sg76
(lp2087
g69
(g70
g71
NtRp2088
(dp2089
g74
(dp2090
g82
I5
ssg83
g2084
sg76
(lp2091
g112
asbasbasbag69
(g85
g71
NtRp2092
(dp2093
g74
(dp2094
sg83
g79
sg76
(lp2095
g69
(g90
g71
NtRp2096
(dp2097
g74
(dp2098
g94
g95
ssg83
g2092
sg76
(lp2099
S'is_local'
p2100
asbag69
(g90
g71
NtRp2101
(dp2102
g74
(dp2103
g101
g102
ssg83
g2092
sg76
(lp2104
S':'
asbag69
(g90
g71
NtRp2105
(dp2106
g74
(dp2107
sg83
g2092
sg76
(lp2108
g69
(g70
g71
NtRp2109
(dp2110
g74
(dp2111
g82
I5
ssg83
g2105
sg76
(lp2112
g1570
asbasbasbag69
(g85
g71
NtRp2113
(dp2114
g74
(dp2115
sg83
g79
sg76
(lp2116
g69
(g90
g71
NtRp2117
(dp2118
g74
(dp2119
g94
g95
ssg83
g2113
sg76
(lp2120
S'is_restful'
p2121
asbag69
(g90
g71
NtRp2122
(dp2123
g74
(dp2124
g101
g102
ssg83
g2113
sg76
(lp2125
S':'
asbag69
(g90
g71
NtRp2126
(dp2127
g74
(dp2128
sg83
g2113
sg76
(lp2129
g69
(g70
g71
NtRp2130
(dp2131
g74
(dp2132
g82
I5
ssg83
g2126
sg76
(lp2133
g112
asbasbasbag69
(g85
g71
NtRp2134
(dp2135
g74
(dp2136
sg83
g79
sg76
(lp2137
g69
(g90
g71
NtRp2138
(dp2139
g74
(dp2140
g94
g95
ssg83
g2134
sg76
(lp2141
S'now'
p2142
asbag69
(g90
g71
NtRp2143
(dp2144
g74
(dp2145
g101
g102
ssg83
g2134
sg76
(lp2146
S':'
asbag69
(g90
g71
NtRp2147
(dp2148
g74
(dp2149
sg83
g2134
sg76
(lp2150
g69
(g70
g71
NtRp2151
(dp2152
g74
(dp2153
g82
I5
ssg83
g2147
sg76
(lp2154
S'datetime.datetime(2012, 12, 14, 15, 58, 59, 924000)'
p2155
asbasbasbag69
(g85
g71
NtRp2156
(dp2157
g74
(dp2158
sg83
g79
sg76
(lp2159
g69
(g90
g71
NtRp2160
(dp2161
g74
(dp2162
g94
g95
ssg83
g2156
sg76
(lp2163
S'post_vars'
p2164
asbag69
(g90
g71
NtRp2165
(dp2166
g74
(dp2167
g101
g102
ssg83
g2156
sg76
(lp2168
S':'
asbag69
(g90
g71
NtRp2169
(dp2170
g74
(dp2171
sg83
g2156
sg76
(lp2172
g69
(g70
g71
NtRp2173
(dp2174
g74
(dp2175
g82
I5
ssg83
g2169
sg76
(lp2176
g69
(g78
g71
NtRp2177
(dp2178
g74
(dp2179
g82
I4
ssg83
Nsg76
(lp2180
sbasbasbasbag69
(g85
g71
NtRp2181
(dp2182
g74
(dp2183
sg83
g79
sg76
(lp2184
g69
(g90
g71
NtRp2185
(dp2186
g74
(dp2187
g94
g95
ssg83
g2181
sg76
(lp2188
S'raw_args'
p2189
asbag69
(g90
g71
NtRp2190
(dp2191
g74
(dp2192
g101
g102
ssg83
g2181
sg76
(lp2193
S':'
asbag69
(g90
g71
NtRp2194
(dp2195
g74
(dp2196
sg83
g2181
sg76
(lp2197
g69
(g70
g71
NtRp2198
(dp2199
g74
(dp2200
g82
I5
ssg83
g2194
sg76
(lp2201
S'None'
p2202
asbasbasbag69
(g85
g71
NtRp2203
(dp2204
g74
(dp2205
sg83
g79
sg76
(lp2206
g69
(g90
g71
NtRp2207
(dp2208
g74
(dp2209
g94
g95
ssg83
g2203
sg76
(lp2210
S'raw_extension'
p2211
asbag69
(g90
g71
NtRp2212
(dp2213
g74
(dp2214
g101
g102
ssg83
g2203
sg76
(lp2215
S':'
asbag69
(g90
g71
NtRp2216
(dp2217
g74
(dp2218
sg83
g2203
sg76
(lp2219
g69
(g70
g71
NtRp2220
(dp2221
g74
(dp2222
g82
I5
ssg83
g2216
sg76
(lp2223
S'None'
p2224
asbasbasbag69
(g85
g71
NtRp2225
(dp2226
g74
(dp2227
sg83
g79
sg76
(lp2228
g69
(g90
g71
NtRp2229
(dp2230
g74
(dp2231
g94
g95
ssg83
g2225
sg76
(lp2232
S'url'
p2233
asbag69
(g90
g71
NtRp2234
(dp2235
g74
(dp2236
g101
g102
ssg83
g2225
sg76
(lp2237
S':'
asbag69
(g90
g71
NtRp2238
(dp2239
g74
(dp2240
sg83
g2225
sg76
(lp2241
g69
(g70
g71
NtRp2242
(dp2243
g74
(dp2244
g82
I5
ssg83
g2238
sg76
(lp2245
S'/testumgebung/default/index'
p2246
asbasbasbag69
(g85
g71
NtRp2247
(dp2248
g74
(dp2249
sg83
g79
sg76
(lp2250
g69
(g90
g71
NtRp2251
(dp2252
g74
(dp2253
g94
g95
ssg83
g2247
sg76
(lp2254
S'utcnow'
p2255
asbag69
(g90
g71
NtRp2256
(dp2257
g74
(dp2258
g101
g102
ssg83
g2247
sg76
(lp2259
S':'
asbag69
(g90
g71
NtRp2260
(dp2261
g74
(dp2262
sg83
g2247
sg76
(lp2263
g69
(g70
g71
NtRp2264
(dp2265
g74
(dp2266
g82
I5
ssg83
g2260
sg76
(lp2267
S'datetime.datetime(2012, 12, 14, 14, 58, 59, 924000)'
p2268
asbasbasbag69
(g85
g71
NtRp2269
(dp2270
g74
(dp2271
sg83
g79
sg76
(lp2272
g69
(g90
g71
NtRp2273
(dp2274
g74
(dp2275
g94
g95
ssg83
g2269
sg76
(lp2276
S'uuid'
p2277
asbag69
(g90
g71
NtRp2278
(dp2279
g74
(dp2280
g101
g102
ssg83
g2269
sg76
(lp2281
S':'
asbag69
(g90
g71
NtRp2282
(dp2283
g74
(dp2284
sg83
g2269
sg76
(lp2285
g69
(g70
g71
NtRp2286
(dp2287
g74
(dp2288
g82
I5
ssg83
g2282
sg76
(lp2289
S'testumgebung/10.0.0.109.2012-12-14.15-58-59.88d232b8-392f-40a0-803a-74acd5f585d8'
p2290
asbasbasbag69
(g85
g71
NtRp2291
(dp2292
g74
(dp2293
sg83
g79
sg76
(lp2294
g69
(g90
g71
NtRp2295
(dp2296
g74
(dp2297
g94
g95
ssg83
g2291
sg76
(lp2298
S'vars'
p2299
asbag69
(g90
g71
NtRp2300
(dp2301
g74
(dp2302
g101
g102
ssg83
g2291
sg76
(lp2303
S':'
asbag69
(g90
g71
NtRp2304
(dp2305
g74
(dp2306
sg83
g2291
sg76
(lp2307
g69
(g70
g71
NtRp2308
(dp2309
g74
(dp2310
g82
I5
ssg83
g2304
sg76
(lp2311
g69
(g78
g71
NtRp2312
(dp2313
g74
(dp2314
g82
I4
ssg83
Nsg76
(lp2315
sbasbasbasbag69
(g85
g71
NtRp2316
(dp2317
g74
(dp2318
sg83
g79
sg76
(lp2319
g69
(g90
g71
NtRp2320
(dp2321
g74
(dp2322
g94
g95
ssg83
g2316
sg76
(lp2323
S'wsgi'
p2324
asbag69
(g90
g71
NtRp2325
(dp2326
g74
(dp2327
g101
g102
ssg83
g2316
sg76
(lp2328
S':'
asbag69
(g90
g71
NtRp2329
(dp2330
g74
(dp2331
sg83
g2316
sg76
(lp2332
g69
(g70
g71
NtRp2333
(dp2334
g74
(dp2335
g82
I5
ssg83
g2329
sg76
(lp2336
g69
(g78
g71
NtRp2337
(dp2338
g74
(dp2339
g82
I4
ssg83
Nsg76
(lp2340
g69
(g85
g71
NtRp2341
(dp2342
g74
(dp2343
sg83
g2337
sg76
(lp2344
g69
(g90
g71
NtRp2345
(dp2346
g74
(dp2347
g94
g95
ssg83
g2341
sg76
(lp2348
S'environ'
p2349
asbag69
(g90
g71
NtRp2350
(dp2351
g74
(dp2352
g101
g102
ssg83
g2341
sg76
(lp2353
S':'
asbag69
(g90
g71
NtRp2354
(dp2355
g74
(dp2356
sg83
g2341
sg76
(lp2357
g69
(g70
g71
NtRp2358
(dp2359
g74
(dp2360
g82
I4
ssg83
g2354
sg76
(lp2361
g69
(g78
g71
NtRp2362
(dp2363
g74
(dp2364
g82
I3
ssg83
Nsg76
(lp2365
g69
(g85
g71
NtRp2366
(dp2367
g74
(dp2368
sg83
g2362
sg76
(lp2369
g69
(g90
g71
NtRp2370
(dp2371
g74
(dp2372
g94
g95
ssg83
g2366
sg76
(lp2373
S'HTTP_ACCEPT'
p2374
asbag69
(g90
g71
NtRp2375
(dp2376
g74
(dp2377
g101
g102
ssg83
g2366
sg76
(lp2378
S':'
asbag69
(g90
g71
NtRp2379
(dp2380
g74
(dp2381
sg83
g2366
sg76
(lp2382
g69
(g70
g71
NtRp2383
(dp2384
g74
(dp2385
g82
I3
ssg83
g2379
sg76
(lp2386
g854
asbasbasbag69
(g85
g71
NtRp2387
(dp2388
g74
(dp2389
sg83
g2362
sg76
(lp2390
g69
(g90
g71
NtRp2391
(dp2392
g74
(dp2393
g94
g95
ssg83
g2387
sg76
(lp2394
S'HTTP_ACCEPT_ENCODING'
p2395
asbag69
(g90
g71
NtRp2396
(dp2397
g74
(dp2398
g101
g102
ssg83
g2387
sg76
(lp2399
S':'
asbag69
(g90
g71
NtRp2400
(dp2401
g74
(dp2402
sg83
g2387
sg76
(lp2403
g69
(g70
g71
NtRp2404
(dp2405
g74
(dp2406
g82
I3
ssg83
g2400
sg76
(lp2407
g876
asbasbasbag69
(g85
g71
NtRp2408
(dp2409
g74
(dp2410
sg83
g2362
sg76
(lp2411
g69
(g90
g71
NtRp2412
(dp2413
g74
(dp2414
g94
g95
ssg83
g2408
sg76
(lp2415
S'HTTP_ACCEPT_LANGUAGE'
p2416
asbag69
(g90
g71
NtRp2417
(dp2418
g74
(dp2419
g101
g102
ssg83
g2408
sg76
(lp2420
S':'
asbag69
(g90
g71
NtRp2421
(dp2422
g74
(dp2423
sg83
g2408
sg76
(lp2424
g69
(g70
g71
NtRp2425
(dp2426
g74
(dp2427
g82
I3
ssg83
g2421
sg76
(lp2428
g898
asbasbasbag69
(g85
g71
NtRp2429
(dp2430
g74
(dp2431
sg83
g2362
sg76
(lp2432
g69
(g90
g71
NtRp2433
(dp2434
g74
(dp2435
g94
g95
ssg83
g2429
sg76
(lp2436
S'HTTP_CACHE_CONTROL'
p2437
asbag69
(g90
g71
NtRp2438
(dp2439
g74
(dp2440
g101
g102
ssg83
g2429
sg76
(lp2441
S':'
asbag69
(g90
g71
NtRp2442
(dp2443
g74
(dp2444
sg83
g2429
sg76
(lp2445
g69
(g70
g71
NtRp2446
(dp2447
g74
(dp2448
g82
I3
ssg83
g2442
sg76
(lp2449
g920
asbasbasbag69
(g85
g71
NtRp2450
(dp2451
g74
(dp2452
sg83
g2362
sg76
(lp2453
g69
(g90
g71
NtRp2454
(dp2455
g74
(dp2456
g94
g95
ssg83
g2450
sg76
(lp2457
S'HTTP_CONNECTION'
p2458
asbag69
(g90
g71
NtRp2459
(dp2460
g74
(dp2461
g101
g102
ssg83
g2450
sg76
(lp2462
S':'
asbag69
(g90
g71
NtRp2463
(dp2464
g74
(dp2465
sg83
g2450
sg76
(lp2466
g69
(g70
g71
NtRp2467
(dp2468
g74
(dp2469
g82
I3
ssg83
g2463
sg76
(lp2470
g942
asbasbasbag69
(g85
g71
NtRp2471
(dp2472
g74
(dp2473
sg83
g2362
sg76
(lp2474
g69
(g90
g71
NtRp2475
(dp2476
g74
(dp2477
g94
g95
ssg83
g2471
sg76
(lp2478
S'HTTP_COOKIE'
p2479
asbag69
(g90
g71
NtRp2480
(dp2481
g74
(dp2482
g101
g102
ssg83
g2471
sg76
(lp2483
S':'
asbag69
(g90
g71
NtRp2484
(dp2485
g74
(dp2486
sg83
g2471
sg76
(lp2487
g69
(g70
g71
NtRp2488
(dp2489
g74
(dp2490
g82
I3
ssg83
g2484
sg76
(lp2491
g964
asbasbasbag69
(g85
g71
NtRp2492
(dp2493
g74
(dp2494
sg83
g2362
sg76
(lp2495
g69
(g90
g71
NtRp2496
(dp2497
g74
(dp2498
g94
g95
ssg83
g2492
sg76
(lp2499
S'HTTP_DNT'
p2500
asbag69
(g90
g71
NtRp2501
(dp2502
g74
(dp2503
g101
g102
ssg83
g2492
sg76
(lp2504
S':'
asbag69
(g90
g71
NtRp2505
(dp2506
g74
(dp2507
sg83
g2492
sg76
(lp2508
g69
(g70
g71
NtRp2509
(dp2510
g74
(dp2511
g82
I3
ssg83
g2505
sg76
(lp2512
S'1'
asbasbasbag69
(g85
g71
NtRp2513
(dp2514
g74
(dp2515
sg83
g2362
sg76
(lp2516
g69
(g90
g71
NtRp2517
(dp2518
g74
(dp2519
g94
g95
ssg83
g2513
sg76
(lp2520
S'HTTP_HOST'
p2521
asbag69
(g90
g71
NtRp2522
(dp2523
g74
(dp2524
g101
g102
ssg83
g2513
sg76
(lp2525
S':'
asbag69
(g90
g71
NtRp2526
(dp2527
g74
(dp2528
sg83
g2513
sg76
(lp2529
g69
(g70
g71
NtRp2530
(dp2531
g74
(dp2532
g82
I3
ssg83
g2526
sg76
(lp2533
g1007
asbasbasbag69
(g85
g71
NtRp2534
(dp2535
g74
(dp2536
sg83
g2362
sg76
(lp2537
g69
(g90
g71
NtRp2538
(dp2539
g74
(dp2540
g94
g95
ssg83
g2534
sg76
(lp2541
S'HTTP_USER_AGENT'
p2542
asbag69
(g90
g71
NtRp2543
(dp2544
g74
(dp2545
g101
g102
ssg83
g2534
sg76
(lp2546
S':'
asbag69
(g90
g71
NtRp2547
(dp2548
g74
(dp2549
sg83
g2534
sg76
(lp2550
g69
(g70
g71
NtRp2551
(dp2552
g74
(dp2553
g82
I3
ssg83
g2547
sg76
(lp2554
g1029
asbasbasbag69
(g85
g71
NtRp2555
(dp2556
g74
(dp2557
sg83
g2362
sg76
(lp2558
g69
(g90
g71
NtRp2559
(dp2560
g74
(dp2561
g94
g95
ssg83
g2555
sg76
(lp2562
S'HTTP_X_CLICKONCESUPPORT'
p2563
asbag69
(g90
g71
NtRp2564
(dp2565
g74
(dp2566
g101
g102
ssg83
g2555
sg76
(lp2567
S':'
asbag69
(g90
g71
NtRp2568
(dp2569
g74
(dp2570
sg83
g2555
sg76
(lp2571
g69
(g70
g71
NtRp2572
(dp2573
g74
(dp2574
g82
I3
ssg83
g2568
sg76
(lp2575
g1051
asbasbasbag69
(g85
g71
NtRp2576
(dp2577
g74
(dp2578
sg83
g2362
sg76
(lp2579
g69
(g90
g71
NtRp2580
(dp2581
g74
(dp2582
g94
g95
ssg83
g2576
sg76
(lp2583
S'PATH_INFO'
p2584
asbag69
(g90
g71
NtRp2585
(dp2586
g74
(dp2587
g101
g102
ssg83
g2576
sg76
(lp2588
S':'
asbag69
(g90
g71
NtRp2589
(dp2590
g74
(dp2591
sg83
g2576
sg76
(lp2592
g69
(g70
g71
NtRp2593
(dp2594
g74
(dp2595
g82
I3
ssg83
g2589
sg76
(lp2596
g1115
asbasbasbag69
(g85
g71
NtRp2597
(dp2598
g74
(dp2599
sg83
g2362
sg76
(lp2600
g69
(g90
g71
NtRp2601
(dp2602
g74
(dp2603
g94
g95
ssg83
g2597
sg76
(lp2604
S'QUERY_STRING'
p2605
asbag69
(g90
g71
NtRp2606
(dp2607
g74
(dp2608
g101
g102
ssg83
g2597
sg76
(lp2609
S':'
asbag69
(g90
g71
NtRp2610
(dp2611
g74
(dp2612
sg83
g2597
sg76
(lp2613
g69
(g70
g71
NtRp2614
(dp2615
g74
(dp2616
g82
I3
ssg83
g2610
sg76
(lp2617
S''
asbasbasbag69
(g85
g71
NtRp2618
(dp2619
g74
(dp2620
sg83
g2362
sg76
(lp2621
g69
(g90
g71
NtRp2622
(dp2623
g74
(dp2624
g94
g95
ssg83
g2618
sg76
(lp2625
S'REMOTE_ADDR'
p2626
asbag69
(g90
g71
NtRp2627
(dp2628
g74
(dp2629
g101
g102
ssg83
g2618
sg76
(lp2630
S':'
asbag69
(g90
g71
NtRp2631
(dp2632
g74
(dp2633
sg83
g2618
sg76
(lp2634
g69
(g70
g71
NtRp2635
(dp2636
g74
(dp2637
g82
I3
ssg83
g2631
sg76
(lp2638
g224
asbasbasbag69
(g85
g71
NtRp2639
(dp2640
g74
(dp2641
sg83
g2362
sg76
(lp2642
g69
(g90
g71
NtRp2643
(dp2644
g74
(dp2645
g94
g95
ssg83
g2639
sg76
(lp2646
S'REMOTE_PORT'
p2647
asbag69
(g90
g71
NtRp2648
(dp2649
g74
(dp2650
g101
g102
ssg83
g2639
sg76
(lp2651
S':'
asbag69
(g90
g71
NtRp2652
(dp2653
g74
(dp2654
sg83
g2639
sg76
(lp2655
g69
(g70
g71
NtRp2656
(dp2657
g74
(dp2658
g82
I3
ssg83
g2652
sg76
(lp2659
g1179
asbasbasbag69
(g85
g71
NtRp2660
(dp2661
g74
(dp2662
sg83
g2362
sg76
(lp2663
g69
(g90
g71
NtRp2664
(dp2665
g74
(dp2666
g94
g95
ssg83
g2660
sg76
(lp2667
S'REQUEST_METHOD'
p2668
asbag69
(g90
g71
NtRp2669
(dp2670
g74
(dp2671
g101
g102
ssg83
g2660
sg76
(lp2672
S':'
asbag69
(g90
g71
NtRp2673
(dp2674
g74
(dp2675
sg83
g2660
sg76
(lp2676
g69
(g70
g71
NtRp2677
(dp2678
g74
(dp2679
g82
I3
ssg83
g2673
sg76
(lp2680
g1201
asbasbasbag69
(g85
g71
NtRp2681
(dp2682
g74
(dp2683
sg83
g2362
sg76
(lp2684
g69
(g90
g71
NtRp2685
(dp2686
g74
(dp2687
g94
g95
ssg83
g2681
sg76
(lp2688
S'REQUEST_URI'
p2689
asbag69
(g90
g71
NtRp2690
(dp2691
g74
(dp2692
g101
g102
ssg83
g2681
sg76
(lp2693
S':'
asbag69
(g90
g71
NtRp2694
(dp2695
g74
(dp2696
sg83
g2681
sg76
(lp2697
g69
(g70
g71
NtRp2698
(dp2699
g74
(dp2700
g82
I3
ssg83
g2694
sg76
(lp2701
g1115
asbasbasbag69
(g85
g71
NtRp2702
(dp2703
g74
(dp2704
sg83
g2362
sg76
(lp2705
g69
(g90
g71
NtRp2706
(dp2707
g74
(dp2708
g94
g95
ssg83
g2702
sg76
(lp2709
S'SCRIPT_NAME'
p2710
asbag69
(g90
g71
NtRp2711
(dp2712
g74
(dp2713
g101
g102
ssg83
g2702
sg76
(lp2714
S':'
asbag69
(g90
g71
NtRp2715
(dp2716
g74
(dp2717
sg83
g2702
sg76
(lp2718
g69
(g70
g71
NtRp2719
(dp2720
g74
(dp2721
g82
I3
ssg83
g2715
sg76
(lp2722
S''
asbasbasbag69
(g85
g71
NtRp2723
(dp2724
g74
(dp2725
sg83
g2362
sg76
(lp2726
g69
(g90
g71
NtRp2727
(dp2728
g74
(dp2729
g94
g95
ssg83
g2723
sg76
(lp2730
S'SERVER_NAME'
p2731
asbag69
(g90
g71
NtRp2732
(dp2733
g74
(dp2734
g101
g102
ssg83
g2723
sg76
(lp2735
S':'
asbag69
(g90
g71
NtRp2736
(dp2737
g74
(dp2738
sg83
g2723
sg76
(lp2739
g69
(g70
g71
NtRp2740
(dp2741
g74
(dp2742
g82
I3
ssg83
g2736
sg76
(lp2743
g1265
asbasbasbag69
(g85
g71
NtRp2744
(dp2745
g74
(dp2746
sg83
g2362
sg76
(lp2747
g69
(g90
g71
NtRp2748
(dp2749
g74
(dp2750
g94
g95
ssg83
g2744
sg76
(lp2751
S'SERVER_PORT'
p2752
asbag69
(g90
g71
NtRp2753
(dp2754
g74
(dp2755
g101
g102
ssg83
g2744
sg76
(lp2756
S':'
asbag69
(g90
g71
NtRp2757
(dp2758
g74
(dp2759
sg83
g2744
sg76
(lp2760
g69
(g70
g71
NtRp2761
(dp2762
g74
(dp2763
g82
I3
ssg83
g2757
sg76
(lp2764
g1287
asbasbasbag69
(g85
g71
NtRp2765
(dp2766
g74
(dp2767
sg83
g2362
sg76
(lp2768
g69
(g90
g71
NtRp2769
(dp2770
g74
(dp2771
g94
g95
ssg83
g2765
sg76
(lp2772
S'SERVER_PROTOCOL'
p2773
asbag69
(g90
g71
NtRp2774
(dp2775
g74
(dp2776
g101
g102
ssg83
g2765
sg76
(lp2777
S':'
asbag69
(g90
g71
NtRp2778
(dp2779
g74
(dp2780
sg83
g2765
sg76
(lp2781
g69
(g70
g71
NtRp2782
(dp2783
g74
(dp2784
g82
I3
ssg83
g2778
sg76
(lp2785
g1309
asbasbasbag69
(g85
g71
NtRp2786
(dp2787
g74
(dp2788
sg83
g2362
sg76
(lp2789
g69
(g90
g71
NtRp2790
(dp2791
g74
(dp2792
g94
g95
ssg83
g2786
sg76
(lp2793
S'SERVER_SOFTWARE'
p2794
asbag69
(g90
g71
NtRp2795
(dp2796
g74
(dp2797
g101
g102
ssg83
g2786
sg76
(lp2798
S':'
asbag69
(g90
g71
NtRp2799
(dp2800
g74
(dp2801
sg83
g2786
sg76
(lp2802
g69
(g70
g71
NtRp2803
(dp2804
g74
(dp2805
g82
I3
ssg83
g2799
sg76
(lp2806
g1331
asbasbasbag69
(g85
g71
NtRp2807
(dp2808
g74
(dp2809
sg83
g2362
sg76
(lp2810
g69
(g90
g71
NtRp2811
(dp2812
g74
(dp2813
g94
g95
ssg83
g2807
sg76
(lp2814
S'wsgi.errors'
p2815
asbag69
(g90
g71
NtRp2816
(dp2817
g74
(dp2818
g101
g102
ssg83
g2807
sg76
(lp2819
S':'
asbag69
(g90
g71
NtRp2820
(dp2821
g74
(dp2822
sg83
g2807
sg76
(lp2823
g69
(g70
g71
NtRp2824
(dp2825
g74
(dp2826
g82
I3
ssg83
g2820
sg76
(lp2827
S"<open file '<stderr>', mode 'w' at 0x021D50D0>"
p2828
asbasbasbag69
(g85
g71
NtRp2829
(dp2830
g74
(dp2831
sg83
g2362
sg76
(lp2832
g69
(g90
g71
NtRp2833
(dp2834
g74
(dp2835
g94
g95
ssg83
g2829
sg76
(lp2836
S'wsgi.file_wrapper'
p2837
asbag69
(g90
g71
NtRp2838
(dp2839
g74
(dp2840
g101
g102
ssg83
g2829
sg76
(lp2841
S':'
asbag69
(g90
g71
NtRp2842
(dp2843
g74
(dp2844
sg83
g2829
sg76
(lp2845
g69
(g70
g71
NtRp2846
(dp2847
g74
(dp2848
g82
I3
ssg83
g2842
sg76
(lp2849
S'<class wsgiref.util.FileWrapper at 0x02C1D030>'
p2850
asbasbasbag69
(g85
g71
NtRp2851
(dp2852
g74
(dp2853
sg83
g2362
sg76
(lp2854
g69
(g90
g71
NtRp2855
(dp2856
g74
(dp2857
g94
g95
ssg83
g2851
sg76
(lp2858
S'wsgi.input'
p2859
asbag69
(g90
g71
NtRp2860
(dp2861
g74
(dp2862
g101
g102
ssg83
g2851
sg76
(lp2863
S':'
asbag69
(g90
g71
NtRp2864
(dp2865
g74
(dp2866
sg83
g2851
sg76
(lp2867
g69
(g70
g71
NtRp2868
(dp2869
g74
(dp2870
g82
I3
ssg83
g2864
sg76
(lp2871
S'<cStringIO.StringO object at 0x068D5440>'
p2872
asbasbasbag69
(g85
g71
NtRp2873
(dp2874
g74
(dp2875
sg83
g2362
sg76
(lp2876
g69
(g90
g71
NtRp2877
(dp2878
g74
(dp2879
g94
g95
ssg83
g2873
sg76
(lp2880
S'wsgi.multiprocess'
p2881
asbag69
(g90
g71
NtRp2882
(dp2883
g74
(dp2884
g101
g102
ssg83
g2873
sg76
(lp2885
S':'
asbag69
(g90
g71
NtRp2886
(dp2887
g74
(dp2888
sg83
g2873
sg76
(lp2889
g69
(g70
g71
NtRp2890
(dp2891
g74
(dp2892
g82
I3
ssg83
g2886
sg76
(lp2893
g112
asbasbasbag69
(g85
g71
NtRp2894
(dp2895
g74
(dp2896
sg83
g2362
sg76
(lp2897
g69
(g90
g71
NtRp2898
(dp2899
g74
(dp2900
g94
g95
ssg83
g2894
sg76
(lp2901
S'wsgi.multithread'
p2902
asbag69
(g90
g71
NtRp2903
(dp2904
g74
(dp2905
g101
g102
ssg83
g2894
sg76
(lp2906
S':'
asbag69
(g90
g71
NtRp2907
(dp2908
g74
(dp2909
sg83
g2894
sg76
(lp2910
g69
(g70
g71
NtRp2911
(dp2912
g74
(dp2913
g82
I3
ssg83
g2907
sg76
(lp2914
g1570
asbasbasbag69
(g85
g71
NtRp2915
(dp2916
g74
(dp2917
sg83
g2362
sg76
(lp2918
g69
(g90
g71
NtRp2919
(dp2920
g74
(dp2921
g94
g95
ssg83
g2915
sg76
(lp2922
S'wsgi.run_once'
p2923
asbag69
(g90
g71
NtRp2924
(dp2925
g74
(dp2926
g101
g102
ssg83
g2915
sg76
(lp2927
S':'
asbag69
(g90
g71
NtRp2928
(dp2929
g74
(dp2930
sg83
g2915
sg76
(lp2931
g69
(g70
g71
NtRp2932
(dp2933
g74
(dp2934
g82
I3
ssg83
g2928
sg76
(lp2935
g112
asbasbasbag69
(g85
g71
NtRp2936
(dp2937
g74
(dp2938
sg83
g2362
sg76
(lp2939
g69
(g90
g71
NtRp2940
(dp2941
g74
(dp2942
g94
g95
ssg83
g2936
sg76
(lp2943
S'wsgi.url_scheme'
p2944
asbag69
(g90
g71
NtRp2945
(dp2946
g74
(dp2947
g101
g102
ssg83
g2936
sg76
(lp2948
S':'
asbag69
(g90
g71
NtRp2949
(dp2950
g74
(dp2951
sg83
g2936
sg76
(lp2952
g69
(g70
g71
NtRp2953
(dp2954
g74
(dp2955
g82
I3
ssg83
g2949
sg76
(lp2956
g1613
asbasbasbag69
(g85
g71
NtRp2957
(dp2958
g74
(dp2959
sg83
g2362
sg76
(lp2960
g69
(g90
g71
NtRp2961
(dp2962
g74
(dp2963
g94
g95
ssg83
g2957
sg76
(lp2964
S'wsgi.version'
p2965
asbag69
(g90
g71
NtRp2966
(dp2967
g74
(dp2968
g101
g102
ssg83
g2957
sg76
(lp2969
S':'
asbag69
(g90
g71
NtRp2970
(dp2971
g74
(dp2972
sg83
g2957
sg76
(lp2973
g69
(g70
g71
NtRp2974
(dp2975
g74
(dp2976
g82
I3
ssg83
g2970
sg76
(lp2977
S'1'
asbasbasbasbasbasbasbasbasbasbasbasbasbsS'frames'
p2978
(lp2979
(dp2980
S'file'
p2981
S'C:\\xampp\\htdocs\\web2py\\gluon\\restricted.py'
p2982
sS'dump'
p2983
(dp2984
sS'lnum'
p2985
I208
sS'lines'
p2986
(dp2987
sS'call'
p2988
S"(code='# -*- coding: utf-8 -*-\\nfrom gluon.custom_import...ble auditing\\n# auth.enable_record_versioning(db)\\n', environment={'A': <class 'gluon.html.A'>, 'B': <class 'gluon.html.B'>, 'BEAUTIFY': <class 'gluon.html.BEAUTIFY'>, 'BODY': <class 'gluon.html.BODY'>, 'BR': <class 'gluon.html.BR'>, 'BUTTON': <class 'gluon.html.BUTTON'>, 'CAT': <class 'gluon.html.CAT'>, 'CENTER': <class 'gluon.html.CENTER'>, 'CLEANUP': <class 'gluon.validators.CLEANUP'>, 'CODE': <class 'gluon.html.CODE'>, ...}, layer=r'C:\\xampp\\htdocs\\web2py\\applications\\testumgebung\\models\\db.py')"
p2989
sS'func'
p2990
S'restricted'
p2991
sa(dp2992
g2981
S'C:\\xampp\\htdocs\\web2py\\gluon\\restricted.py'
p2993
sg2983
(dp2994
sg2985
I193
sg2986
(dp2995
sg2988
S"(code='# -*- coding: utf-8 -*-\\nfrom gluon.custom_import...ble auditing\\n# auth.enable_record_versioning(db)\\n', layer=r'C:\\xampp\\htdocs\\web2py\\applications\\testumgebung\\models\\db.py')"
p2996
sg2990
S'compile2'
p2997
sasS'pyver'
p2998
S'Python 2.7: C:\\xampp\\htdocs\\web2py\\web2py.exe'
p2999
sS'session'
p3000
g69
(g70
g71
NtRp3001
(dp3002
g74
(dp3003
sg76
(lp3004
g69
(g78
g71
NtRp3005
(dp3006
g74
(dp3007
g82
I5
ssg83
Nsg76
(lp3008
sbasbsS'etype'
p3009
S"<type 'exceptions.SyntaxError'>"
p3010
sS'date'
p3011
S'Fri Dec 14 15:58:59 2012'
p3012
sS'response'
p3013
g69
(g70
g71
NtRp3014
(dp3015
g74
(dp3016
sg76
(lp3017
g69
(g78
g71
NtRp3018
(dp3019
g74
(dp3020
g82
I5
ssg83
Nsg76
(lp3021
g69
(g85
g71
NtRp3022
(dp3023
g74
(dp3024
sg83
g3018
sg76
(lp3025
g69
(g90
g71
NtRp3026
(dp3027
g74
(dp3028
g94
g95
ssg83
g3022
sg76
(lp3029
g167
asbag69
(g90
g71
NtRp3030
(dp3031
g74
(dp3032
g101
g102
ssg83
g3022
sg76
(lp3033
S':'
asbag69
(g90
g71
NtRp3034
(dp3035
g74
(dp3036
sg83
g3022
sg76
(lp3037
g69
(g70
g71
NtRp3038
(dp3039
g74
(dp3040
g82
I5
ssg83
g3034
sg76
(lp3041
S'<cStringIO.StringO object at 0x06E953E0>'
p3042
asbasbasbag69
(g85
g71
NtRp3043
(dp3044
g74
(dp3045
sg83
g3018
sg76
(lp3046
g69
(g90
g71
NtRp3047
(dp3048
g74
(dp3049
g94
g95
ssg83
g3043
sg76
(lp3050
g255
asbag69
(g90
g71
NtRp3051
(dp3052
g74
(dp3053
g101
g102
ssg83
g3043
sg76
(lp3054
S':'
asbag69
(g90
g71
NtRp3055
(dp3056
g74
(dp3057
sg83
g3043
sg76
(lp3058
g69
(g70
g71
NtRp3059
(dp3060
g74
(dp3061
g82
I5
ssg83
g3055
sg76
(lp3062
g69
(g78
g71
NtRp3063
(dp3064
g74
(dp3065
g82
I4
ssg83
Nsg76
(lp3066
g69
(g85
g71
NtRp3067
(dp3068
g74
(dp3069
sg83
g3063
sg76
(lp3070
g69
(g90
g71
NtRp3071
(dp3072
g74
(dp3073
g94
g95
ssg83
g3067
sg76
(lp3074
S'session_id_testumgebung'
p3075
asbag69
(g90
g71
NtRp3076
(dp3077
g74
(dp3078
g101
g102
ssg83
g3067
sg76
(lp3079
S':'
asbag69
(g90
g71
NtRp3080
(dp3081
g74
(dp3082
sg83
g3067
sg76
(lp3083
g69
(g70
g71
NtRp3084
(dp3085
g74
(dp3086
g82
I4
ssg83
g3080
sg76
(lp3087
S'10.0.0.109-dde988a3-877b-463a-aa14-168f9d670940'
p3088
ag69
(g78
g71
NtRp3089
(dp3090
g74
(dp3091
g82
I3
ssg83
Nsg76
(lp3092
g69
(g85
g71
NtRp3093
(dp3094
g74
(dp3095
sg83
g3089
sg76
(lp3096
g69
(g90
g71
NtRp3097
(dp3098
g74
(dp3099
g94
g95
ssg83
g3093
sg76
(lp3100
g306
asbag69
(g90
g71
NtRp3101
(dp3102
g74
(dp3103
g101
g102
ssg83
g3093
sg76
(lp3104
S':'
asbag69
(g90
g71
NtRp3105
(dp3106
g74
(dp3107
sg83
g3093
sg76
(lp3108
g69
(g70
g71
NtRp3109
(dp3110
g74
(dp3111
g82
I3
ssg83
g3105
sg76
(lp3112
S''
asbasbasbag69
(g85
g71
NtRp3113
(dp3114
g74
(dp3115
sg83
g3089
sg76
(lp3116
g69
(g90
g71
NtRp3117
(dp3118
g74
(dp3119
g94
g95
ssg83
g3113
sg76
(lp3120
g327
asbag69
(g90
g71
NtRp3121
(dp3122
g74
(dp3123
g101
g102
ssg83
g3113
sg76
(lp3124
S':'
asbag69
(g90
g71
NtRp3125
(dp3126
g74
(dp3127
sg83
g3113
sg76
(lp3128
g69
(g70
g71
NtRp3129
(dp3130
g74
(dp3131
g82
I3
ssg83
g3125
sg76
(lp3132
S''
asbasbasbag69
(g85
g71
NtRp3133
(dp3134
g74
(dp3135
sg83
g3089
sg76
(lp3136
g69
(g90
g71
NtRp3137
(dp3138
g74
(dp3139
g94
g95
ssg83
g3133
sg76
(lp3140
g348
asbag69
(g90
g71
NtRp3141
(dp3142
g74
(dp3143
g101
g102
ssg83
g3133
sg76
(lp3144
S':'
asbag69
(g90
g71
NtRp3145
(dp3146
g74
(dp3147
sg83
g3133
sg76
(lp3148
g69
(g70
g71
NtRp3149
(dp3150
g74
(dp3151
g82
I3
ssg83
g3145
sg76
(lp3152
S''
asbasbasbag69
(g85
g71
NtRp3153
(dp3154
g74
(dp3155
sg83
g3089
sg76
(lp3156
g69
(g90
g71
NtRp3157
(dp3158
g74
(dp3159
g94
g95
ssg83
g3153
sg76
(lp3160
g369
asbag69
(g90
g71
NtRp3161
(dp3162
g74
(dp3163
g101
g102
ssg83
g3153
sg76
(lp3164
S':'
asbag69
(g90
g71
NtRp3165
(dp3166
g74
(dp3167
sg83
g3153
sg76
(lp3168
g69
(g70
g71
NtRp3169
(dp3170
g74
(dp3171
g82
I3
ssg83
g3165
sg76
(lp3172
S''
asbasbasbag69
(g85
g71
NtRp3173
(dp3174
g74
(dp3175
sg83
g3089
sg76
(lp3176
g69
(g90
g71
NtRp3177
(dp3178
g74
(dp3179
g94
g95
ssg83
g3173
sg76
(lp3180
g390
asbag69
(g90
g71
NtRp3181
(dp3182
g74
(dp3183
g101
g102
ssg83
g3173
sg76
(lp3184
S':'
asbag69
(g90
g71
NtRp3185
(dp3186
g74
(dp3187
sg83
g3173
sg76
(lp3188
g69
(g70
g71
NtRp3189
(dp3190
g74
(dp3191
g82
I3
ssg83
g3185
sg76
(lp3192
S''
asbasbasbag69
(g85
g71
NtRp3193
(dp3194
g74
(dp3195
sg83
g3089
sg76
(lp3196
g69
(g90
g71
NtRp3197
(dp3198
g74
(dp3199
g94
g95
ssg83
g3193
sg76
(lp3200
g411
asbag69
(g90
g71
NtRp3201
(dp3202
g74
(dp3203
g101
g102
ssg83
g3193
sg76
(lp3204
S':'
asbag69
(g90
g71
NtRp3205
(dp3206
g74
(dp3207
sg83
g3193
sg76
(lp3208
g69
(g70
g71
NtRp3209
(dp3210
g74
(dp3211
g82
I3
ssg83
g3205
sg76
(lp3212
S'/'
asbasbasbag69
(g85
g71
NtRp3213
(dp3214
g74
(dp3215
sg83
g3089
sg76
(lp3216
g69
(g90
g71
NtRp3217
(dp3218
g74
(dp3219
g94
g95
ssg83
g3213
sg76
(lp3220
g432
asbag69
(g90
g71
NtRp3221
(dp3222
g74
(dp3223
g101
g102
ssg83
g3213
sg76
(lp3224
S':'
asbag69
(g90
g71
NtRp3225
(dp3226
g74
(dp3227
sg83
g3213
sg76
(lp3228
g69
(g70
g71
NtRp3229
(dp3230
g74
(dp3231
g82
I3
ssg83
g3225
sg76
(lp3232
S''
asbasbasbag69
(g85
g71
NtRp3233
(dp3234
g74
(dp3235
sg83
g3089
sg76
(lp3236
g69
(g90
g71
NtRp3237
(dp3238
g74
(dp3239
g94
g95
ssg83
g3233
sg76
(lp3240
g453
asbag69
(g90
g71
NtRp3241
(dp3242
g74
(dp3243
g101
g102
ssg83
g3233
sg76
(lp3244
S':'
asbag69
(g90
g71
NtRp3245
(dp3246
g74
(dp3247
sg83
g3233
sg76
(lp3248
g69
(g70
g71
NtRp3249
(dp3250
g74
(dp3251
g82
I3
ssg83
g3245
sg76
(lp3252
S''
asbasbasbasbasbasbasbasbasbasbasbag69
(g85
g71
NtRp3253
(dp3254
g74
(dp3255
sg83
g3018
sg76
(lp3256
g69
(g90
g71
NtRp3257
(dp3258
g74
(dp3259
g94
g95
ssg83
g3253
sg76
(lp3260
S'delimiters'
p3261
asbag69
(g90
g71
NtRp3262
(dp3263
g74
(dp3264
g101
g102
ssg83
g3253
sg76
(lp3265
S':'
asbag69
(g90
g71
NtRp3266
(dp3267
g74
(dp3268
sg83
g3253
sg76
(lp3269
g69
(g70
g71
NtRp3270
(dp3271
g74
(dp3272
g82
I5
ssg83
g3266
sg76
(lp3273
g69
(g78
g71
NtRp3274
(dp3275
g74
(dp3276
g82
I4
ssg83
Nsg76
(lp3277
g69
(g85
g71
NtRp3278
(dp3279
g74
(dp3280
sg83
g3274
sg76
(lp3281
g69
(g90
g71
NtRp3282
(dp3283
g74
(dp3284
sg83
g3278
sg76
(lp3285
g69
(g70
g71
NtRp3286
(dp3287
g74
(dp3288
g82
I4
ssg83
g3282
sg76
(lp3289
S'{{'
p3290
asbasbasbag69
(g85
g71
NtRp3291
(dp3292
g74
(dp3293
sg83
g3274
sg76
(lp3294
g69
(g90
g71
NtRp3295
(dp3296
g74
(dp3297
sg83
g3291
sg76
(lp3298
g69
(g70
g71
NtRp3299
(dp3300
g74
(dp3301
g82
I4
ssg83
g3295
sg76
(lp3302
S'}}'
p3303
asbasbasbasbasbasbasbag69
(g85
g71
NtRp3304
(dp3305
g74
(dp3306
sg83
g3018
sg76
(lp3307
g69
(g90
g71
NtRp3308
(dp3309
g74
(dp3310
g94
g95
ssg83
g3304
sg76
(lp3311
S'files'
p3312
asbag69
(g90
g71
NtRp3313
(dp3314
g74
(dp3315
g101
g102
ssg83
g3304
sg76
(lp3316
S':'
asbag69
(g90
g71
NtRp3317
(dp3318
g74
(dp3319
sg83
g3304
sg76
(lp3320
g69
(g70
g71
NtRp3321
(dp3322
g74
(dp3323
g82
I5
ssg83
g3317
sg76
(lp3324
g69
(g78
g71
NtRp3325
(dp3326
g74
(dp3327
g82
I4
ssg83
Nsg76
(lp3328
sbasbasbasbag69
(g85
g71
NtRp3329
(dp3330
g74
(dp3331
sg83
g3018
sg76
(lp3332
g69
(g90
g71
NtRp3333
(dp3334
g74
(dp3335
g94
g95
ssg83
g3329
sg76
(lp3336
S'flash'
p3337
asbag69
(g90
g71
NtRp3338
(dp3339
g74
(dp3340
g101
g102
ssg83
g3329
sg76
(lp3341
S':'
asbag69
(g90
g71
NtRp3342
(dp3343
g74
(dp3344
sg83
g3329
sg76
(lp3345
g69
(g70
g71
NtRp3346
(dp3347
g74
(dp3348
g82
I5
ssg83
g3342
sg76
(lp3349
S''
asbasbasbag69
(g85
g71
NtRp3350
(dp3351
g74
(dp3352
sg83
g3018
sg76
(lp3353
g69
(g90
g71
NtRp3354
(dp3355
g74
(dp3356
g94
g95
ssg83
g3350
sg76
(lp3357
S'generic_patterns'
p3358
asbag69
(g90
g71
NtRp3359
(dp3360
g74
(dp3361
g101
g102
ssg83
g3350
sg76
(lp3362
S':'
asbag69
(g90
g71
NtRp3363
(dp3364
g74
(dp3365
sg83
g3350
sg76
(lp3366
g69
(g70
g71
NtRp3367
(dp3368
g74
(dp3369
g82
I5
ssg83
g3363
sg76
(lp3370
g69
(g78
g71
NtRp3371
(dp3372
g74
(dp3373
g82
I4
ssg83
Nsg76
(lp3374
sbasbasbasbag69
(g85
g71
NtRp3375
(dp3376
g74
(dp3377
sg83
g3018
sg76
(lp3378
g69
(g90
g71
NtRp3379
(dp3380
g74
(dp3381
g94
g95
ssg83
g3375
sg76
(lp3382
S'headers'
p3383
asbag69
(g90
g71
NtRp3384
(dp3385
g74
(dp3386
g101
g102
ssg83
g3375
sg76
(lp3387
S':'
asbag69
(g90
g71
NtRp3388
(dp3389
g74
(dp3390
sg83
g3375
sg76
(lp3391
g69
(g70
g71
NtRp3392
(dp3393
g74
(dp3394
g82
I5
ssg83
g3388
sg76
(lp3395
g69
(g78
g71
NtRp3396
(dp3397
g74
(dp3398
g82
I4
ssg83
Nsg76
(lp3399
g69
(g85
g71
NtRp3400
(dp3401
g74
(dp3402
sg83
g3396
sg76
(lp3403
g69
(g90
g71
NtRp3404
(dp3405
g74
(dp3406
g94
g95
ssg83
g3400
sg76
(lp3407
S'Cache-Control'
p3408
asbag69
(g90
g71
NtRp3409
(dp3410
g74
(dp3411
g101
g102
ssg83
g3400
sg76
(lp3412
S':'
asbag69
(g90
g71
NtRp3413
(dp3414
g74
(dp3415
sg83
g3400
sg76
(lp3416
g69
(g70
g71
NtRp3417
(dp3418
g74
(dp3419
g82
I4
ssg83
g3413
sg76
(lp3420
S'no-store, no-cache, must-revalidate, post-check=0, pre-check=0'
p3421
asbasbasbag69
(g85
g71
NtRp3422
(dp3423
g74
(dp3424
sg83
g3396
sg76
(lp3425
g69
(g90
g71
NtRp3426
(dp3427
g74
(dp3428
g94
g95
ssg83
g3422
sg76
(lp3429
S'Content-Type'
p3430
asbag69
(g90
g71
NtRp3431
(dp3432
g74
(dp3433
g101
g102
ssg83
g3422
sg76
(lp3434
S':'
asbag69
(g90
g71
NtRp3435
(dp3436
g74
(dp3437
sg83
g3422
sg76
(lp3438
g69
(g70
g71
NtRp3439
(dp3440
g74
(dp3441
g82
I4
ssg83
g3435
sg76
(lp3442
S'text/html; charset=utf-8'
p3443
asbasbasbag69
(g85
g71
NtRp3444
(dp3445
g74
(dp3446
sg83
g3396
sg76
(lp3447
g69
(g90
g71
NtRp3448
(dp3449
g74
(dp3450
g94
g95
ssg83
g3444
sg76
(lp3451
S'Expires'
p3452
asbag69
(g90
g71
NtRp3453
(dp3454
g74
(dp3455
g101
g102
ssg83
g3444
sg76
(lp3456
S':'
asbag69
(g90
g71
NtRp3457
(dp3458
g74
(dp3459
sg83
g3444
sg76
(lp3460
g69
(g70
g71
NtRp3461
(dp3462
g74
(dp3463
g82
I4
ssg83
g3457
sg76
(lp3464
S'Fri, 14 Dec 2012 14:58:59 GMT'
p3465
asbasbasbag69
(g85
g71
NtRp3466
(dp3467
g74
(dp3468
sg83
g3396
sg76
(lp3469
g69
(g90
g71
NtRp3470
(dp3471
g74
(dp3472
g94
g95
ssg83
g3466
sg76
(lp3473
S'Pragma'
p3474
asbag69
(g90
g71
NtRp3475
(dp3476
g74
(dp3477
g101
g102
ssg83
g3466
sg76
(lp3478
S':'
asbag69
(g90
g71
NtRp3479
(dp3480
g74
(dp3481
sg83
g3466
sg76
(lp3482
g69
(g70
g71
NtRp3483
(dp3484
g74
(dp3485
g82
I4
ssg83
g3479
sg76
(lp3486
S'no-cache'
p3487
asbasbasbag69
(g85
g71
NtRp3488
(dp3489
g74
(dp3490
sg83
g3396
sg76
(lp3491
g69
(g90
g71
NtRp3492
(dp3493
g74
(dp3494
g94
g95
ssg83
g3488
sg76
(lp3495
S'X-Powered-By'
p3496
asbag69
(g90
g71
NtRp3497
(dp3498
g74
(dp3499
g101
g102
ssg83
g3488
sg76
(lp3500
S':'
asbag69
(g90
g71
NtRp3501
(dp3502
g74
(dp3503
sg83
g3488
sg76
(lp3504
g69
(g70
g71
NtRp3505
(dp3506
g74
(dp3507
g82
I4
ssg83
g3501
sg76
(lp3508
S'web2py'
p3509
asbasbasbasbasbasbasbag69
(g85
g71
NtRp3510
(dp3511
g74
(dp3512
sg83
g3018
sg76
(lp3513
g69
(g90
g71
NtRp3514
(dp3515
g74
(dp3516
g94
g95
ssg83
g3510
sg76
(lp3517
S'menu'
p3518
asbag69
(g90
g71
NtRp3519
(dp3520
g74
(dp3521
g101
g102
ssg83
g3510
sg76
(lp3522
S':'
asbag69
(g90
g71
NtRp3523
(dp3524
g74
(dp3525
sg83
g3510
sg76
(lp3526
g69
(g70
g71
NtRp3527
(dp3528
g74
(dp3529
g82
I5
ssg83
g3523
sg76
(lp3530
g69
(g78
g71
NtRp3531
(dp3532
g74
(dp3533
g82
I4
ssg83
Nsg76
(lp3534
sbasbasbasbag69
(g85
g71
NtRp3535
(dp3536
g74
(dp3537
sg83
g3018
sg76
(lp3538
g69
(g90
g71
NtRp3539
(dp3540
g74
(dp3541
g94
g95
ssg83
g3535
sg76
(lp3542
S'meta'
p3543
asbag69
(g90
g71
NtRp3544
(dp3545
g74
(dp3546
g101
g102
ssg83
g3535
sg76
(lp3547
S':'
asbag69
(g90
g71
NtRp3548
(dp3549
g74
(dp3550
sg83
g3535
sg76
(lp3551
g69
(g70
g71
NtRp3552
(dp3553
g74
(dp3554
g82
I5
ssg83
g3548
sg76
(lp3555
g69
(g78
g71
NtRp3556
(dp3557
g74
(dp3558
g82
I4
ssg83
Nsg76
(lp3559
sbasbasbasbag69
(g85
g71
NtRp3560
(dp3561
g74
(dp3562
sg83
g3018
sg76
(lp3563
g69
(g90
g71
NtRp3564
(dp3565
g74
(dp3566
g94
g95
ssg83
g3560
sg76
(lp3567
S'postprocessing'
p3568
asbag69
(g90
g71
NtRp3569
(dp3570
g74
(dp3571
g101
g102
ssg83
g3560
sg76
(lp3572
S':'
asbag69
(g90
g71
NtRp3573
(dp3574
g74
(dp3575
sg83
g3560
sg76
(lp3576
g69
(g70
g71
NtRp3577
(dp3578
g74
(dp3579
g82
I5
ssg83
g3573
sg76
(lp3580
g69
(g78
g71
NtRp3581
(dp3582
g74
(dp3583
g82
I4
ssg83
Nsg76
(lp3584
sbasbasbasbag69
(g85
g71
NtRp3585
(dp3586
g74
(dp3587
sg83
g3018
sg76
(lp3588
g69
(g90
g71
NtRp3589
(dp3590
g74
(dp3591
g94
g95
ssg83
g3585
sg76
(lp3592
S'session_filename'
p3593
asbag69
(g90
g71
NtRp3594
(dp3595
g74
(dp3596
g101
g102
ssg83
g3585
sg76
(lp3597
S':'
asbag69
(g90
g71
NtRp3598
(dp3599
g74
(dp3600
sg83
g3585
sg76
(lp3601
g69
(g70
g71
NtRp3602
(dp3603
g74
(dp3604
g82
I5
ssg83
g3598
sg76
(lp3605
S'C:\\xampp\\htdocs\\web2py\\applications\\testumgebung\\sessions\\10.0.0.109-dde988a3-877b-463a-aa14-168f9d670940'
p3606
asbasbasbag69
(g85
g71
NtRp3607
(dp3608
g74
(dp3609
sg83
g3018
sg76
(lp3610
g69
(g90
g71
NtRp3611
(dp3612
g74
(dp3613
g94
g95
ssg83
g3607
sg76
(lp3614
S'session_id'
p3615
asbag69
(g90
g71
NtRp3616
(dp3617
g74
(dp3618
g101
g102
ssg83
g3607
sg76
(lp3619
S':'
asbag69
(g90
g71
NtRp3620
(dp3621
g74
(dp3622
sg83
g3607
sg76
(lp3623
g69
(g70
g71
NtRp3624
(dp3625
g74
(dp3626
g82
I5
ssg83
g3620
sg76
(lp3627
g3088
asbasbasbag69
(g85
g71
NtRp3628
(dp3629
g74
(dp3630
sg83
g3018
sg76
(lp3631
g69
(g90
g71
NtRp3632
(dp3633
g74
(dp3634
g94
g95
ssg83
g3628
sg76
(lp3635
S'session_id_name'
p3636
asbag69
(g90
g71
NtRp3637
(dp3638
g74
(dp3639
g101
g102
ssg83
g3628
sg76
(lp3640
S':'
asbag69
(g90
g71
NtRp3641
(dp3642
g74
(dp3643
sg83
g3628
sg76
(lp3644
g69
(g70
g71
NtRp3645
(dp3646
g74
(dp3647
g82
I5
ssg83
g3641
sg76
(lp3648
g3075
asbasbasbag69
(g85
g71
NtRp3649
(dp3650
g74
(dp3651
sg83
g3018
sg76
(lp3652
g69
(g90
g71
NtRp3653
(dp3654
g74
(dp3655
g94
g95
ssg83
g3649
sg76
(lp3656
S'session_new'
p3657
asbag69
(g90
g71
NtRp3658
(dp3659
g74
(dp3660
g101
g102
ssg83
g3649
sg76
(lp3661
S':'
asbag69
(g90
g71
NtRp3662
(dp3663
g74
(dp3664
sg83
g3649
sg76
(lp3665
g69
(g70
g71
NtRp3666
(dp3667
g74
(dp3668
g82
I5
ssg83
g3662
sg76
(lp3669
g1570
asbasbasbag69
(g85
g71
NtRp3670
(dp3671
g74
(dp3672
sg83
g3018
sg76
(lp3673
g69
(g90
g71
NtRp3674
(dp3675
g74
(dp3676
g94
g95
ssg83
g3670
sg76
(lp3677
S'status'
p3678
asbag69
(g90
g71
NtRp3679
(dp3680
g74
(dp3681
g101
g102
ssg83
g3670
sg76
(lp3682
S':'
asbag69
(g90
g71
NtRp3683
(dp3684
g74
(dp3685
sg83
g3670
sg76
(lp3686
g69
(g70
g71
NtRp3687
(dp3688
g74
(dp3689
g82
I5
ssg83
g3683
sg76
(lp3690
S'200'
p3691
asbasbasbag69
(g85
g71
NtRp3692
(dp3693
g74
(dp3694
sg83
g3018
sg76
(lp3695
g69
(g90
g71
NtRp3696
(dp3697
g74
(dp3698
g94
g95
ssg83
g3692
sg76
(lp3699
S'view'
p3700
asbag69
(g90
g71
NtRp3701
(dp3702
g74
(dp3703
g101
g102
ssg83
g3692
sg76
(lp3704
S':'
asbag69
(g90
g71
NtRp3705
(dp3706
g74
(dp3707
sg83
g3692
sg76
(lp3708
g69
(g70
g71
NtRp3709
(dp3710
g74
(dp3711
g82
I5
ssg83
g3705
sg76
(lp3712
S'default/index.html'
p3713
asbasbasbasbasbsS'locals'
p3714
(dp3715
g4
S"r'C:\\xampp\\htdocs\\web2py\\applications\\testumgebung\\models\\db.py'"
p3716
sg6
S"'# -*- coding: utf-8 -*-\\nfrom gluon.custom_import...ble auditing\\n# auth.enable_record_versioning(db)\\n'"
p3717
sssS'traceback'
p3718
S'Traceback (most recent call last):\n  File "gluon/restricted.py", line 208, in restricted\n  File "gluon/restricted.py", line 193, in compile2\n  File "C:\\xampp\\htdocs\\web2py\\applications\\testumgebung\\models\\db.py", line 104\n    DIV(*[SPAN(i)] for i in range(1,6))\n                     ^\nSyntaxError: invalid syntax\n'
p3719
s.