(dp1
S'output'
p2
S"<type 'exceptions.SyntaxError'> Set: no tables selected"
p3
sS'layer'
p4
S'C:\\xampp\\htdocs\\web2py\\applications\\testumgebung\\controllers/default.py'
p5
sS'code'
p6
S'# -*- coding: utf-8 -*-\n# this file is released under public domain and you can use without limitations\nfrom plugin_kibit_widgets import LikertWidget\nfrom plugin_kibit_widgets import SmileyWidget\nfrom plugin_rating_widget import RatingWidget\n\ndb.answers.scale.widget = LikertWidget()\ndb.answers_smiley.scale.widget = SmileyWidget()\ndb.answers_stars.rating.widget = RatingWidget()\n#########################################################################\n## This is a samples controller\n## - index is the default action of any application\n## - user is required for authentication and authorization\n## - download is for downloading files uploaded in the db (does streaming)\n## - call exposes all registered services (none by default)\n#########################################################################\n\ndef index():\n    """\n    """\n\n\n    form = SQLFORM(db.answers)\n    \n    form2 = SQLFORM(db.answers_smiley)\n    \n    form3 = SQLFORM(db.answers_smiley)\n    \n    form4 = SQLFORM(db.answers_stars)\n    \n    stars_results = db(db.answers_stars > 0).select()\n\n\n    return dict(message=T(\'Hello World\'), form=form, form2=form2, form3=form3, form4=form4, stars_results=stars_results)\n\ndef user():\n    """\n    exposes:\n    http://..../[app]/default/user/login\n    http://..../[app]/default/user/logout\n    http://..../[app]/default/user/register\n    http://..../[app]/default/user/profile\n    http://..../[app]/default/user/retrieve_password\n    http://..../[app]/default/user/change_password\n    use @auth.requires_login()\n        @auth.requires_membership(\'group name\')\n        @auth.requires_permission(\'read\',\'table name\',record_id)\n    to decorate functions that need access control\n    """\n    return dict(form=auth())\n\n\ndef download():\n    """\n    allows downloading of uploaded files\n    http://..../[app]/default/download/[filename]\n    """\n    return response.download(request,db)\n\n\ndef call():\n    """\n    exposes services. for example:\n    http://..../[app]/default/call/jsonrpc\n    decorate with @services.jsonrpc the functions to expose\n    supports xml, json, xmlrpc, jsonrpc, amfrpc, rss, csv\n    """\n    return service()\n\n\n@auth.requires_signature()\ndef data():\n    """\n    http://..../[app]/default/data/tables\n    http://..../[app]/default/data/create/[table]\n    http://..../[app]/default/data/read/[table]/[id]\n    http://..../[app]/default/data/update/[table]/[id]\n    http://..../[app]/default/data/delete/[table]/[id]\n    http://..../[app]/default/data/select/[table]\n    http://..../[app]/default/data/search/[table]\n    but URLs must be signed, i.e. linked with\n      A(\'table\',_href=URL(\'data/tables\',user_signature=True))\n    or with the signed load operator\n      LOAD(\'default\',\'data.load\',args=\'tables\',ajax=True,user_signature=True)\n    """\n    return dict(form=crud())\n\nresponse._vars=response._caller(index)\n'
p7
sS'snapshot'
p8
(dp9
S'exception'
p10
(dp11
S'__getslice__'
p12
S"<method-wrapper '__getslice__' of exceptions.SyntaxError object>"
p13
sS'text'
p14
S'None'
p15
sS'__str__'
p16
S"<method-wrapper '__str__' of exceptions.SyntaxError object>"
p17
sS'__reduce__'
p18
S'<built-in method __reduce__ of exceptions.SyntaxError object>'
p19
sS'__dict__'
p20
S'{}'
p21
sS'__sizeof__'
p22
S'<built-in method __sizeof__ of exceptions.SyntaxError object>'
p23
sS'__init__'
p24
S"<method-wrapper '__init__' of exceptions.SyntaxError object>"
p25
sS'__setattr__'
p26
S"<method-wrapper '__setattr__' of exceptions.SyntaxError object>"
p27
sS'__reduce_ex__'
p28
S'<built-in method __reduce_ex__ of exceptions.SyntaxError object>'
p29
sS'__new__'
p30
S'<built-in method __new__ of type object>'
p31
sS'__format__'
p32
S'<built-in method __format__ of exceptions.SyntaxError object>'
p33
sS'__class__'
p34
S"<type 'exceptions.SyntaxError'>"
p35
sS'filename'
p36
S'None'
p37
sS'lineno'
p38
S'None'
p39
sS'msg'
p40
S"'Set: no tables selected'"
p41
sS'__doc__'
p42
S"'Invalid syntax.'"
p43
sS'__getitem__'
p44
S"<method-wrapper '__getitem__' of exceptions.SyntaxError object>"
p45
sS'__setstate__'
p46
S'<built-in method __setstate__ of exceptions.SyntaxError object>'
p47
sS'__getattribute__'
p48
S"<method-wrapper '__getattribute__' of exceptions.SyntaxError object>"
p49
sS'print_file_and_line'
p50
S'None'
p51
sS'args'
p52
S"('Set: no tables selected',)"
p53
sS'__subclasshook__'
p54
S'<built-in method __subclasshook__ of type object>'
p55
sS'offset'
p56
S'None'
p57
sS'__unicode__'
p58
S'<built-in method __unicode__ of exceptions.SyntaxError object>'
p59
sS'__delattr__'
p60
S"<method-wrapper '__delattr__' of exceptions.SyntaxError object>"
p61
sS'__repr__'
p62
S"<method-wrapper '__repr__' of exceptions.SyntaxError object>"
p63
sS'__hash__'
p64
S"<method-wrapper '__hash__' of exceptions.SyntaxError object>"
p65
ssS'evalue'
p66
S'Set: no tables selected'
p67
sS'request'
p68
ccopy_reg
_reconstructor
p69
(cgluon.html
BEAUTIFY
p70
c__builtin__
object
p71
NtRp72
(dp73
S'attributes'
p74
(dp75
sS'components'
p76
(lp77
g69
(cgluon.html
TABLE
p78
g71
NtRp79
(dp80
g74
(dp81
S'level'
p82
I5
ssS'parent'
p83
Nsg76
(lp84
g69
(cgluon.html
TR
p85
g71
NtRp86
(dp87
g74
(dp88
sg83
g79
sg76
(lp89
g69
(cgluon.html
TD
p90
g71
NtRp91
(dp92
g74
(dp93
S'_style'
p94
S'font-weight:bold;vertical-align:top'
p95
ssg83
g86
sg76
(lp96
S'ajax'
p97
asbag69
(g90
g71
NtRp98
(dp99
g74
(dp100
S'_valign'
p101
S'top'
p102
ssg83
g86
sg76
(lp103
S':'
asbag69
(g90
g71
NtRp104
(dp105
g74
(dp106
sg83
g86
sg76
(lp107
g69
(g70
g71
NtRp108
(dp109
g74
(dp110
g82
I5
ssg83
g104
sg76
(lp111
S'False'
p112
asbasbasbag69
(g85
g71
NtRp113
(dp114
g74
(dp115
sg83
g79
sg76
(lp116
g69
(g90
g71
NtRp117
(dp118
g74
(dp119
g94
g95
ssg83
g113
sg76
(lp120
S'application'
p121
asbag69
(g90
g71
NtRp122
(dp123
g74
(dp124
g101
g102
ssg83
g113
sg76
(lp125
S':'
asbag69
(g90
g71
NtRp126
(dp127
g74
(dp128
sg83
g113
sg76
(lp129
g69
(g70
g71
NtRp130
(dp131
g74
(dp132
g82
I5
ssg83
g126
sg76
(lp133
S'testumgebung'
p134
asbasbasbag69
(g85
g71
NtRp135
(dp136
g74
(dp137
sg83
g79
sg76
(lp138
g69
(g90
g71
NtRp139
(dp140
g74
(dp141
g94
g95
ssg83
g135
sg76
(lp142
g52
asbag69
(g90
g71
NtRp143
(dp144
g74
(dp145
g101
g102
ssg83
g135
sg76
(lp146
S':'
asbag69
(g90
g71
NtRp147
(dp148
g74
(dp149
sg83
g135
sg76
(lp150
g69
(g70
g71
NtRp151
(dp152
g74
(dp153
g82
I5
ssg83
g147
sg76
(lp154
g69
(g78
g71
NtRp155
(dp156
g74
(dp157
g82
I4
ssg83
Nsg76
(lp158
sbasbasbasbag69
(g85
g71
NtRp159
(dp160
g74
(dp161
sg83
g79
sg76
(lp162
g69
(g90
g71
NtRp163
(dp164
g74
(dp165
g94
g95
ssg83
g159
sg76
(lp166
S'body'
p167
asbag69
(g90
g71
NtRp168
(dp169
g74
(dp170
g101
g102
ssg83
g159
sg76
(lp171
S':'
asbag69
(g90
g71
NtRp172
(dp173
g74
(dp174
sg83
g159
sg76
(lp175
g69
(g70
g71
NtRp176
(dp177
g74
(dp178
g82
I5
ssg83
g172
sg76
(lp179
S'<cStringIO.StringO object at 0x02F3A2C0>'
p180
asbasbasbag69
(g85
g71
NtRp181
(dp182
g74
(dp183
sg83
g79
sg76
(lp184
g69
(g90
g71
NtRp185
(dp186
g74
(dp187
g94
g95
ssg83
g181
sg76
(lp188
S'cid'
p189
asbag69
(g90
g71
NtRp190
(dp191
g74
(dp192
g101
g102
ssg83
g181
sg76
(lp193
S':'
asbag69
(g90
g71
NtRp194
(dp195
g74
(dp196
sg83
g181
sg76
(lp197
g69
(g70
g71
NtRp198
(dp199
g74
(dp200
g82
I5
ssg83
g194
sg76
(lp201
S'None'
p202
asbasbasbag69
(g85
g71
NtRp203
(dp204
g74
(dp205
sg83
g79
sg76
(lp206
g69
(g90
g71
NtRp207
(dp208
g74
(dp209
g94
g95
ssg83
g203
sg76
(lp210
S'client'
p211
asbag69
(g90
g71
NtRp212
(dp213
g74
(dp214
g101
g102
ssg83
g203
sg76
(lp215
S':'
asbag69
(g90
g71
NtRp216
(dp217
g74
(dp218
sg83
g203
sg76
(lp219
g69
(g70
g71
NtRp220
(dp221
g74
(dp222
g82
I5
ssg83
g216
sg76
(lp223
S'127.0.0.1'
p224
asbasbasbag69
(g85
g71
NtRp225
(dp226
g74
(dp227
sg83
g79
sg76
(lp228
g69
(g90
g71
NtRp229
(dp230
g74
(dp231
g94
g95
ssg83
g225
sg76
(lp232
S'controller'
p233
asbag69
(g90
g71
NtRp234
(dp235
g74
(dp236
g101
g102
ssg83
g225
sg76
(lp237
S':'
asbag69
(g90
g71
NtRp238
(dp239
g74
(dp240
sg83
g225
sg76
(lp241
g69
(g70
g71
NtRp242
(dp243
g74
(dp244
g82
I5
ssg83
g238
sg76
(lp245
S'default'
p246
asbasbasbag69
(g85
g71
NtRp247
(dp248
g74
(dp249
sg83
g79
sg76
(lp250
g69
(g90
g71
NtRp251
(dp252
g74
(dp253
g94
g95
ssg83
g247
sg76
(lp254
S'cookies'
p255
asbag69
(g90
g71
NtRp256
(dp257
g74
(dp258
g101
g102
ssg83
g247
sg76
(lp259
S':'
asbag69
(g90
g71
NtRp260
(dp261
g74
(dp262
sg83
g247
sg76
(lp263
g69
(g70
g71
NtRp264
(dp265
g74
(dp266
g82
I5
ssg83
g260
sg76
(lp267
g69
(g78
g71
NtRp268
(dp269
g74
(dp270
g82
I4
ssg83
Nsg76
(lp271
g69
(g85
g71
NtRp272
(dp273
g74
(dp274
sg83
g268
sg76
(lp275
g69
(g90
g71
NtRp276
(dp277
g74
(dp278
g94
g95
ssg83
g272
sg76
(lp279
S'session_id_admin'
p280
asbag69
(g90
g71
NtRp281
(dp282
g74
(dp283
g101
g102
ssg83
g272
sg76
(lp284
S':'
asbag69
(g90
g71
NtRp285
(dp286
g74
(dp287
sg83
g272
sg76
(lp288
g69
(g70
g71
NtRp289
(dp290
g74
(dp291
g82
I4
ssg83
g285
sg76
(lp292
S'127.0.0.1-68488cad-9e24-4639-ac03-e5ae8e169abe'
p293
ag69
(g78
g71
NtRp294
(dp295
g74
(dp296
g82
I3
ssg83
Nsg76
(lp297
g69
(g85
g71
NtRp298
(dp299
g74
(dp300
sg83
g294
sg76
(lp301
g69
(g90
g71
NtRp302
(dp303
g74
(dp304
g94
g95
ssg83
g298
sg76
(lp305
S'comment'
p306
asbag69
(g90
g71
NtRp307
(dp308
g74
(dp309
g101
g102
ssg83
g298
sg76
(lp310
S':'
asbag69
(g90
g71
NtRp311
(dp312
g74
(dp313
sg83
g298
sg76
(lp314
g69
(g70
g71
NtRp315
(dp316
g74
(dp317
g82
I3
ssg83
g311
sg76
(lp318
S''
asbasbasbag69
(g85
g71
NtRp319
(dp320
g74
(dp321
sg83
g294
sg76
(lp322
g69
(g90
g71
NtRp323
(dp324
g74
(dp325
g94
g95
ssg83
g319
sg76
(lp326
S'domain'
p327
asbag69
(g90
g71
NtRp328
(dp329
g74
(dp330
g101
g102
ssg83
g319
sg76
(lp331
S':'
asbag69
(g90
g71
NtRp332
(dp333
g74
(dp334
sg83
g319
sg76
(lp335
g69
(g70
g71
NtRp336
(dp337
g74
(dp338
g82
I3
ssg83
g332
sg76
(lp339
S''
asbasbasbag69
(g85
g71
NtRp340
(dp341
g74
(dp342
sg83
g294
sg76
(lp343
g69
(g90
g71
NtRp344
(dp345
g74
(dp346
g94
g95
ssg83
g340
sg76
(lp347
S'expires'
p348
asbag69
(g90
g71
NtRp349
(dp350
g74
(dp351
g101
g102
ssg83
g340
sg76
(lp352
S':'
asbag69
(g90
g71
NtRp353
(dp354
g74
(dp355
sg83
g340
sg76
(lp356
g69
(g70
g71
NtRp357
(dp358
g74
(dp359
g82
I3
ssg83
g353
sg76
(lp360
S''
asbasbasbag69
(g85
g71
NtRp361
(dp362
g74
(dp363
sg83
g294
sg76
(lp364
g69
(g90
g71
NtRp365
(dp366
g74
(dp367
g94
g95
ssg83
g361
sg76
(lp368
S'httponly'
p369
asbag69
(g90
g71
NtRp370
(dp371
g74
(dp372
g101
g102
ssg83
g361
sg76
(lp373
S':'
asbag69
(g90
g71
NtRp374
(dp375
g74
(dp376
sg83
g361
sg76
(lp377
g69
(g70
g71
NtRp378
(dp379
g74
(dp380
g82
I3
ssg83
g374
sg76
(lp381
S''
asbasbasbag69
(g85
g71
NtRp382
(dp383
g74
(dp384
sg83
g294
sg76
(lp385
g69
(g90
g71
NtRp386
(dp387
g74
(dp388
g94
g95
ssg83
g382
sg76
(lp389
S'max-age'
p390
asbag69
(g90
g71
NtRp391
(dp392
g74
(dp393
g101
g102
ssg83
g382
sg76
(lp394
S':'
asbag69
(g90
g71
NtRp395
(dp396
g74
(dp397
sg83
g382
sg76
(lp398
g69
(g70
g71
NtRp399
(dp400
g74
(dp401
g82
I3
ssg83
g395
sg76
(lp402
S''
asbasbasbag69
(g85
g71
NtRp403
(dp404
g74
(dp405
sg83
g294
sg76
(lp406
g69
(g90
g71
NtRp407
(dp408
g74
(dp409
g94
g95
ssg83
g403
sg76
(lp410
S'path'
p411
asbag69
(g90
g71
NtRp412
(dp413
g74
(dp414
g101
g102
ssg83
g403
sg76
(lp415
S':'
asbag69
(g90
g71
NtRp416
(dp417
g74
(dp418
sg83
g403
sg76
(lp419
g69
(g70
g71
NtRp420
(dp421
g74
(dp422
g82
I3
ssg83
g416
sg76
(lp423
S''
asbasbasbag69
(g85
g71
NtRp424
(dp425
g74
(dp426
sg83
g294
sg76
(lp427
g69
(g90
g71
NtRp428
(dp429
g74
(dp430
g94
g95
ssg83
g424
sg76
(lp431
S'secure'
p432
asbag69
(g90
g71
NtRp433
(dp434
g74
(dp435
g101
g102
ssg83
g424
sg76
(lp436
S':'
asbag69
(g90
g71
NtRp437
(dp438
g74
(dp439
sg83
g424
sg76
(lp440
g69
(g70
g71
NtRp441
(dp442
g74
(dp443
g82
I3
ssg83
g437
sg76
(lp444
S''
asbasbasbag69
(g85
g71
NtRp445
(dp446
g74
(dp447
sg83
g294
sg76
(lp448
g69
(g90
g71
NtRp449
(dp450
g74
(dp451
g94
g95
ssg83
g445
sg76
(lp452
S'version'
p453
asbag69
(g90
g71
NtRp454
(dp455
g74
(dp456
g101
g102
ssg83
g445
sg76
(lp457
S':'
asbag69
(g90
g71
NtRp458
(dp459
g74
(dp460
sg83
g445
sg76
(lp461
g69
(g70
g71
NtRp462
(dp463
g74
(dp464
g82
I3
ssg83
g458
sg76
(lp465
S''
asbasbasbasbasbasbasbag69
(g85
g71
NtRp466
(dp467
g74
(dp468
sg83
g268
sg76
(lp469
g69
(g90
g71
NtRp470
(dp471
g74
(dp472
g94
g95
ssg83
g466
sg76
(lp473
S'session_id_testumgebung'
p474
asbag69
(g90
g71
NtRp475
(dp476
g74
(dp477
g101
g102
ssg83
g466
sg76
(lp478
S':'
asbag69
(g90
g71
NtRp479
(dp480
g74
(dp481
sg83
g466
sg76
(lp482
g69
(g70
g71
NtRp483
(dp484
g74
(dp485
g82
I4
ssg83
g479
sg76
(lp486
S'127.0.0.1-0516a7a8-1a9f-40bf-950c-da43d5cea819'
p487
ag69
(g78
g71
NtRp488
(dp489
g74
(dp490
g82
I3
ssg83
Nsg76
(lp491
g69
(g85
g71
NtRp492
(dp493
g74
(dp494
sg83
g488
sg76
(lp495
g69
(g90
g71
NtRp496
(dp497
g74
(dp498
g94
g95
ssg83
g492
sg76
(lp499
g306
asbag69
(g90
g71
NtRp500
(dp501
g74
(dp502
g101
g102
ssg83
g492
sg76
(lp503
S':'
asbag69
(g90
g71
NtRp504
(dp505
g74
(dp506
sg83
g492
sg76
(lp507
g69
(g70
g71
NtRp508
(dp509
g74
(dp510
g82
I3
ssg83
g504
sg76
(lp511
S''
asbasbasbag69
(g85
g71
NtRp512
(dp513
g74
(dp514
sg83
g488
sg76
(lp515
g69
(g90
g71
NtRp516
(dp517
g74
(dp518
g94
g95
ssg83
g512
sg76
(lp519
g327
asbag69
(g90
g71
NtRp520
(dp521
g74
(dp522
g101
g102
ssg83
g512
sg76
(lp523
S':'
asbag69
(g90
g71
NtRp524
(dp525
g74
(dp526
sg83
g512
sg76
(lp527
g69
(g70
g71
NtRp528
(dp529
g74
(dp530
g82
I3
ssg83
g524
sg76
(lp531
S''
asbasbasbag69
(g85
g71
NtRp532
(dp533
g74
(dp534
sg83
g488
sg76
(lp535
g69
(g90
g71
NtRp536
(dp537
g74
(dp538
g94
g95
ssg83
g532
sg76
(lp539
g348
asbag69
(g90
g71
NtRp540
(dp541
g74
(dp542
g101
g102
ssg83
g532
sg76
(lp543
S':'
asbag69
(g90
g71
NtRp544
(dp545
g74
(dp546
sg83
g532
sg76
(lp547
g69
(g70
g71
NtRp548
(dp549
g74
(dp550
g82
I3
ssg83
g544
sg76
(lp551
S''
asbasbasbag69
(g85
g71
NtRp552
(dp553
g74
(dp554
sg83
g488
sg76
(lp555
g69
(g90
g71
NtRp556
(dp557
g74
(dp558
g94
g95
ssg83
g552
sg76
(lp559
g369
asbag69
(g90
g71
NtRp560
(dp561
g74
(dp562
g101
g102
ssg83
g552
sg76
(lp563
S':'
asbag69
(g90
g71
NtRp564
(dp565
g74
(dp566
sg83
g552
sg76
(lp567
g69
(g70
g71
NtRp568
(dp569
g74
(dp570
g82
I3
ssg83
g564
sg76
(lp571
S''
asbasbasbag69
(g85
g71
NtRp572
(dp573
g74
(dp574
sg83
g488
sg76
(lp575
g69
(g90
g71
NtRp576
(dp577
g74
(dp578
g94
g95
ssg83
g572
sg76
(lp579
g390
asbag69
(g90
g71
NtRp580
(dp581
g74
(dp582
g101
g102
ssg83
g572
sg76
(lp583
S':'
asbag69
(g90
g71
NtRp584
(dp585
g74
(dp586
sg83
g572
sg76
(lp587
g69
(g70
g71
NtRp588
(dp589
g74
(dp590
g82
I3
ssg83
g584
sg76
(lp591
S''
asbasbasbag69
(g85
g71
NtRp592
(dp593
g74
(dp594
sg83
g488
sg76
(lp595
g69
(g90
g71
NtRp596
(dp597
g74
(dp598
g94
g95
ssg83
g592
sg76
(lp599
g411
asbag69
(g90
g71
NtRp600
(dp601
g74
(dp602
g101
g102
ssg83
g592
sg76
(lp603
S':'
asbag69
(g90
g71
NtRp604
(dp605
g74
(dp606
sg83
g592
sg76
(lp607
g69
(g70
g71
NtRp608
(dp609
g74
(dp610
g82
I3
ssg83
g604
sg76
(lp611
S''
asbasbasbag69
(g85
g71
NtRp612
(dp613
g74
(dp614
sg83
g488
sg76
(lp615
g69
(g90
g71
NtRp616
(dp617
g74
(dp618
g94
g95
ssg83
g612
sg76
(lp619
g432
asbag69
(g90
g71
NtRp620
(dp621
g74
(dp622
g101
g102
ssg83
g612
sg76
(lp623
S':'
asbag69
(g90
g71
NtRp624
(dp625
g74
(dp626
sg83
g612
sg76
(lp627
g69
(g70
g71
NtRp628
(dp629
g74
(dp630
g82
I3
ssg83
g624
sg76
(lp631
S''
asbasbasbag69
(g85
g71
NtRp632
(dp633
g74
(dp634
sg83
g488
sg76
(lp635
g69
(g90
g71
NtRp636
(dp637
g74
(dp638
g94
g95
ssg83
g632
sg76
(lp639
g453
asbag69
(g90
g71
NtRp640
(dp641
g74
(dp642
g101
g102
ssg83
g632
sg76
(lp643
S':'
asbag69
(g90
g71
NtRp644
(dp645
g74
(dp646
sg83
g632
sg76
(lp647
g69
(g70
g71
NtRp648
(dp649
g74
(dp650
g82
I3
ssg83
g644
sg76
(lp651
S''
asbasbasbasbasbasbasbag69
(g85
g71
NtRp652
(dp653
g74
(dp654
sg83
g268
sg76
(lp655
g69
(g90
g71
NtRp656
(dp657
g74
(dp658
g94
g95
ssg83
g652
sg76
(lp659
S'session_id_welcome'
p660
asbag69
(g90
g71
NtRp661
(dp662
g74
(dp663
g101
g102
ssg83
g652
sg76
(lp664
S':'
asbag69
(g90
g71
NtRp665
(dp666
g74
(dp667
sg83
g652
sg76
(lp668
g69
(g70
g71
NtRp669
(dp670
g74
(dp671
g82
I4
ssg83
g665
sg76
(lp672
S'127.0.0.1-8951b67b-0375-49c3-abd6-9cc682af46bd'
p673
ag69
(g78
g71
NtRp674
(dp675
g74
(dp676
g82
I3
ssg83
Nsg76
(lp677
g69
(g85
g71
NtRp678
(dp679
g74
(dp680
sg83
g674
sg76
(lp681
g69
(g90
g71
NtRp682
(dp683
g74
(dp684
g94
g95
ssg83
g678
sg76
(lp685
g306
asbag69
(g90
g71
NtRp686
(dp687
g74
(dp688
g101
g102
ssg83
g678
sg76
(lp689
S':'
asbag69
(g90
g71
NtRp690
(dp691
g74
(dp692
sg83
g678
sg76
(lp693
g69
(g70
g71
NtRp694
(dp695
g74
(dp696
g82
I3
ssg83
g690
sg76
(lp697
S''
asbasbasbag69
(g85
g71
NtRp698
(dp699
g74
(dp700
sg83
g674
sg76
(lp701
g69
(g90
g71
NtRp702
(dp703
g74
(dp704
g94
g95
ssg83
g698
sg76
(lp705
g327
asbag69
(g90
g71
NtRp706
(dp707
g74
(dp708
g101
g102
ssg83
g698
sg76
(lp709
S':'
asbag69
(g90
g71
NtRp710
(dp711
g74
(dp712
sg83
g698
sg76
(lp713
g69
(g70
g71
NtRp714
(dp715
g74
(dp716
g82
I3
ssg83
g710
sg76
(lp717
S''
asbasbasbag69
(g85
g71
NtRp718
(dp719
g74
(dp720
sg83
g674
sg76
(lp721
g69
(g90
g71
NtRp722
(dp723
g74
(dp724
g94
g95
ssg83
g718
sg76
(lp725
g348
asbag69
(g90
g71
NtRp726
(dp727
g74
(dp728
g101
g102
ssg83
g718
sg76
(lp729
S':'
asbag69
(g90
g71
NtRp730
(dp731
g74
(dp732
sg83
g718
sg76
(lp733
g69
(g70
g71
NtRp734
(dp735
g74
(dp736
g82
I3
ssg83
g730
sg76
(lp737
S''
asbasbasbag69
(g85
g71
NtRp738
(dp739
g74
(dp740
sg83
g674
sg76
(lp741
g69
(g90
g71
NtRp742
(dp743
g74
(dp744
g94
g95
ssg83
g738
sg76
(lp745
g369
asbag69
(g90
g71
NtRp746
(dp747
g74
(dp748
g101
g102
ssg83
g738
sg76
(lp749
S':'
asbag69
(g90
g71
NtRp750
(dp751
g74
(dp752
sg83
g738
sg76
(lp753
g69
(g70
g71
NtRp754
(dp755
g74
(dp756
g82
I3
ssg83
g750
sg76
(lp757
S''
asbasbasbag69
(g85
g71
NtRp758
(dp759
g74
(dp760
sg83
g674
sg76
(lp761
g69
(g90
g71
NtRp762
(dp763
g74
(dp764
g94
g95
ssg83
g758
sg76
(lp765
g390
asbag69
(g90
g71
NtRp766
(dp767
g74
(dp768
g101
g102
ssg83
g758
sg76
(lp769
S':'
asbag69
(g90
g71
NtRp770
(dp771
g74
(dp772
sg83
g758
sg76
(lp773
g69
(g70
g71
NtRp774
(dp775
g74
(dp776
g82
I3
ssg83
g770
sg76
(lp777
S''
asbasbasbag69
(g85
g71
NtRp778
(dp779
g74
(dp780
sg83
g674
sg76
(lp781
g69
(g90
g71
NtRp782
(dp783
g74
(dp784
g94
g95
ssg83
g778
sg76
(lp785
g411
asbag69
(g90
g71
NtRp786
(dp787
g74
(dp788
g101
g102
ssg83
g778
sg76
(lp789
S':'
asbag69
(g90
g71
NtRp790
(dp791
g74
(dp792
sg83
g778
sg76
(lp793
g69
(g70
g71
NtRp794
(dp795
g74
(dp796
g82
I3
ssg83
g790
sg76
(lp797
S''
asbasbasbag69
(g85
g71
NtRp798
(dp799
g74
(dp800
sg83
g674
sg76
(lp801
g69
(g90
g71
NtRp802
(dp803
g74
(dp804
g94
g95
ssg83
g798
sg76
(lp805
g432
asbag69
(g90
g71
NtRp806
(dp807
g74
(dp808
g101
g102
ssg83
g798
sg76
(lp809
S':'
asbag69
(g90
g71
NtRp810
(dp811
g74
(dp812
sg83
g798
sg76
(lp813
g69
(g70
g71
NtRp814
(dp815
g74
(dp816
g82
I3
ssg83
g810
sg76
(lp817
S''
asbasbasbag69
(g85
g71
NtRp818
(dp819
g74
(dp820
sg83
g674
sg76
(lp821
g69
(g90
g71
NtRp822
(dp823
g74
(dp824
g94
g95
ssg83
g818
sg76
(lp825
g453
asbag69
(g90
g71
NtRp826
(dp827
g74
(dp828
g101
g102
ssg83
g818
sg76
(lp829
S':'
asbag69
(g90
g71
NtRp830
(dp831
g74
(dp832
sg83
g818
sg76
(lp833
g69
(g70
g71
NtRp834
(dp835
g74
(dp836
g82
I3
ssg83
g830
sg76
(lp837
S''
asbasbasbasbasbasbasbasbasbasbasbag69
(g85
g71
NtRp838
(dp839
g74
(dp840
sg83
g79
sg76
(lp841
g69
(g90
g71
NtRp842
(dp843
g74
(dp844
g94
g95
ssg83
g838
sg76
(lp845
S'env'
p846
asbag69
(g90
g71
NtRp847
(dp848
g74
(dp849
g101
g102
ssg83
g838
sg76
(lp850
S':'
asbag69
(g90
g71
NtRp851
(dp852
g74
(dp853
sg83
g838
sg76
(lp854
g69
(g70
g71
NtRp855
(dp856
g74
(dp857
g82
I5
ssg83
g851
sg76
(lp858
g69
(g78
g71
NtRp859
(dp860
g74
(dp861
g82
I4
ssg83
Nsg76
(lp862
g69
(g85
g71
NtRp863
(dp864
g74
(dp865
sg83
g859
sg76
(lp866
g69
(g90
g71
NtRp867
(dp868
g74
(dp869
g94
g95
ssg83
g863
sg76
(lp870
S'app_folders'
p871
asbag69
(g90
g71
NtRp872
(dp873
g74
(dp874
g101
g102
ssg83
g863
sg76
(lp875
S':'
asbag69
(g90
g71
NtRp876
(dp877
g74
(dp878
sg83
g863
sg76
(lp879
g69
(g70
g71
NtRp880
(dp881
g74
(dp882
g82
I4
ssg83
g876
sg76
(lp883
S"set(['C:\\\\xampp\\\\htdocs\\\\web2py\\\\applications\\\\admin\\\\', 'C:\\\\xampp\\\\htdocs\\\\web2py\\\\applications\\\\welcome\\\\', 'C:\\\\xampp\\\\htdocs\\\\web2py\\\\applications\\\\testumgebung\\\\'])"
p884
asbasbasbag69
(g85
g71
NtRp885
(dp886
g74
(dp887
sg83
g859
sg76
(lp888
g69
(g90
g71
NtRp889
(dp890
g74
(dp891
g94
g95
ssg83
g885
sg76
(lp892
S'applications_parent'
p893
asbag69
(g90
g71
NtRp894
(dp895
g74
(dp896
g101
g102
ssg83
g885
sg76
(lp897
S':'
asbag69
(g90
g71
NtRp898
(dp899
g74
(dp900
sg83
g885
sg76
(lp901
g69
(g70
g71
NtRp902
(dp903
g74
(dp904
g82
I4
ssg83
g898
sg76
(lp905
S'C:\\xampp\\htdocs\\web2py'
p906
asbasbasbag69
(g85
g71
NtRp907
(dp908
g74
(dp909
sg83
g859
sg76
(lp910
g69
(g90
g71
NtRp911
(dp912
g74
(dp913
g94
g95
ssg83
g907
sg76
(lp914
S'cmd_args'
p915
asbag69
(g90
g71
NtRp916
(dp917
g74
(dp918
g101
g102
ssg83
g907
sg76
(lp919
S':'
asbag69
(g90
g71
NtRp920
(dp921
g74
(dp922
sg83
g907
sg76
(lp923
g69
(g70
g71
NtRp924
(dp925
g74
(dp926
g82
I4
ssg83
g920
sg76
(lp927
g69
(g78
g71
NtRp928
(dp929
g74
(dp930
g82
I3
ssg83
Nsg76
(lp931
sbasbasbasbag69
(g85
g71
NtRp932
(dp933
g74
(dp934
sg83
g859
sg76
(lp935
g69
(g90
g71
NtRp936
(dp937
g74
(dp938
g94
g95
ssg83
g932
sg76
(lp939
S'cmd_options'
p940
asbag69
(g90
g71
NtRp941
(dp942
g74
(dp943
g101
g102
ssg83
g932
sg76
(lp944
S':'
asbag69
(g90
g71
NtRp945
(dp946
g74
(dp947
sg83
g932
sg76
(lp948
g69
(g70
g71
NtRp949
(dp950
g74
(dp951
g82
I4
ssg83
g945
sg76
(lp952
S"<Values at 0x2c68e18: {'verbose': False, 'ip': '127.0.0.1', 'with_scheduler': False, 'ips': ['10.0.0.109', '192.168.189.1', '192.168.91.1'], 'shutdown_timeout': 5, 'taskbar': False, 'port': 8000, 'maxthreads': None, 'softcron': False, 'server_name': 'swLaptop', 'bpython': False, 'nogui': False, 'nocron': False, 'extcron': False, 'run_system_tests': False, 'test': None, 'folder': 'C:\\\\xampp\\\\htdocs\\\\web2py', 'config': '', 'import_models': False, 'winservice': '', 'shell': None, 'run': '', 'log_filename': 'httpserver.log', 'debuglevel': 30, 'args': [''], 'socket_timeout': 5, 'ssl_ca_certificate': None, 'scheduler': None, 'profiler_filename': None, 'ssl_private_key': '', 'scheduler_groups': None, 'password': '<ask>', 'request_queue_size': 5, 'ssl_certificate': '', 'cronjob': False, 'numthreads': None, 'quiet': False, 'interfaces': None, 'minthreads': None, 'timeout': 10, 'plain': False, 'nobanner': False, 'pid_filename': 'httpserver.pid'}>"
p953
asbasbasbag69
(g85
g71
NtRp954
(dp955
g74
(dp956
sg83
g859
sg76
(lp957
g69
(g90
g71
NtRp958
(dp959
g74
(dp960
g94
g95
ssg83
g954
sg76
(lp961
S'db_sessions'
p962
asbag69
(g90
g71
NtRp963
(dp964
g74
(dp965
g101
g102
ssg83
g954
sg76
(lp966
S':'
asbag69
(g90
g71
NtRp967
(dp968
g74
(dp969
sg83
g954
sg76
(lp970
g69
(g70
g71
NtRp971
(dp972
g74
(dp973
g82
I4
ssg83
g967
sg76
(lp974
S'set([])'
p975
asbasbasbag69
(g85
g71
NtRp976
(dp977
g74
(dp978
sg83
g859
sg76
(lp979
g69
(g90
g71
NtRp980
(dp981
g74
(dp982
g94
g95
ssg83
g976
sg76
(lp983
S'debugging'
p984
asbag69
(g90
g71
NtRp985
(dp986
g74
(dp987
g101
g102
ssg83
g976
sg76
(lp988
S':'
asbag69
(g90
g71
NtRp989
(dp990
g74
(dp991
sg83
g976
sg76
(lp992
g69
(g70
g71
NtRp993
(dp994
g74
(dp995
g82
I4
ssg83
g989
sg76
(lp996
g112
asbasbasbag69
(g85
g71
NtRp997
(dp998
g74
(dp999
sg83
g859
sg76
(lp1000
g69
(g90
g71
NtRp1001
(dp1002
g74
(dp1003
g94
g95
ssg83
g997
sg76
(lp1004
S'gluon_parent'
p1005
asbag69
(g90
g71
NtRp1006
(dp1007
g74
(dp1008
g101
g102
ssg83
g997
sg76
(lp1009
S':'
asbag69
(g90
g71
NtRp1010
(dp1011
g74
(dp1012
sg83
g997
sg76
(lp1013
g69
(g70
g71
NtRp1014
(dp1015
g74
(dp1016
g82
I4
ssg83
g1010
sg76
(lp1017
S'C:\\xampp\\htdocs\\web2py'
p1018
asbasbasbag69
(g85
g71
NtRp1019
(dp1020
g74
(dp1021
sg83
g859
sg76
(lp1022
g69
(g90
g71
NtRp1023
(dp1024
g74
(dp1025
g94
g95
ssg83
g1019
sg76
(lp1026
S'http_accept'
p1027
asbag69
(g90
g71
NtRp1028
(dp1029
g74
(dp1030
g101
g102
ssg83
g1019
sg76
(lp1031
S':'
asbag69
(g90
g71
NtRp1032
(dp1033
g74
(dp1034
sg83
g1019
sg76
(lp1035
g69
(g70
g71
NtRp1036
(dp1037
g74
(dp1038
g82
I4
ssg83
g1032
sg76
(lp1039
S'text/html,application/xhtml+xml,application/xml;q=0.9,*/*;q=0.8'
p1040
asbasbasbag69
(g85
g71
NtRp1041
(dp1042
g74
(dp1043
sg83
g859
sg76
(lp1044
g69
(g90
g71
NtRp1045
(dp1046
g74
(dp1047
g94
g95
ssg83
g1041
sg76
(lp1048
S'http_accept_encoding'
p1049
asbag69
(g90
g71
NtRp1050
(dp1051
g74
(dp1052
g101
g102
ssg83
g1041
sg76
(lp1053
S':'
asbag69
(g90
g71
NtRp1054
(dp1055
g74
(dp1056
sg83
g1041
sg76
(lp1057
g69
(g70
g71
NtRp1058
(dp1059
g74
(dp1060
g82
I4
ssg83
g1054
sg76
(lp1061
S'gzip, deflate'
p1062
asbasbasbag69
(g85
g71
NtRp1063
(dp1064
g74
(dp1065
sg83
g859
sg76
(lp1066
g69
(g90
g71
NtRp1067
(dp1068
g74
(dp1069
g94
g95
ssg83
g1063
sg76
(lp1070
S'http_accept_language'
p1071
asbag69
(g90
g71
NtRp1072
(dp1073
g74
(dp1074
g101
g102
ssg83
g1063
sg76
(lp1075
S':'
asbag69
(g90
g71
NtRp1076
(dp1077
g74
(dp1078
sg83
g1063
sg76
(lp1079
g69
(g70
g71
NtRp1080
(dp1081
g74
(dp1082
g82
I4
ssg83
g1076
sg76
(lp1083
S'de-de,de;q=0.8,en-us;q=0.5,en;q=0.3'
p1084
asbasbasbag69
(g85
g71
NtRp1085
(dp1086
g74
(dp1087
sg83
g859
sg76
(lp1088
g69
(g90
g71
NtRp1089
(dp1090
g74
(dp1091
g94
g95
ssg83
g1085
sg76
(lp1092
S'http_cache_control'
p1093
asbag69
(g90
g71
NtRp1094
(dp1095
g74
(dp1096
g101
g102
ssg83
g1085
sg76
(lp1097
S':'
asbag69
(g90
g71
NtRp1098
(dp1099
g74
(dp1100
sg83
g1085
sg76
(lp1101
g69
(g70
g71
NtRp1102
(dp1103
g74
(dp1104
g82
I4
ssg83
g1098
sg76
(lp1105
S'max-age=0'
p1106
asbasbasbag69
(g85
g71
NtRp1107
(dp1108
g74
(dp1109
sg83
g859
sg76
(lp1110
g69
(g90
g71
NtRp1111
(dp1112
g74
(dp1113
g94
g95
ssg83
g1107
sg76
(lp1114
S'http_connection'
p1115
asbag69
(g90
g71
NtRp1116
(dp1117
g74
(dp1118
g101
g102
ssg83
g1107
sg76
(lp1119
S':'
asbag69
(g90
g71
NtRp1120
(dp1121
g74
(dp1122
sg83
g1107
sg76
(lp1123
g69
(g70
g71
NtRp1124
(dp1125
g74
(dp1126
g82
I4
ssg83
g1120
sg76
(lp1127
S'keep-alive'
p1128
asbasbasbag69
(g85
g71
NtRp1129
(dp1130
g74
(dp1131
sg83
g859
sg76
(lp1132
g69
(g90
g71
NtRp1133
(dp1134
g74
(dp1135
g94
g95
ssg83
g1129
sg76
(lp1136
S'http_cookie'
p1137
asbag69
(g90
g71
NtRp1138
(dp1139
g74
(dp1140
g101
g102
ssg83
g1129
sg76
(lp1141
S':'
asbag69
(g90
g71
NtRp1142
(dp1143
g74
(dp1144
sg83
g1129
sg76
(lp1145
g69
(g70
g71
NtRp1146
(dp1147
g74
(dp1148
g82
I4
ssg83
g1142
sg76
(lp1149
S'session_id_welcome=127.0.0.1-8951b67b-0375-49c3-abd6-9cc682af46bd; session_id_testumgebung=127.0.0.1-0516a7a8-1a9f-40bf-950c-da43d5cea819; session_id_admin=127.0.0.1-68488cad-9e24-4639-ac03-e5ae8e169abe'
p1150
asbasbasbag69
(g85
g71
NtRp1151
(dp1152
g74
(dp1153
sg83
g859
sg76
(lp1154
g69
(g90
g71
NtRp1155
(dp1156
g74
(dp1157
g94
g95
ssg83
g1151
sg76
(lp1158
S'http_dnt'
p1159
asbag69
(g90
g71
NtRp1160
(dp1161
g74
(dp1162
g101
g102
ssg83
g1151
sg76
(lp1163
S':'
asbag69
(g90
g71
NtRp1164
(dp1165
g74
(dp1166
sg83
g1151
sg76
(lp1167
g69
(g70
g71
NtRp1168
(dp1169
g74
(dp1170
g82
I4
ssg83
g1164
sg76
(lp1171
S'1'
asbasbasbag69
(g85
g71
NtRp1172
(dp1173
g74
(dp1174
sg83
g859
sg76
(lp1175
g69
(g90
g71
NtRp1176
(dp1177
g74
(dp1178
g94
g95
ssg83
g1172
sg76
(lp1179
S'http_host'
p1180
asbag69
(g90
g71
NtRp1181
(dp1182
g74
(dp1183
g101
g102
ssg83
g1172
sg76
(lp1184
S':'
asbag69
(g90
g71
NtRp1185
(dp1186
g74
(dp1187
sg83
g1172
sg76
(lp1188
g69
(g70
g71
NtRp1189
(dp1190
g74
(dp1191
g82
I4
ssg83
g1185
sg76
(lp1192
S'127.0.0.1:8000'
p1193
asbasbasbag69
(g85
g71
NtRp1194
(dp1195
g74
(dp1196
sg83
g859
sg76
(lp1197
g69
(g90
g71
NtRp1198
(dp1199
g74
(dp1200
g94
g95
ssg83
g1194
sg76
(lp1201
S'http_user_agent'
p1202
asbag69
(g90
g71
NtRp1203
(dp1204
g74
(dp1205
g101
g102
ssg83
g1194
sg76
(lp1206
S':'
asbag69
(g90
g71
NtRp1207
(dp1208
g74
(dp1209
sg83
g1194
sg76
(lp1210
g69
(g70
g71
NtRp1211
(dp1212
g74
(dp1213
g82
I4
ssg83
g1207
sg76
(lp1214
S'Mozilla/5.0 (Windows NT 6.1; WOW64; rv:17.0) Gecko/20100101 Firefox/17.0'
p1215
asbasbasbag69
(g85
g71
NtRp1216
(dp1217
g74
(dp1218
sg83
g859
sg76
(lp1219
g69
(g90
g71
NtRp1220
(dp1221
g74
(dp1222
g94
g95
ssg83
g1216
sg76
(lp1223
S'http_x_clickoncesupport'
p1224
asbag69
(g90
g71
NtRp1225
(dp1226
g74
(dp1227
g101
g102
ssg83
g1216
sg76
(lp1228
S':'
asbag69
(g90
g71
NtRp1229
(dp1230
g74
(dp1231
sg83
g1216
sg76
(lp1232
g69
(g70
g71
NtRp1233
(dp1234
g74
(dp1235
g82
I4
ssg83
g1229
sg76
(lp1236
S'(.NET CLR 2.0.50727; .NET CLR 3.5.30729; .NET CLR 3.0.30729; .NET4.0C; .NET4.0E)'
p1237
asbasbasbag69
(g85
g71
NtRp1238
(dp1239
g74
(dp1240
sg83
g859
sg76
(lp1241
g69
(g90
g71
NtRp1242
(dp1243
g74
(dp1244
g94
g95
ssg83
g1238
sg76
(lp1245
S'is_jython'
p1246
asbag69
(g90
g71
NtRp1247
(dp1248
g74
(dp1249
g101
g102
ssg83
g1238
sg76
(lp1250
S':'
asbag69
(g90
g71
NtRp1251
(dp1252
g74
(dp1253
sg83
g1238
sg76
(lp1254
g69
(g70
g71
NtRp1255
(dp1256
g74
(dp1257
g82
I4
ssg83
g1251
sg76
(lp1258
g112
asbasbasbag69
(g85
g71
NtRp1259
(dp1260
g74
(dp1261
sg83
g859
sg76
(lp1262
g69
(g90
g71
NtRp1263
(dp1264
g74
(dp1265
g94
g95
ssg83
g1259
sg76
(lp1266
S'is_pypy'
p1267
asbag69
(g90
g71
NtRp1268
(dp1269
g74
(dp1270
g101
g102
ssg83
g1259
sg76
(lp1271
S':'
asbag69
(g90
g71
NtRp1272
(dp1273
g74
(dp1274
sg83
g1259
sg76
(lp1275
g69
(g70
g71
NtRp1276
(dp1277
g74
(dp1278
g82
I4
ssg83
g1272
sg76
(lp1279
g112
asbasbasbag69
(g85
g71
NtRp1280
(dp1281
g74
(dp1282
sg83
g859
sg76
(lp1283
g69
(g90
g71
NtRp1284
(dp1285
g74
(dp1286
g94
g95
ssg83
g1280
sg76
(lp1287
S'path_info'
p1288
asbag69
(g90
g71
NtRp1289
(dp1290
g74
(dp1291
g101
g102
ssg83
g1280
sg76
(lp1292
S':'
asbag69
(g90
g71
NtRp1293
(dp1294
g74
(dp1295
sg83
g1280
sg76
(lp1296
g69
(g70
g71
NtRp1297
(dp1298
g74
(dp1299
g82
I4
ssg83
g1293
sg76
(lp1300
S'/testumgebung'
p1301
asbasbasbag69
(g85
g71
NtRp1302
(dp1303
g74
(dp1304
sg83
g859
sg76
(lp1305
g69
(g90
g71
NtRp1306
(dp1307
g74
(dp1308
g94
g95
ssg83
g1302
sg76
(lp1309
S'query_string'
p1310
asbag69
(g90
g71
NtRp1311
(dp1312
g74
(dp1313
g101
g102
ssg83
g1302
sg76
(lp1314
S':'
asbag69
(g90
g71
NtRp1315
(dp1316
g74
(dp1317
sg83
g1302
sg76
(lp1318
g69
(g70
g71
NtRp1319
(dp1320
g74
(dp1321
g82
I4
ssg83
g1315
sg76
(lp1322
S''
asbasbasbag69
(g85
g71
NtRp1323
(dp1324
g74
(dp1325
sg83
g859
sg76
(lp1326
g69
(g90
g71
NtRp1327
(dp1328
g74
(dp1329
g94
g95
ssg83
g1323
sg76
(lp1330
S'remote_addr'
p1331
asbag69
(g90
g71
NtRp1332
(dp1333
g74
(dp1334
g101
g102
ssg83
g1323
sg76
(lp1335
S':'
asbag69
(g90
g71
NtRp1336
(dp1337
g74
(dp1338
sg83
g1323
sg76
(lp1339
g69
(g70
g71
NtRp1340
(dp1341
g74
(dp1342
g82
I4
ssg83
g1336
sg76
(lp1343
g224
asbasbasbag69
(g85
g71
NtRp1344
(dp1345
g74
(dp1346
sg83
g859
sg76
(lp1347
g69
(g90
g71
NtRp1348
(dp1349
g74
(dp1350
g94
g95
ssg83
g1344
sg76
(lp1351
S'remote_port'
p1352
asbag69
(g90
g71
NtRp1353
(dp1354
g74
(dp1355
g101
g102
ssg83
g1344
sg76
(lp1356
S':'
asbag69
(g90
g71
NtRp1357
(dp1358
g74
(dp1359
sg83
g1344
sg76
(lp1360
g69
(g70
g71
NtRp1361
(dp1362
g74
(dp1363
g82
I4
ssg83
g1357
sg76
(lp1364
S'57678'
p1365
asbasbasbag69
(g85
g71
NtRp1366
(dp1367
g74
(dp1368
sg83
g859
sg76
(lp1369
g69
(g90
g71
NtRp1370
(dp1371
g74
(dp1372
g94
g95
ssg83
g1366
sg76
(lp1373
S'request_method'
p1374
asbag69
(g90
g71
NtRp1375
(dp1376
g74
(dp1377
g101
g102
ssg83
g1366
sg76
(lp1378
S':'
asbag69
(g90
g71
NtRp1379
(dp1380
g74
(dp1381
sg83
g1366
sg76
(lp1382
g69
(g70
g71
NtRp1383
(dp1384
g74
(dp1385
g82
I4
ssg83
g1379
sg76
(lp1386
S'GET'
p1387
asbasbasbag69
(g85
g71
NtRp1388
(dp1389
g74
(dp1390
sg83
g859
sg76
(lp1391
g69
(g90
g71
NtRp1392
(dp1393
g74
(dp1394
g94
g95
ssg83
g1388
sg76
(lp1395
S'request_uri'
p1396
asbag69
(g90
g71
NtRp1397
(dp1398
g74
(dp1399
g101
g102
ssg83
g1388
sg76
(lp1400
S':'
asbag69
(g90
g71
NtRp1401
(dp1402
g74
(dp1403
sg83
g1388
sg76
(lp1404
g69
(g70
g71
NtRp1405
(dp1406
g74
(dp1407
g82
I4
ssg83
g1401
sg76
(lp1408
g1301
asbasbasbag69
(g85
g71
NtRp1409
(dp1410
g74
(dp1411
sg83
g859
sg76
(lp1412
g69
(g90
g71
NtRp1413
(dp1414
g74
(dp1415
g94
g95
ssg83
g1409
sg76
(lp1416
S'script_name'
p1417
asbag69
(g90
g71
NtRp1418
(dp1419
g74
(dp1420
g101
g102
ssg83
g1409
sg76
(lp1421
S':'
asbag69
(g90
g71
NtRp1422
(dp1423
g74
(dp1424
sg83
g1409
sg76
(lp1425
g69
(g70
g71
NtRp1426
(dp1427
g74
(dp1428
g82
I4
ssg83
g1422
sg76
(lp1429
S''
asbasbasbag69
(g85
g71
NtRp1430
(dp1431
g74
(dp1432
sg83
g859
sg76
(lp1433
g69
(g90
g71
NtRp1434
(dp1435
g74
(dp1436
g94
g95
ssg83
g1430
sg76
(lp1437
S'server_name'
p1438
asbag69
(g90
g71
NtRp1439
(dp1440
g74
(dp1441
g101
g102
ssg83
g1430
sg76
(lp1442
S':'
asbag69
(g90
g71
NtRp1443
(dp1444
g74
(dp1445
sg83
g1430
sg76
(lp1446
g69
(g70
g71
NtRp1447
(dp1448
g74
(dp1449
g82
I4
ssg83
g1443
sg76
(lp1450
S'swLaptop'
p1451
asbasbasbag69
(g85
g71
NtRp1452
(dp1453
g74
(dp1454
sg83
g859
sg76
(lp1455
g69
(g90
g71
NtRp1456
(dp1457
g74
(dp1458
g94
g95
ssg83
g1452
sg76
(lp1459
S'server_port'
p1460
asbag69
(g90
g71
NtRp1461
(dp1462
g74
(dp1463
g101
g102
ssg83
g1452
sg76
(lp1464
S':'
asbag69
(g90
g71
NtRp1465
(dp1466
g74
(dp1467
sg83
g1452
sg76
(lp1468
g69
(g70
g71
NtRp1469
(dp1470
g74
(dp1471
g82
I4
ssg83
g1465
sg76
(lp1472
S'8000'
p1473
asbasbasbag69
(g85
g71
NtRp1474
(dp1475
g74
(dp1476
sg83
g859
sg76
(lp1477
g69
(g90
g71
NtRp1478
(dp1479
g74
(dp1480
g94
g95
ssg83
g1474
sg76
(lp1481
S'server_protocol'
p1482
asbag69
(g90
g71
NtRp1483
(dp1484
g74
(dp1485
g101
g102
ssg83
g1474
sg76
(lp1486
S':'
asbag69
(g90
g71
NtRp1487
(dp1488
g74
(dp1489
sg83
g1474
sg76
(lp1490
g69
(g70
g71
NtRp1491
(dp1492
g74
(dp1493
g82
I4
ssg83
g1487
sg76
(lp1494
S'HTTP/1.1'
p1495
asbasbasbag69
(g85
g71
NtRp1496
(dp1497
g74
(dp1498
sg83
g859
sg76
(lp1499
g69
(g90
g71
NtRp1500
(dp1501
g74
(dp1502
g94
g95
ssg83
g1496
sg76
(lp1503
S'server_software'
p1504
asbag69
(g90
g71
NtRp1505
(dp1506
g74
(dp1507
g101
g102
ssg83
g1496
sg76
(lp1508
S':'
asbag69
(g90
g71
NtRp1509
(dp1510
g74
(dp1511
sg83
g1496
sg76
(lp1512
g69
(g70
g71
NtRp1513
(dp1514
g74
(dp1515
g82
I4
ssg83
g1509
sg76
(lp1516
S'Rocket 1.2.4'
p1517
asbasbasbag69
(g85
g71
NtRp1518
(dp1519
g74
(dp1520
sg83
g859
sg76
(lp1521
g69
(g90
g71
NtRp1522
(dp1523
g74
(dp1524
g94
g95
ssg83
g1518
sg76
(lp1525
S'web2py_crontype'
p1526
asbag69
(g90
g71
NtRp1527
(dp1528
g74
(dp1529
g101
g102
ssg83
g1518
sg76
(lp1530
S':'
asbag69
(g90
g71
NtRp1531
(dp1532
g74
(dp1533
sg83
g1518
sg76
(lp1534
g69
(g70
g71
NtRp1535
(dp1536
g74
(dp1537
g82
I4
ssg83
g1531
sg76
(lp1538
S'hard'
p1539
asbasbasbag69
(g85
g71
NtRp1540
(dp1541
g74
(dp1542
sg83
g859
sg76
(lp1543
g69
(g90
g71
NtRp1544
(dp1545
g74
(dp1546
g94
g95
ssg83
g1540
sg76
(lp1547
S'web2py_path'
p1548
asbag69
(g90
g71
NtRp1549
(dp1550
g74
(dp1551
g101
g102
ssg83
g1540
sg76
(lp1552
S':'
asbag69
(g90
g71
NtRp1553
(dp1554
g74
(dp1555
sg83
g1540
sg76
(lp1556
g69
(g70
g71
NtRp1557
(dp1558
g74
(dp1559
g82
I4
ssg83
g1553
sg76
(lp1560
g906
asbasbasbag69
(g85
g71
NtRp1561
(dp1562
g74
(dp1563
sg83
g859
sg76
(lp1564
g69
(g90
g71
NtRp1565
(dp1566
g74
(dp1567
g94
g95
ssg83
g1561
sg76
(lp1568
S'web2py_version'
p1569
asbag69
(g90
g71
NtRp1570
(dp1571
g74
(dp1572
g101
g102
ssg83
g1561
sg76
(lp1573
S':'
asbag69
(g90
g71
NtRp1574
(dp1575
g74
(dp1576
sg83
g1561
sg76
(lp1577
g69
(g70
g71
NtRp1578
(dp1579
g74
(dp1580
g82
I4
ssg83
g1574
sg76
(lp1581
g69
(g78
g71
NtRp1582
(dp1583
g74
(dp1584
g82
I3
ssg83
Nsg76
(lp1585
g69
(g85
g71
NtRp1586
(dp1587
g74
(dp1588
sg83
g1582
sg76
(lp1589
g69
(g90
g71
NtRp1590
(dp1591
g74
(dp1592
sg83
g1586
sg76
(lp1593
g69
(g70
g71
NtRp1594
(dp1595
g74
(dp1596
g82
I3
ssg83
g1590
sg76
(lp1597
S'2'
asbasbasbag69
(g85
g71
NtRp1598
(dp1599
g74
(dp1600
sg83
g1582
sg76
(lp1601
g69
(g90
g71
NtRp1602
(dp1603
g74
(dp1604
sg83
g1598
sg76
(lp1605
g69
(g70
g71
NtRp1606
(dp1607
g74
(dp1608
g82
I3
ssg83
g1602
sg76
(lp1609
S'0'
asbasbasbag69
(g85
g71
NtRp1610
(dp1611
g74
(dp1612
sg83
g1582
sg76
(lp1613
g69
(g90
g71
NtRp1614
(dp1615
g74
(dp1616
sg83
g1610
sg76
(lp1617
g69
(g70
g71
NtRp1618
(dp1619
g74
(dp1620
g82
I3
ssg83
g1614
sg76
(lp1621
S'3'
asbasbasbag69
(g85
g71
NtRp1622
(dp1623
g74
(dp1624
sg83
g1582
sg76
(lp1625
g69
(g90
g71
NtRp1626
(dp1627
g74
(dp1628
sg83
g1622
sg76
(lp1629
g69
(g70
g71
NtRp1630
(dp1631
g74
(dp1632
g82
I3
ssg83
g1626
sg76
(lp1633
S'datetime.datetime(2012, 8, 31, 5, 58, 31)'
p1634
asbasbasbag69
(g85
g71
NtRp1635
(dp1636
g74
(dp1637
sg83
g1582
sg76
(lp1638
g69
(g90
g71
NtRp1639
(dp1640
g74
(dp1641
sg83
g1635
sg76
(lp1642
g69
(g70
g71
NtRp1643
(dp1644
g74
(dp1645
g82
I3
ssg83
g1639
sg76
(lp1646
S'stable'
p1647
asbasbasbasbasbasbasbag69
(g85
g71
NtRp1648
(dp1649
g74
(dp1650
sg83
g859
sg76
(lp1651
g69
(g90
g71
NtRp1652
(dp1653
g74
(dp1654
g94
g95
ssg83
g1648
sg76
(lp1655
S'wsgi_errors'
p1656
asbag69
(g90
g71
NtRp1657
(dp1658
g74
(dp1659
g101
g102
ssg83
g1648
sg76
(lp1660
S':'
asbag69
(g90
g71
NtRp1661
(dp1662
g74
(dp1663
sg83
g1648
sg76
(lp1664
g69
(g70
g71
NtRp1665
(dp1666
g74
(dp1667
g82
I4
ssg83
g1661
sg76
(lp1668
S"<open file '<stderr>', mode 'w' at 0x021D50D0>"
p1669
asbasbasbag69
(g85
g71
NtRp1670
(dp1671
g74
(dp1672
sg83
g859
sg76
(lp1673
g69
(g90
g71
NtRp1674
(dp1675
g74
(dp1676
g94
g95
ssg83
g1670
sg76
(lp1677
S'wsgi_file_wrapper'
p1678
asbag69
(g90
g71
NtRp1679
(dp1680
g74
(dp1681
g101
g102
ssg83
g1670
sg76
(lp1682
S':'
asbag69
(g90
g71
NtRp1683
(dp1684
g74
(dp1685
sg83
g1670
sg76
(lp1686
g69
(g70
g71
NtRp1687
(dp1688
g74
(dp1689
g82
I4
ssg83
g1683
sg76
(lp1690
S'<class wsgiref.util.FileWrapper at 0x02C1D030>'
p1691
asbasbasbag69
(g85
g71
NtRp1692
(dp1693
g74
(dp1694
sg83
g859
sg76
(lp1695
g69
(g90
g71
NtRp1696
(dp1697
g74
(dp1698
g94
g95
ssg83
g1692
sg76
(lp1699
S'wsgi_input'
p1700
asbag69
(g90
g71
NtRp1701
(dp1702
g74
(dp1703
g101
g102
ssg83
g1692
sg76
(lp1704
S':'
asbag69
(g90
g71
NtRp1705
(dp1706
g74
(dp1707
sg83
g1692
sg76
(lp1708
g69
(g70
g71
NtRp1709
(dp1710
g74
(dp1711
g82
I4
ssg83
g1705
sg76
(lp1712
S'<socket._fileobject object at 0x02F769F0>'
p1713
asbasbasbag69
(g85
g71
NtRp1714
(dp1715
g74
(dp1716
sg83
g859
sg76
(lp1717
g69
(g90
g71
NtRp1718
(dp1719
g74
(dp1720
g94
g95
ssg83
g1714
sg76
(lp1721
S'wsgi_multiprocess'
p1722
asbag69
(g90
g71
NtRp1723
(dp1724
g74
(dp1725
g101
g102
ssg83
g1714
sg76
(lp1726
S':'
asbag69
(g90
g71
NtRp1727
(dp1728
g74
(dp1729
sg83
g1714
sg76
(lp1730
g69
(g70
g71
NtRp1731
(dp1732
g74
(dp1733
g82
I4
ssg83
g1727
sg76
(lp1734
g112
asbasbasbag69
(g85
g71
NtRp1735
(dp1736
g74
(dp1737
sg83
g859
sg76
(lp1738
g69
(g90
g71
NtRp1739
(dp1740
g74
(dp1741
g94
g95
ssg83
g1735
sg76
(lp1742
S'wsgi_multithread'
p1743
asbag69
(g90
g71
NtRp1744
(dp1745
g74
(dp1746
g101
g102
ssg83
g1735
sg76
(lp1747
S':'
asbag69
(g90
g71
NtRp1748
(dp1749
g74
(dp1750
sg83
g1735
sg76
(lp1751
g69
(g70
g71
NtRp1752
(dp1753
g74
(dp1754
g82
I4
ssg83
g1748
sg76
(lp1755
S'True'
p1756
asbasbasbag69
(g85
g71
NtRp1757
(dp1758
g74
(dp1759
sg83
g859
sg76
(lp1760
g69
(g90
g71
NtRp1761
(dp1762
g74
(dp1763
g94
g95
ssg83
g1757
sg76
(lp1764
S'wsgi_run_once'
p1765
asbag69
(g90
g71
NtRp1766
(dp1767
g74
(dp1768
g101
g102
ssg83
g1757
sg76
(lp1769
S':'
asbag69
(g90
g71
NtRp1770
(dp1771
g74
(dp1772
sg83
g1757
sg76
(lp1773
g69
(g70
g71
NtRp1774
(dp1775
g74
(dp1776
g82
I4
ssg83
g1770
sg76
(lp1777
g112
asbasbasbag69
(g85
g71
NtRp1778
(dp1779
g74
(dp1780
sg83
g859
sg76
(lp1781
g69
(g90
g71
NtRp1782
(dp1783
g74
(dp1784
g94
g95
ssg83
g1778
sg76
(lp1785
S'wsgi_url_scheme'
p1786
asbag69
(g90
g71
NtRp1787
(dp1788
g74
(dp1789
g101
g102
ssg83
g1778
sg76
(lp1790
S':'
asbag69
(g90
g71
NtRp1791
(dp1792
g74
(dp1793
sg83
g1778
sg76
(lp1794
g69
(g70
g71
NtRp1795
(dp1796
g74
(dp1797
g82
I4
ssg83
g1791
sg76
(lp1798
S'http'
p1799
asbasbasbag69
(g85
g71
NtRp1800
(dp1801
g74
(dp1802
sg83
g859
sg76
(lp1803
g69
(g90
g71
NtRp1804
(dp1805
g74
(dp1806
g94
g95
ssg83
g1800
sg76
(lp1807
S'wsgi_version'
p1808
asbag69
(g90
g71
NtRp1809
(dp1810
g74
(dp1811
g101
g102
ssg83
g1800
sg76
(lp1812
S':'
asbag69
(g90
g71
NtRp1813
(dp1814
g74
(dp1815
sg83
g1800
sg76
(lp1816
g69
(g70
g71
NtRp1817
(dp1818
g74
(dp1819
g82
I4
ssg83
g1813
sg76
(lp1820
g69
(g78
g71
NtRp1821
(dp1822
g74
(dp1823
g82
I3
ssg83
Nsg76
(lp1824
g69
(g85
g71
NtRp1825
(dp1826
g74
(dp1827
sg83
g1821
sg76
(lp1828
g69
(g90
g71
NtRp1829
(dp1830
g74
(dp1831
sg83
g1825
sg76
(lp1832
g69
(g70
g71
NtRp1833
(dp1834
g74
(dp1835
g82
I3
ssg83
g1829
sg76
(lp1836
S'1'
asbasbasbag69
(g85
g71
NtRp1837
(dp1838
g74
(dp1839
sg83
g1821
sg76
(lp1840
g69
(g90
g71
NtRp1841
(dp1842
g74
(dp1843
sg83
g1837
sg76
(lp1844
g69
(g70
g71
NtRp1845
(dp1846
g74
(dp1847
g82
I3
ssg83
g1841
sg76
(lp1848
S'0'
asbasbasbasbasbasbasbasbasbasbasbag69
(g85
g71
NtRp1849
(dp1850
g74
(dp1851
sg83
g79
sg76
(lp1852
g69
(g90
g71
NtRp1853
(dp1854
g74
(dp1855
g94
g95
ssg83
g1849
sg76
(lp1856
S'extension'
p1857
asbag69
(g90
g71
NtRp1858
(dp1859
g74
(dp1860
g101
g102
ssg83
g1849
sg76
(lp1861
S':'
asbag69
(g90
g71
NtRp1862
(dp1863
g74
(dp1864
sg83
g1849
sg76
(lp1865
g69
(g70
g71
NtRp1866
(dp1867
g74
(dp1868
g82
I5
ssg83
g1862
sg76
(lp1869
S'html'
p1870
asbasbasbag69
(g85
g71
NtRp1871
(dp1872
g74
(dp1873
sg83
g79
sg76
(lp1874
g69
(g90
g71
NtRp1875
(dp1876
g74
(dp1877
g94
g95
ssg83
g1871
sg76
(lp1878
S'folder'
p1879
asbag69
(g90
g71
NtRp1880
(dp1881
g74
(dp1882
g101
g102
ssg83
g1871
sg76
(lp1883
S':'
asbag69
(g90
g71
NtRp1884
(dp1885
g74
(dp1886
sg83
g1871
sg76
(lp1887
g69
(g70
g71
NtRp1888
(dp1889
g74
(dp1890
g82
I5
ssg83
g1884
sg76
(lp1891
S'C:\\xampp\\htdocs\\web2py\\applications\\testumgebung\\'
p1892
asbasbasbag69
(g85
g71
NtRp1893
(dp1894
g74
(dp1895
sg83
g79
sg76
(lp1896
g69
(g90
g71
NtRp1897
(dp1898
g74
(dp1899
g94
g95
ssg83
g1893
sg76
(lp1900
S'function'
p1901
asbag69
(g90
g71
NtRp1902
(dp1903
g74
(dp1904
g101
g102
ssg83
g1893
sg76
(lp1905
S':'
asbag69
(g90
g71
NtRp1906
(dp1907
g74
(dp1908
sg83
g1893
sg76
(lp1909
g69
(g70
g71
NtRp1910
(dp1911
g74
(dp1912
g82
I5
ssg83
g1906
sg76
(lp1913
S'index'
p1914
asbasbasbag69
(g85
g71
NtRp1915
(dp1916
g74
(dp1917
sg83
g79
sg76
(lp1918
g69
(g90
g71
NtRp1919
(dp1920
g74
(dp1921
g94
g95
ssg83
g1915
sg76
(lp1922
S'get_vars'
p1923
asbag69
(g90
g71
NtRp1924
(dp1925
g74
(dp1926
g101
g102
ssg83
g1915
sg76
(lp1927
S':'
asbag69
(g90
g71
NtRp1928
(dp1929
g74
(dp1930
sg83
g1915
sg76
(lp1931
g69
(g70
g71
NtRp1932
(dp1933
g74
(dp1934
g82
I5
ssg83
g1928
sg76
(lp1935
g69
(g78
g71
NtRp1936
(dp1937
g74
(dp1938
g82
I4
ssg83
Nsg76
(lp1939
sbasbasbasbag69
(g85
g71
NtRp1940
(dp1941
g74
(dp1942
sg83
g79
sg76
(lp1943
g69
(g90
g71
NtRp1944
(dp1945
g74
(dp1946
g94
g95
ssg83
g1940
sg76
(lp1947
S'global_settings'
p1948
asbag69
(g90
g71
NtRp1949
(dp1950
g74
(dp1951
g101
g102
ssg83
g1940
sg76
(lp1952
S':'
asbag69
(g90
g71
NtRp1953
(dp1954
g74
(dp1955
sg83
g1940
sg76
(lp1956
g69
(g70
g71
NtRp1957
(dp1958
g74
(dp1959
g82
I5
ssg83
g1953
sg76
(lp1960
g69
(g78
g71
NtRp1961
(dp1962
g74
(dp1963
g82
I4
ssg83
Nsg76
(lp1964
g69
(g85
g71
NtRp1965
(dp1966
g74
(dp1967
sg83
g1961
sg76
(lp1968
g69
(g90
g71
NtRp1969
(dp1970
g74
(dp1971
g94
g95
ssg83
g1965
sg76
(lp1972
g871
asbag69
(g90
g71
NtRp1973
(dp1974
g74
(dp1975
g101
g102
ssg83
g1965
sg76
(lp1976
S':'
asbag69
(g90
g71
NtRp1977
(dp1978
g74
(dp1979
sg83
g1965
sg76
(lp1980
g69
(g70
g71
NtRp1981
(dp1982
g74
(dp1983
g82
I4
ssg83
g1977
sg76
(lp1984
S"set(['C:\\\\xampp\\\\htdocs\\\\web2py\\\\applications\\\\admin\\\\', 'C:\\\\xampp\\\\htdocs\\\\web2py\\\\applications\\\\welcome\\\\', 'C:\\\\xampp\\\\htdocs\\\\web2py\\\\applications\\\\testumgebung\\\\'])"
p1985
asbasbasbag69
(g85
g71
NtRp1986
(dp1987
g74
(dp1988
sg83
g1961
sg76
(lp1989
g69
(g90
g71
NtRp1990
(dp1991
g74
(dp1992
g94
g95
ssg83
g1986
sg76
(lp1993
g893
asbag69
(g90
g71
NtRp1994
(dp1995
g74
(dp1996
g101
g102
ssg83
g1986
sg76
(lp1997
S':'
asbag69
(g90
g71
NtRp1998
(dp1999
g74
(dp2000
sg83
g1986
sg76
(lp2001
g69
(g70
g71
NtRp2002
(dp2003
g74
(dp2004
g82
I4
ssg83
g1998
sg76
(lp2005
g906
asbasbasbag69
(g85
g71
NtRp2006
(dp2007
g74
(dp2008
sg83
g1961
sg76
(lp2009
g69
(g90
g71
NtRp2010
(dp2011
g74
(dp2012
g94
g95
ssg83
g2006
sg76
(lp2013
g915
asbag69
(g90
g71
NtRp2014
(dp2015
g74
(dp2016
g101
g102
ssg83
g2006
sg76
(lp2017
S':'
asbag69
(g90
g71
NtRp2018
(dp2019
g74
(dp2020
sg83
g2006
sg76
(lp2021
g69
(g70
g71
NtRp2022
(dp2023
g74
(dp2024
g82
I4
ssg83
g2018
sg76
(lp2025
g69
(g78
g71
NtRp2026
(dp2027
g74
(dp2028
g82
I3
ssg83
Nsg76
(lp2029
sbasbasbasbag69
(g85
g71
NtRp2030
(dp2031
g74
(dp2032
sg83
g1961
sg76
(lp2033
g69
(g90
g71
NtRp2034
(dp2035
g74
(dp2036
g94
g95
ssg83
g2030
sg76
(lp2037
g940
asbag69
(g90
g71
NtRp2038
(dp2039
g74
(dp2040
g101
g102
ssg83
g2030
sg76
(lp2041
S':'
asbag69
(g90
g71
NtRp2042
(dp2043
g74
(dp2044
sg83
g2030
sg76
(lp2045
g69
(g70
g71
NtRp2046
(dp2047
g74
(dp2048
g82
I4
ssg83
g2042
sg76
(lp2049
S"<Values at 0x2c68e18: {'verbose': False, 'ip': '127.0.0.1', 'with_scheduler': False, 'ips': ['10.0.0.109', '192.168.189.1', '192.168.91.1'], 'shutdown_timeout': 5, 'taskbar': False, 'port': 8000, 'maxthreads': None, 'softcron': False, 'server_name': 'swLaptop', 'bpython': False, 'nogui': False, 'nocron': False, 'extcron': False, 'run_system_tests': False, 'test': None, 'folder': 'C:\\\\xampp\\\\htdocs\\\\web2py', 'config': '', 'import_models': False, 'winservice': '', 'shell': None, 'run': '', 'log_filename': 'httpserver.log', 'debuglevel': 30, 'args': [''], 'socket_timeout': 5, 'ssl_ca_certificate': None, 'scheduler': None, 'profiler_filename': None, 'ssl_private_key': '', 'scheduler_groups': None, 'password': '<ask>', 'request_queue_size': 5, 'ssl_certificate': '', 'cronjob': False, 'numthreads': None, 'quiet': False, 'interfaces': None, 'minthreads': None, 'timeout': 10, 'plain': False, 'nobanner': False, 'pid_filename': 'httpserver.pid'}>"
p2050
asbasbasbag69
(g85
g71
NtRp2051
(dp2052
g74
(dp2053
sg83
g1961
sg76
(lp2054
g69
(g90
g71
NtRp2055
(dp2056
g74
(dp2057
g94
g95
ssg83
g2051
sg76
(lp2058
g962
asbag69
(g90
g71
NtRp2059
(dp2060
g74
(dp2061
g101
g102
ssg83
g2051
sg76
(lp2062
S':'
asbag69
(g90
g71
NtRp2063
(dp2064
g74
(dp2065
sg83
g2051
sg76
(lp2066
g69
(g70
g71
NtRp2067
(dp2068
g74
(dp2069
g82
I4
ssg83
g2063
sg76
(lp2070
S'set([])'
p2071
asbasbasbag69
(g85
g71
NtRp2072
(dp2073
g74
(dp2074
sg83
g1961
sg76
(lp2075
g69
(g90
g71
NtRp2076
(dp2077
g74
(dp2078
g94
g95
ssg83
g2072
sg76
(lp2079
g984
asbag69
(g90
g71
NtRp2080
(dp2081
g74
(dp2082
g101
g102
ssg83
g2072
sg76
(lp2083
S':'
asbag69
(g90
g71
NtRp2084
(dp2085
g74
(dp2086
sg83
g2072
sg76
(lp2087
g69
(g70
g71
NtRp2088
(dp2089
g74
(dp2090
g82
I4
ssg83
g2084
sg76
(lp2091
g112
asbasbasbag69
(g85
g71
NtRp2092
(dp2093
g74
(dp2094
sg83
g1961
sg76
(lp2095
g69
(g90
g71
NtRp2096
(dp2097
g74
(dp2098
g94
g95
ssg83
g2092
sg76
(lp2099
g1005
asbag69
(g90
g71
NtRp2100
(dp2101
g74
(dp2102
g101
g102
ssg83
g2092
sg76
(lp2103
S':'
asbag69
(g90
g71
NtRp2104
(dp2105
g74
(dp2106
sg83
g2092
sg76
(lp2107
g69
(g70
g71
NtRp2108
(dp2109
g74
(dp2110
g82
I4
ssg83
g2104
sg76
(lp2111
g1018
asbasbasbag69
(g85
g71
NtRp2112
(dp2113
g74
(dp2114
sg83
g1961
sg76
(lp2115
g69
(g90
g71
NtRp2116
(dp2117
g74
(dp2118
g94
g95
ssg83
g2112
sg76
(lp2119
g1246
asbag69
(g90
g71
NtRp2120
(dp2121
g74
(dp2122
g101
g102
ssg83
g2112
sg76
(lp2123
S':'
asbag69
(g90
g71
NtRp2124
(dp2125
g74
(dp2126
sg83
g2112
sg76
(lp2127
g69
(g70
g71
NtRp2128
(dp2129
g74
(dp2130
g82
I4
ssg83
g2124
sg76
(lp2131
g112
asbasbasbag69
(g85
g71
NtRp2132
(dp2133
g74
(dp2134
sg83
g1961
sg76
(lp2135
g69
(g90
g71
NtRp2136
(dp2137
g74
(dp2138
g94
g95
ssg83
g2132
sg76
(lp2139
g1267
asbag69
(g90
g71
NtRp2140
(dp2141
g74
(dp2142
g101
g102
ssg83
g2132
sg76
(lp2143
S':'
asbag69
(g90
g71
NtRp2144
(dp2145
g74
(dp2146
sg83
g2132
sg76
(lp2147
g69
(g70
g71
NtRp2148
(dp2149
g74
(dp2150
g82
I4
ssg83
g2144
sg76
(lp2151
g112
asbasbasbag69
(g85
g71
NtRp2152
(dp2153
g74
(dp2154
sg83
g1961
sg76
(lp2155
g69
(g90
g71
NtRp2156
(dp2157
g74
(dp2158
g94
g95
ssg83
g2152
sg76
(lp2159
g1526
asbag69
(g90
g71
NtRp2160
(dp2161
g74
(dp2162
g101
g102
ssg83
g2152
sg76
(lp2163
S':'
asbag69
(g90
g71
NtRp2164
(dp2165
g74
(dp2166
sg83
g2152
sg76
(lp2167
g69
(g70
g71
NtRp2168
(dp2169
g74
(dp2170
g82
I4
ssg83
g2164
sg76
(lp2171
g1539
asbasbasbag69
(g85
g71
NtRp2172
(dp2173
g74
(dp2174
sg83
g1961
sg76
(lp2175
g69
(g90
g71
NtRp2176
(dp2177
g74
(dp2178
g94
g95
ssg83
g2172
sg76
(lp2179
g1569
asbag69
(g90
g71
NtRp2180
(dp2181
g74
(dp2182
g101
g102
ssg83
g2172
sg76
(lp2183
S':'
asbag69
(g90
g71
NtRp2184
(dp2185
g74
(dp2186
sg83
g2172
sg76
(lp2187
g69
(g70
g71
NtRp2188
(dp2189
g74
(dp2190
g82
I4
ssg83
g2184
sg76
(lp2191
g69
(g78
g71
NtRp2192
(dp2193
g74
(dp2194
g82
I3
ssg83
Nsg76
(lp2195
g69
(g85
g71
NtRp2196
(dp2197
g74
(dp2198
sg83
g2192
sg76
(lp2199
g69
(g90
g71
NtRp2200
(dp2201
g74
(dp2202
sg83
g2196
sg76
(lp2203
g69
(g70
g71
NtRp2204
(dp2205
g74
(dp2206
g82
I3
ssg83
g2200
sg76
(lp2207
S'2'
asbasbasbag69
(g85
g71
NtRp2208
(dp2209
g74
(dp2210
sg83
g2192
sg76
(lp2211
g69
(g90
g71
NtRp2212
(dp2213
g74
(dp2214
sg83
g2208
sg76
(lp2215
g69
(g70
g71
NtRp2216
(dp2217
g74
(dp2218
g82
I3
ssg83
g2212
sg76
(lp2219
S'0'
asbasbasbag69
(g85
g71
NtRp2220
(dp2221
g74
(dp2222
sg83
g2192
sg76
(lp2223
g69
(g90
g71
NtRp2224
(dp2225
g74
(dp2226
sg83
g2220
sg76
(lp2227
g69
(g70
g71
NtRp2228
(dp2229
g74
(dp2230
g82
I3
ssg83
g2224
sg76
(lp2231
S'3'
asbasbasbag69
(g85
g71
NtRp2232
(dp2233
g74
(dp2234
sg83
g2192
sg76
(lp2235
g69
(g90
g71
NtRp2236
(dp2237
g74
(dp2238
sg83
g2232
sg76
(lp2239
g69
(g70
g71
NtRp2240
(dp2241
g74
(dp2242
g82
I3
ssg83
g2236
sg76
(lp2243
S'datetime.datetime(2012, 8, 31, 5, 58, 31)'
p2244
asbasbasbag69
(g85
g71
NtRp2245
(dp2246
g74
(dp2247
sg83
g2192
sg76
(lp2248
g69
(g90
g71
NtRp2249
(dp2250
g74
(dp2251
sg83
g2245
sg76
(lp2252
g69
(g70
g71
NtRp2253
(dp2254
g74
(dp2255
g82
I3
ssg83
g2249
sg76
(lp2256
g1647
asbasbasbasbasbasbasbasbasbasbasbag69
(g85
g71
NtRp2257
(dp2258
g74
(dp2259
sg83
g79
sg76
(lp2260
g69
(g90
g71
NtRp2261
(dp2262
g74
(dp2263
g94
g95
ssg83
g2257
sg76
(lp2264
S'is_https'
p2265
asbag69
(g90
g71
NtRp2266
(dp2267
g74
(dp2268
g101
g102
ssg83
g2257
sg76
(lp2269
S':'
asbag69
(g90
g71
NtRp2270
(dp2271
g74
(dp2272
sg83
g2257
sg76
(lp2273
g69
(g70
g71
NtRp2274
(dp2275
g74
(dp2276
g82
I5
ssg83
g2270
sg76
(lp2277
g112
asbasbasbag69
(g85
g71
NtRp2278
(dp2279
g74
(dp2280
sg83
g79
sg76
(lp2281
g69
(g90
g71
NtRp2282
(dp2283
g74
(dp2284
g94
g95
ssg83
g2278
sg76
(lp2285
S'is_local'
p2286
asbag69
(g90
g71
NtRp2287
(dp2288
g74
(dp2289
g101
g102
ssg83
g2278
sg76
(lp2290
S':'
asbag69
(g90
g71
NtRp2291
(dp2292
g74
(dp2293
sg83
g2278
sg76
(lp2294
g69
(g70
g71
NtRp2295
(dp2296
g74
(dp2297
g82
I5
ssg83
g2291
sg76
(lp2298
g1756
asbasbasbag69
(g85
g71
NtRp2299
(dp2300
g74
(dp2301
sg83
g79
sg76
(lp2302
g69
(g90
g71
NtRp2303
(dp2304
g74
(dp2305
g94
g95
ssg83
g2299
sg76
(lp2306
S'is_restful'
p2307
asbag69
(g90
g71
NtRp2308
(dp2309
g74
(dp2310
g101
g102
ssg83
g2299
sg76
(lp2311
S':'
asbag69
(g90
g71
NtRp2312
(dp2313
g74
(dp2314
sg83
g2299
sg76
(lp2315
g69
(g70
g71
NtRp2316
(dp2317
g74
(dp2318
g82
I5
ssg83
g2312
sg76
(lp2319
g112
asbasbasbag69
(g85
g71
NtRp2320
(dp2321
g74
(dp2322
sg83
g79
sg76
(lp2323
g69
(g90
g71
NtRp2324
(dp2325
g74
(dp2326
g94
g95
ssg83
g2320
sg76
(lp2327
S'now'
p2328
asbag69
(g90
g71
NtRp2329
(dp2330
g74
(dp2331
g101
g102
ssg83
g2320
sg76
(lp2332
S':'
asbag69
(g90
g71
NtRp2333
(dp2334
g74
(dp2335
sg83
g2320
sg76
(lp2336
g69
(g70
g71
NtRp2337
(dp2338
g74
(dp2339
g82
I5
ssg83
g2333
sg76
(lp2340
S'datetime.datetime(2012, 12, 14, 15, 24, 15, 255000)'
p2341
asbasbasbag69
(g85
g71
NtRp2342
(dp2343
g74
(dp2344
sg83
g79
sg76
(lp2345
g69
(g90
g71
NtRp2346
(dp2347
g74
(dp2348
g94
g95
ssg83
g2342
sg76
(lp2349
S'post_vars'
p2350
asbag69
(g90
g71
NtRp2351
(dp2352
g74
(dp2353
g101
g102
ssg83
g2342
sg76
(lp2354
S':'
asbag69
(g90
g71
NtRp2355
(dp2356
g74
(dp2357
sg83
g2342
sg76
(lp2358
g69
(g70
g71
NtRp2359
(dp2360
g74
(dp2361
g82
I5
ssg83
g2355
sg76
(lp2362
g69
(g78
g71
NtRp2363
(dp2364
g74
(dp2365
g82
I4
ssg83
Nsg76
(lp2366
sbasbasbasbag69
(g85
g71
NtRp2367
(dp2368
g74
(dp2369
sg83
g79
sg76
(lp2370
g69
(g90
g71
NtRp2371
(dp2372
g74
(dp2373
g94
g95
ssg83
g2367
sg76
(lp2374
S'raw_args'
p2375
asbag69
(g90
g71
NtRp2376
(dp2377
g74
(dp2378
g101
g102
ssg83
g2367
sg76
(lp2379
S':'
asbag69
(g90
g71
NtRp2380
(dp2381
g74
(dp2382
sg83
g2367
sg76
(lp2383
g69
(g70
g71
NtRp2384
(dp2385
g74
(dp2386
g82
I5
ssg83
g2380
sg76
(lp2387
S'None'
p2388
asbasbasbag69
(g85
g71
NtRp2389
(dp2390
g74
(dp2391
sg83
g79
sg76
(lp2392
g69
(g90
g71
NtRp2393
(dp2394
g74
(dp2395
g94
g95
ssg83
g2389
sg76
(lp2396
S'raw_extension'
p2397
asbag69
(g90
g71
NtRp2398
(dp2399
g74
(dp2400
g101
g102
ssg83
g2389
sg76
(lp2401
S':'
asbag69
(g90
g71
NtRp2402
(dp2403
g74
(dp2404
sg83
g2389
sg76
(lp2405
g69
(g70
g71
NtRp2406
(dp2407
g74
(dp2408
g82
I5
ssg83
g2402
sg76
(lp2409
S'None'
p2410
asbasbasbag69
(g85
g71
NtRp2411
(dp2412
g74
(dp2413
sg83
g79
sg76
(lp2414
g69
(g90
g71
NtRp2415
(dp2416
g74
(dp2417
g94
g95
ssg83
g2411
sg76
(lp2418
S'url'
p2419
asbag69
(g90
g71
NtRp2420
(dp2421
g74
(dp2422
g101
g102
ssg83
g2411
sg76
(lp2423
S':'
asbag69
(g90
g71
NtRp2424
(dp2425
g74
(dp2426
sg83
g2411
sg76
(lp2427
g69
(g70
g71
NtRp2428
(dp2429
g74
(dp2430
g82
I5
ssg83
g2424
sg76
(lp2431
S'/testumgebung/default/index'
p2432
asbasbasbag69
(g85
g71
NtRp2433
(dp2434
g74
(dp2435
sg83
g79
sg76
(lp2436
g69
(g90
g71
NtRp2437
(dp2438
g74
(dp2439
g94
g95
ssg83
g2433
sg76
(lp2440
S'utcnow'
p2441
asbag69
(g90
g71
NtRp2442
(dp2443
g74
(dp2444
g101
g102
ssg83
g2433
sg76
(lp2445
S':'
asbag69
(g90
g71
NtRp2446
(dp2447
g74
(dp2448
sg83
g2433
sg76
(lp2449
g69
(g70
g71
NtRp2450
(dp2451
g74
(dp2452
g82
I5
ssg83
g2446
sg76
(lp2453
S'datetime.datetime(2012, 12, 14, 14, 24, 15, 255000)'
p2454
asbasbasbag69
(g85
g71
NtRp2455
(dp2456
g74
(dp2457
sg83
g79
sg76
(lp2458
g69
(g90
g71
NtRp2459
(dp2460
g74
(dp2461
g94
g95
ssg83
g2455
sg76
(lp2462
S'uuid'
p2463
asbag69
(g90
g71
NtRp2464
(dp2465
g74
(dp2466
g101
g102
ssg83
g2455
sg76
(lp2467
S':'
asbag69
(g90
g71
NtRp2468
(dp2469
g74
(dp2470
sg83
g2455
sg76
(lp2471
g69
(g70
g71
NtRp2472
(dp2473
g74
(dp2474
g82
I5
ssg83
g2468
sg76
(lp2475
S'testumgebung/127.0.0.1.2012-12-14.15-24-15.b88e2717-fc5f-4d5f-856c-70e0085ba2f3'
p2476
asbasbasbag69
(g85
g71
NtRp2477
(dp2478
g74
(dp2479
sg83
g79
sg76
(lp2480
g69
(g90
g71
NtRp2481
(dp2482
g74
(dp2483
g94
g95
ssg83
g2477
sg76
(lp2484
S'vars'
p2485
asbag69
(g90
g71
NtRp2486
(dp2487
g74
(dp2488
g101
g102
ssg83
g2477
sg76
(lp2489
S':'
asbag69
(g90
g71
NtRp2490
(dp2491
g74
(dp2492
sg83
g2477
sg76
(lp2493
g69
(g70
g71
NtRp2494
(dp2495
g74
(dp2496
g82
I5
ssg83
g2490
sg76
(lp2497
g69
(g78
g71
NtRp2498
(dp2499
g74
(dp2500
g82
I4
ssg83
Nsg76
(lp2501
sbasbasbasbag69
(g85
g71
NtRp2502
(dp2503
g74
(dp2504
sg83
g79
sg76
(lp2505
g69
(g90
g71
NtRp2506
(dp2507
g74
(dp2508
g94
g95
ssg83
g2502
sg76
(lp2509
S'wsgi'
p2510
asbag69
(g90
g71
NtRp2511
(dp2512
g74
(dp2513
g101
g102
ssg83
g2502
sg76
(lp2514
S':'
asbag69
(g90
g71
NtRp2515
(dp2516
g74
(dp2517
sg83
g2502
sg76
(lp2518
g69
(g70
g71
NtRp2519
(dp2520
g74
(dp2521
g82
I5
ssg83
g2515
sg76
(lp2522
g69
(g78
g71
NtRp2523
(dp2524
g74
(dp2525
g82
I4
ssg83
Nsg76
(lp2526
g69
(g85
g71
NtRp2527
(dp2528
g74
(dp2529
sg83
g2523
sg76
(lp2530
g69
(g90
g71
NtRp2531
(dp2532
g74
(dp2533
g94
g95
ssg83
g2527
sg76
(lp2534
S'environ'
p2535
asbag69
(g90
g71
NtRp2536
(dp2537
g74
(dp2538
g101
g102
ssg83
g2527
sg76
(lp2539
S':'
asbag69
(g90
g71
NtRp2540
(dp2541
g74
(dp2542
sg83
g2527
sg76
(lp2543
g69
(g70
g71
NtRp2544
(dp2545
g74
(dp2546
g82
I4
ssg83
g2540
sg76
(lp2547
g69
(g78
g71
NtRp2548
(dp2549
g74
(dp2550
g82
I3
ssg83
Nsg76
(lp2551
g69
(g85
g71
NtRp2552
(dp2553
g74
(dp2554
sg83
g2548
sg76
(lp2555
g69
(g90
g71
NtRp2556
(dp2557
g74
(dp2558
g94
g95
ssg83
g2552
sg76
(lp2559
S'HTTP_ACCEPT'
p2560
asbag69
(g90
g71
NtRp2561
(dp2562
g74
(dp2563
g101
g102
ssg83
g2552
sg76
(lp2564
S':'
asbag69
(g90
g71
NtRp2565
(dp2566
g74
(dp2567
sg83
g2552
sg76
(lp2568
g69
(g70
g71
NtRp2569
(dp2570
g74
(dp2571
g82
I3
ssg83
g2565
sg76
(lp2572
g1040
asbasbasbag69
(g85
g71
NtRp2573
(dp2574
g74
(dp2575
sg83
g2548
sg76
(lp2576
g69
(g90
g71
NtRp2577
(dp2578
g74
(dp2579
g94
g95
ssg83
g2573
sg76
(lp2580
S'HTTP_ACCEPT_ENCODING'
p2581
asbag69
(g90
g71
NtRp2582
(dp2583
g74
(dp2584
g101
g102
ssg83
g2573
sg76
(lp2585
S':'
asbag69
(g90
g71
NtRp2586
(dp2587
g74
(dp2588
sg83
g2573
sg76
(lp2589
g69
(g70
g71
NtRp2590
(dp2591
g74
(dp2592
g82
I3
ssg83
g2586
sg76
(lp2593
g1062
asbasbasbag69
(g85
g71
NtRp2594
(dp2595
g74
(dp2596
sg83
g2548
sg76
(lp2597
g69
(g90
g71
NtRp2598
(dp2599
g74
(dp2600
g94
g95
ssg83
g2594
sg76
(lp2601
S'HTTP_ACCEPT_LANGUAGE'
p2602
asbag69
(g90
g71
NtRp2603
(dp2604
g74
(dp2605
g101
g102
ssg83
g2594
sg76
(lp2606
S':'
asbag69
(g90
g71
NtRp2607
(dp2608
g74
(dp2609
sg83
g2594
sg76
(lp2610
g69
(g70
g71
NtRp2611
(dp2612
g74
(dp2613
g82
I3
ssg83
g2607
sg76
(lp2614
g1084
asbasbasbag69
(g85
g71
NtRp2615
(dp2616
g74
(dp2617
sg83
g2548
sg76
(lp2618
g69
(g90
g71
NtRp2619
(dp2620
g74
(dp2621
g94
g95
ssg83
g2615
sg76
(lp2622
S'HTTP_CACHE_CONTROL'
p2623
asbag69
(g90
g71
NtRp2624
(dp2625
g74
(dp2626
g101
g102
ssg83
g2615
sg76
(lp2627
S':'
asbag69
(g90
g71
NtRp2628
(dp2629
g74
(dp2630
sg83
g2615
sg76
(lp2631
g69
(g70
g71
NtRp2632
(dp2633
g74
(dp2634
g82
I3
ssg83
g2628
sg76
(lp2635
g1106
asbasbasbag69
(g85
g71
NtRp2636
(dp2637
g74
(dp2638
sg83
g2548
sg76
(lp2639
g69
(g90
g71
NtRp2640
(dp2641
g74
(dp2642
g94
g95
ssg83
g2636
sg76
(lp2643
S'HTTP_CONNECTION'
p2644
asbag69
(g90
g71
NtRp2645
(dp2646
g74
(dp2647
g101
g102
ssg83
g2636
sg76
(lp2648
S':'
asbag69
(g90
g71
NtRp2649
(dp2650
g74
(dp2651
sg83
g2636
sg76
(lp2652
g69
(g70
g71
NtRp2653
(dp2654
g74
(dp2655
g82
I3
ssg83
g2649
sg76
(lp2656
g1128
asbasbasbag69
(g85
g71
NtRp2657
(dp2658
g74
(dp2659
sg83
g2548
sg76
(lp2660
g69
(g90
g71
NtRp2661
(dp2662
g74
(dp2663
g94
g95
ssg83
g2657
sg76
(lp2664
S'HTTP_COOKIE'
p2665
asbag69
(g90
g71
NtRp2666
(dp2667
g74
(dp2668
g101
g102
ssg83
g2657
sg76
(lp2669
S':'
asbag69
(g90
g71
NtRp2670
(dp2671
g74
(dp2672
sg83
g2657
sg76
(lp2673
g69
(g70
g71
NtRp2674
(dp2675
g74
(dp2676
g82
I3
ssg83
g2670
sg76
(lp2677
g1150
asbasbasbag69
(g85
g71
NtRp2678
(dp2679
g74
(dp2680
sg83
g2548
sg76
(lp2681
g69
(g90
g71
NtRp2682
(dp2683
g74
(dp2684
g94
g95
ssg83
g2678
sg76
(lp2685
S'HTTP_DNT'
p2686
asbag69
(g90
g71
NtRp2687
(dp2688
g74
(dp2689
g101
g102
ssg83
g2678
sg76
(lp2690
S':'
asbag69
(g90
g71
NtRp2691
(dp2692
g74
(dp2693
sg83
g2678
sg76
(lp2694
g69
(g70
g71
NtRp2695
(dp2696
g74
(dp2697
g82
I3
ssg83
g2691
sg76
(lp2698
S'1'
asbasbasbag69
(g85
g71
NtRp2699
(dp2700
g74
(dp2701
sg83
g2548
sg76
(lp2702
g69
(g90
g71
NtRp2703
(dp2704
g74
(dp2705
g94
g95
ssg83
g2699
sg76
(lp2706
S'HTTP_HOST'
p2707
asbag69
(g90
g71
NtRp2708
(dp2709
g74
(dp2710
g101
g102
ssg83
g2699
sg76
(lp2711
S':'
asbag69
(g90
g71
NtRp2712
(dp2713
g74
(dp2714
sg83
g2699
sg76
(lp2715
g69
(g70
g71
NtRp2716
(dp2717
g74
(dp2718
g82
I3
ssg83
g2712
sg76
(lp2719
g1193
asbasbasbag69
(g85
g71
NtRp2720
(dp2721
g74
(dp2722
sg83
g2548
sg76
(lp2723
g69
(g90
g71
NtRp2724
(dp2725
g74
(dp2726
g94
g95
ssg83
g2720
sg76
(lp2727
S'HTTP_USER_AGENT'
p2728
asbag69
(g90
g71
NtRp2729
(dp2730
g74
(dp2731
g101
g102
ssg83
g2720
sg76
(lp2732
S':'
asbag69
(g90
g71
NtRp2733
(dp2734
g74
(dp2735
sg83
g2720
sg76
(lp2736
g69
(g70
g71
NtRp2737
(dp2738
g74
(dp2739
g82
I3
ssg83
g2733
sg76
(lp2740
g1215
asbasbasbag69
(g85
g71
NtRp2741
(dp2742
g74
(dp2743
sg83
g2548
sg76
(lp2744
g69
(g90
g71
NtRp2745
(dp2746
g74
(dp2747
g94
g95
ssg83
g2741
sg76
(lp2748
S'HTTP_X_CLICKONCESUPPORT'
p2749
asbag69
(g90
g71
NtRp2750
(dp2751
g74
(dp2752
g101
g102
ssg83
g2741
sg76
(lp2753
S':'
asbag69
(g90
g71
NtRp2754
(dp2755
g74
(dp2756
sg83
g2741
sg76
(lp2757
g69
(g70
g71
NtRp2758
(dp2759
g74
(dp2760
g82
I3
ssg83
g2754
sg76
(lp2761
g1237
asbasbasbag69
(g85
g71
NtRp2762
(dp2763
g74
(dp2764
sg83
g2548
sg76
(lp2765
g69
(g90
g71
NtRp2766
(dp2767
g74
(dp2768
g94
g95
ssg83
g2762
sg76
(lp2769
S'PATH_INFO'
p2770
asbag69
(g90
g71
NtRp2771
(dp2772
g74
(dp2773
g101
g102
ssg83
g2762
sg76
(lp2774
S':'
asbag69
(g90
g71
NtRp2775
(dp2776
g74
(dp2777
sg83
g2762
sg76
(lp2778
g69
(g70
g71
NtRp2779
(dp2780
g74
(dp2781
g82
I3
ssg83
g2775
sg76
(lp2782
g1301
asbasbasbag69
(g85
g71
NtRp2783
(dp2784
g74
(dp2785
sg83
g2548
sg76
(lp2786
g69
(g90
g71
NtRp2787
(dp2788
g74
(dp2789
g94
g95
ssg83
g2783
sg76
(lp2790
S'QUERY_STRING'
p2791
asbag69
(g90
g71
NtRp2792
(dp2793
g74
(dp2794
g101
g102
ssg83
g2783
sg76
(lp2795
S':'
asbag69
(g90
g71
NtRp2796
(dp2797
g74
(dp2798
sg83
g2783
sg76
(lp2799
g69
(g70
g71
NtRp2800
(dp2801
g74
(dp2802
g82
I3
ssg83
g2796
sg76
(lp2803
S''
asbasbasbag69
(g85
g71
NtRp2804
(dp2805
g74
(dp2806
sg83
g2548
sg76
(lp2807
g69
(g90
g71
NtRp2808
(dp2809
g74
(dp2810
g94
g95
ssg83
g2804
sg76
(lp2811
S'REMOTE_ADDR'
p2812
asbag69
(g90
g71
NtRp2813
(dp2814
g74
(dp2815
g101
g102
ssg83
g2804
sg76
(lp2816
S':'
asbag69
(g90
g71
NtRp2817
(dp2818
g74
(dp2819
sg83
g2804
sg76
(lp2820
g69
(g70
g71
NtRp2821
(dp2822
g74
(dp2823
g82
I3
ssg83
g2817
sg76
(lp2824
g224
asbasbasbag69
(g85
g71
NtRp2825
(dp2826
g74
(dp2827
sg83
g2548
sg76
(lp2828
g69
(g90
g71
NtRp2829
(dp2830
g74
(dp2831
g94
g95
ssg83
g2825
sg76
(lp2832
S'REMOTE_PORT'
p2833
asbag69
(g90
g71
NtRp2834
(dp2835
g74
(dp2836
g101
g102
ssg83
g2825
sg76
(lp2837
S':'
asbag69
(g90
g71
NtRp2838
(dp2839
g74
(dp2840
sg83
g2825
sg76
(lp2841
g69
(g70
g71
NtRp2842
(dp2843
g74
(dp2844
g82
I3
ssg83
g2838
sg76
(lp2845
g1365
asbasbasbag69
(g85
g71
NtRp2846
(dp2847
g74
(dp2848
sg83
g2548
sg76
(lp2849
g69
(g90
g71
NtRp2850
(dp2851
g74
(dp2852
g94
g95
ssg83
g2846
sg76
(lp2853
S'REQUEST_METHOD'
p2854
asbag69
(g90
g71
NtRp2855
(dp2856
g74
(dp2857
g101
g102
ssg83
g2846
sg76
(lp2858
S':'
asbag69
(g90
g71
NtRp2859
(dp2860
g74
(dp2861
sg83
g2846
sg76
(lp2862
g69
(g70
g71
NtRp2863
(dp2864
g74
(dp2865
g82
I3
ssg83
g2859
sg76
(lp2866
g1387
asbasbasbag69
(g85
g71
NtRp2867
(dp2868
g74
(dp2869
sg83
g2548
sg76
(lp2870
g69
(g90
g71
NtRp2871
(dp2872
g74
(dp2873
g94
g95
ssg83
g2867
sg76
(lp2874
S'REQUEST_URI'
p2875
asbag69
(g90
g71
NtRp2876
(dp2877
g74
(dp2878
g101
g102
ssg83
g2867
sg76
(lp2879
S':'
asbag69
(g90
g71
NtRp2880
(dp2881
g74
(dp2882
sg83
g2867
sg76
(lp2883
g69
(g70
g71
NtRp2884
(dp2885
g74
(dp2886
g82
I3
ssg83
g2880
sg76
(lp2887
g1301
asbasbasbag69
(g85
g71
NtRp2888
(dp2889
g74
(dp2890
sg83
g2548
sg76
(lp2891
g69
(g90
g71
NtRp2892
(dp2893
g74
(dp2894
g94
g95
ssg83
g2888
sg76
(lp2895
S'SCRIPT_NAME'
p2896
asbag69
(g90
g71
NtRp2897
(dp2898
g74
(dp2899
g101
g102
ssg83
g2888
sg76
(lp2900
S':'
asbag69
(g90
g71
NtRp2901
(dp2902
g74
(dp2903
sg83
g2888
sg76
(lp2904
g69
(g70
g71
NtRp2905
(dp2906
g74
(dp2907
g82
I3
ssg83
g2901
sg76
(lp2908
S''
asbasbasbag69
(g85
g71
NtRp2909
(dp2910
g74
(dp2911
sg83
g2548
sg76
(lp2912
g69
(g90
g71
NtRp2913
(dp2914
g74
(dp2915
g94
g95
ssg83
g2909
sg76
(lp2916
S'SERVER_NAME'
p2917
asbag69
(g90
g71
NtRp2918
(dp2919
g74
(dp2920
g101
g102
ssg83
g2909
sg76
(lp2921
S':'
asbag69
(g90
g71
NtRp2922
(dp2923
g74
(dp2924
sg83
g2909
sg76
(lp2925
g69
(g70
g71
NtRp2926
(dp2927
g74
(dp2928
g82
I3
ssg83
g2922
sg76
(lp2929
g1451
asbasbasbag69
(g85
g71
NtRp2930
(dp2931
g74
(dp2932
sg83
g2548
sg76
(lp2933
g69
(g90
g71
NtRp2934
(dp2935
g74
(dp2936
g94
g95
ssg83
g2930
sg76
(lp2937
S'SERVER_PORT'
p2938
asbag69
(g90
g71
NtRp2939
(dp2940
g74
(dp2941
g101
g102
ssg83
g2930
sg76
(lp2942
S':'
asbag69
(g90
g71
NtRp2943
(dp2944
g74
(dp2945
sg83
g2930
sg76
(lp2946
g69
(g70
g71
NtRp2947
(dp2948
g74
(dp2949
g82
I3
ssg83
g2943
sg76
(lp2950
g1473
asbasbasbag69
(g85
g71
NtRp2951
(dp2952
g74
(dp2953
sg83
g2548
sg76
(lp2954
g69
(g90
g71
NtRp2955
(dp2956
g74
(dp2957
g94
g95
ssg83
g2951
sg76
(lp2958
S'SERVER_PROTOCOL'
p2959
asbag69
(g90
g71
NtRp2960
(dp2961
g74
(dp2962
g101
g102
ssg83
g2951
sg76
(lp2963
S':'
asbag69
(g90
g71
NtRp2964
(dp2965
g74
(dp2966
sg83
g2951
sg76
(lp2967
g69
(g70
g71
NtRp2968
(dp2969
g74
(dp2970
g82
I3
ssg83
g2964
sg76
(lp2971
g1495
asbasbasbag69
(g85
g71
NtRp2972
(dp2973
g74
(dp2974
sg83
g2548
sg76
(lp2975
g69
(g90
g71
NtRp2976
(dp2977
g74
(dp2978
g94
g95
ssg83
g2972
sg76
(lp2979
S'SERVER_SOFTWARE'
p2980
asbag69
(g90
g71
NtRp2981
(dp2982
g74
(dp2983
g101
g102
ssg83
g2972
sg76
(lp2984
S':'
asbag69
(g90
g71
NtRp2985
(dp2986
g74
(dp2987
sg83
g2972
sg76
(lp2988
g69
(g70
g71
NtRp2989
(dp2990
g74
(dp2991
g82
I3
ssg83
g2985
sg76
(lp2992
g1517
asbasbasbag69
(g85
g71
NtRp2993
(dp2994
g74
(dp2995
sg83
g2548
sg76
(lp2996
g69
(g90
g71
NtRp2997
(dp2998
g74
(dp2999
g94
g95
ssg83
g2993
sg76
(lp3000
S'wsgi.errors'
p3001
asbag69
(g90
g71
NtRp3002
(dp3003
g74
(dp3004
g101
g102
ssg83
g2993
sg76
(lp3005
S':'
asbag69
(g90
g71
NtRp3006
(dp3007
g74
(dp3008
sg83
g2993
sg76
(lp3009
g69
(g70
g71
NtRp3010
(dp3011
g74
(dp3012
g82
I3
ssg83
g3006
sg76
(lp3013
S"<open file '<stderr>', mode 'w' at 0x021D50D0>"
p3014
asbasbasbag69
(g85
g71
NtRp3015
(dp3016
g74
(dp3017
sg83
g2548
sg76
(lp3018
g69
(g90
g71
NtRp3019
(dp3020
g74
(dp3021
g94
g95
ssg83
g3015
sg76
(lp3022
S'wsgi.file_wrapper'
p3023
asbag69
(g90
g71
NtRp3024
(dp3025
g74
(dp3026
g101
g102
ssg83
g3015
sg76
(lp3027
S':'
asbag69
(g90
g71
NtRp3028
(dp3029
g74
(dp3030
sg83
g3015
sg76
(lp3031
g69
(g70
g71
NtRp3032
(dp3033
g74
(dp3034
g82
I3
ssg83
g3028
sg76
(lp3035
S'<class wsgiref.util.FileWrapper at 0x02C1D030>'
p3036
asbasbasbag69
(g85
g71
NtRp3037
(dp3038
g74
(dp3039
sg83
g2548
sg76
(lp3040
g69
(g90
g71
NtRp3041
(dp3042
g74
(dp3043
g94
g95
ssg83
g3037
sg76
(lp3044
S'wsgi.input'
p3045
asbag69
(g90
g71
NtRp3046
(dp3047
g74
(dp3048
g101
g102
ssg83
g3037
sg76
(lp3049
S':'
asbag69
(g90
g71
NtRp3050
(dp3051
g74
(dp3052
sg83
g3037
sg76
(lp3053
g69
(g70
g71
NtRp3054
(dp3055
g74
(dp3056
g82
I3
ssg83
g3050
sg76
(lp3057
S'<cStringIO.StringO object at 0x02F3A2C0>'
p3058
asbasbasbag69
(g85
g71
NtRp3059
(dp3060
g74
(dp3061
sg83
g2548
sg76
(lp3062
g69
(g90
g71
NtRp3063
(dp3064
g74
(dp3065
g94
g95
ssg83
g3059
sg76
(lp3066
S'wsgi.multiprocess'
p3067
asbag69
(g90
g71
NtRp3068
(dp3069
g74
(dp3070
g101
g102
ssg83
g3059
sg76
(lp3071
S':'
asbag69
(g90
g71
NtRp3072
(dp3073
g74
(dp3074
sg83
g3059
sg76
(lp3075
g69
(g70
g71
NtRp3076
(dp3077
g74
(dp3078
g82
I3
ssg83
g3072
sg76
(lp3079
g112
asbasbasbag69
(g85
g71
NtRp3080
(dp3081
g74
(dp3082
sg83
g2548
sg76
(lp3083
g69
(g90
g71
NtRp3084
(dp3085
g74
(dp3086
g94
g95
ssg83
g3080
sg76
(lp3087
S'wsgi.multithread'
p3088
asbag69
(g90
g71
NtRp3089
(dp3090
g74
(dp3091
g101
g102
ssg83
g3080
sg76
(lp3092
S':'
asbag69
(g90
g71
NtRp3093
(dp3094
g74
(dp3095
sg83
g3080
sg76
(lp3096
g69
(g70
g71
NtRp3097
(dp3098
g74
(dp3099
g82
I3
ssg83
g3093
sg76
(lp3100
g1756
asbasbasbag69
(g85
g71
NtRp3101
(dp3102
g74
(dp3103
sg83
g2548
sg76
(lp3104
g69
(g90
g71
NtRp3105
(dp3106
g74
(dp3107
g94
g95
ssg83
g3101
sg76
(lp3108
S'wsgi.run_once'
p3109
asbag69
(g90
g71
NtRp3110
(dp3111
g74
(dp3112
g101
g102
ssg83
g3101
sg76
(lp3113
S':'
asbag69
(g90
g71
NtRp3114
(dp3115
g74
(dp3116
sg83
g3101
sg76
(lp3117
g69
(g70
g71
NtRp3118
(dp3119
g74
(dp3120
g82
I3
ssg83
g3114
sg76
(lp3121
g112
asbasbasbag69
(g85
g71
NtRp3122
(dp3123
g74
(dp3124
sg83
g2548
sg76
(lp3125
g69
(g90
g71
NtRp3126
(dp3127
g74
(dp3128
g94
g95
ssg83
g3122
sg76
(lp3129
S'wsgi.url_scheme'
p3130
asbag69
(g90
g71
NtRp3131
(dp3132
g74
(dp3133
g101
g102
ssg83
g3122
sg76
(lp3134
S':'
asbag69
(g90
g71
NtRp3135
(dp3136
g74
(dp3137
sg83
g3122
sg76
(lp3138
g69
(g70
g71
NtRp3139
(dp3140
g74
(dp3141
g82
I3
ssg83
g3135
sg76
(lp3142
g1799
asbasbasbag69
(g85
g71
NtRp3143
(dp3144
g74
(dp3145
sg83
g2548
sg76
(lp3146
g69
(g90
g71
NtRp3147
(dp3148
g74
(dp3149
g94
g95
ssg83
g3143
sg76
(lp3150
S'wsgi.version'
p3151
asbag69
(g90
g71
NtRp3152
(dp3153
g74
(dp3154
g101
g102
ssg83
g3143
sg76
(lp3155
S':'
asbag69
(g90
g71
NtRp3156
(dp3157
g74
(dp3158
sg83
g3143
sg76
(lp3159
g69
(g70
g71
NtRp3160
(dp3161
g74
(dp3162
g82
I3
ssg83
g3156
sg76
(lp3163
S'1'
asbasbasbasbasbasbasbasbasbasbasbasbasbsS'frames'
p3164
(lp3165
(dp3166
S'file'
p3167
S'C:\\xampp\\htdocs\\web2py\\gluon\\restricted.py'
p3168
sS'dump'
p3169
(dp3170
sS'lnum'
p3171
I209
sS'lines'
p3172
(dp3173
sS'call'
p3174
S"(code='# -*- coding: utf-8 -*-\\n# this file is released ...=crud())\\n\\nresponse._vars=response._caller(index)\\n', environment={'A': <class 'gluon.html.A'>, 'Auth': <class 'gluon.tools.Auth'>, 'B': <class 'gluon.html.B'>, 'BEAUTIFY': <class 'gluon.html.BEAUTIFY'>, 'BODY': <class 'gluon.html.BODY'>, 'BR': <class 'gluon.html.BR'>, 'BUTTON': <class 'gluon.html.BUTTON'>, 'CAT': <class 'gluon.html.CAT'>, 'CENTER': <class 'gluon.html.CENTER'>, 'CLEANUP': <class 'gluon.validators.CLEANUP'>, ...}, layer=r'C:\\xampp\\htdocs\\web2py\\applications\\testumgebung\\controllers/default.py')"
p3175
sS'func'
p3176
S'restricted'
p3177
sa(dp3178
g3167
S'C:\\xampp\\htdocs\\web2py\\applications\\testumgebung\\controllers\\default.py'
p3179
sg3169
(dp3180
sg3171
I88
sg3172
(dp3181
I77
S'    http://..../[app]/default/data/update/[table]/[id]'
p3182
sI78
S'    http://..../[app]/default/data/delete/[table]/[id]'
p3183
sI79
S'    http://..../[app]/default/data/select/[table]'
p3184
sI80
S'    http://..../[app]/default/data/search/[table]'
p3185
sI81
S'    but URLs must be signed, i.e. linked with'
p3186
sI82
S"      A('table',_href=URL('data/tables',user_signature=True))"
p3187
sI83
S'    or with the signed load operator'
p3188
sI84
S"      LOAD('default','data.load',args='tables',ajax=True,user_signature=True)"
p3189
sI85
S'    """'
p3190
sI86
S'    return dict(form=crud())'
p3191
ssg3174
S'()'
p3192
sg3176
S'<module>'
p3193
sa(dp3194
g3167
S'C:\\xampp\\htdocs\\web2py\\gluon\\globals.py'
p3195
sg3169
(dp3196
sg3171
I185
sg3172
(dp3197
sg3174
S'(f=<function index>)'
p3198
sg3176
S'<lambda>'
p3199
sa(dp3200
g3167
S'C:\\xampp\\htdocs\\web2py\\applications\\testumgebung\\controllers\\default.py'
p3201
sg3169
(dp3202
sg3171
I31
sg3172
(dp3203
I32
S''
sI33
S''
sI34
S"    return dict(message=T('Hello World'), form=form, form2=form2, form3=form3, form4=form4, stars_results=stars_results)"
p3204
sI35
S''
sI26
S''
sI27
S'    form3 = SQLFORM(db.answers_smiley)'
p3205
sI28
S''
sI29
S'    form4 = SQLFORM(db.answers_stars)'
p3206
sI30
S''
sI31
S'    stars_results = db(db.answers_stars > 0).select()'
p3207
ssg3174
S'()'
p3208
sg3176
g1914
sa(dp3209
g3167
S'C:\\xampp\\htdocs\\web2py\\gluon\\dal.py'
p3210
sg3169
(dp3211
sg3171
I8688
sg3172
(dp3212
sg3174
S'(self=<Set 1>, *fields=[], **attributes={})'
p3213
sg3176
S'select'
p3214
sa(dp3215
g3167
S'C:\\xampp\\htdocs\\web2py\\gluon\\dal.py'
p3216
sg3169
(dp3217
sg3171
I2065
sg3172
(dp3218
sg3174
S'(self=<gluon.dal.SQLiteAdapter object>, query=True, fields=[], attributes={})'
p3219
sg3176
g3214
sa(dp3220
g3167
S'C:\\xampp\\htdocs\\web2py\\gluon\\dal.py'
p3221
sg3169
(dp3222
sg3171
I1553
sg3172
(dp3223
sg3174
S'(self=<gluon.dal.SQLiteAdapter object>, query=True, fields=[], attributes={})'
p3224
sg3176
g3214
sa(dp3225
g3167
S'C:\\xampp\\htdocs\\web2py\\gluon\\dal.py'
p3226
sg3169
(dp3227
sg3171
I1422
sg3172
(dp3228
sg3174
S'(self=<gluon.dal.SQLiteAdapter object>, query=True, fields=[], attributes={})'
p3229
sg3176
S'_select'
p3230
sasS'pyver'
p3231
S'Python 2.7: C:\\xampp\\htdocs\\web2py\\web2py.exe'
p3232
sS'session'
p3233
g69
(g70
g71
NtRp3234
(dp3235
g74
(dp3236
sg76
(lp3237
g69
(g78
g71
NtRp3238
(dp3239
g74
(dp3240
g82
I5
ssg83
Nsg76
(lp3241
g69
(g85
g71
NtRp3242
(dp3243
g74
(dp3244
sg83
g3238
sg76
(lp3245
g69
(g90
g71
NtRp3246
(dp3247
g74
(dp3248
g94
g95
ssg83
g3242
sg76
(lp3249
S'auth'
p3250
asbag69
(g90
g71
NtRp3251
(dp3252
g74
(dp3253
g101
g102
ssg83
g3242
sg76
(lp3254
S':'
asbag69
(g90
g71
NtRp3255
(dp3256
g74
(dp3257
sg83
g3242
sg76
(lp3258
g69
(g70
g71
NtRp3259
(dp3260
g74
(dp3261
g82
I5
ssg83
g3255
sg76
(lp3262
S'None'
p3263
asbasbasbag69
(g85
g71
NtRp3264
(dp3265
g74
(dp3266
sg83
g3238
sg76
(lp3267
g69
(g90
g71
NtRp3268
(dp3269
g74
(dp3270
g94
g95
ssg83
g3264
sg76
(lp3271
S'last_orderby'
p3272
asbag69
(g90
g71
NtRp3273
(dp3274
g74
(dp3275
g101
g102
ssg83
g3264
sg76
(lp3276
S':'
asbag69
(g90
g71
NtRp3277
(dp3278
g74
(dp3279
sg83
g3264
sg76
(lp3280
g69
(g70
g71
NtRp3281
(dp3282
g74
(dp3283
g82
I5
ssg83
g3277
sg76
(lp3284
S'None'
p3285
asbasbasbag69
(g85
g71
NtRp3286
(dp3287
g74
(dp3288
sg83
g3238
sg76
(lp3289
g69
(g90
g71
NtRp3290
(dp3291
g74
(dp3292
g94
g95
ssg83
g3286
sg76
(lp3293
S'last_query'
p3294
asbag69
(g90
g71
NtRp3295
(dp3296
g74
(dp3297
g101
g102
ssg83
g3286
sg76
(lp3298
S':'
asbag69
(g90
g71
NtRp3299
(dp3300
g74
(dp3301
sg83
g3286
sg76
(lp3302
g69
(g70
g71
NtRp3303
(dp3304
g74
(dp3305
g82
I5
ssg83
g3299
sg76
(lp3306
S'db.answers_stars.id>0'
p3307
asbasbasbasbasbsS'etype'
p3308
S"<type 'exceptions.SyntaxError'>"
p3309
sS'date'
p3310
S'Fri Dec 14 15:24:15 2012'
p3311
sS'response'
p3312
g69
(g70
g71
NtRp3313
(dp3314
g74
(dp3315
sg76
(lp3316
g69
(g78
g71
NtRp3317
(dp3318
g74
(dp3319
g82
I5
ssg83
Nsg76
(lp3320
g69
(g85
g71
NtRp3321
(dp3322
g74
(dp3323
sg83
g3317
sg76
(lp3324
g69
(g90
g71
NtRp3325
(dp3326
g74
(dp3327
g94
g95
ssg83
g3321
sg76
(lp3328
g167
asbag69
(g90
g71
NtRp3329
(dp3330
g74
(dp3331
g101
g102
ssg83
g3321
sg76
(lp3332
S':'
asbag69
(g90
g71
NtRp3333
(dp3334
g74
(dp3335
sg83
g3321
sg76
(lp3336
g69
(g70
g71
NtRp3337
(dp3338
g74
(dp3339
g82
I5
ssg83
g3333
sg76
(lp3340
S'<cStringIO.StringO object at 0x064442E0>'
p3341
asbasbasbag69
(g85
g71
NtRp3342
(dp3343
g74
(dp3344
sg83
g3317
sg76
(lp3345
g69
(g90
g71
NtRp3346
(dp3347
g74
(dp3348
g94
g95
ssg83
g3342
sg76
(lp3349
g255
asbag69
(g90
g71
NtRp3350
(dp3351
g74
(dp3352
g101
g102
ssg83
g3342
sg76
(lp3353
S':'
asbag69
(g90
g71
NtRp3354
(dp3355
g74
(dp3356
sg83
g3342
sg76
(lp3357
g69
(g70
g71
NtRp3358
(dp3359
g74
(dp3360
g82
I5
ssg83
g3354
sg76
(lp3361
g69
(g78
g71
NtRp3362
(dp3363
g74
(dp3364
g82
I4
ssg83
Nsg76
(lp3365
g69
(g85
g71
NtRp3366
(dp3367
g74
(dp3368
sg83
g3362
sg76
(lp3369
g69
(g90
g71
NtRp3370
(dp3371
g74
(dp3372
g94
g95
ssg83
g3366
sg76
(lp3373
S'session_id_testumgebung'
p3374
asbag69
(g90
g71
NtRp3375
(dp3376
g74
(dp3377
g101
g102
ssg83
g3366
sg76
(lp3378
S':'
asbag69
(g90
g71
NtRp3379
(dp3380
g74
(dp3381
sg83
g3366
sg76
(lp3382
g69
(g70
g71
NtRp3383
(dp3384
g74
(dp3385
g82
I4
ssg83
g3379
sg76
(lp3386
g487
ag69
(g78
g71
NtRp3387
(dp3388
g74
(dp3389
g82
I3
ssg83
Nsg76
(lp3390
g69
(g85
g71
NtRp3391
(dp3392
g74
(dp3393
sg83
g3387
sg76
(lp3394
g69
(g90
g71
NtRp3395
(dp3396
g74
(dp3397
g94
g95
ssg83
g3391
sg76
(lp3398
g306
asbag69
(g90
g71
NtRp3399
(dp3400
g74
(dp3401
g101
g102
ssg83
g3391
sg76
(lp3402
S':'
asbag69
(g90
g71
NtRp3403
(dp3404
g74
(dp3405
sg83
g3391
sg76
(lp3406
g69
(g70
g71
NtRp3407
(dp3408
g74
(dp3409
g82
I3
ssg83
g3403
sg76
(lp3410
S''
asbasbasbag69
(g85
g71
NtRp3411
(dp3412
g74
(dp3413
sg83
g3387
sg76
(lp3414
g69
(g90
g71
NtRp3415
(dp3416
g74
(dp3417
g94
g95
ssg83
g3411
sg76
(lp3418
g327
asbag69
(g90
g71
NtRp3419
(dp3420
g74
(dp3421
g101
g102
ssg83
g3411
sg76
(lp3422
S':'
asbag69
(g90
g71
NtRp3423
(dp3424
g74
(dp3425
sg83
g3411
sg76
(lp3426
g69
(g70
g71
NtRp3427
(dp3428
g74
(dp3429
g82
I3
ssg83
g3423
sg76
(lp3430
S''
asbasbasbag69
(g85
g71
NtRp3431
(dp3432
g74
(dp3433
sg83
g3387
sg76
(lp3434
g69
(g90
g71
NtRp3435
(dp3436
g74
(dp3437
g94
g95
ssg83
g3431
sg76
(lp3438
g348
asbag69
(g90
g71
NtRp3439
(dp3440
g74
(dp3441
g101
g102
ssg83
g3431
sg76
(lp3442
S':'
asbag69
(g90
g71
NtRp3443
(dp3444
g74
(dp3445
sg83
g3431
sg76
(lp3446
g69
(g70
g71
NtRp3447
(dp3448
g74
(dp3449
g82
I3
ssg83
g3443
sg76
(lp3450
S''
asbasbasbag69
(g85
g71
NtRp3451
(dp3452
g74
(dp3453
sg83
g3387
sg76
(lp3454
g69
(g90
g71
NtRp3455
(dp3456
g74
(dp3457
g94
g95
ssg83
g3451
sg76
(lp3458
g369
asbag69
(g90
g71
NtRp3459
(dp3460
g74
(dp3461
g101
g102
ssg83
g3451
sg76
(lp3462
S':'
asbag69
(g90
g71
NtRp3463
(dp3464
g74
(dp3465
sg83
g3451
sg76
(lp3466
g69
(g70
g71
NtRp3467
(dp3468
g74
(dp3469
g82
I3
ssg83
g3463
sg76
(lp3470
S''
asbasbasbag69
(g85
g71
NtRp3471
(dp3472
g74
(dp3473
sg83
g3387
sg76
(lp3474
g69
(g90
g71
NtRp3475
(dp3476
g74
(dp3477
g94
g95
ssg83
g3471
sg76
(lp3478
g390
asbag69
(g90
g71
NtRp3479
(dp3480
g74
(dp3481
g101
g102
ssg83
g3471
sg76
(lp3482
S':'
asbag69
(g90
g71
NtRp3483
(dp3484
g74
(dp3485
sg83
g3471
sg76
(lp3486
g69
(g70
g71
NtRp3487
(dp3488
g74
(dp3489
g82
I3
ssg83
g3483
sg76
(lp3490
S''
asbasbasbag69
(g85
g71
NtRp3491
(dp3492
g74
(dp3493
sg83
g3387
sg76
(lp3494
g69
(g90
g71
NtRp3495
(dp3496
g74
(dp3497
g94
g95
ssg83
g3491
sg76
(lp3498
g411
asbag69
(g90
g71
NtRp3499
(dp3500
g74
(dp3501
g101
g102
ssg83
g3491
sg76
(lp3502
S':'
asbag69
(g90
g71
NtRp3503
(dp3504
g74
(dp3505
sg83
g3491
sg76
(lp3506
g69
(g70
g71
NtRp3507
(dp3508
g74
(dp3509
g82
I3
ssg83
g3503
sg76
(lp3510
S'/'
asbasbasbag69
(g85
g71
NtRp3511
(dp3512
g74
(dp3513
sg83
g3387
sg76
(lp3514
g69
(g90
g71
NtRp3515
(dp3516
g74
(dp3517
g94
g95
ssg83
g3511
sg76
(lp3518
g432
asbag69
(g90
g71
NtRp3519
(dp3520
g74
(dp3521
g101
g102
ssg83
g3511
sg76
(lp3522
S':'
asbag69
(g90
g71
NtRp3523
(dp3524
g74
(dp3525
sg83
g3511
sg76
(lp3526
g69
(g70
g71
NtRp3527
(dp3528
g74
(dp3529
g82
I3
ssg83
g3523
sg76
(lp3530
S''
asbasbasbag69
(g85
g71
NtRp3531
(dp3532
g74
(dp3533
sg83
g3387
sg76
(lp3534
g69
(g90
g71
NtRp3535
(dp3536
g74
(dp3537
g94
g95
ssg83
g3531
sg76
(lp3538
g453
asbag69
(g90
g71
NtRp3539
(dp3540
g74
(dp3541
g101
g102
ssg83
g3531
sg76
(lp3542
S':'
asbag69
(g90
g71
NtRp3543
(dp3544
g74
(dp3545
sg83
g3531
sg76
(lp3546
g69
(g70
g71
NtRp3547
(dp3548
g74
(dp3549
g82
I3
ssg83
g3543
sg76
(lp3550
S''
asbasbasbasbasbasbasbasbasbasbasbag69
(g85
g71
NtRp3551
(dp3552
g74
(dp3553
sg83
g3317
sg76
(lp3554
g69
(g90
g71
NtRp3555
(dp3556
g74
(dp3557
g94
g95
ssg83
g3551
sg76
(lp3558
S'delimiters'
p3559
asbag69
(g90
g71
NtRp3560
(dp3561
g74
(dp3562
g101
g102
ssg83
g3551
sg76
(lp3563
S':'
asbag69
(g90
g71
NtRp3564
(dp3565
g74
(dp3566
sg83
g3551
sg76
(lp3567
g69
(g70
g71
NtRp3568
(dp3569
g74
(dp3570
g82
I5
ssg83
g3564
sg76
(lp3571
g69
(g78
g71
NtRp3572
(dp3573
g74
(dp3574
g82
I4
ssg83
Nsg76
(lp3575
g69
(g85
g71
NtRp3576
(dp3577
g74
(dp3578
sg83
g3572
sg76
(lp3579
g69
(g90
g71
NtRp3580
(dp3581
g74
(dp3582
sg83
g3576
sg76
(lp3583
g69
(g70
g71
NtRp3584
(dp3585
g74
(dp3586
g82
I4
ssg83
g3580
sg76
(lp3587
S'{{'
p3588
asbasbasbag69
(g85
g71
NtRp3589
(dp3590
g74
(dp3591
sg83
g3572
sg76
(lp3592
g69
(g90
g71
NtRp3593
(dp3594
g74
(dp3595
sg83
g3589
sg76
(lp3596
g69
(g70
g71
NtRp3597
(dp3598
g74
(dp3599
g82
I4
ssg83
g3593
sg76
(lp3600
S'}}'
p3601
asbasbasbasbasbasbasbag69
(g85
g71
NtRp3602
(dp3603
g74
(dp3604
sg83
g3317
sg76
(lp3605
g69
(g90
g71
NtRp3606
(dp3607
g74
(dp3608
g94
g95
ssg83
g3602
sg76
(lp3609
S'files'
p3610
asbag69
(g90
g71
NtRp3611
(dp3612
g74
(dp3613
g101
g102
ssg83
g3602
sg76
(lp3614
S':'
asbag69
(g90
g71
NtRp3615
(dp3616
g74
(dp3617
sg83
g3602
sg76
(lp3618
g69
(g70
g71
NtRp3619
(dp3620
g74
(dp3621
g82
I5
ssg83
g3615
sg76
(lp3622
g69
(g78
g71
NtRp3623
(dp3624
g74
(dp3625
g82
I4
ssg83
Nsg76
(lp3626
g69
(g85
g71
NtRp3627
(dp3628
g74
(dp3629
sg83
g3623
sg76
(lp3630
g69
(g90
g71
NtRp3631
(dp3632
g74
(dp3633
sg83
g3627
sg76
(lp3634
g69
(g70
g71
NtRp3635
(dp3636
g74
(dp3637
g82
I4
ssg83
g3631
sg76
(lp3638
S'/testumgebung/static/plugin_rating_widget/rating_widget.css'
p3639
asbasbasbag69
(g85
g71
NtRp3640
(dp3641
g74
(dp3642
sg83
g3623
sg76
(lp3643
g69
(g90
g71
NtRp3644
(dp3645
g74
(dp3646
sg83
g3640
sg76
(lp3647
g69
(g70
g71
NtRp3648
(dp3649
g74
(dp3650
g82
I4
ssg83
g3644
sg76
(lp3651
S'/testumgebung/static/plugin_rating_widget/jquery.rating.pack.js'
p3652
asbasbasbag69
(g85
g71
NtRp3653
(dp3654
g74
(dp3655
sg83
g3623
sg76
(lp3656
g69
(g90
g71
NtRp3657
(dp3658
g74
(dp3659
sg83
g3653
sg76
(lp3660
g69
(g70
g71
NtRp3661
(dp3662
g74
(dp3663
g82
I4
ssg83
g3657
sg76
(lp3664
S'/testumgebung/static/plugin_kibit_widgets/kibit_widgets.css'
p3665
asbasbasbag69
(g85
g71
NtRp3666
(dp3667
g74
(dp3668
sg83
g3623
sg76
(lp3669
g69
(g90
g71
NtRp3670
(dp3671
g74
(dp3672
sg83
g3666
sg76
(lp3673
g69
(g70
g71
NtRp3674
(dp3675
g74
(dp3676
g82
I4
ssg83
g3670
sg76
(lp3677
S'/testumgebung/static/plugin_kibit_widgets/jquery.kibit_widgets.js'
p3678
asbasbasbasbasbasbasbag69
(g85
g71
NtRp3679
(dp3680
g74
(dp3681
sg83
g3317
sg76
(lp3682
g69
(g90
g71
NtRp3683
(dp3684
g74
(dp3685
g94
g95
ssg83
g3679
sg76
(lp3686
S'flash'
p3687
asbag69
(g90
g71
NtRp3688
(dp3689
g74
(dp3690
g101
g102
ssg83
g3679
sg76
(lp3691
S':'
asbag69
(g90
g71
NtRp3692
(dp3693
g74
(dp3694
sg83
g3679
sg76
(lp3695
g69
(g70
g71
NtRp3696
(dp3697
g74
(dp3698
g82
I5
ssg83
g3692
sg76
(lp3699
S''
asbasbasbag69
(g85
g71
NtRp3700
(dp3701
g74
(dp3702
sg83
g3317
sg76
(lp3703
g69
(g90
g71
NtRp3704
(dp3705
g74
(dp3706
g94
g95
ssg83
g3700
sg76
(lp3707
S'generic_patterns'
p3708
asbag69
(g90
g71
NtRp3709
(dp3710
g74
(dp3711
g101
g102
ssg83
g3700
sg76
(lp3712
S':'
asbag69
(g90
g71
NtRp3713
(dp3714
g74
(dp3715
sg83
g3700
sg76
(lp3716
g69
(g70
g71
NtRp3717
(dp3718
g74
(dp3719
g82
I5
ssg83
g3713
sg76
(lp3720
g69
(g78
g71
NtRp3721
(dp3722
g74
(dp3723
g82
I4
ssg83
Nsg76
(lp3724
g69
(g85
g71
NtRp3725
(dp3726
g74
(dp3727
sg83
g3721
sg76
(lp3728
g69
(g90
g71
NtRp3729
(dp3730
g74
(dp3731
sg83
g3725
sg76
(lp3732
g69
(g70
g71
NtRp3733
(dp3734
g74
(dp3735
g82
I4
ssg83
g3729
sg76
(lp3736
S'*'
asbasbasbasbasbasbasbag69
(g85
g71
NtRp3737
(dp3738
g74
(dp3739
sg83
g3317
sg76
(lp3740
g69
(g90
g71
NtRp3741
(dp3742
g74
(dp3743
g94
g95
ssg83
g3737
sg76
(lp3744
S'google_analytics_id'
p3745
asbag69
(g90
g71
NtRp3746
(dp3747
g74
(dp3748
g101
g102
ssg83
g3737
sg76
(lp3749
S':'
asbag69
(g90
g71
NtRp3750
(dp3751
g74
(dp3752
sg83
g3737
sg76
(lp3753
g69
(g70
g71
NtRp3754
(dp3755
g74
(dp3756
g82
I5
ssg83
g3750
sg76
(lp3757
S'None'
p3758
asbasbasbag69
(g85
g71
NtRp3759
(dp3760
g74
(dp3761
sg83
g3317
sg76
(lp3762
g69
(g90
g71
NtRp3763
(dp3764
g74
(dp3765
g94
g95
ssg83
g3759
sg76
(lp3766
S'headers'
p3767
asbag69
(g90
g71
NtRp3768
(dp3769
g74
(dp3770
g101
g102
ssg83
g3759
sg76
(lp3771
S':'
asbag69
(g90
g71
NtRp3772
(dp3773
g74
(dp3774
sg83
g3759
sg76
(lp3775
g69
(g70
g71
NtRp3776
(dp3777
g74
(dp3778
g82
I5
ssg83
g3772
sg76
(lp3779
g69
(g78
g71
NtRp3780
(dp3781
g74
(dp3782
g82
I4
ssg83
Nsg76
(lp3783
g69
(g85
g71
NtRp3784
(dp3785
g74
(dp3786
sg83
g3780
sg76
(lp3787
g69
(g90
g71
NtRp3788
(dp3789
g74
(dp3790
g94
g95
ssg83
g3784
sg76
(lp3791
S'Cache-Control'
p3792
asbag69
(g90
g71
NtRp3793
(dp3794
g74
(dp3795
g101
g102
ssg83
g3784
sg76
(lp3796
S':'
asbag69
(g90
g71
NtRp3797
(dp3798
g74
(dp3799
sg83
g3784
sg76
(lp3800
g69
(g70
g71
NtRp3801
(dp3802
g74
(dp3803
g82
I4
ssg83
g3797
sg76
(lp3804
S'no-store, no-cache, must-revalidate, post-check=0, pre-check=0'
p3805
asbasbasbag69
(g85
g71
NtRp3806
(dp3807
g74
(dp3808
sg83
g3780
sg76
(lp3809
g69
(g90
g71
NtRp3810
(dp3811
g74
(dp3812
g94
g95
ssg83
g3806
sg76
(lp3813
S'Content-Type'
p3814
asbag69
(g90
g71
NtRp3815
(dp3816
g74
(dp3817
g101
g102
ssg83
g3806
sg76
(lp3818
S':'
asbag69
(g90
g71
NtRp3819
(dp3820
g74
(dp3821
sg83
g3806
sg76
(lp3822
g69
(g70
g71
NtRp3823
(dp3824
g74
(dp3825
g82
I4
ssg83
g3819
sg76
(lp3826
S'text/html; charset=utf-8'
p3827
asbasbasbag69
(g85
g71
NtRp3828
(dp3829
g74
(dp3830
sg83
g3780
sg76
(lp3831
g69
(g90
g71
NtRp3832
(dp3833
g74
(dp3834
g94
g95
ssg83
g3828
sg76
(lp3835
S'Expires'
p3836
asbag69
(g90
g71
NtRp3837
(dp3838
g74
(dp3839
g101
g102
ssg83
g3828
sg76
(lp3840
S':'
asbag69
(g90
g71
NtRp3841
(dp3842
g74
(dp3843
sg83
g3828
sg76
(lp3844
g69
(g70
g71
NtRp3845
(dp3846
g74
(dp3847
g82
I4
ssg83
g3841
sg76
(lp3848
S'Fri, 14 Dec 2012 14:24:15 GMT'
p3849
asbasbasbag69
(g85
g71
NtRp3850
(dp3851
g74
(dp3852
sg83
g3780
sg76
(lp3853
g69
(g90
g71
NtRp3854
(dp3855
g74
(dp3856
g94
g95
ssg83
g3850
sg76
(lp3857
S'Pragma'
p3858
asbag69
(g90
g71
NtRp3859
(dp3860
g74
(dp3861
g101
g102
ssg83
g3850
sg76
(lp3862
S':'
asbag69
(g90
g71
NtRp3863
(dp3864
g74
(dp3865
sg83
g3850
sg76
(lp3866
g69
(g70
g71
NtRp3867
(dp3868
g74
(dp3869
g82
I4
ssg83
g3863
sg76
(lp3870
S'no-cache'
p3871
asbasbasbag69
(g85
g71
NtRp3872
(dp3873
g74
(dp3874
sg83
g3780
sg76
(lp3875
g69
(g90
g71
NtRp3876
(dp3877
g74
(dp3878
g94
g95
ssg83
g3872
sg76
(lp3879
S'X-Powered-By'
p3880
asbag69
(g90
g71
NtRp3881
(dp3882
g74
(dp3883
g101
g102
ssg83
g3872
sg76
(lp3884
S':'
asbag69
(g90
g71
NtRp3885
(dp3886
g74
(dp3887
sg83
g3872
sg76
(lp3888
g69
(g70
g71
NtRp3889
(dp3890
g74
(dp3891
g82
I4
ssg83
g3885
sg76
(lp3892
S'web2py'
p3893
asbasbasbasbasbasbasbag69
(g85
g71
NtRp3894
(dp3895
g74
(dp3896
sg83
g3317
sg76
(lp3897
g69
(g90
g71
NtRp3898
(dp3899
g74
(dp3900
g94
g95
ssg83
g3894
sg76
(lp3901
S'menu'
p3902
asbag69
(g90
g71
NtRp3903
(dp3904
g74
(dp3905
g101
g102
ssg83
g3894
sg76
(lp3906
S':'
asbag69
(g90
g71
NtRp3907
(dp3908
g74
(dp3909
sg83
g3894
sg76
(lp3910
g69
(g70
g71
NtRp3911
(dp3912
g74
(dp3913
g82
I5
ssg83
g3907
sg76
(lp3914
g69
(g78
g71
NtRp3915
(dp3916
g74
(dp3917
g82
I4
ssg83
Nsg76
(lp3918
g69
(g85
g71
NtRp3919
(dp3920
g74
(dp3921
sg83
g3915
sg76
(lp3922
g69
(g90
g71
NtRp3923
(dp3924
g74
(dp3925
sg83
g3919
sg76
(lp3926
g69
(g70
g71
NtRp3927
(dp3928
g74
(dp3929
g82
I4
ssg83
g3923
sg76
(lp3930
g69
(g78
g71
NtRp3931
(dp3932
g74
(dp3933
g82
I3
ssg83
Nsg76
(lp3934
g69
(g85
g71
NtRp3935
(dp3936
g74
(dp3937
sg83
g3931
sg76
(lp3938
g69
(g90
g71
NtRp3939
(dp3940
g74
(dp3941
sg83
g3935
sg76
(lp3942
g69
(g70
g71
NtRp3943
(dp3944
g74
(dp3945
g82
I3
ssg83
g3939
sg76
(lp3946
cgluon.languages
lazyT_unpickle
p3947
(S't\x04\x00\x00\x00Home'
tRp3948
asbasbasbag69
(g85
g71
NtRp3949
(dp3950
g74
(dp3951
sg83
g3931
sg76
(lp3952
g69
(g90
g71
NtRp3953
(dp3954
g74
(dp3955
sg83
g3949
sg76
(lp3956
g69
(g70
g71
NtRp3957
(dp3958
g74
(dp3959
g82
I3
ssg83
g3953
sg76
(lp3960
g112
asbasbasbag69
(g85
g71
NtRp3961
(dp3962
g74
(dp3963
sg83
g3931
sg76
(lp3964
g69
(g90
g71
NtRp3965
(dp3966
g74
(dp3967
sg83
g3961
sg76
(lp3968
g69
(g70
g71
NtRp3969
(dp3970
g74
(dp3971
g82
I3
ssg83
g3965
sg76
(lp3972
S'/testumgebung/default/index'
p3973
asbasbasbag69
(g85
g71
NtRp3974
(dp3975
g74
(dp3976
sg83
g3931
sg76
(lp3977
g69
(g90
g71
NtRp3978
(dp3979
g74
(dp3980
sg83
g3974
sg76
(lp3981
g69
(g70
g71
NtRp3982
(dp3983
g74
(dp3984
g82
I3
ssg83
g3978
sg76
(lp3985
g69
(g78
g71
NtRp3986
(dp3987
g74
(dp3988
g82
I2
ssg83
Nsg76
(lp3989
sbasbasbasbasbasbasbasbag69
(g85
g71
NtRp3990
(dp3991
g74
(dp3992
sg83
g3915
sg76
(lp3993
g69
(g90
g71
NtRp3994
(dp3995
g74
(dp3996
sg83
g3990
sg76
(lp3997
g69
(g70
g71
NtRp3998
(dp3999
g74
(dp4000
g82
I4
ssg83
g3994
sg76
(lp4001
g69
(g78
g71
NtRp4002
(dp4003
g74
(dp4004
g82
I3
ssg83
Nsg76
(lp4005
g69
(g85
g71
NtRp4006
(dp4007
g74
(dp4008
sg83
g4002
sg76
(lp4009
g69
(g90
g71
NtRp4010
(dp4011
g74
(dp4012
sg83
g4006
sg76
(lp4013
g69
(g70
g71
NtRp4014
(dp4015
g74
(dp4016
g82
I3
ssg83
g4010
sg76
(lp4017
g69
(cgluon.html
SPAN
p4018
g71
NtRp4019
(dp4020
g74
(dp4021
g94
S'color:yellow'
p4022
ssg83
Nsg76
(lp4023
g3893
asbasbasbasbag69
(g85
g71
NtRp4024
(dp4025
g74
(dp4026
sg83
g4002
sg76
(lp4027
g69
(g90
g71
NtRp4028
(dp4029
g74
(dp4030
sg83
g4024
sg76
(lp4031
g69
(g70
g71
NtRp4032
(dp4033
g74
(dp4034
g82
I3
ssg83
g4028
sg76
(lp4035
g112
asbasbasbag69
(g85
g71
NtRp4036
(dp4037
g74
(dp4038
sg83
g4002
sg76
(lp4039
g69
(g90
g71
NtRp4040
(dp4041
g74
(dp4042
sg83
g4036
sg76
(lp4043
g69
(g70
g71
NtRp4044
(dp4045
g74
(dp4046
g82
I3
ssg83
g4040
sg76
(lp4047
S'http://web2py.com'
p4048
asbasbasbag69
(g85
g71
NtRp4049
(dp4050
g74
(dp4051
sg83
g4002
sg76
(lp4052
g69
(g90
g71
NtRp4053
(dp4054
g74
(dp4055
sg83
g4049
sg76
(lp4056
g69
(g70
g71
NtRp4057
(dp4058
g74
(dp4059
g82
I3
ssg83
g4053
sg76
(lp4060
g69
(g78
g71
NtRp4061
(dp4062
g74
(dp4063
g82
I2
ssg83
Nsg76
(lp4064
g69
(g85
g71
NtRp4065
(dp4066
g74
(dp4067
sg83
g4061
sg76
(lp4068
g69
(g90
g71
NtRp4069
(dp4070
g74
(dp4071
sg83
g4065
sg76
(lp4072
g69
(g70
g71
NtRp4073
(dp4074
g74
(dp4075
g82
I2
ssg83
g4069
sg76
(lp4076
g69
(g78
g71
NtRp4077
(dp4078
g74
(dp4079
g82
I1
ssg83
Nsg76
(lp4080
g69
(g85
g71
NtRp4081
(dp4082
g74
(dp4083
sg83
g4077
sg76
(lp4084
g69
(g90
g71
NtRp4085
(dp4086
g74
(dp4087
sg83
g4081
sg76
(lp4088
g69
(g70
g71
NtRp4089
(dp4090
g74
(dp4091
g82
I1
ssg83
g4085
sg76
(lp4092
g3947
(S's\x08\x00\x00\x00My Sites'
tRp4093
asbasbasbag69
(g85
g71
NtRp4094
(dp4095
g74
(dp4096
sg83
g4077
sg76
(lp4097
g69
(g90
g71
NtRp4098
(dp4099
g74
(dp4100
sg83
g4094
sg76
(lp4101
g69
(g70
g71
NtRp4102
(dp4103
g74
(dp4104
g82
I1
ssg83
g4098
sg76
(lp4105
I00
asbasbasbag69
(g85
g71
NtRp4106
(dp4107
g74
(dp4108
sg83
g4077
sg76
(lp4109
g69
(g90
g71
NtRp4110
(dp4111
g74
(dp4112
sg83
g4106
sg76
(lp4113
g69
(g70
g71
NtRp4114
(dp4115
g74
(dp4116
g82
I1
ssg83
g4110
sg76
(lp4117
S'/admin/default/site'
p4118
asbasbasbasbasbasbasbag69
(g85
g71
NtRp4119
(dp4120
g74
(dp4121
sg83
g4061
sg76
(lp4122
g69
(g90
g71
NtRp4123
(dp4124
g74
(dp4125
sg83
g4119
sg76
(lp4126
g69
(g70
g71
NtRp4127
(dp4128
g74
(dp4129
g82
I2
ssg83
g4123
sg76
(lp4130
g69
(g78
g71
NtRp4131
(dp4132
g74
(dp4133
g82
I1
ssg83
Nsg76
(lp4134
g69
(g85
g71
NtRp4135
(dp4136
g74
(dp4137
sg83
g4131
sg76
(lp4138
g69
(g90
g71
NtRp4139
(dp4140
g74
(dp4141
sg83
g4135
sg76
(lp4142
g69
(g70
g71
NtRp4143
(dp4144
g74
(dp4145
g82
I1
ssg83
g4139
sg76
(lp4146
g3947
(S's\x08\x00\x00\x00This App'
tRp4147
asbasbasbag69
(g85
g71
NtRp4148
(dp4149
g74
(dp4150
sg83
g4131
sg76
(lp4151
g69
(g90
g71
NtRp4152
(dp4153
g74
(dp4154
sg83
g4148
sg76
(lp4155
g69
(g70
g71
NtRp4156
(dp4157
g74
(dp4158
g82
I1
ssg83
g4152
sg76
(lp4159
I00
asbasbasbag69
(g85
g71
NtRp4160
(dp4161
g74
(dp4162
sg83
g4131
sg76
(lp4163
g69
(g90
g71
NtRp4164
(dp4165
g74
(dp4166
sg83
g4160
sg76
(lp4167
g69
(g70
g71
NtRp4168
(dp4169
g74
(dp4170
g82
I1
ssg83
g4164
sg76
(lp4171
S'/admin/default/design/testumgebung'
p4172
asbasbasbag69
(g85
g71
NtRp4173
(dp4174
g74
(dp4175
sg83
g4131
sg76
(lp4176
g69
(g90
g71
NtRp4177
(dp4178
g74
(dp4179
sg83
g4173
sg76
(lp4180
g69
(g70
g71
NtRp4181
(dp4182
g74
(dp4183
g82
I1
ssg83
g4177
sg76
(lp4184
(lp4185
(g3947
(S't\n\x00\x00\x00Controller'
tRp4186
I00
S'/admin/default/edit/testumgebung/controllers/default.py'
tp4187
a(g3947
(S't\x04\x00\x00\x00View'
tRp4188
I00
S'/admin/default/edit/testumgebung/views/default/index.html'
tp4189
a(g3947
(S't\x06\x00\x00\x00Layout'
tRp4190
I00
S'/admin/default/edit/testumgebung/views/layout.html'
tp4191
a(g3947
(S't\n\x00\x00\x00Stylesheet'
tRp4192
I00
S'/admin/default/edit/testumgebung/static/css/web2py.css'
tp4193
a(g3947
(S's\x08\x00\x00\x00DB Model'
tRp4194
I00
S'/admin/default/edit/testumgebung/models/db.py'
tp4195
a(g3947
(S's\n\x00\x00\x00Menu Model'
tRp4196
I00
S'/admin/default/edit/testumgebung/models/menu.py'
tp4197
a(g3947
(S't\x08\x00\x00\x00Database'
tRp4198
I00
S'/testumgebung/appadmin/index'
tp4199
a(g3947
(S't\x06\x00\x00\x00Errors'
tRp4200
I00
S'/admin/default/errors/testumgebung'
tp4201
a(g3947
(S't\x05\x00\x00\x00About'
tRp4202
I00
S'/admin/default/about/testumgebung'
tp4203
aasbasbasbasbasbasbasbag69
(g85
g71
NtRp4204
(dp4205
g74
(dp4206
sg83
g4061
sg76
(lp4207
g69
(g90
g71
NtRp4208
(dp4209
g74
(dp4210
sg83
g4204
sg76
(lp4211
g69
(g70
g71
NtRp4212
(dp4213
g74
(dp4214
g82
I2
ssg83
g4208
sg76
(lp4215
g69
(g78
g71
NtRp4216
(dp4217
g74
(dp4218
g82
I1
ssg83
Nsg76
(lp4219
g69
(g85
g71
NtRp4220
(dp4221
g74
(dp4222
sg83
g4216
sg76
(lp4223
g69
(g90
g71
NtRp4224
(dp4225
g74
(dp4226
sg83
g4220
sg76
(lp4227
g69
(g70
g71
NtRp4228
(dp4229
g74
(dp4230
g82
I1
ssg83
g4224
sg76
(lp4231
S'web2py.com'
p4232
asbasbasbag69
(g85
g71
NtRp4233
(dp4234
g74
(dp4235
sg83
g4216
sg76
(lp4236
g69
(g90
g71
NtRp4237
(dp4238
g74
(dp4239
sg83
g4233
sg76
(lp4240
g69
(g70
g71
NtRp4241
(dp4242
g74
(dp4243
g82
I1
ssg83
g4237
sg76
(lp4244
I00
asbasbasbag69
(g85
g71
NtRp4245
(dp4246
g74
(dp4247
sg83
g4216
sg76
(lp4248
g69
(g90
g71
NtRp4249
(dp4250
g74
(dp4251
sg83
g4245
sg76
(lp4252
g69
(g70
g71
NtRp4253
(dp4254
g74
(dp4255
g82
I1
ssg83
g4249
sg76
(lp4256
S'http://www.web2py.com'
p4257
asbasbasbag69
(g85
g71
NtRp4258
(dp4259
g74
(dp4260
sg83
g4216
sg76
(lp4261
g69
(g90
g71
NtRp4262
(dp4263
g74
(dp4264
sg83
g4258
sg76
(lp4265
g69
(g70
g71
NtRp4266
(dp4267
g74
(dp4268
g82
I1
ssg83
g4262
sg76
(lp4269
(lp4270
(g3947
(S't\x08\x00\x00\x00Download'
tRp4271
I00
S'http://www.web2py.com/examples/default/download'
p4272
tp4273
a(g3947
(S't\x07\x00\x00\x00Support'
tRp4274
I00
S'http://www.web2py.com/examples/default/support'
p4275
tp4276
a(g3947
(S't\x04\x00\x00\x00Demo'
tRp4277
I00
S'http://web2py.com/demo_admin'
p4278
tp4279
a(g3947
(S's\x0e\x00\x00\x00Quick Examples'
tRp4280
I00
S'http://web2py.com/examples/default/examples'
p4281
tp4282
a(g3947
(S't\x03\x00\x00\x00FAQ'
tRp4283
I00
S'http://web2py.com/AlterEgo'
p4284
tp4285
a(g3947
(S't\x06\x00\x00\x00Videos'
tRp4286
I00
S'http://www.web2py.com/examples/default/videos/'
p4287
tp4288
a(g3947
(S's\x11\x00\x00\x00Free Applications'
tRp4289
I00
S'http://web2py.com/appliances'
p4290
tp4291
a(g3947
(S't\x07\x00\x00\x00Plugins'
tRp4292
I00
S'http://web2py.com/plugins'
p4293
tp4294
a(g3947
(S't\x07\x00\x00\x00Layouts'
tRp4295
I00
S'http://web2py.com/layouts'
p4296
tp4297
a(g3947
(S't\x07\x00\x00\x00Recipes'
tRp4298
I00
S'http://web2pyslices.com/'
p4299
tp4300
a(g3947
(S't\x08\x00\x00\x00Semantic'
tRp4301
I00
S'http://web2py.com/semantic'
p4302
tp4303
aasbasbasbasbasbasbasbag69
(g85
g71
NtRp4304
(dp4305
g74
(dp4306
sg83
g4061
sg76
(lp4307
g69
(g90
g71
NtRp4308
(dp4309
g74
(dp4310
sg83
g4304
sg76
(lp4311
g69
(g70
g71
NtRp4312
(dp4313
g74
(dp4314
g82
I2
ssg83
g4308
sg76
(lp4315
g69
(g78
g71
NtRp4316
(dp4317
g74
(dp4318
g82
I1
ssg83
Nsg76
(lp4319
g69
(g85
g71
NtRp4320
(dp4321
g74
(dp4322
sg83
g4316
sg76
(lp4323
g69
(g90
g71
NtRp4324
(dp4325
g74
(dp4326
sg83
g4320
sg76
(lp4327
g69
(g70
g71
NtRp4328
(dp4329
g74
(dp4330
g82
I1
ssg83
g4324
sg76
(lp4331
g3947
(S't\r\x00\x00\x00Documentation'
tRp4332
asbasbasbag69
(g85
g71
NtRp4333
(dp4334
g74
(dp4335
sg83
g4316
sg76
(lp4336
g69
(g90
g71
NtRp4337
(dp4338
g74
(dp4339
sg83
g4333
sg76
(lp4340
g69
(g70
g71
NtRp4341
(dp4342
g74
(dp4343
g82
I1
ssg83
g4337
sg76
(lp4344
I00
asbasbasbag69
(g85
g71
NtRp4345
(dp4346
g74
(dp4347
sg83
g4316
sg76
(lp4348
g69
(g90
g71
NtRp4349
(dp4350
g74
(dp4351
sg83
g4345
sg76
(lp4352
g69
(g70
g71
NtRp4353
(dp4354
g74
(dp4355
g82
I1
ssg83
g4349
sg76
(lp4356
S'http://www.web2py.com/book'
p4357
asbasbasbag69
(g85
g71
NtRp4358
(dp4359
g74
(dp4360
sg83
g4316
sg76
(lp4361
g69
(g90
g71
NtRp4362
(dp4363
g74
(dp4364
sg83
g4358
sg76
(lp4365
g69
(g70
g71
NtRp4366
(dp4367
g74
(dp4368
g82
I1
ssg83
g4362
sg76
(lp4369
(lp4370
(g3947
(S't\x07\x00\x00\x00Preface'
tRp4371
I00
S'http://www.web2py.com/book/default/chapter/00'
p4372
tp4373
a(g3947
(S't\x0c\x00\x00\x00Introduction'
tRp4374
I00
S'http://www.web2py.com/book/default/chapter/01'
p4375
tp4376
a(g3947
(S't\x06\x00\x00\x00Python'
tRp4377
I00
S'http://www.web2py.com/book/default/chapter/02'
p4378
tp4379
a(g3947
(S't\x08\x00\x00\x00Overview'
tRp4380
I00
S'http://www.web2py.com/book/default/chapter/03'
p4381
tp4382
a(g3947
(S's\x08\x00\x00\x00The Core'
tRp4383
I00
S'http://www.web2py.com/book/default/chapter/04'
p4384
tp4385
a(g3947
(S's\t\x00\x00\x00The Views'
tRp4386
I00
S'http://www.web2py.com/book/default/chapter/05'
p4387
tp4388
a(g3947
(S't\x08\x00\x00\x00Database'
tRp4389
I00
S'http://www.web2py.com/book/default/chapter/06'
p4390
tp4391
a(g3947
(S's\x14\x00\x00\x00Forms and Validators'
tRp4392
I00
S'http://www.web2py.com/book/default/chapter/07'
p4393
tp4394
a(g3947
(S's\r\x00\x00\x00Email and SMS'
tRp4395
I00
S'http://www.web2py.com/book/default/chapter/08'
p4396
tp4397
a(g3947
(S's\x0e\x00\x00\x00Access Control'
tRp4398
I00
S'http://www.web2py.com/book/default/chapter/09'
p4399
tp4400
a(g3947
(S't\x08\x00\x00\x00Services'
tRp4401
I00
S'http://www.web2py.com/book/default/chapter/10'
p4402
tp4403
a(g3947
(S's\x0c\x00\x00\x00Ajax Recipes'
tRp4404
I00
S'http://www.web2py.com/book/default/chapter/11'
p4405
tp4406
a(g3947
(S's\x16\x00\x00\x00Components and Plugins'
tRp4407
I00
S'http://www.web2py.com/book/default/chapter/12'
p4408
tp4409
a(g3947
(S's\x12\x00\x00\x00Deployment Recipes'
tRp4410
I00
S'http://www.web2py.com/book/default/chapter/13'
p4411
tp4412
a(g3947
(S's\r\x00\x00\x00Other Recipes'
tRp4413
I00
S'http://www.web2py.com/book/default/chapter/14'
p4414
tp4415
a(g3947
(S's\r\x00\x00\x00Buy this book'
tRp4416
I00
S'http://stores.lulu.com/web2py'
p4417
tp4418
aasbasbasbasbasbasbasbag69
(g85
g71
NtRp4419
(dp4420
g74
(dp4421
sg83
g4061
sg76
(lp4422
g69
(g90
g71
NtRp4423
(dp4424
g74
(dp4425
sg83
g4419
sg76
(lp4426
g69
(g70
g71
NtRp4427
(dp4428
g74
(dp4429
g82
I2
ssg83
g4423
sg76
(lp4430
g69
(g78
g71
NtRp4431
(dp4432
g74
(dp4433
g82
I1
ssg83
Nsg76
(lp4434
g69
(g85
g71
NtRp4435
(dp4436
g74
(dp4437
sg83
g4431
sg76
(lp4438
g69
(g90
g71
NtRp4439
(dp4440
g74
(dp4441
sg83
g4435
sg76
(lp4442
g69
(g70
g71
NtRp4443
(dp4444
g74
(dp4445
g82
I1
ssg83
g4439
sg76
(lp4446
g3947
(S't\t\x00\x00\x00Community'
tRp4447
asbasbasbag69
(g85
g71
NtRp4448
(dp4449
g74
(dp4450
sg83
g4431
sg76
(lp4451
g69
(g90
g71
NtRp4452
(dp4453
g74
(dp4454
sg83
g4448
sg76
(lp4455
g69
(g70
g71
NtRp4456
(dp4457
g74
(dp4458
g82
I1
ssg83
g4452
sg76
(lp4459
I00
asbasbasbag69
(g85
g71
NtRp4460
(dp4461
g74
(dp4462
sg83
g4431
sg76
(lp4463
g69
(g90
g71
NtRp4464
(dp4465
g74
(dp4466
sg83
g4460
sg76
(lp4467
g69
(g70
g71
NtRp4468
(dp4469
g74
(dp4470
g82
I1
ssg83
g4464
sg76
(lp4471
Nasbasbasbag69
(g85
g71
NtRp4472
(dp4473
g74
(dp4474
sg83
g4431
sg76
(lp4475
g69
(g90
g71
NtRp4476
(dp4477
g74
(dp4478
sg83
g4472
sg76
(lp4479
g69
(g70
g71
NtRp4480
(dp4481
g74
(dp4482
g82
I1
ssg83
g4476
sg76
(lp4483
(lp4484
(g3947
(S't\x06\x00\x00\x00Groups'
tRp4485
I00
S'http://www.web2py.com/examples/default/usergroups'
p4486
tp4487
a(g3947
(S't\x07\x00\x00\x00Twitter'
tRp4488
I00
S'http://twitter.com/web2py'
p4489
tp4490
a(g3947
(S's\t\x00\x00\x00Live Chat'
tRp4491
I00
S'http://webchat.freenode.net/?channels=web2py'
p4492
tp4493
aasbasbasbasbasbasbasbag69
(g85
g71
NtRp4494
(dp4495
g74
(dp4496
sg83
g4061
sg76
(lp4497
g69
(g90
g71
NtRp4498
(dp4499
g74
(dp4500
sg83
g4494
sg76
(lp4501
g69
(g70
g71
NtRp4502
(dp4503
g74
(dp4504
g82
I2
ssg83
g4498
sg76
(lp4505
g69
(g78
g71
NtRp4506
(dp4507
g74
(dp4508
g82
I1
ssg83
Nsg76
(lp4509
g69
(g85
g71
NtRp4510
(dp4511
g74
(dp4512
sg83
g4506
sg76
(lp4513
g69
(g90
g71
NtRp4514
(dp4515
g74
(dp4516
sg83
g4510
sg76
(lp4517
g69
(g70
g71
NtRp4518
(dp4519
g74
(dp4520
g82
I1
ssg83
g4514
sg76
(lp4521
g3947
(S't\x07\x00\x00\x00Plugins'
tRp4522
asbasbasbag69
(g85
g71
NtRp4523
(dp4524
g74
(dp4525
sg83
g4506
sg76
(lp4526
g69
(g90
g71
NtRp4527
(dp4528
g74
(dp4529
sg83
g4523
sg76
(lp4530
g69
(g70
g71
NtRp4531
(dp4532
g74
(dp4533
g82
I1
ssg83
g4527
sg76
(lp4534
I00
asbasbasbag69
(g85
g71
NtRp4535
(dp4536
g74
(dp4537
sg83
g4506
sg76
(lp4538
g69
(g90
g71
NtRp4539
(dp4540
g74
(dp4541
sg83
g4535
sg76
(lp4542
g69
(g70
g71
NtRp4543
(dp4544
g74
(dp4545
g82
I1
ssg83
g4539
sg76
(lp4546
Nasbasbasbag69
(g85
g71
NtRp4547
(dp4548
g74
(dp4549
sg83
g4506
sg76
(lp4550
g69
(g90
g71
NtRp4551
(dp4552
g74
(dp4553
sg83
g4547
sg76
(lp4554
g69
(g70
g71
NtRp4555
(dp4556
g74
(dp4557
g82
I1
ssg83
g4551
sg76
(lp4558
(lp4559
(S'plugin_wiki'
p4560
I00
S'http://web2py.com/examples/default/download'
p4561
tp4562
a(g3947
(S's\r\x00\x00\x00Other Plugins'
tRp4563
I00
g4293
tp4564
a(g3947
(S's\x0e\x00\x00\x00Layout Plugins'
tRp4565
I00
g4296
tp4566
aasbasbasbasbasbasbasbasbasbasbasbasbasbasbasbasbasbasbasbag69
(g85
g71
NtRp4567
(dp4568
g74
(dp4569
sg83
g3317
sg76
(lp4570
g69
(g90
g71
NtRp4571
(dp4572
g74
(dp4573
g94
g95
ssg83
g4567
sg76
(lp4574
S'meta'
p4575
asbag69
(g90
g71
NtRp4576
(dp4577
g74
(dp4578
g101
g102
ssg83
g4567
sg76
(lp4579
S':'
asbag69
(g90
g71
NtRp4580
(dp4581
g74
(dp4582
sg83
g4567
sg76
(lp4583
g69
(g70
g71
NtRp4584
(dp4585
g74
(dp4586
g82
I5
ssg83
g4580
sg76
(lp4587
g69
(g78
g71
NtRp4588
(dp4589
g74
(dp4590
g82
I4
ssg83
Nsg76
(lp4591
g69
(g85
g71
NtRp4592
(dp4593
g74
(dp4594
sg83
g4588
sg76
(lp4595
g69
(g90
g71
NtRp4596
(dp4597
g74
(dp4598
g94
g95
ssg83
g4592
sg76
(lp4599
S'author'
p4600
asbag69
(g90
g71
NtRp4601
(dp4602
g74
(dp4603
g101
g102
ssg83
g4592
sg76
(lp4604
S':'
asbag69
(g90
g71
NtRp4605
(dp4606
g74
(dp4607
sg83
g4592
sg76
(lp4608
g69
(g70
g71
NtRp4609
(dp4610
g74
(dp4611
g82
I4
ssg83
g4605
sg76
(lp4612
S'Your Name <you@example.com>'
p4613
asbasbasbag69
(g85
g71
NtRp4614
(dp4615
g74
(dp4616
sg83
g4588
sg76
(lp4617
g69
(g90
g71
NtRp4618
(dp4619
g74
(dp4620
g94
g95
ssg83
g4614
sg76
(lp4621
S'description'
p4622
asbag69
(g90
g71
NtRp4623
(dp4624
g74
(dp4625
g101
g102
ssg83
g4614
sg76
(lp4626
S':'
asbag69
(g90
g71
NtRp4627
(dp4628
g74
(dp4629
sg83
g4614
sg76
(lp4630
g69
(g70
g71
NtRp4631
(dp4632
g74
(dp4633
g82
I4
ssg83
g4627
sg76
(lp4634
S'a cool new app'
p4635
asbasbasbag69
(g85
g71
NtRp4636
(dp4637
g74
(dp4638
sg83
g4588
sg76
(lp4639
g69
(g90
g71
NtRp4640
(dp4641
g74
(dp4642
g94
g95
ssg83
g4636
sg76
(lp4643
S'generator'
p4644
asbag69
(g90
g71
NtRp4645
(dp4646
g74
(dp4647
g101
g102
ssg83
g4636
sg76
(lp4648
S':'
asbag69
(g90
g71
NtRp4649
(dp4650
g74
(dp4651
sg83
g4636
sg76
(lp4652
g69
(g70
g71
NtRp4653
(dp4654
g74
(dp4655
g82
I4
ssg83
g4649
sg76
(lp4656
S'Web2py Web Framework'
p4657
asbasbasbag69
(g85
g71
NtRp4658
(dp4659
g74
(dp4660
sg83
g4588
sg76
(lp4661
g69
(g90
g71
NtRp4662
(dp4663
g74
(dp4664
g94
g95
ssg83
g4658
sg76
(lp4665
S'keywords'
p4666
asbag69
(g90
g71
NtRp4667
(dp4668
g74
(dp4669
g101
g102
ssg83
g4658
sg76
(lp4670
S':'
asbag69
(g90
g71
NtRp4671
(dp4672
g74
(dp4673
sg83
g4658
sg76
(lp4674
g69
(g70
g71
NtRp4675
(dp4676
g74
(dp4677
g82
I4
ssg83
g4671
sg76
(lp4678
S'web2py, python, framework'
p4679
asbasbasbasbasbasbasbag69
(g85
g71
NtRp4680
(dp4681
g74
(dp4682
sg83
g3317
sg76
(lp4683
g69
(g90
g71
NtRp4684
(dp4685
g74
(dp4686
g94
g95
ssg83
g4680
sg76
(lp4687
S'postprocessing'
p4688
asbag69
(g90
g71
NtRp4689
(dp4690
g74
(dp4691
g101
g102
ssg83
g4680
sg76
(lp4692
S':'
asbag69
(g90
g71
NtRp4693
(dp4694
g74
(dp4695
sg83
g4680
sg76
(lp4696
g69
(g70
g71
NtRp4697
(dp4698
g74
(dp4699
g82
I5
ssg83
g4693
sg76
(lp4700
g69
(g78
g71
NtRp4701
(dp4702
g74
(dp4703
g82
I4
ssg83
Nsg76
(lp4704
sbasbasbasbag69
(g85
g71
NtRp4705
(dp4706
g74
(dp4707
sg83
g3317
sg76
(lp4708
g69
(g90
g71
NtRp4709
(dp4710
g74
(dp4711
g94
g95
ssg83
g4705
sg76
(lp4712
S'session_file'
p4713
asbag69
(g90
g71
NtRp4714
(dp4715
g74
(dp4716
g101
g102
ssg83
g4705
sg76
(lp4717
S':'
asbag69
(g90
g71
NtRp4718
(dp4719
g74
(dp4720
sg83
g4705
sg76
(lp4721
g69
(g70
g71
NtRp4722
(dp4723
g74
(dp4724
g82
I5
ssg83
g4718
sg76
(lp4725
S"<open file 'C:\\xampp\\htdocs\\web2py\\applications\\testumgebung\\sessions\\127.0.0.1-0516a7a8-1a9f-40bf-950c-da43d5cea819', mode 'rb+' at 0x02E9AE38>"
p4726
asbasbasbag69
(g85
g71
NtRp4727
(dp4728
g74
(dp4729
sg83
g3317
sg76
(lp4730
g69
(g90
g71
NtRp4731
(dp4732
g74
(dp4733
g94
g95
ssg83
g4727
sg76
(lp4734
S'session_filename'
p4735
asbag69
(g90
g71
NtRp4736
(dp4737
g74
(dp4738
g101
g102
ssg83
g4727
sg76
(lp4739
S':'
asbag69
(g90
g71
NtRp4740
(dp4741
g74
(dp4742
sg83
g4727
sg76
(lp4743
g69
(g70
g71
NtRp4744
(dp4745
g74
(dp4746
g82
I5
ssg83
g4740
sg76
(lp4747
S'C:\\xampp\\htdocs\\web2py\\applications\\testumgebung\\sessions\\127.0.0.1-0516a7a8-1a9f-40bf-950c-da43d5cea819'
p4748
asbasbasbag69
(g85
g71
NtRp4749
(dp4750
g74
(dp4751
sg83
g3317
sg76
(lp4752
g69
(g90
g71
NtRp4753
(dp4754
g74
(dp4755
g94
g95
ssg83
g4749
sg76
(lp4756
S'session_id'
p4757
asbag69
(g90
g71
NtRp4758
(dp4759
g74
(dp4760
g101
g102
ssg83
g4749
sg76
(lp4761
S':'
asbag69
(g90
g71
NtRp4762
(dp4763
g74
(dp4764
sg83
g4749
sg76
(lp4765
g69
(g70
g71
NtRp4766
(dp4767
g74
(dp4768
g82
I5
ssg83
g4762
sg76
(lp4769
g487
asbasbasbag69
(g85
g71
NtRp4770
(dp4771
g74
(dp4772
sg83
g3317
sg76
(lp4773
g69
(g90
g71
NtRp4774
(dp4775
g74
(dp4776
g94
g95
ssg83
g4770
sg76
(lp4777
S'session_id_name'
p4778
asbag69
(g90
g71
NtRp4779
(dp4780
g74
(dp4781
g101
g102
ssg83
g4770
sg76
(lp4782
S':'
asbag69
(g90
g71
NtRp4783
(dp4784
g74
(dp4785
sg83
g4770
sg76
(lp4786
g69
(g70
g71
NtRp4787
(dp4788
g74
(dp4789
g82
I5
ssg83
g4783
sg76
(lp4790
g3374
asbasbasbag69
(g85
g71
NtRp4791
(dp4792
g74
(dp4793
sg83
g3317
sg76
(lp4794
g69
(g90
g71
NtRp4795
(dp4796
g74
(dp4797
g94
g95
ssg83
g4791
sg76
(lp4798
S'session_locked'
p4799
asbag69
(g90
g71
NtRp4800
(dp4801
g74
(dp4802
g101
g102
ssg83
g4791
sg76
(lp4803
S':'
asbag69
(g90
g71
NtRp4804
(dp4805
g74
(dp4806
sg83
g4791
sg76
(lp4807
g69
(g70
g71
NtRp4808
(dp4809
g74
(dp4810
g82
I5
ssg83
g4804
sg76
(lp4811
g1756
asbasbasbag69
(g85
g71
NtRp4812
(dp4813
g74
(dp4814
sg83
g3317
sg76
(lp4815
g69
(g90
g71
NtRp4816
(dp4817
g74
(dp4818
g94
g95
ssg83
g4812
sg76
(lp4819
S'session_new'
p4820
asbag69
(g90
g71
NtRp4821
(dp4822
g74
(dp4823
g101
g102
ssg83
g4812
sg76
(lp4824
S':'
asbag69
(g90
g71
NtRp4825
(dp4826
g74
(dp4827
sg83
g4812
sg76
(lp4828
g69
(g70
g71
NtRp4829
(dp4830
g74
(dp4831
g82
I5
ssg83
g4825
sg76
(lp4832
g112
asbasbasbag69
(g85
g71
NtRp4833
(dp4834
g74
(dp4835
sg83
g3317
sg76
(lp4836
g69
(g90
g71
NtRp4837
(dp4838
g74
(dp4839
g94
g95
ssg83
g4833
sg76
(lp4840
S'status'
p4841
asbag69
(g90
g71
NtRp4842
(dp4843
g74
(dp4844
g101
g102
ssg83
g4833
sg76
(lp4845
S':'
asbag69
(g90
g71
NtRp4846
(dp4847
g74
(dp4848
sg83
g4833
sg76
(lp4849
g69
(g70
g71
NtRp4850
(dp4851
g74
(dp4852
g82
I5
ssg83
g4846
sg76
(lp4853
S'200'
p4854
asbasbasbag69
(g85
g71
NtRp4855
(dp4856
g74
(dp4857
sg83
g3317
sg76
(lp4858
g69
(g90
g71
NtRp4859
(dp4860
g74
(dp4861
g94
g95
ssg83
g4855
sg76
(lp4862
S'subtitle'
p4863
asbag69
(g90
g71
NtRp4864
(dp4865
g74
(dp4866
g101
g102
ssg83
g4855
sg76
(lp4867
S':'
asbag69
(g90
g71
NtRp4868
(dp4869
g74
(dp4870
sg83
g4855
sg76
(lp4871
g69
(g70
g71
NtRp4872
(dp4873
g74
(dp4874
g82
I5
ssg83
g4868
sg76
(lp4875
g3947
(S's\r\x00\x00\x00customize me!'
tRp4876
asbasbasbag69
(g85
g71
NtRp4877
(dp4878
g74
(dp4879
sg83
g3317
sg76
(lp4880
g69
(g90
g71
NtRp4881
(dp4882
g74
(dp4883
g94
g95
ssg83
g4877
sg76
(lp4884
S'title'
p4885
asbag69
(g90
g71
NtRp4886
(dp4887
g74
(dp4888
g101
g102
ssg83
g4877
sg76
(lp4889
S':'
asbag69
(g90
g71
NtRp4890
(dp4891
g74
(dp4892
sg83
g4877
sg76
(lp4893
g69
(g70
g71
NtRp4894
(dp4895
g74
(dp4896
g82
I5
ssg83
g4890
sg76
(lp4897
S'Testumgebung'
p4898
asbasbasbag69
(g85
g71
NtRp4899
(dp4900
g74
(dp4901
sg83
g3317
sg76
(lp4902
g69
(g90
g71
NtRp4903
(dp4904
g74
(dp4905
g94
g95
ssg83
g4899
sg76
(lp4906
S'view'
p4907
asbag69
(g90
g71
NtRp4908
(dp4909
g74
(dp4910
g101
g102
ssg83
g4899
sg76
(lp4911
S':'
asbag69
(g90
g71
NtRp4912
(dp4913
g74
(dp4914
sg83
g4899
sg76
(lp4915
g69
(g70
g71
NtRp4916
(dp4917
g74
(dp4918
g82
I5
ssg83
g4912
sg76
(lp4919
S'default/index.html'
p4920
asbasbasbasbasbsS'locals'
p4921
(dp4922
S'tables'
p4923
S'<bound method SQLiteAdapter.tables of <gluon.dal.SQLiteAdapter object>>'
p4924
sS'fields'
p4925
S'[]'
p4926
sS'self'
p4927
S'<gluon.dal.SQLiteAdapter object>'
p4928
sS'tablenames'
p4929
S'[]'
p4930
sS'query'
p4931
g1756
sg74
g21
sS'args_get'
p4932
S'<built-in method get of dict object>'
p4933
sssS'traceback'
p4934
S'Traceback (most recent call last):\n  File "gluon/restricted.py", line 209, in restricted\n  File "C:\\xampp\\htdocs\\web2py\\applications\\testumgebung\\controllers/default.py", line 88, in <module>\n  File "gluon/globals.py", line 185, in <lambda>\n  File "C:\\xampp\\htdocs\\web2py\\applications\\testumgebung\\controllers/default.py", line 31, in index\n  File "gluon/dal.py", line 8688, in select\n  File "gluon/dal.py", line 2065, in select\n  File "gluon/dal.py", line 1553, in select\n  File "gluon/dal.py", line 1422, in _select\nSyntaxError: Set: no tables selected\n'
p4935
s.