(dp1
S'output'
p2
S"<type 'exceptions.NameError'> global name 'test' is not defined"
p3
sS'layer'
p4
S'C:\\xampp\\htdocs\\web2py\\applications\\testumgebung\\controllers/plugin_feedbacks.py'
p5
sS'code'
p6
S'from gluon.tools import prettydate\nimport datetime\n\nsession.plugin_feedbacks = {"sentFeedback": 0, "time":request.now}\n\ndef feedback():\n    \n    feedback = db.plugin_feedbacks_feedback\n    form = SQLFORM(feedback)\n    \n\n    show_tab = \'\'\n    if form.process(onvalidation=check_plugin_feedbacks_feedback_form).accepted:\n        response.flash = T("Vielen Dank f\xc3\xbcr Ihr Feedback.")\n        session.plugin_feedbacks["sentFeedback"] = 1\n        session.plugin_feedbacks["time"] = request.now\n        if form.vars.feeling == "happy":\n            show_tab = \'happy\'\n        else:\n            show_tab = \'unhappy\'\n        \n    likes = db(db.plugin_feedbacks_feedback.feeling == "happy").select(orderby=~db.plugin_feedbacks_feedback.commentdate)\n    dislikes = db(db.plugin_feedbacks_feedback.feeling == "unhappy").select(orderby=~db.plugin_feedbacks_feedback.commentdate)\n    \n    for likerow in likes:\n        likerow.commentdate = prettydate(likerow.commentdate,T)\n    for dislikerow in dislikes:\n        dislikerow.commentdate = prettydate(dislikerow.commentdate,T)\n    \n    records = db((db.plugin_feedbacks_feedback.senderip == form.vars.senderip) & (db.plugin_feedbacks_feedback.commentdate > test)).select()\n    \n    return dict(form=form, likes=likes, dislikes=dislikes, show_tab=show_tab)\n\ndef check_plugin_feedbacks_feedback_form(form):\n    """\n    pruefen, dass eine IP nicht so oft hintereinander Feedback sendet\n    """\n    # todo: auf 30 Minuten setzen, datetime irgendwie als String formatieren\n    #records = db((db.plugin_feedbacks_feedback.senderip == form.vars.senderip) & (db.plugin_feedbacks_feedback.commentdate > str(datetime.datetime.now() - datetime.timedelta(minutes=15)))).select()\n    \n    \n    \n    if session.plugin_feedbacks["sentFeedback"] == 1 and session.plugin_feedbacks["time"] > (datetime.datetime.now() - datetime.timedelta(minutes=15)):\n        form.errors.message = T(\'Wir freuen uns, dass Sie uns Feedback geben m\xc3\xb6chten. Aus Sicherheitsgr\xc3\xbcnden kann von einer Person nur einmal pro halbe Stunde ein Feedback gegeben werden.\')\nresponse._vars=response._caller(feedback)\n'
p7
sS'snapshot'
p8
(dp9
S'exception'
p10
(dp11
S'__hash__'
p12
S"<method-wrapper '__hash__' of exceptions.NameError object>"
p13
sS'__setattr__'
p14
S"<method-wrapper '__setattr__' of exceptions.NameError object>"
p15
sS'__reduce_ex__'
p16
S'<built-in method __reduce_ex__ of exceptions.NameError object>'
p17
sS'__getslice__'
p18
S"<method-wrapper '__getslice__' of exceptions.NameError object>"
p19
sS'__getitem__'
p20
S"<method-wrapper '__getitem__' of exceptions.NameError object>"
p21
sS'__setstate__'
p22
S'<built-in method __setstate__ of exceptions.NameError object>'
p23
sS'__reduce__'
p24
S'<built-in method __reduce__ of exceptions.NameError object>'
p25
sS'__str__'
p26
S"<method-wrapper '__str__' of exceptions.NameError object>"
p27
sS'__format__'
p28
S'<built-in method __format__ of exceptions.NameError object>'
p29
sS'__getattribute__'
p30
S"<method-wrapper '__getattribute__' of exceptions.NameError object>"
p31
sS'__class__'
p32
S"<type 'exceptions.NameError'>"
p33
sS'__unicode__'
p34
S'<built-in method __unicode__ of exceptions.NameError object>'
p35
sS'__delattr__'
p36
S"<method-wrapper '__delattr__' of exceptions.NameError object>"
p37
sS'__subclasshook__'
p38
S'<built-in method __subclasshook__ of type object>'
p39
sS'__repr__'
p40
S"<method-wrapper '__repr__' of exceptions.NameError object>"
p41
sS'args'
p42
S'("global name \'test\' is not defined",)'
p43
sS'__dict__'
p44
S'{}'
p45
sS'__sizeof__'
p46
S'<built-in method __sizeof__ of exceptions.NameError object>'
p47
sS'__doc__'
p48
S"'Name not found globally.'"
p49
sS'__init__'
p50
S"<method-wrapper '__init__' of exceptions.NameError object>"
p51
sS'__new__'
p52
S'<built-in method __new__ of type object>'
p53
ssS'evalue'
p54
S"global name 'test' is not defined"
p55
sS'request'
p56
ccopy_reg
_reconstructor
p57
(cgluon.html
BEAUTIFY
p58
c__builtin__
object
p59
NtRp60
(dp61
S'attributes'
p62
(dp63
sS'components'
p64
(lp65
g57
(cgluon.html
TABLE
p66
g59
NtRp67
(dp68
g62
(dp69
S'level'
p70
I5
ssS'parent'
p71
Nsg64
(lp72
g57
(cgluon.html
TR
p73
g59
NtRp74
(dp75
g62
(dp76
sg71
g67
sg64
(lp77
g57
(cgluon.html
TD
p78
g59
NtRp79
(dp80
g62
(dp81
S'_style'
p82
S'font-weight:bold;vertical-align:top'
p83
ssg71
g74
sg64
(lp84
S'ajax'
p85
asbag57
(g78
g59
NtRp86
(dp87
g62
(dp88
S'_valign'
p89
S'top'
p90
ssg71
g74
sg64
(lp91
S':'
asbag57
(g78
g59
NtRp92
(dp93
g62
(dp94
sg71
g74
sg64
(lp95
g57
(g58
g59
NtRp96
(dp97
g62
(dp98
g70
I5
ssg71
g92
sg64
(lp99
S'True'
p100
asbasbasbag57
(g73
g59
NtRp101
(dp102
g62
(dp103
sg71
g67
sg64
(lp104
g57
(g78
g59
NtRp105
(dp106
g62
(dp107
g82
g83
ssg71
g101
sg64
(lp108
S'application'
p109
asbag57
(g78
g59
NtRp110
(dp111
g62
(dp112
g89
g90
ssg71
g101
sg64
(lp113
S':'
asbag57
(g78
g59
NtRp114
(dp115
g62
(dp116
sg71
g101
sg64
(lp117
g57
(g58
g59
NtRp118
(dp119
g62
(dp120
g70
I5
ssg71
g114
sg64
(lp121
S'testumgebung'
p122
asbasbasbag57
(g73
g59
NtRp123
(dp124
g62
(dp125
sg71
g67
sg64
(lp126
g57
(g78
g59
NtRp127
(dp128
g62
(dp129
g82
g83
ssg71
g123
sg64
(lp130
g42
asbag57
(g78
g59
NtRp131
(dp132
g62
(dp133
g89
g90
ssg71
g123
sg64
(lp134
S':'
asbag57
(g78
g59
NtRp135
(dp136
g62
(dp137
sg71
g123
sg64
(lp138
g57
(g58
g59
NtRp139
(dp140
g62
(dp141
g70
I5
ssg71
g135
sg64
(lp142
g57
(g66
g59
NtRp143
(dp144
g62
(dp145
g70
I4
ssg71
Nsg64
(lp146
sbasbasbasbag57
(g73
g59
NtRp147
(dp148
g62
(dp149
sg71
g67
sg64
(lp150
g57
(g78
g59
NtRp151
(dp152
g62
(dp153
g82
g83
ssg71
g147
sg64
(lp154
S'body'
p155
asbag57
(g78
g59
NtRp156
(dp157
g62
(dp158
g89
g90
ssg71
g147
sg64
(lp159
S':'
asbag57
(g78
g59
NtRp160
(dp161
g62
(dp162
sg71
g147
sg64
(lp163
g57
(g58
g59
NtRp164
(dp165
g62
(dp166
g70
I5
ssg71
g160
sg64
(lp167
S'<cStringIO.StringO object at 0x080AD8E0>'
p168
asbasbasbag57
(g73
g59
NtRp169
(dp170
g62
(dp171
sg71
g67
sg64
(lp172
g57
(g78
g59
NtRp173
(dp174
g62
(dp175
g82
g83
ssg71
g169
sg64
(lp176
S'cid'
p177
asbag57
(g78
g59
NtRp178
(dp179
g62
(dp180
g89
g90
ssg71
g169
sg64
(lp181
S':'
asbag57
(g78
g59
NtRp182
(dp183
g62
(dp184
sg71
g169
sg64
(lp185
g57
(g58
g59
NtRp186
(dp187
g62
(dp188
g70
I5
ssg71
g182
sg64
(lp189
S'c014348208373'
p190
asbasbasbag57
(g73
g59
NtRp191
(dp192
g62
(dp193
sg71
g67
sg64
(lp194
g57
(g78
g59
NtRp195
(dp196
g62
(dp197
g82
g83
ssg71
g191
sg64
(lp198
S'client'
p199
asbag57
(g78
g59
NtRp200
(dp201
g62
(dp202
g89
g90
ssg71
g191
sg64
(lp203
S':'
asbag57
(g78
g59
NtRp204
(dp205
g62
(dp206
sg71
g191
sg64
(lp207
g57
(g58
g59
NtRp208
(dp209
g62
(dp210
g70
I5
ssg71
g204
sg64
(lp211
S'127.0.0.1'
p212
asbasbasbag57
(g73
g59
NtRp213
(dp214
g62
(dp215
sg71
g67
sg64
(lp216
g57
(g78
g59
NtRp217
(dp218
g62
(dp219
g82
g83
ssg71
g213
sg64
(lp220
S'controller'
p221
asbag57
(g78
g59
NtRp222
(dp223
g62
(dp224
g89
g90
ssg71
g213
sg64
(lp225
S':'
asbag57
(g78
g59
NtRp226
(dp227
g62
(dp228
sg71
g213
sg64
(lp229
g57
(g58
g59
NtRp230
(dp231
g62
(dp232
g70
I5
ssg71
g226
sg64
(lp233
S'plugin_feedbacks'
p234
asbasbasbag57
(g73
g59
NtRp235
(dp236
g62
(dp237
sg71
g67
sg64
(lp238
g57
(g78
g59
NtRp239
(dp240
g62
(dp241
g82
g83
ssg71
g235
sg64
(lp242
S'cookies'
p243
asbag57
(g78
g59
NtRp244
(dp245
g62
(dp246
g89
g90
ssg71
g235
sg64
(lp247
S':'
asbag57
(g78
g59
NtRp248
(dp249
g62
(dp250
sg71
g235
sg64
(lp251
g57
(g58
g59
NtRp252
(dp253
g62
(dp254
g70
I5
ssg71
g248
sg64
(lp255
g57
(g66
g59
NtRp256
(dp257
g62
(dp258
g70
I4
ssg71
Nsg64
(lp259
g57
(g73
g59
NtRp260
(dp261
g62
(dp262
sg71
g256
sg64
(lp263
g57
(g78
g59
NtRp264
(dp265
g62
(dp266
g82
g83
ssg71
g260
sg64
(lp267
S'session_id_admin'
p268
asbag57
(g78
g59
NtRp269
(dp270
g62
(dp271
g89
g90
ssg71
g260
sg64
(lp272
S':'
asbag57
(g78
g59
NtRp273
(dp274
g62
(dp275
sg71
g260
sg64
(lp276
g57
(g58
g59
NtRp277
(dp278
g62
(dp279
g70
I4
ssg71
g273
sg64
(lp280
S'127.0.0.1-75c713f7-cbde-478e-9eb0-8602d2ac1f92'
p281
ag57
(g66
g59
NtRp282
(dp283
g62
(dp284
g70
I3
ssg71
Nsg64
(lp285
g57
(g73
g59
NtRp286
(dp287
g62
(dp288
sg71
g282
sg64
(lp289
g57
(g78
g59
NtRp290
(dp291
g62
(dp292
g82
g83
ssg71
g286
sg64
(lp293
S'comment'
p294
asbag57
(g78
g59
NtRp295
(dp296
g62
(dp297
g89
g90
ssg71
g286
sg64
(lp298
S':'
asbag57
(g78
g59
NtRp299
(dp300
g62
(dp301
sg71
g286
sg64
(lp302
g57
(g58
g59
NtRp303
(dp304
g62
(dp305
g70
I3
ssg71
g299
sg64
(lp306
S''
asbasbasbag57
(g73
g59
NtRp307
(dp308
g62
(dp309
sg71
g282
sg64
(lp310
g57
(g78
g59
NtRp311
(dp312
g62
(dp313
g82
g83
ssg71
g307
sg64
(lp314
S'domain'
p315
asbag57
(g78
g59
NtRp316
(dp317
g62
(dp318
g89
g90
ssg71
g307
sg64
(lp319
S':'
asbag57
(g78
g59
NtRp320
(dp321
g62
(dp322
sg71
g307
sg64
(lp323
g57
(g58
g59
NtRp324
(dp325
g62
(dp326
g70
I3
ssg71
g320
sg64
(lp327
S''
asbasbasbag57
(g73
g59
NtRp328
(dp329
g62
(dp330
sg71
g282
sg64
(lp331
g57
(g78
g59
NtRp332
(dp333
g62
(dp334
g82
g83
ssg71
g328
sg64
(lp335
S'expires'
p336
asbag57
(g78
g59
NtRp337
(dp338
g62
(dp339
g89
g90
ssg71
g328
sg64
(lp340
S':'
asbag57
(g78
g59
NtRp341
(dp342
g62
(dp343
sg71
g328
sg64
(lp344
g57
(g58
g59
NtRp345
(dp346
g62
(dp347
g70
I3
ssg71
g341
sg64
(lp348
S''
asbasbasbag57
(g73
g59
NtRp349
(dp350
g62
(dp351
sg71
g282
sg64
(lp352
g57
(g78
g59
NtRp353
(dp354
g62
(dp355
g82
g83
ssg71
g349
sg64
(lp356
S'httponly'
p357
asbag57
(g78
g59
NtRp358
(dp359
g62
(dp360
g89
g90
ssg71
g349
sg64
(lp361
S':'
asbag57
(g78
g59
NtRp362
(dp363
g62
(dp364
sg71
g349
sg64
(lp365
g57
(g58
g59
NtRp366
(dp367
g62
(dp368
g70
I3
ssg71
g362
sg64
(lp369
S''
asbasbasbag57
(g73
g59
NtRp370
(dp371
g62
(dp372
sg71
g282
sg64
(lp373
g57
(g78
g59
NtRp374
(dp375
g62
(dp376
g82
g83
ssg71
g370
sg64
(lp377
S'max-age'
p378
asbag57
(g78
g59
NtRp379
(dp380
g62
(dp381
g89
g90
ssg71
g370
sg64
(lp382
S':'
asbag57
(g78
g59
NtRp383
(dp384
g62
(dp385
sg71
g370
sg64
(lp386
g57
(g58
g59
NtRp387
(dp388
g62
(dp389
g70
I3
ssg71
g383
sg64
(lp390
S''
asbasbasbag57
(g73
g59
NtRp391
(dp392
g62
(dp393
sg71
g282
sg64
(lp394
g57
(g78
g59
NtRp395
(dp396
g62
(dp397
g82
g83
ssg71
g391
sg64
(lp398
S'path'
p399
asbag57
(g78
g59
NtRp400
(dp401
g62
(dp402
g89
g90
ssg71
g391
sg64
(lp403
S':'
asbag57
(g78
g59
NtRp404
(dp405
g62
(dp406
sg71
g391
sg64
(lp407
g57
(g58
g59
NtRp408
(dp409
g62
(dp410
g70
I3
ssg71
g404
sg64
(lp411
S''
asbasbasbag57
(g73
g59
NtRp412
(dp413
g62
(dp414
sg71
g282
sg64
(lp415
g57
(g78
g59
NtRp416
(dp417
g62
(dp418
g82
g83
ssg71
g412
sg64
(lp419
S'secure'
p420
asbag57
(g78
g59
NtRp421
(dp422
g62
(dp423
g89
g90
ssg71
g412
sg64
(lp424
S':'
asbag57
(g78
g59
NtRp425
(dp426
g62
(dp427
sg71
g412
sg64
(lp428
g57
(g58
g59
NtRp429
(dp430
g62
(dp431
g70
I3
ssg71
g425
sg64
(lp432
S''
asbasbasbag57
(g73
g59
NtRp433
(dp434
g62
(dp435
sg71
g282
sg64
(lp436
g57
(g78
g59
NtRp437
(dp438
g62
(dp439
g82
g83
ssg71
g433
sg64
(lp440
S'version'
p441
asbag57
(g78
g59
NtRp442
(dp443
g62
(dp444
g89
g90
ssg71
g433
sg64
(lp445
S':'
asbag57
(g78
g59
NtRp446
(dp447
g62
(dp448
sg71
g433
sg64
(lp449
g57
(g58
g59
NtRp450
(dp451
g62
(dp452
g70
I3
ssg71
g446
sg64
(lp453
S''
asbasbasbasbasbasbasbag57
(g73
g59
NtRp454
(dp455
g62
(dp456
sg71
g256
sg64
(lp457
g57
(g78
g59
NtRp458
(dp459
g62
(dp460
g82
g83
ssg71
g454
sg64
(lp461
S'session_id_testumgebung'
p462
asbag57
(g78
g59
NtRp463
(dp464
g62
(dp465
g89
g90
ssg71
g454
sg64
(lp466
S':'
asbag57
(g78
g59
NtRp467
(dp468
g62
(dp469
sg71
g454
sg64
(lp470
g57
(g58
g59
NtRp471
(dp472
g62
(dp473
g70
I4
ssg71
g467
sg64
(lp474
S'127.0.0.1-90677836-87e3-4573-bd9a-704b577fb384'
p475
ag57
(g66
g59
NtRp476
(dp477
g62
(dp478
g70
I3
ssg71
Nsg64
(lp479
g57
(g73
g59
NtRp480
(dp481
g62
(dp482
sg71
g476
sg64
(lp483
g57
(g78
g59
NtRp484
(dp485
g62
(dp486
g82
g83
ssg71
g480
sg64
(lp487
g294
asbag57
(g78
g59
NtRp488
(dp489
g62
(dp490
g89
g90
ssg71
g480
sg64
(lp491
S':'
asbag57
(g78
g59
NtRp492
(dp493
g62
(dp494
sg71
g480
sg64
(lp495
g57
(g58
g59
NtRp496
(dp497
g62
(dp498
g70
I3
ssg71
g492
sg64
(lp499
S''
asbasbasbag57
(g73
g59
NtRp500
(dp501
g62
(dp502
sg71
g476
sg64
(lp503
g57
(g78
g59
NtRp504
(dp505
g62
(dp506
g82
g83
ssg71
g500
sg64
(lp507
g315
asbag57
(g78
g59
NtRp508
(dp509
g62
(dp510
g89
g90
ssg71
g500
sg64
(lp511
S':'
asbag57
(g78
g59
NtRp512
(dp513
g62
(dp514
sg71
g500
sg64
(lp515
g57
(g58
g59
NtRp516
(dp517
g62
(dp518
g70
I3
ssg71
g512
sg64
(lp519
S''
asbasbasbag57
(g73
g59
NtRp520
(dp521
g62
(dp522
sg71
g476
sg64
(lp523
g57
(g78
g59
NtRp524
(dp525
g62
(dp526
g82
g83
ssg71
g520
sg64
(lp527
g336
asbag57
(g78
g59
NtRp528
(dp529
g62
(dp530
g89
g90
ssg71
g520
sg64
(lp531
S':'
asbag57
(g78
g59
NtRp532
(dp533
g62
(dp534
sg71
g520
sg64
(lp535
g57
(g58
g59
NtRp536
(dp537
g62
(dp538
g70
I3
ssg71
g532
sg64
(lp539
S''
asbasbasbag57
(g73
g59
NtRp540
(dp541
g62
(dp542
sg71
g476
sg64
(lp543
g57
(g78
g59
NtRp544
(dp545
g62
(dp546
g82
g83
ssg71
g540
sg64
(lp547
g357
asbag57
(g78
g59
NtRp548
(dp549
g62
(dp550
g89
g90
ssg71
g540
sg64
(lp551
S':'
asbag57
(g78
g59
NtRp552
(dp553
g62
(dp554
sg71
g540
sg64
(lp555
g57
(g58
g59
NtRp556
(dp557
g62
(dp558
g70
I3
ssg71
g552
sg64
(lp559
S''
asbasbasbag57
(g73
g59
NtRp560
(dp561
g62
(dp562
sg71
g476
sg64
(lp563
g57
(g78
g59
NtRp564
(dp565
g62
(dp566
g82
g83
ssg71
g560
sg64
(lp567
g378
asbag57
(g78
g59
NtRp568
(dp569
g62
(dp570
g89
g90
ssg71
g560
sg64
(lp571
S':'
asbag57
(g78
g59
NtRp572
(dp573
g62
(dp574
sg71
g560
sg64
(lp575
g57
(g58
g59
NtRp576
(dp577
g62
(dp578
g70
I3
ssg71
g572
sg64
(lp579
S''
asbasbasbag57
(g73
g59
NtRp580
(dp581
g62
(dp582
sg71
g476
sg64
(lp583
g57
(g78
g59
NtRp584
(dp585
g62
(dp586
g82
g83
ssg71
g580
sg64
(lp587
g399
asbag57
(g78
g59
NtRp588
(dp589
g62
(dp590
g89
g90
ssg71
g580
sg64
(lp591
S':'
asbag57
(g78
g59
NtRp592
(dp593
g62
(dp594
sg71
g580
sg64
(lp595
g57
(g58
g59
NtRp596
(dp597
g62
(dp598
g70
I3
ssg71
g592
sg64
(lp599
S''
asbasbasbag57
(g73
g59
NtRp600
(dp601
g62
(dp602
sg71
g476
sg64
(lp603
g57
(g78
g59
NtRp604
(dp605
g62
(dp606
g82
g83
ssg71
g600
sg64
(lp607
g420
asbag57
(g78
g59
NtRp608
(dp609
g62
(dp610
g89
g90
ssg71
g600
sg64
(lp611
S':'
asbag57
(g78
g59
NtRp612
(dp613
g62
(dp614
sg71
g600
sg64
(lp615
g57
(g58
g59
NtRp616
(dp617
g62
(dp618
g70
I3
ssg71
g612
sg64
(lp619
S''
asbasbasbag57
(g73
g59
NtRp620
(dp621
g62
(dp622
sg71
g476
sg64
(lp623
g57
(g78
g59
NtRp624
(dp625
g62
(dp626
g82
g83
ssg71
g620
sg64
(lp627
g441
asbag57
(g78
g59
NtRp628
(dp629
g62
(dp630
g89
g90
ssg71
g620
sg64
(lp631
S':'
asbag57
(g78
g59
NtRp632
(dp633
g62
(dp634
sg71
g620
sg64
(lp635
g57
(g58
g59
NtRp636
(dp637
g62
(dp638
g70
I3
ssg71
g632
sg64
(lp639
S''
asbasbasbasbasbasbasbag57
(g73
g59
NtRp640
(dp641
g62
(dp642
sg71
g256
sg64
(lp643
g57
(g78
g59
NtRp644
(dp645
g62
(dp646
g82
g83
ssg71
g640
sg64
(lp647
S'session_id_welcome'
p648
asbag57
(g78
g59
NtRp649
(dp650
g62
(dp651
g89
g90
ssg71
g640
sg64
(lp652
S':'
asbag57
(g78
g59
NtRp653
(dp654
g62
(dp655
sg71
g640
sg64
(lp656
g57
(g58
g59
NtRp657
(dp658
g62
(dp659
g70
I4
ssg71
g653
sg64
(lp660
S'127.0.0.1-0257bf03-f9f4-4cfd-a327-b5a596d499ec'
p661
ag57
(g66
g59
NtRp662
(dp663
g62
(dp664
g70
I3
ssg71
Nsg64
(lp665
g57
(g73
g59
NtRp666
(dp667
g62
(dp668
sg71
g662
sg64
(lp669
g57
(g78
g59
NtRp670
(dp671
g62
(dp672
g82
g83
ssg71
g666
sg64
(lp673
g294
asbag57
(g78
g59
NtRp674
(dp675
g62
(dp676
g89
g90
ssg71
g666
sg64
(lp677
S':'
asbag57
(g78
g59
NtRp678
(dp679
g62
(dp680
sg71
g666
sg64
(lp681
g57
(g58
g59
NtRp682
(dp683
g62
(dp684
g70
I3
ssg71
g678
sg64
(lp685
S''
asbasbasbag57
(g73
g59
NtRp686
(dp687
g62
(dp688
sg71
g662
sg64
(lp689
g57
(g78
g59
NtRp690
(dp691
g62
(dp692
g82
g83
ssg71
g686
sg64
(lp693
g315
asbag57
(g78
g59
NtRp694
(dp695
g62
(dp696
g89
g90
ssg71
g686
sg64
(lp697
S':'
asbag57
(g78
g59
NtRp698
(dp699
g62
(dp700
sg71
g686
sg64
(lp701
g57
(g58
g59
NtRp702
(dp703
g62
(dp704
g70
I3
ssg71
g698
sg64
(lp705
S''
asbasbasbag57
(g73
g59
NtRp706
(dp707
g62
(dp708
sg71
g662
sg64
(lp709
g57
(g78
g59
NtRp710
(dp711
g62
(dp712
g82
g83
ssg71
g706
sg64
(lp713
g336
asbag57
(g78
g59
NtRp714
(dp715
g62
(dp716
g89
g90
ssg71
g706
sg64
(lp717
S':'
asbag57
(g78
g59
NtRp718
(dp719
g62
(dp720
sg71
g706
sg64
(lp721
g57
(g58
g59
NtRp722
(dp723
g62
(dp724
g70
I3
ssg71
g718
sg64
(lp725
S''
asbasbasbag57
(g73
g59
NtRp726
(dp727
g62
(dp728
sg71
g662
sg64
(lp729
g57
(g78
g59
NtRp730
(dp731
g62
(dp732
g82
g83
ssg71
g726
sg64
(lp733
g357
asbag57
(g78
g59
NtRp734
(dp735
g62
(dp736
g89
g90
ssg71
g726
sg64
(lp737
S':'
asbag57
(g78
g59
NtRp738
(dp739
g62
(dp740
sg71
g726
sg64
(lp741
g57
(g58
g59
NtRp742
(dp743
g62
(dp744
g70
I3
ssg71
g738
sg64
(lp745
S''
asbasbasbag57
(g73
g59
NtRp746
(dp747
g62
(dp748
sg71
g662
sg64
(lp749
g57
(g78
g59
NtRp750
(dp751
g62
(dp752
g82
g83
ssg71
g746
sg64
(lp753
g378
asbag57
(g78
g59
NtRp754
(dp755
g62
(dp756
g89
g90
ssg71
g746
sg64
(lp757
S':'
asbag57
(g78
g59
NtRp758
(dp759
g62
(dp760
sg71
g746
sg64
(lp761
g57
(g58
g59
NtRp762
(dp763
g62
(dp764
g70
I3
ssg71
g758
sg64
(lp765
S''
asbasbasbag57
(g73
g59
NtRp766
(dp767
g62
(dp768
sg71
g662
sg64
(lp769
g57
(g78
g59
NtRp770
(dp771
g62
(dp772
g82
g83
ssg71
g766
sg64
(lp773
g399
asbag57
(g78
g59
NtRp774
(dp775
g62
(dp776
g89
g90
ssg71
g766
sg64
(lp777
S':'
asbag57
(g78
g59
NtRp778
(dp779
g62
(dp780
sg71
g766
sg64
(lp781
g57
(g58
g59
NtRp782
(dp783
g62
(dp784
g70
I3
ssg71
g778
sg64
(lp785
S''
asbasbasbag57
(g73
g59
NtRp786
(dp787
g62
(dp788
sg71
g662
sg64
(lp789
g57
(g78
g59
NtRp790
(dp791
g62
(dp792
g82
g83
ssg71
g786
sg64
(lp793
g420
asbag57
(g78
g59
NtRp794
(dp795
g62
(dp796
g89
g90
ssg71
g786
sg64
(lp797
S':'
asbag57
(g78
g59
NtRp798
(dp799
g62
(dp800
sg71
g786
sg64
(lp801
g57
(g58
g59
NtRp802
(dp803
g62
(dp804
g70
I3
ssg71
g798
sg64
(lp805
S''
asbasbasbag57
(g73
g59
NtRp806
(dp807
g62
(dp808
sg71
g662
sg64
(lp809
g57
(g78
g59
NtRp810
(dp811
g62
(dp812
g82
g83
ssg71
g806
sg64
(lp813
g441
asbag57
(g78
g59
NtRp814
(dp815
g62
(dp816
g89
g90
ssg71
g806
sg64
(lp817
S':'
asbag57
(g78
g59
NtRp818
(dp819
g62
(dp820
sg71
g806
sg64
(lp821
g57
(g58
g59
NtRp822
(dp823
g62
(dp824
g70
I3
ssg71
g818
sg64
(lp825
S''
asbasbasbasbasbasbasbasbasbasbasbag57
(g73
g59
NtRp826
(dp827
g62
(dp828
sg71
g67
sg64
(lp829
g57
(g78
g59
NtRp830
(dp831
g62
(dp832
g82
g83
ssg71
g826
sg64
(lp833
S'env'
p834
asbag57
(g78
g59
NtRp835
(dp836
g62
(dp837
g89
g90
ssg71
g826
sg64
(lp838
S':'
asbag57
(g78
g59
NtRp839
(dp840
g62
(dp841
sg71
g826
sg64
(lp842
g57
(g58
g59
NtRp843
(dp844
g62
(dp845
g70
I5
ssg71
g839
sg64
(lp846
g57
(g66
g59
NtRp847
(dp848
g62
(dp849
g70
I4
ssg71
Nsg64
(lp850
g57
(g73
g59
NtRp851
(dp852
g62
(dp853
sg71
g847
sg64
(lp854
g57
(g78
g59
NtRp855
(dp856
g62
(dp857
g82
g83
ssg71
g851
sg64
(lp858
S'app_folders'
p859
asbag57
(g78
g59
NtRp860
(dp861
g62
(dp862
g89
g90
ssg71
g851
sg64
(lp863
S':'
asbag57
(g78
g59
NtRp864
(dp865
g62
(dp866
sg71
g851
sg64
(lp867
g57
(g58
g59
NtRp868
(dp869
g62
(dp870
g70
I4
ssg71
g864
sg64
(lp871
S"set(['C:\\\\xampp\\\\htdocs\\\\web2py\\\\applications\\\\kieva\\\\', 'C:\\\\xampp\\\\htdocs\\\\web2py\\\\applications\\\\admin\\\\', 'C:\\\\xampp\\\\htdocs\\\\web2py\\\\applications\\\\welcome\\\\', 'C:\\\\xampp\\\\htdocs\\\\web2py\\\\applications\\\\testumgebung\\\\'])"
p872
asbasbasbag57
(g73
g59
NtRp873
(dp874
g62
(dp875
sg71
g847
sg64
(lp876
g57
(g78
g59
NtRp877
(dp878
g62
(dp879
g82
g83
ssg71
g873
sg64
(lp880
S'applications_parent'
p881
asbag57
(g78
g59
NtRp882
(dp883
g62
(dp884
g89
g90
ssg71
g873
sg64
(lp885
S':'
asbag57
(g78
g59
NtRp886
(dp887
g62
(dp888
sg71
g873
sg64
(lp889
g57
(g58
g59
NtRp890
(dp891
g62
(dp892
g70
I4
ssg71
g886
sg64
(lp893
S'C:\\xampp\\htdocs\\web2py'
p894
asbasbasbag57
(g73
g59
NtRp895
(dp896
g62
(dp897
sg71
g847
sg64
(lp898
g57
(g78
g59
NtRp899
(dp900
g62
(dp901
g82
g83
ssg71
g895
sg64
(lp902
S'cmd_args'
p903
asbag57
(g78
g59
NtRp904
(dp905
g62
(dp906
g89
g90
ssg71
g895
sg64
(lp907
S':'
asbag57
(g78
g59
NtRp908
(dp909
g62
(dp910
sg71
g895
sg64
(lp911
g57
(g58
g59
NtRp912
(dp913
g62
(dp914
g70
I4
ssg71
g908
sg64
(lp915
g57
(g66
g59
NtRp916
(dp917
g62
(dp918
g70
I3
ssg71
Nsg64
(lp919
sbasbasbasbag57
(g73
g59
NtRp920
(dp921
g62
(dp922
sg71
g847
sg64
(lp923
g57
(g78
g59
NtRp924
(dp925
g62
(dp926
g82
g83
ssg71
g920
sg64
(lp927
S'cmd_options'
p928
asbag57
(g78
g59
NtRp929
(dp930
g62
(dp931
g89
g90
ssg71
g920
sg64
(lp932
S':'
asbag57
(g78
g59
NtRp933
(dp934
g62
(dp935
sg71
g920
sg64
(lp936
g57
(g58
g59
NtRp937
(dp938
g62
(dp939
g70
I4
ssg71
g933
sg64
(lp940
S"<Values at 0x31dee18: {'verbose': False, 'ip': '127.0.0.1', 'with_scheduler': False, 'ips': ['10.0.0.109', '192.168.189.1', '192.168.91.1'], 'shutdown_timeout': 5, 'taskbar': False, 'port': 8000, 'maxthreads': None, 'softcron': False, 'server_name': 'swLaptop', 'bpython': False, 'nogui': False, 'nocron': False, 'extcron': False, 'run_system_tests': False, 'test': None, 'folder': 'C:\\\\xampp\\\\htdocs\\\\web2py', 'config': '', 'import_models': False, 'winservice': '', 'shell': None, 'run': '', 'log_filename': 'httpserver.log', 'debuglevel': 30, 'args': [''], 'socket_timeout': 5, 'ssl_ca_certificate': None, 'scheduler': None, 'profiler_filename': None, 'ssl_private_key': '', 'scheduler_groups': None, 'password': '<ask>', 'request_queue_size': 5, 'ssl_certificate': '', 'cronjob': False, 'numthreads': None, 'quiet': False, 'interfaces': None, 'minthreads': None, 'timeout': 10, 'plain': False, 'nobanner': False, 'pid_filename': 'httpserver.pid'}>"
p941
asbasbasbag57
(g73
g59
NtRp942
(dp943
g62
(dp944
sg71
g847
sg64
(lp945
g57
(g78
g59
NtRp946
(dp947
g62
(dp948
g82
g83
ssg71
g942
sg64
(lp949
S'db_sessions'
p950
asbag57
(g78
g59
NtRp951
(dp952
g62
(dp953
g89
g90
ssg71
g942
sg64
(lp954
S':'
asbag57
(g78
g59
NtRp955
(dp956
g62
(dp957
sg71
g942
sg64
(lp958
g57
(g58
g59
NtRp959
(dp960
g62
(dp961
g70
I4
ssg71
g955
sg64
(lp962
S'set([])'
p963
asbasbasbag57
(g73
g59
NtRp964
(dp965
g62
(dp966
sg71
g847
sg64
(lp967
g57
(g78
g59
NtRp968
(dp969
g62
(dp970
g82
g83
ssg71
g964
sg64
(lp971
S'debugging'
p972
asbag57
(g78
g59
NtRp973
(dp974
g62
(dp975
g89
g90
ssg71
g964
sg64
(lp976
S':'
asbag57
(g78
g59
NtRp977
(dp978
g62
(dp979
sg71
g964
sg64
(lp980
g57
(g58
g59
NtRp981
(dp982
g62
(dp983
g70
I4
ssg71
g977
sg64
(lp984
S'False'
p985
asbasbasbag57
(g73
g59
NtRp986
(dp987
g62
(dp988
sg71
g847
sg64
(lp989
g57
(g78
g59
NtRp990
(dp991
g62
(dp992
g82
g83
ssg71
g986
sg64
(lp993
S'gluon_parent'
p994
asbag57
(g78
g59
NtRp995
(dp996
g62
(dp997
g89
g90
ssg71
g986
sg64
(lp998
S':'
asbag57
(g78
g59
NtRp999
(dp1000
g62
(dp1001
sg71
g986
sg64
(lp1002
g57
(g58
g59
NtRp1003
(dp1004
g62
(dp1005
g70
I4
ssg71
g999
sg64
(lp1006
S'C:\\xampp\\htdocs\\web2py'
p1007
asbasbasbag57
(g73
g59
NtRp1008
(dp1009
g62
(dp1010
sg71
g847
sg64
(lp1011
g57
(g78
g59
NtRp1012
(dp1013
g62
(dp1014
g82
g83
ssg71
g1008
sg64
(lp1015
S'http_accept'
p1016
asbag57
(g78
g59
NtRp1017
(dp1018
g62
(dp1019
g89
g90
ssg71
g1008
sg64
(lp1020
S':'
asbag57
(g78
g59
NtRp1021
(dp1022
g62
(dp1023
sg71
g1008
sg64
(lp1024
g57
(g58
g59
NtRp1025
(dp1026
g62
(dp1027
g70
I4
ssg71
g1021
sg64
(lp1028
S'*/*'
p1029
asbasbasbag57
(g73
g59
NtRp1030
(dp1031
g62
(dp1032
sg71
g847
sg64
(lp1033
g57
(g78
g59
NtRp1034
(dp1035
g62
(dp1036
g82
g83
ssg71
g1030
sg64
(lp1037
S'http_accept_encoding'
p1038
asbag57
(g78
g59
NtRp1039
(dp1040
g62
(dp1041
g89
g90
ssg71
g1030
sg64
(lp1042
S':'
asbag57
(g78
g59
NtRp1043
(dp1044
g62
(dp1045
sg71
g1030
sg64
(lp1046
g57
(g58
g59
NtRp1047
(dp1048
g62
(dp1049
g70
I4
ssg71
g1043
sg64
(lp1050
S'gzip, deflate'
p1051
asbasbasbag57
(g73
g59
NtRp1052
(dp1053
g62
(dp1054
sg71
g847
sg64
(lp1055
g57
(g78
g59
NtRp1056
(dp1057
g62
(dp1058
g82
g83
ssg71
g1052
sg64
(lp1059
S'http_accept_language'
p1060
asbag57
(g78
g59
NtRp1061
(dp1062
g62
(dp1063
g89
g90
ssg71
g1052
sg64
(lp1064
S':'
asbag57
(g78
g59
NtRp1065
(dp1066
g62
(dp1067
sg71
g1052
sg64
(lp1068
g57
(g58
g59
NtRp1069
(dp1070
g62
(dp1071
g70
I4
ssg71
g1065
sg64
(lp1072
S'de-de,de;q=0.8,en-us;q=0.5,en;q=0.3'
p1073
asbasbasbag57
(g73
g59
NtRp1074
(dp1075
g62
(dp1076
sg71
g847
sg64
(lp1077
g57
(g78
g59
NtRp1078
(dp1079
g62
(dp1080
g82
g83
ssg71
g1074
sg64
(lp1081
S'http_connection'
p1082
asbag57
(g78
g59
NtRp1083
(dp1084
g62
(dp1085
g89
g90
ssg71
g1074
sg64
(lp1086
S':'
asbag57
(g78
g59
NtRp1087
(dp1088
g62
(dp1089
sg71
g1074
sg64
(lp1090
g57
(g58
g59
NtRp1091
(dp1092
g62
(dp1093
g70
I4
ssg71
g1087
sg64
(lp1094
S'keep-alive'
p1095
asbasbasbag57
(g73
g59
NtRp1096
(dp1097
g62
(dp1098
sg71
g847
sg64
(lp1099
g57
(g78
g59
NtRp1100
(dp1101
g62
(dp1102
g82
g83
ssg71
g1096
sg64
(lp1103
S'http_cookie'
p1104
asbag57
(g78
g59
NtRp1105
(dp1106
g62
(dp1107
g89
g90
ssg71
g1096
sg64
(lp1108
S':'
asbag57
(g78
g59
NtRp1109
(dp1110
g62
(dp1111
sg71
g1096
sg64
(lp1112
g57
(g58
g59
NtRp1113
(dp1114
g62
(dp1115
g70
I4
ssg71
g1109
sg64
(lp1116
S'session_id_welcome=127.0.0.1-0257bf03-f9f4-4cfd-a327-b5a596d499ec; session_id_testumgebung=127.0.0.1-90677836-87e3-4573-bd9a-704b577fb384; session_id_admin=127.0.0.1-75c713f7-cbde-478e-9eb0-8602d2ac1f92'
p1117
asbasbasbag57
(g73
g59
NtRp1118
(dp1119
g62
(dp1120
sg71
g847
sg64
(lp1121
g57
(g78
g59
NtRp1122
(dp1123
g62
(dp1124
g82
g83
ssg71
g1118
sg64
(lp1125
S'http_dnt'
p1126
asbag57
(g78
g59
NtRp1127
(dp1128
g62
(dp1129
g89
g90
ssg71
g1118
sg64
(lp1130
S':'
asbag57
(g78
g59
NtRp1131
(dp1132
g62
(dp1133
sg71
g1118
sg64
(lp1134
g57
(g58
g59
NtRp1135
(dp1136
g62
(dp1137
g70
I4
ssg71
g1131
sg64
(lp1138
S'1'
asbasbasbag57
(g73
g59
NtRp1139
(dp1140
g62
(dp1141
sg71
g847
sg64
(lp1142
g57
(g78
g59
NtRp1143
(dp1144
g62
(dp1145
g82
g83
ssg71
g1139
sg64
(lp1146
S'http_host'
p1147
asbag57
(g78
g59
NtRp1148
(dp1149
g62
(dp1150
g89
g90
ssg71
g1139
sg64
(lp1151
S':'
asbag57
(g78
g59
NtRp1152
(dp1153
g62
(dp1154
sg71
g1139
sg64
(lp1155
g57
(g58
g59
NtRp1156
(dp1157
g62
(dp1158
g70
I4
ssg71
g1152
sg64
(lp1159
S'127.0.0.1:8000'
p1160
asbasbasbag57
(g73
g59
NtRp1161
(dp1162
g62
(dp1163
sg71
g847
sg64
(lp1164
g57
(g78
g59
NtRp1165
(dp1166
g62
(dp1167
g82
g83
ssg71
g1161
sg64
(lp1168
S'http_referer'
p1169
asbag57
(g78
g59
NtRp1170
(dp1171
g62
(dp1172
g89
g90
ssg71
g1161
sg64
(lp1173
S':'
asbag57
(g78
g59
NtRp1174
(dp1175
g62
(dp1176
sg71
g1161
sg64
(lp1177
g57
(g58
g59
NtRp1178
(dp1179
g62
(dp1180
g70
I4
ssg71
g1174
sg64
(lp1181
S'http://127.0.0.1:8000/testumgebung'
p1182
asbasbasbag57
(g73
g59
NtRp1183
(dp1184
g62
(dp1185
sg71
g847
sg64
(lp1186
g57
(g78
g59
NtRp1187
(dp1188
g62
(dp1189
g82
g83
ssg71
g1183
sg64
(lp1190
S'http_user_agent'
p1191
asbag57
(g78
g59
NtRp1192
(dp1193
g62
(dp1194
g89
g90
ssg71
g1183
sg64
(lp1195
S':'
asbag57
(g78
g59
NtRp1196
(dp1197
g62
(dp1198
sg71
g1183
sg64
(lp1199
g57
(g58
g59
NtRp1200
(dp1201
g62
(dp1202
g70
I4
ssg71
g1196
sg64
(lp1203
S'Mozilla/5.0 (Windows NT 6.1; WOW64; rv:17.0) Gecko/20100101 Firefox/17.0'
p1204
asbasbasbag57
(g73
g59
NtRp1205
(dp1206
g62
(dp1207
sg71
g847
sg64
(lp1208
g57
(g78
g59
NtRp1209
(dp1210
g62
(dp1211
g82
g83
ssg71
g1205
sg64
(lp1212
S'http_web2py_component_element'
p1213
asbag57
(g78
g59
NtRp1214
(dp1215
g62
(dp1216
g89
g90
ssg71
g1205
sg64
(lp1217
S':'
asbag57
(g78
g59
NtRp1218
(dp1219
g62
(dp1220
sg71
g1205
sg64
(lp1221
g57
(g58
g59
NtRp1222
(dp1223
g62
(dp1224
g70
I4
ssg71
g1218
sg64
(lp1225
g190
asbasbasbag57
(g73
g59
NtRp1226
(dp1227
g62
(dp1228
sg71
g847
sg64
(lp1229
g57
(g78
g59
NtRp1230
(dp1231
g62
(dp1232
g82
g83
ssg71
g1226
sg64
(lp1233
S'http_web2py_component_location'
p1234
asbag57
(g78
g59
NtRp1235
(dp1236
g62
(dp1237
g89
g90
ssg71
g1226
sg64
(lp1238
S':'
asbag57
(g78
g59
NtRp1239
(dp1240
g62
(dp1241
sg71
g1226
sg64
(lp1242
g57
(g58
g59
NtRp1243
(dp1244
g62
(dp1245
g70
I4
ssg71
g1239
sg64
(lp1246
S'http://127.0.0.1:8000/testumgebung'
p1247
asbasbasbag57
(g73
g59
NtRp1248
(dp1249
g62
(dp1250
sg71
g847
sg64
(lp1251
g57
(g78
g59
NtRp1252
(dp1253
g62
(dp1254
g82
g83
ssg71
g1248
sg64
(lp1255
S'http_x_clickoncesupport'
p1256
asbag57
(g78
g59
NtRp1257
(dp1258
g62
(dp1259
g89
g90
ssg71
g1248
sg64
(lp1260
S':'
asbag57
(g78
g59
NtRp1261
(dp1262
g62
(dp1263
sg71
g1248
sg64
(lp1264
g57
(g58
g59
NtRp1265
(dp1266
g62
(dp1267
g70
I4
ssg71
g1261
sg64
(lp1268
S'(.NET CLR 2.0.50727; .NET CLR 3.5.30729; .NET CLR 3.0.30729; .NET4.0C; .NET4.0E)'
p1269
asbasbasbag57
(g73
g59
NtRp1270
(dp1271
g62
(dp1272
sg71
g847
sg64
(lp1273
g57
(g78
g59
NtRp1274
(dp1275
g62
(dp1276
g82
g83
ssg71
g1270
sg64
(lp1277
S'http_x_requested_with'
p1278
asbag57
(g78
g59
NtRp1279
(dp1280
g62
(dp1281
g89
g90
ssg71
g1270
sg64
(lp1282
S':'
asbag57
(g78
g59
NtRp1283
(dp1284
g62
(dp1285
sg71
g1270
sg64
(lp1286
g57
(g58
g59
NtRp1287
(dp1288
g62
(dp1289
g70
I4
ssg71
g1283
sg64
(lp1290
S'XMLHttpRequest'
p1291
asbasbasbag57
(g73
g59
NtRp1292
(dp1293
g62
(dp1294
sg71
g847
sg64
(lp1295
g57
(g78
g59
NtRp1296
(dp1297
g62
(dp1298
g82
g83
ssg71
g1292
sg64
(lp1299
S'is_jython'
p1300
asbag57
(g78
g59
NtRp1301
(dp1302
g62
(dp1303
g89
g90
ssg71
g1292
sg64
(lp1304
S':'
asbag57
(g78
g59
NtRp1305
(dp1306
g62
(dp1307
sg71
g1292
sg64
(lp1308
g57
(g58
g59
NtRp1309
(dp1310
g62
(dp1311
g70
I4
ssg71
g1305
sg64
(lp1312
g985
asbasbasbag57
(g73
g59
NtRp1313
(dp1314
g62
(dp1315
sg71
g847
sg64
(lp1316
g57
(g78
g59
NtRp1317
(dp1318
g62
(dp1319
g82
g83
ssg71
g1313
sg64
(lp1320
S'is_pypy'
p1321
asbag57
(g78
g59
NtRp1322
(dp1323
g62
(dp1324
g89
g90
ssg71
g1313
sg64
(lp1325
S':'
asbag57
(g78
g59
NtRp1326
(dp1327
g62
(dp1328
sg71
g1313
sg64
(lp1329
g57
(g58
g59
NtRp1330
(dp1331
g62
(dp1332
g70
I4
ssg71
g1326
sg64
(lp1333
g985
asbasbasbag57
(g73
g59
NtRp1334
(dp1335
g62
(dp1336
sg71
g847
sg64
(lp1337
g57
(g78
g59
NtRp1338
(dp1339
g62
(dp1340
g82
g83
ssg71
g1334
sg64
(lp1341
S'path_info'
p1342
asbag57
(g78
g59
NtRp1343
(dp1344
g62
(dp1345
g89
g90
ssg71
g1334
sg64
(lp1346
S':'
asbag57
(g78
g59
NtRp1347
(dp1348
g62
(dp1349
sg71
g1334
sg64
(lp1350
g57
(g58
g59
NtRp1351
(dp1352
g62
(dp1353
g70
I4
ssg71
g1347
sg64
(lp1354
S'/testumgebung/plugin_feedbacks/feedback.load'
p1355
asbasbasbag57
(g73
g59
NtRp1356
(dp1357
g62
(dp1358
sg71
g847
sg64
(lp1359
g57
(g78
g59
NtRp1360
(dp1361
g62
(dp1362
g82
g83
ssg71
g1356
sg64
(lp1363
S'query_string'
p1364
asbag57
(g78
g59
NtRp1365
(dp1366
g62
(dp1367
g89
g90
ssg71
g1356
sg64
(lp1368
S':'
asbag57
(g78
g59
NtRp1369
(dp1370
g62
(dp1371
sg71
g1356
sg64
(lp1372
g57
(g58
g59
NtRp1373
(dp1374
g62
(dp1375
g70
I4
ssg71
g1369
sg64
(lp1376
S''
asbasbasbag57
(g73
g59
NtRp1377
(dp1378
g62
(dp1379
sg71
g847
sg64
(lp1380
g57
(g78
g59
NtRp1381
(dp1382
g62
(dp1383
g82
g83
ssg71
g1377
sg64
(lp1384
S'remote_addr'
p1385
asbag57
(g78
g59
NtRp1386
(dp1387
g62
(dp1388
g89
g90
ssg71
g1377
sg64
(lp1389
S':'
asbag57
(g78
g59
NtRp1390
(dp1391
g62
(dp1392
sg71
g1377
sg64
(lp1393
g57
(g58
g59
NtRp1394
(dp1395
g62
(dp1396
g70
I4
ssg71
g1390
sg64
(lp1397
g212
asbasbasbag57
(g73
g59
NtRp1398
(dp1399
g62
(dp1400
sg71
g847
sg64
(lp1401
g57
(g78
g59
NtRp1402
(dp1403
g62
(dp1404
g82
g83
ssg71
g1398
sg64
(lp1405
S'remote_port'
p1406
asbag57
(g78
g59
NtRp1407
(dp1408
g62
(dp1409
g89
g90
ssg71
g1398
sg64
(lp1410
S':'
asbag57
(g78
g59
NtRp1411
(dp1412
g62
(dp1413
sg71
g1398
sg64
(lp1414
g57
(g58
g59
NtRp1415
(dp1416
g62
(dp1417
g70
I4
ssg71
g1411
sg64
(lp1418
S'63505'
p1419
asbasbasbag57
(g73
g59
NtRp1420
(dp1421
g62
(dp1422
sg71
g847
sg64
(lp1423
g57
(g78
g59
NtRp1424
(dp1425
g62
(dp1426
g82
g83
ssg71
g1420
sg64
(lp1427
S'request_method'
p1428
asbag57
(g78
g59
NtRp1429
(dp1430
g62
(dp1431
g89
g90
ssg71
g1420
sg64
(lp1432
S':'
asbag57
(g78
g59
NtRp1433
(dp1434
g62
(dp1435
sg71
g1420
sg64
(lp1436
g57
(g58
g59
NtRp1437
(dp1438
g62
(dp1439
g70
I4
ssg71
g1433
sg64
(lp1440
S'GET'
p1441
asbasbasbag57
(g73
g59
NtRp1442
(dp1443
g62
(dp1444
sg71
g847
sg64
(lp1445
g57
(g78
g59
NtRp1446
(dp1447
g62
(dp1448
g82
g83
ssg71
g1442
sg64
(lp1449
S'request_uri'
p1450
asbag57
(g78
g59
NtRp1451
(dp1452
g62
(dp1453
g89
g90
ssg71
g1442
sg64
(lp1454
S':'
asbag57
(g78
g59
NtRp1455
(dp1456
g62
(dp1457
sg71
g1442
sg64
(lp1458
g57
(g58
g59
NtRp1459
(dp1460
g62
(dp1461
g70
I4
ssg71
g1455
sg64
(lp1462
g1355
asbasbasbag57
(g73
g59
NtRp1463
(dp1464
g62
(dp1465
sg71
g847
sg64
(lp1466
g57
(g78
g59
NtRp1467
(dp1468
g62
(dp1469
g82
g83
ssg71
g1463
sg64
(lp1470
S'script_name'
p1471
asbag57
(g78
g59
NtRp1472
(dp1473
g62
(dp1474
g89
g90
ssg71
g1463
sg64
(lp1475
S':'
asbag57
(g78
g59
NtRp1476
(dp1477
g62
(dp1478
sg71
g1463
sg64
(lp1479
g57
(g58
g59
NtRp1480
(dp1481
g62
(dp1482
g70
I4
ssg71
g1476
sg64
(lp1483
S''
asbasbasbag57
(g73
g59
NtRp1484
(dp1485
g62
(dp1486
sg71
g847
sg64
(lp1487
g57
(g78
g59
NtRp1488
(dp1489
g62
(dp1490
g82
g83
ssg71
g1484
sg64
(lp1491
S'server_name'
p1492
asbag57
(g78
g59
NtRp1493
(dp1494
g62
(dp1495
g89
g90
ssg71
g1484
sg64
(lp1496
S':'
asbag57
(g78
g59
NtRp1497
(dp1498
g62
(dp1499
sg71
g1484
sg64
(lp1500
g57
(g58
g59
NtRp1501
(dp1502
g62
(dp1503
g70
I4
ssg71
g1497
sg64
(lp1504
S'swLaptop'
p1505
asbasbasbag57
(g73
g59
NtRp1506
(dp1507
g62
(dp1508
sg71
g847
sg64
(lp1509
g57
(g78
g59
NtRp1510
(dp1511
g62
(dp1512
g82
g83
ssg71
g1506
sg64
(lp1513
S'server_port'
p1514
asbag57
(g78
g59
NtRp1515
(dp1516
g62
(dp1517
g89
g90
ssg71
g1506
sg64
(lp1518
S':'
asbag57
(g78
g59
NtRp1519
(dp1520
g62
(dp1521
sg71
g1506
sg64
(lp1522
g57
(g58
g59
NtRp1523
(dp1524
g62
(dp1525
g70
I4
ssg71
g1519
sg64
(lp1526
S'8000'
p1527
asbasbasbag57
(g73
g59
NtRp1528
(dp1529
g62
(dp1530
sg71
g847
sg64
(lp1531
g57
(g78
g59
NtRp1532
(dp1533
g62
(dp1534
g82
g83
ssg71
g1528
sg64
(lp1535
S'server_protocol'
p1536
asbag57
(g78
g59
NtRp1537
(dp1538
g62
(dp1539
g89
g90
ssg71
g1528
sg64
(lp1540
S':'
asbag57
(g78
g59
NtRp1541
(dp1542
g62
(dp1543
sg71
g1528
sg64
(lp1544
g57
(g58
g59
NtRp1545
(dp1546
g62
(dp1547
g70
I4
ssg71
g1541
sg64
(lp1548
S'HTTP/1.1'
p1549
asbasbasbag57
(g73
g59
NtRp1550
(dp1551
g62
(dp1552
sg71
g847
sg64
(lp1553
g57
(g78
g59
NtRp1554
(dp1555
g62
(dp1556
g82
g83
ssg71
g1550
sg64
(lp1557
S'server_software'
p1558
asbag57
(g78
g59
NtRp1559
(dp1560
g62
(dp1561
g89
g90
ssg71
g1550
sg64
(lp1562
S':'
asbag57
(g78
g59
NtRp1563
(dp1564
g62
(dp1565
sg71
g1550
sg64
(lp1566
g57
(g58
g59
NtRp1567
(dp1568
g62
(dp1569
g70
I4
ssg71
g1563
sg64
(lp1570
S'Rocket 1.2.4'
p1571
asbasbasbag57
(g73
g59
NtRp1572
(dp1573
g62
(dp1574
sg71
g847
sg64
(lp1575
g57
(g78
g59
NtRp1576
(dp1577
g62
(dp1578
g82
g83
ssg71
g1572
sg64
(lp1579
S'web2py_crontype'
p1580
asbag57
(g78
g59
NtRp1581
(dp1582
g62
(dp1583
g89
g90
ssg71
g1572
sg64
(lp1584
S':'
asbag57
(g78
g59
NtRp1585
(dp1586
g62
(dp1587
sg71
g1572
sg64
(lp1588
g57
(g58
g59
NtRp1589
(dp1590
g62
(dp1591
g70
I4
ssg71
g1585
sg64
(lp1592
S'hard'
p1593
asbasbasbag57
(g73
g59
NtRp1594
(dp1595
g62
(dp1596
sg71
g847
sg64
(lp1597
g57
(g78
g59
NtRp1598
(dp1599
g62
(dp1600
g82
g83
ssg71
g1594
sg64
(lp1601
S'web2py_path'
p1602
asbag57
(g78
g59
NtRp1603
(dp1604
g62
(dp1605
g89
g90
ssg71
g1594
sg64
(lp1606
S':'
asbag57
(g78
g59
NtRp1607
(dp1608
g62
(dp1609
sg71
g1594
sg64
(lp1610
g57
(g58
g59
NtRp1611
(dp1612
g62
(dp1613
g70
I4
ssg71
g1607
sg64
(lp1614
g894
asbasbasbag57
(g73
g59
NtRp1615
(dp1616
g62
(dp1617
sg71
g847
sg64
(lp1618
g57
(g78
g59
NtRp1619
(dp1620
g62
(dp1621
g82
g83
ssg71
g1615
sg64
(lp1622
S'web2py_version'
p1623
asbag57
(g78
g59
NtRp1624
(dp1625
g62
(dp1626
g89
g90
ssg71
g1615
sg64
(lp1627
S':'
asbag57
(g78
g59
NtRp1628
(dp1629
g62
(dp1630
sg71
g1615
sg64
(lp1631
g57
(g58
g59
NtRp1632
(dp1633
g62
(dp1634
g70
I4
ssg71
g1628
sg64
(lp1635
g57
(g66
g59
NtRp1636
(dp1637
g62
(dp1638
g70
I3
ssg71
Nsg64
(lp1639
g57
(g73
g59
NtRp1640
(dp1641
g62
(dp1642
sg71
g1636
sg64
(lp1643
g57
(g78
g59
NtRp1644
(dp1645
g62
(dp1646
sg71
g1640
sg64
(lp1647
g57
(g58
g59
NtRp1648
(dp1649
g62
(dp1650
g70
I3
ssg71
g1644
sg64
(lp1651
S'2'
asbasbasbag57
(g73
g59
NtRp1652
(dp1653
g62
(dp1654
sg71
g1636
sg64
(lp1655
g57
(g78
g59
NtRp1656
(dp1657
g62
(dp1658
sg71
g1652
sg64
(lp1659
g57
(g58
g59
NtRp1660
(dp1661
g62
(dp1662
g70
I3
ssg71
g1656
sg64
(lp1663
S'0'
asbasbasbag57
(g73
g59
NtRp1664
(dp1665
g62
(dp1666
sg71
g1636
sg64
(lp1667
g57
(g78
g59
NtRp1668
(dp1669
g62
(dp1670
sg71
g1664
sg64
(lp1671
g57
(g58
g59
NtRp1672
(dp1673
g62
(dp1674
g70
I3
ssg71
g1668
sg64
(lp1675
S'3'
asbasbasbag57
(g73
g59
NtRp1676
(dp1677
g62
(dp1678
sg71
g1636
sg64
(lp1679
g57
(g78
g59
NtRp1680
(dp1681
g62
(dp1682
sg71
g1676
sg64
(lp1683
g57
(g58
g59
NtRp1684
(dp1685
g62
(dp1686
g70
I3
ssg71
g1680
sg64
(lp1687
S'datetime.datetime(2012, 8, 31, 5, 58, 31)'
p1688
asbasbasbag57
(g73
g59
NtRp1689
(dp1690
g62
(dp1691
sg71
g1636
sg64
(lp1692
g57
(g78
g59
NtRp1693
(dp1694
g62
(dp1695
sg71
g1689
sg64
(lp1696
g57
(g58
g59
NtRp1697
(dp1698
g62
(dp1699
g70
I3
ssg71
g1693
sg64
(lp1700
S'stable'
p1701
asbasbasbasbasbasbasbag57
(g73
g59
NtRp1702
(dp1703
g62
(dp1704
sg71
g847
sg64
(lp1705
g57
(g78
g59
NtRp1706
(dp1707
g62
(dp1708
g82
g83
ssg71
g1702
sg64
(lp1709
S'wsgi_errors'
p1710
asbag57
(g78
g59
NtRp1711
(dp1712
g62
(dp1713
g89
g90
ssg71
g1702
sg64
(lp1714
S':'
asbag57
(g78
g59
NtRp1715
(dp1716
g62
(dp1717
sg71
g1702
sg64
(lp1718
g57
(g58
g59
NtRp1719
(dp1720
g62
(dp1721
g70
I4
ssg71
g1715
sg64
(lp1722
S"<open file '<stderr>', mode 'w' at 0x021750D0>"
p1723
asbasbasbag57
(g73
g59
NtRp1724
(dp1725
g62
(dp1726
sg71
g847
sg64
(lp1727
g57
(g78
g59
NtRp1728
(dp1729
g62
(dp1730
g82
g83
ssg71
g1724
sg64
(lp1731
S'wsgi_file_wrapper'
p1732
asbag57
(g78
g59
NtRp1733
(dp1734
g62
(dp1735
g89
g90
ssg71
g1724
sg64
(lp1736
S':'
asbag57
(g78
g59
NtRp1737
(dp1738
g62
(dp1739
sg71
g1724
sg64
(lp1740
g57
(g58
g59
NtRp1741
(dp1742
g62
(dp1743
g70
I4
ssg71
g1737
sg64
(lp1744
S'<class wsgiref.util.FileWrapper at 0x0310D030>'
p1745
asbasbasbag57
(g73
g59
NtRp1746
(dp1747
g62
(dp1748
sg71
g847
sg64
(lp1749
g57
(g78
g59
NtRp1750
(dp1751
g62
(dp1752
g82
g83
ssg71
g1746
sg64
(lp1753
S'wsgi_input'
p1754
asbag57
(g78
g59
NtRp1755
(dp1756
g62
(dp1757
g89
g90
ssg71
g1746
sg64
(lp1758
S':'
asbag57
(g78
g59
NtRp1759
(dp1760
g62
(dp1761
sg71
g1746
sg64
(lp1762
g57
(g58
g59
NtRp1763
(dp1764
g62
(dp1765
g70
I4
ssg71
g1759
sg64
(lp1766
S'<socket._fileobject object at 0x03457FB0>'
p1767
asbasbasbag57
(g73
g59
NtRp1768
(dp1769
g62
(dp1770
sg71
g847
sg64
(lp1771
g57
(g78
g59
NtRp1772
(dp1773
g62
(dp1774
g82
g83
ssg71
g1768
sg64
(lp1775
S'wsgi_multiprocess'
p1776
asbag57
(g78
g59
NtRp1777
(dp1778
g62
(dp1779
g89
g90
ssg71
g1768
sg64
(lp1780
S':'
asbag57
(g78
g59
NtRp1781
(dp1782
g62
(dp1783
sg71
g1768
sg64
(lp1784
g57
(g58
g59
NtRp1785
(dp1786
g62
(dp1787
g70
I4
ssg71
g1781
sg64
(lp1788
g985
asbasbasbag57
(g73
g59
NtRp1789
(dp1790
g62
(dp1791
sg71
g847
sg64
(lp1792
g57
(g78
g59
NtRp1793
(dp1794
g62
(dp1795
g82
g83
ssg71
g1789
sg64
(lp1796
S'wsgi_multithread'
p1797
asbag57
(g78
g59
NtRp1798
(dp1799
g62
(dp1800
g89
g90
ssg71
g1789
sg64
(lp1801
S':'
asbag57
(g78
g59
NtRp1802
(dp1803
g62
(dp1804
sg71
g1789
sg64
(lp1805
g57
(g58
g59
NtRp1806
(dp1807
g62
(dp1808
g70
I4
ssg71
g1802
sg64
(lp1809
g100
asbasbasbag57
(g73
g59
NtRp1810
(dp1811
g62
(dp1812
sg71
g847
sg64
(lp1813
g57
(g78
g59
NtRp1814
(dp1815
g62
(dp1816
g82
g83
ssg71
g1810
sg64
(lp1817
S'wsgi_run_once'
p1818
asbag57
(g78
g59
NtRp1819
(dp1820
g62
(dp1821
g89
g90
ssg71
g1810
sg64
(lp1822
S':'
asbag57
(g78
g59
NtRp1823
(dp1824
g62
(dp1825
sg71
g1810
sg64
(lp1826
g57
(g58
g59
NtRp1827
(dp1828
g62
(dp1829
g70
I4
ssg71
g1823
sg64
(lp1830
g985
asbasbasbag57
(g73
g59
NtRp1831
(dp1832
g62
(dp1833
sg71
g847
sg64
(lp1834
g57
(g78
g59
NtRp1835
(dp1836
g62
(dp1837
g82
g83
ssg71
g1831
sg64
(lp1838
S'wsgi_url_scheme'
p1839
asbag57
(g78
g59
NtRp1840
(dp1841
g62
(dp1842
g89
g90
ssg71
g1831
sg64
(lp1843
S':'
asbag57
(g78
g59
NtRp1844
(dp1845
g62
(dp1846
sg71
g1831
sg64
(lp1847
g57
(g58
g59
NtRp1848
(dp1849
g62
(dp1850
g70
I4
ssg71
g1844
sg64
(lp1851
S'http'
p1852
asbasbasbag57
(g73
g59
NtRp1853
(dp1854
g62
(dp1855
sg71
g847
sg64
(lp1856
g57
(g78
g59
NtRp1857
(dp1858
g62
(dp1859
g82
g83
ssg71
g1853
sg64
(lp1860
S'wsgi_version'
p1861
asbag57
(g78
g59
NtRp1862
(dp1863
g62
(dp1864
g89
g90
ssg71
g1853
sg64
(lp1865
S':'
asbag57
(g78
g59
NtRp1866
(dp1867
g62
(dp1868
sg71
g1853
sg64
(lp1869
g57
(g58
g59
NtRp1870
(dp1871
g62
(dp1872
g70
I4
ssg71
g1866
sg64
(lp1873
g57
(g66
g59
NtRp1874
(dp1875
g62
(dp1876
g70
I3
ssg71
Nsg64
(lp1877
g57
(g73
g59
NtRp1878
(dp1879
g62
(dp1880
sg71
g1874
sg64
(lp1881
g57
(g78
g59
NtRp1882
(dp1883
g62
(dp1884
sg71
g1878
sg64
(lp1885
g57
(g58
g59
NtRp1886
(dp1887
g62
(dp1888
g70
I3
ssg71
g1882
sg64
(lp1889
S'1'
asbasbasbag57
(g73
g59
NtRp1890
(dp1891
g62
(dp1892
sg71
g1874
sg64
(lp1893
g57
(g78
g59
NtRp1894
(dp1895
g62
(dp1896
sg71
g1890
sg64
(lp1897
g57
(g58
g59
NtRp1898
(dp1899
g62
(dp1900
g70
I3
ssg71
g1894
sg64
(lp1901
S'0'
asbasbasbasbasbasbasbasbasbasbasbag57
(g73
g59
NtRp1902
(dp1903
g62
(dp1904
sg71
g67
sg64
(lp1905
g57
(g78
g59
NtRp1906
(dp1907
g62
(dp1908
g82
g83
ssg71
g1902
sg64
(lp1909
S'extension'
p1910
asbag57
(g78
g59
NtRp1911
(dp1912
g62
(dp1913
g89
g90
ssg71
g1902
sg64
(lp1914
S':'
asbag57
(g78
g59
NtRp1915
(dp1916
g62
(dp1917
sg71
g1902
sg64
(lp1918
g57
(g58
g59
NtRp1919
(dp1920
g62
(dp1921
g70
I5
ssg71
g1915
sg64
(lp1922
S'load'
p1923
asbasbasbag57
(g73
g59
NtRp1924
(dp1925
g62
(dp1926
sg71
g67
sg64
(lp1927
g57
(g78
g59
NtRp1928
(dp1929
g62
(dp1930
g82
g83
ssg71
g1924
sg64
(lp1931
S'folder'
p1932
asbag57
(g78
g59
NtRp1933
(dp1934
g62
(dp1935
g89
g90
ssg71
g1924
sg64
(lp1936
S':'
asbag57
(g78
g59
NtRp1937
(dp1938
g62
(dp1939
sg71
g1924
sg64
(lp1940
g57
(g58
g59
NtRp1941
(dp1942
g62
(dp1943
g70
I5
ssg71
g1937
sg64
(lp1944
S'C:\\xampp\\htdocs\\web2py\\applications\\testumgebung\\'
p1945
asbasbasbag57
(g73
g59
NtRp1946
(dp1947
g62
(dp1948
sg71
g67
sg64
(lp1949
g57
(g78
g59
NtRp1950
(dp1951
g62
(dp1952
g82
g83
ssg71
g1946
sg64
(lp1953
S'function'
p1954
asbag57
(g78
g59
NtRp1955
(dp1956
g62
(dp1957
g89
g90
ssg71
g1946
sg64
(lp1958
S':'
asbag57
(g78
g59
NtRp1959
(dp1960
g62
(dp1961
sg71
g1946
sg64
(lp1962
g57
(g58
g59
NtRp1963
(dp1964
g62
(dp1965
g70
I5
ssg71
g1959
sg64
(lp1966
S'feedback'
p1967
asbasbasbag57
(g73
g59
NtRp1968
(dp1969
g62
(dp1970
sg71
g67
sg64
(lp1971
g57
(g78
g59
NtRp1972
(dp1973
g62
(dp1974
g82
g83
ssg71
g1968
sg64
(lp1975
S'get_vars'
p1976
asbag57
(g78
g59
NtRp1977
(dp1978
g62
(dp1979
g89
g90
ssg71
g1968
sg64
(lp1980
S':'
asbag57
(g78
g59
NtRp1981
(dp1982
g62
(dp1983
sg71
g1968
sg64
(lp1984
g57
(g58
g59
NtRp1985
(dp1986
g62
(dp1987
g70
I5
ssg71
g1981
sg64
(lp1988
g57
(g66
g59
NtRp1989
(dp1990
g62
(dp1991
g70
I4
ssg71
Nsg64
(lp1992
sbasbasbasbag57
(g73
g59
NtRp1993
(dp1994
g62
(dp1995
sg71
g67
sg64
(lp1996
g57
(g78
g59
NtRp1997
(dp1998
g62
(dp1999
g82
g83
ssg71
g1993
sg64
(lp2000
S'global_settings'
p2001
asbag57
(g78
g59
NtRp2002
(dp2003
g62
(dp2004
g89
g90
ssg71
g1993
sg64
(lp2005
S':'
asbag57
(g78
g59
NtRp2006
(dp2007
g62
(dp2008
sg71
g1993
sg64
(lp2009
g57
(g58
g59
NtRp2010
(dp2011
g62
(dp2012
g70
I5
ssg71
g2006
sg64
(lp2013
g57
(g66
g59
NtRp2014
(dp2015
g62
(dp2016
g70
I4
ssg71
Nsg64
(lp2017
g57
(g73
g59
NtRp2018
(dp2019
g62
(dp2020
sg71
g2014
sg64
(lp2021
g57
(g78
g59
NtRp2022
(dp2023
g62
(dp2024
g82
g83
ssg71
g2018
sg64
(lp2025
g859
asbag57
(g78
g59
NtRp2026
(dp2027
g62
(dp2028
g89
g90
ssg71
g2018
sg64
(lp2029
S':'
asbag57
(g78
g59
NtRp2030
(dp2031
g62
(dp2032
sg71
g2018
sg64
(lp2033
g57
(g58
g59
NtRp2034
(dp2035
g62
(dp2036
g70
I4
ssg71
g2030
sg64
(lp2037
S"set(['C:\\\\xampp\\\\htdocs\\\\web2py\\\\applications\\\\kieva\\\\', 'C:\\\\xampp\\\\htdocs\\\\web2py\\\\applications\\\\admin\\\\', 'C:\\\\xampp\\\\htdocs\\\\web2py\\\\applications\\\\welcome\\\\', 'C:\\\\xampp\\\\htdocs\\\\web2py\\\\applications\\\\testumgebung\\\\'])"
p2038
asbasbasbag57
(g73
g59
NtRp2039
(dp2040
g62
(dp2041
sg71
g2014
sg64
(lp2042
g57
(g78
g59
NtRp2043
(dp2044
g62
(dp2045
g82
g83
ssg71
g2039
sg64
(lp2046
g881
asbag57
(g78
g59
NtRp2047
(dp2048
g62
(dp2049
g89
g90
ssg71
g2039
sg64
(lp2050
S':'
asbag57
(g78
g59
NtRp2051
(dp2052
g62
(dp2053
sg71
g2039
sg64
(lp2054
g57
(g58
g59
NtRp2055
(dp2056
g62
(dp2057
g70
I4
ssg71
g2051
sg64
(lp2058
g894
asbasbasbag57
(g73
g59
NtRp2059
(dp2060
g62
(dp2061
sg71
g2014
sg64
(lp2062
g57
(g78
g59
NtRp2063
(dp2064
g62
(dp2065
g82
g83
ssg71
g2059
sg64
(lp2066
g903
asbag57
(g78
g59
NtRp2067
(dp2068
g62
(dp2069
g89
g90
ssg71
g2059
sg64
(lp2070
S':'
asbag57
(g78
g59
NtRp2071
(dp2072
g62
(dp2073
sg71
g2059
sg64
(lp2074
g57
(g58
g59
NtRp2075
(dp2076
g62
(dp2077
g70
I4
ssg71
g2071
sg64
(lp2078
g57
(g66
g59
NtRp2079
(dp2080
g62
(dp2081
g70
I3
ssg71
Nsg64
(lp2082
sbasbasbasbag57
(g73
g59
NtRp2083
(dp2084
g62
(dp2085
sg71
g2014
sg64
(lp2086
g57
(g78
g59
NtRp2087
(dp2088
g62
(dp2089
g82
g83
ssg71
g2083
sg64
(lp2090
g928
asbag57
(g78
g59
NtRp2091
(dp2092
g62
(dp2093
g89
g90
ssg71
g2083
sg64
(lp2094
S':'
asbag57
(g78
g59
NtRp2095
(dp2096
g62
(dp2097
sg71
g2083
sg64
(lp2098
g57
(g58
g59
NtRp2099
(dp2100
g62
(dp2101
g70
I4
ssg71
g2095
sg64
(lp2102
S"<Values at 0x31dee18: {'verbose': False, 'ip': '127.0.0.1', 'with_scheduler': False, 'ips': ['10.0.0.109', '192.168.189.1', '192.168.91.1'], 'shutdown_timeout': 5, 'taskbar': False, 'port': 8000, 'maxthreads': None, 'softcron': False, 'server_name': 'swLaptop', 'bpython': False, 'nogui': False, 'nocron': False, 'extcron': False, 'run_system_tests': False, 'test': None, 'folder': 'C:\\\\xampp\\\\htdocs\\\\web2py', 'config': '', 'import_models': False, 'winservice': '', 'shell': None, 'run': '', 'log_filename': 'httpserver.log', 'debuglevel': 30, 'args': [''], 'socket_timeout': 5, 'ssl_ca_certificate': None, 'scheduler': None, 'profiler_filename': None, 'ssl_private_key': '', 'scheduler_groups': None, 'password': '<ask>', 'request_queue_size': 5, 'ssl_certificate': '', 'cronjob': False, 'numthreads': None, 'quiet': False, 'interfaces': None, 'minthreads': None, 'timeout': 10, 'plain': False, 'nobanner': False, 'pid_filename': 'httpserver.pid'}>"
p2103
asbasbasbag57
(g73
g59
NtRp2104
(dp2105
g62
(dp2106
sg71
g2014
sg64
(lp2107
g57
(g78
g59
NtRp2108
(dp2109
g62
(dp2110
g82
g83
ssg71
g2104
sg64
(lp2111
g950
asbag57
(g78
g59
NtRp2112
(dp2113
g62
(dp2114
g89
g90
ssg71
g2104
sg64
(lp2115
S':'
asbag57
(g78
g59
NtRp2116
(dp2117
g62
(dp2118
sg71
g2104
sg64
(lp2119
g57
(g58
g59
NtRp2120
(dp2121
g62
(dp2122
g70
I4
ssg71
g2116
sg64
(lp2123
S'set([])'
p2124
asbasbasbag57
(g73
g59
NtRp2125
(dp2126
g62
(dp2127
sg71
g2014
sg64
(lp2128
g57
(g78
g59
NtRp2129
(dp2130
g62
(dp2131
g82
g83
ssg71
g2125
sg64
(lp2132
g972
asbag57
(g78
g59
NtRp2133
(dp2134
g62
(dp2135
g89
g90
ssg71
g2125
sg64
(lp2136
S':'
asbag57
(g78
g59
NtRp2137
(dp2138
g62
(dp2139
sg71
g2125
sg64
(lp2140
g57
(g58
g59
NtRp2141
(dp2142
g62
(dp2143
g70
I4
ssg71
g2137
sg64
(lp2144
g985
asbasbasbag57
(g73
g59
NtRp2145
(dp2146
g62
(dp2147
sg71
g2014
sg64
(lp2148
g57
(g78
g59
NtRp2149
(dp2150
g62
(dp2151
g82
g83
ssg71
g2145
sg64
(lp2152
g994
asbag57
(g78
g59
NtRp2153
(dp2154
g62
(dp2155
g89
g90
ssg71
g2145
sg64
(lp2156
S':'
asbag57
(g78
g59
NtRp2157
(dp2158
g62
(dp2159
sg71
g2145
sg64
(lp2160
g57
(g58
g59
NtRp2161
(dp2162
g62
(dp2163
g70
I4
ssg71
g2157
sg64
(lp2164
g1007
asbasbasbag57
(g73
g59
NtRp2165
(dp2166
g62
(dp2167
sg71
g2014
sg64
(lp2168
g57
(g78
g59
NtRp2169
(dp2170
g62
(dp2171
g82
g83
ssg71
g2165
sg64
(lp2172
g1300
asbag57
(g78
g59
NtRp2173
(dp2174
g62
(dp2175
g89
g90
ssg71
g2165
sg64
(lp2176
S':'
asbag57
(g78
g59
NtRp2177
(dp2178
g62
(dp2179
sg71
g2165
sg64
(lp2180
g57
(g58
g59
NtRp2181
(dp2182
g62
(dp2183
g70
I4
ssg71
g2177
sg64
(lp2184
g985
asbasbasbag57
(g73
g59
NtRp2185
(dp2186
g62
(dp2187
sg71
g2014
sg64
(lp2188
g57
(g78
g59
NtRp2189
(dp2190
g62
(dp2191
g82
g83
ssg71
g2185
sg64
(lp2192
g1321
asbag57
(g78
g59
NtRp2193
(dp2194
g62
(dp2195
g89
g90
ssg71
g2185
sg64
(lp2196
S':'
asbag57
(g78
g59
NtRp2197
(dp2198
g62
(dp2199
sg71
g2185
sg64
(lp2200
g57
(g58
g59
NtRp2201
(dp2202
g62
(dp2203
g70
I4
ssg71
g2197
sg64
(lp2204
g985
asbasbasbag57
(g73
g59
NtRp2205
(dp2206
g62
(dp2207
sg71
g2014
sg64
(lp2208
g57
(g78
g59
NtRp2209
(dp2210
g62
(dp2211
g82
g83
ssg71
g2205
sg64
(lp2212
g1580
asbag57
(g78
g59
NtRp2213
(dp2214
g62
(dp2215
g89
g90
ssg71
g2205
sg64
(lp2216
S':'
asbag57
(g78
g59
NtRp2217
(dp2218
g62
(dp2219
sg71
g2205
sg64
(lp2220
g57
(g58
g59
NtRp2221
(dp2222
g62
(dp2223
g70
I4
ssg71
g2217
sg64
(lp2224
g1593
asbasbasbag57
(g73
g59
NtRp2225
(dp2226
g62
(dp2227
sg71
g2014
sg64
(lp2228
g57
(g78
g59
NtRp2229
(dp2230
g62
(dp2231
g82
g83
ssg71
g2225
sg64
(lp2232
g1623
asbag57
(g78
g59
NtRp2233
(dp2234
g62
(dp2235
g89
g90
ssg71
g2225
sg64
(lp2236
S':'
asbag57
(g78
g59
NtRp2237
(dp2238
g62
(dp2239
sg71
g2225
sg64
(lp2240
g57
(g58
g59
NtRp2241
(dp2242
g62
(dp2243
g70
I4
ssg71
g2237
sg64
(lp2244
g57
(g66
g59
NtRp2245
(dp2246
g62
(dp2247
g70
I3
ssg71
Nsg64
(lp2248
g57
(g73
g59
NtRp2249
(dp2250
g62
(dp2251
sg71
g2245
sg64
(lp2252
g57
(g78
g59
NtRp2253
(dp2254
g62
(dp2255
sg71
g2249
sg64
(lp2256
g57
(g58
g59
NtRp2257
(dp2258
g62
(dp2259
g70
I3
ssg71
g2253
sg64
(lp2260
S'2'
asbasbasbag57
(g73
g59
NtRp2261
(dp2262
g62
(dp2263
sg71
g2245
sg64
(lp2264
g57
(g78
g59
NtRp2265
(dp2266
g62
(dp2267
sg71
g2261
sg64
(lp2268
g57
(g58
g59
NtRp2269
(dp2270
g62
(dp2271
g70
I3
ssg71
g2265
sg64
(lp2272
S'0'
asbasbasbag57
(g73
g59
NtRp2273
(dp2274
g62
(dp2275
sg71
g2245
sg64
(lp2276
g57
(g78
g59
NtRp2277
(dp2278
g62
(dp2279
sg71
g2273
sg64
(lp2280
g57
(g58
g59
NtRp2281
(dp2282
g62
(dp2283
g70
I3
ssg71
g2277
sg64
(lp2284
S'3'
asbasbasbag57
(g73
g59
NtRp2285
(dp2286
g62
(dp2287
sg71
g2245
sg64
(lp2288
g57
(g78
g59
NtRp2289
(dp2290
g62
(dp2291
sg71
g2285
sg64
(lp2292
g57
(g58
g59
NtRp2293
(dp2294
g62
(dp2295
g70
I3
ssg71
g2289
sg64
(lp2296
S'datetime.datetime(2012, 8, 31, 5, 58, 31)'
p2297
asbasbasbag57
(g73
g59
NtRp2298
(dp2299
g62
(dp2300
sg71
g2245
sg64
(lp2301
g57
(g78
g59
NtRp2302
(dp2303
g62
(dp2304
sg71
g2298
sg64
(lp2305
g57
(g58
g59
NtRp2306
(dp2307
g62
(dp2308
g70
I3
ssg71
g2302
sg64
(lp2309
g1701
asbasbasbasbasbasbasbasbasbasbasbag57
(g73
g59
NtRp2310
(dp2311
g62
(dp2312
sg71
g67
sg64
(lp2313
g57
(g78
g59
NtRp2314
(dp2315
g62
(dp2316
g82
g83
ssg71
g2310
sg64
(lp2317
S'is_https'
p2318
asbag57
(g78
g59
NtRp2319
(dp2320
g62
(dp2321
g89
g90
ssg71
g2310
sg64
(lp2322
S':'
asbag57
(g78
g59
NtRp2323
(dp2324
g62
(dp2325
sg71
g2310
sg64
(lp2326
g57
(g58
g59
NtRp2327
(dp2328
g62
(dp2329
g70
I5
ssg71
g2323
sg64
(lp2330
g985
asbasbasbag57
(g73
g59
NtRp2331
(dp2332
g62
(dp2333
sg71
g67
sg64
(lp2334
g57
(g78
g59
NtRp2335
(dp2336
g62
(dp2337
g82
g83
ssg71
g2331
sg64
(lp2338
S'is_local'
p2339
asbag57
(g78
g59
NtRp2340
(dp2341
g62
(dp2342
g89
g90
ssg71
g2331
sg64
(lp2343
S':'
asbag57
(g78
g59
NtRp2344
(dp2345
g62
(dp2346
sg71
g2331
sg64
(lp2347
g57
(g58
g59
NtRp2348
(dp2349
g62
(dp2350
g70
I5
ssg71
g2344
sg64
(lp2351
g100
asbasbasbag57
(g73
g59
NtRp2352
(dp2353
g62
(dp2354
sg71
g67
sg64
(lp2355
g57
(g78
g59
NtRp2356
(dp2357
g62
(dp2358
g82
g83
ssg71
g2352
sg64
(lp2359
S'is_restful'
p2360
asbag57
(g78
g59
NtRp2361
(dp2362
g62
(dp2363
g89
g90
ssg71
g2352
sg64
(lp2364
S':'
asbag57
(g78
g59
NtRp2365
(dp2366
g62
(dp2367
sg71
g2352
sg64
(lp2368
g57
(g58
g59
NtRp2369
(dp2370
g62
(dp2371
g70
I5
ssg71
g2365
sg64
(lp2372
g985
asbasbasbag57
(g73
g59
NtRp2373
(dp2374
g62
(dp2375
sg71
g67
sg64
(lp2376
g57
(g78
g59
NtRp2377
(dp2378
g62
(dp2379
g82
g83
ssg71
g2373
sg64
(lp2380
S'now'
p2381
asbag57
(g78
g59
NtRp2382
(dp2383
g62
(dp2384
g89
g90
ssg71
g2373
sg64
(lp2385
S':'
asbag57
(g78
g59
NtRp2386
(dp2387
g62
(dp2388
sg71
g2373
sg64
(lp2389
g57
(g58
g59
NtRp2390
(dp2391
g62
(dp2392
g70
I5
ssg71
g2386
sg64
(lp2393
S'datetime.datetime(2012, 12, 18, 13, 5, 23, 716000)'
p2394
asbasbasbag57
(g73
g59
NtRp2395
(dp2396
g62
(dp2397
sg71
g67
sg64
(lp2398
g57
(g78
g59
NtRp2399
(dp2400
g62
(dp2401
g82
g83
ssg71
g2395
sg64
(lp2402
S'post_vars'
p2403
asbag57
(g78
g59
NtRp2404
(dp2405
g62
(dp2406
g89
g90
ssg71
g2395
sg64
(lp2407
S':'
asbag57
(g78
g59
NtRp2408
(dp2409
g62
(dp2410
sg71
g2395
sg64
(lp2411
g57
(g58
g59
NtRp2412
(dp2413
g62
(dp2414
g70
I5
ssg71
g2408
sg64
(lp2415
g57
(g66
g59
NtRp2416
(dp2417
g62
(dp2418
g70
I4
ssg71
Nsg64
(lp2419
sbasbasbasbag57
(g73
g59
NtRp2420
(dp2421
g62
(dp2422
sg71
g67
sg64
(lp2423
g57
(g78
g59
NtRp2424
(dp2425
g62
(dp2426
g82
g83
ssg71
g2420
sg64
(lp2427
S'raw_args'
p2428
asbag57
(g78
g59
NtRp2429
(dp2430
g62
(dp2431
g89
g90
ssg71
g2420
sg64
(lp2432
S':'
asbag57
(g78
g59
NtRp2433
(dp2434
g62
(dp2435
sg71
g2420
sg64
(lp2436
g57
(g58
g59
NtRp2437
(dp2438
g62
(dp2439
g70
I5
ssg71
g2433
sg64
(lp2440
S'None'
p2441
asbasbasbag57
(g73
g59
NtRp2442
(dp2443
g62
(dp2444
sg71
g67
sg64
(lp2445
g57
(g78
g59
NtRp2446
(dp2447
g62
(dp2448
g82
g83
ssg71
g2442
sg64
(lp2449
S'raw_extension'
p2450
asbag57
(g78
g59
NtRp2451
(dp2452
g62
(dp2453
g89
g90
ssg71
g2442
sg64
(lp2454
S':'
asbag57
(g78
g59
NtRp2455
(dp2456
g62
(dp2457
sg71
g2442
sg64
(lp2458
g57
(g58
g59
NtRp2459
(dp2460
g62
(dp2461
g70
I5
ssg71
g2455
sg64
(lp2462
g1923
asbasbasbag57
(g73
g59
NtRp2463
(dp2464
g62
(dp2465
sg71
g67
sg64
(lp2466
g57
(g78
g59
NtRp2467
(dp2468
g62
(dp2469
g82
g83
ssg71
g2463
sg64
(lp2470
S'url'
p2471
asbag57
(g78
g59
NtRp2472
(dp2473
g62
(dp2474
g89
g90
ssg71
g2463
sg64
(lp2475
S':'
asbag57
(g78
g59
NtRp2476
(dp2477
g62
(dp2478
sg71
g2463
sg64
(lp2479
g57
(g58
g59
NtRp2480
(dp2481
g62
(dp2482
g70
I5
ssg71
g2476
sg64
(lp2483
S'/testumgebung/plugin_feedbacks/feedback.load'
p2484
asbasbasbag57
(g73
g59
NtRp2485
(dp2486
g62
(dp2487
sg71
g67
sg64
(lp2488
g57
(g78
g59
NtRp2489
(dp2490
g62
(dp2491
g82
g83
ssg71
g2485
sg64
(lp2492
S'utcnow'
p2493
asbag57
(g78
g59
NtRp2494
(dp2495
g62
(dp2496
g89
g90
ssg71
g2485
sg64
(lp2497
S':'
asbag57
(g78
g59
NtRp2498
(dp2499
g62
(dp2500
sg71
g2485
sg64
(lp2501
g57
(g58
g59
NtRp2502
(dp2503
g62
(dp2504
g70
I5
ssg71
g2498
sg64
(lp2505
S'datetime.datetime(2012, 12, 18, 12, 5, 23, 716000)'
p2506
asbasbasbag57
(g73
g59
NtRp2507
(dp2508
g62
(dp2509
sg71
g67
sg64
(lp2510
g57
(g78
g59
NtRp2511
(dp2512
g62
(dp2513
g82
g83
ssg71
g2507
sg64
(lp2514
S'uuid'
p2515
asbag57
(g78
g59
NtRp2516
(dp2517
g62
(dp2518
g89
g90
ssg71
g2507
sg64
(lp2519
S':'
asbag57
(g78
g59
NtRp2520
(dp2521
g62
(dp2522
sg71
g2507
sg64
(lp2523
g57
(g58
g59
NtRp2524
(dp2525
g62
(dp2526
g70
I5
ssg71
g2520
sg64
(lp2527
S'testumgebung/127.0.0.1.2012-12-18.13-05-23.3b824ce0-d5b2-4df4-bef8-00d06375962e'
p2528
asbasbasbag57
(g73
g59
NtRp2529
(dp2530
g62
(dp2531
sg71
g67
sg64
(lp2532
g57
(g78
g59
NtRp2533
(dp2534
g62
(dp2535
g82
g83
ssg71
g2529
sg64
(lp2536
S'vars'
p2537
asbag57
(g78
g59
NtRp2538
(dp2539
g62
(dp2540
g89
g90
ssg71
g2529
sg64
(lp2541
S':'
asbag57
(g78
g59
NtRp2542
(dp2543
g62
(dp2544
sg71
g2529
sg64
(lp2545
g57
(g58
g59
NtRp2546
(dp2547
g62
(dp2548
g70
I5
ssg71
g2542
sg64
(lp2549
g57
(g66
g59
NtRp2550
(dp2551
g62
(dp2552
g70
I4
ssg71
Nsg64
(lp2553
sbasbasbasbag57
(g73
g59
NtRp2554
(dp2555
g62
(dp2556
sg71
g67
sg64
(lp2557
g57
(g78
g59
NtRp2558
(dp2559
g62
(dp2560
g82
g83
ssg71
g2554
sg64
(lp2561
S'wsgi'
p2562
asbag57
(g78
g59
NtRp2563
(dp2564
g62
(dp2565
g89
g90
ssg71
g2554
sg64
(lp2566
S':'
asbag57
(g78
g59
NtRp2567
(dp2568
g62
(dp2569
sg71
g2554
sg64
(lp2570
g57
(g58
g59
NtRp2571
(dp2572
g62
(dp2573
g70
I5
ssg71
g2567
sg64
(lp2574
g57
(g66
g59
NtRp2575
(dp2576
g62
(dp2577
g70
I4
ssg71
Nsg64
(lp2578
g57
(g73
g59
NtRp2579
(dp2580
g62
(dp2581
sg71
g2575
sg64
(lp2582
g57
(g78
g59
NtRp2583
(dp2584
g62
(dp2585
g82
g83
ssg71
g2579
sg64
(lp2586
S'environ'
p2587
asbag57
(g78
g59
NtRp2588
(dp2589
g62
(dp2590
g89
g90
ssg71
g2579
sg64
(lp2591
S':'
asbag57
(g78
g59
NtRp2592
(dp2593
g62
(dp2594
sg71
g2579
sg64
(lp2595
g57
(g58
g59
NtRp2596
(dp2597
g62
(dp2598
g70
I4
ssg71
g2592
sg64
(lp2599
g57
(g66
g59
NtRp2600
(dp2601
g62
(dp2602
g70
I3
ssg71
Nsg64
(lp2603
g57
(g73
g59
NtRp2604
(dp2605
g62
(dp2606
sg71
g2600
sg64
(lp2607
g57
(g78
g59
NtRp2608
(dp2609
g62
(dp2610
g82
g83
ssg71
g2604
sg64
(lp2611
S'HTTP_ACCEPT'
p2612
asbag57
(g78
g59
NtRp2613
(dp2614
g62
(dp2615
g89
g90
ssg71
g2604
sg64
(lp2616
S':'
asbag57
(g78
g59
NtRp2617
(dp2618
g62
(dp2619
sg71
g2604
sg64
(lp2620
g57
(g58
g59
NtRp2621
(dp2622
g62
(dp2623
g70
I3
ssg71
g2617
sg64
(lp2624
g1029
asbasbasbag57
(g73
g59
NtRp2625
(dp2626
g62
(dp2627
sg71
g2600
sg64
(lp2628
g57
(g78
g59
NtRp2629
(dp2630
g62
(dp2631
g82
g83
ssg71
g2625
sg64
(lp2632
S'HTTP_ACCEPT_ENCODING'
p2633
asbag57
(g78
g59
NtRp2634
(dp2635
g62
(dp2636
g89
g90
ssg71
g2625
sg64
(lp2637
S':'
asbag57
(g78
g59
NtRp2638
(dp2639
g62
(dp2640
sg71
g2625
sg64
(lp2641
g57
(g58
g59
NtRp2642
(dp2643
g62
(dp2644
g70
I3
ssg71
g2638
sg64
(lp2645
g1051
asbasbasbag57
(g73
g59
NtRp2646
(dp2647
g62
(dp2648
sg71
g2600
sg64
(lp2649
g57
(g78
g59
NtRp2650
(dp2651
g62
(dp2652
g82
g83
ssg71
g2646
sg64
(lp2653
S'HTTP_ACCEPT_LANGUAGE'
p2654
asbag57
(g78
g59
NtRp2655
(dp2656
g62
(dp2657
g89
g90
ssg71
g2646
sg64
(lp2658
S':'
asbag57
(g78
g59
NtRp2659
(dp2660
g62
(dp2661
sg71
g2646
sg64
(lp2662
g57
(g58
g59
NtRp2663
(dp2664
g62
(dp2665
g70
I3
ssg71
g2659
sg64
(lp2666
g1073
asbasbasbag57
(g73
g59
NtRp2667
(dp2668
g62
(dp2669
sg71
g2600
sg64
(lp2670
g57
(g78
g59
NtRp2671
(dp2672
g62
(dp2673
g82
g83
ssg71
g2667
sg64
(lp2674
S'HTTP_CONNECTION'
p2675
asbag57
(g78
g59
NtRp2676
(dp2677
g62
(dp2678
g89
g90
ssg71
g2667
sg64
(lp2679
S':'
asbag57
(g78
g59
NtRp2680
(dp2681
g62
(dp2682
sg71
g2667
sg64
(lp2683
g57
(g58
g59
NtRp2684
(dp2685
g62
(dp2686
g70
I3
ssg71
g2680
sg64
(lp2687
g1095
asbasbasbag57
(g73
g59
NtRp2688
(dp2689
g62
(dp2690
sg71
g2600
sg64
(lp2691
g57
(g78
g59
NtRp2692
(dp2693
g62
(dp2694
g82
g83
ssg71
g2688
sg64
(lp2695
S'HTTP_COOKIE'
p2696
asbag57
(g78
g59
NtRp2697
(dp2698
g62
(dp2699
g89
g90
ssg71
g2688
sg64
(lp2700
S':'
asbag57
(g78
g59
NtRp2701
(dp2702
g62
(dp2703
sg71
g2688
sg64
(lp2704
g57
(g58
g59
NtRp2705
(dp2706
g62
(dp2707
g70
I3
ssg71
g2701
sg64
(lp2708
g1117
asbasbasbag57
(g73
g59
NtRp2709
(dp2710
g62
(dp2711
sg71
g2600
sg64
(lp2712
g57
(g78
g59
NtRp2713
(dp2714
g62
(dp2715
g82
g83
ssg71
g2709
sg64
(lp2716
S'HTTP_DNT'
p2717
asbag57
(g78
g59
NtRp2718
(dp2719
g62
(dp2720
g89
g90
ssg71
g2709
sg64
(lp2721
S':'
asbag57
(g78
g59
NtRp2722
(dp2723
g62
(dp2724
sg71
g2709
sg64
(lp2725
g57
(g58
g59
NtRp2726
(dp2727
g62
(dp2728
g70
I3
ssg71
g2722
sg64
(lp2729
S'1'
asbasbasbag57
(g73
g59
NtRp2730
(dp2731
g62
(dp2732
sg71
g2600
sg64
(lp2733
g57
(g78
g59
NtRp2734
(dp2735
g62
(dp2736
g82
g83
ssg71
g2730
sg64
(lp2737
S'HTTP_HOST'
p2738
asbag57
(g78
g59
NtRp2739
(dp2740
g62
(dp2741
g89
g90
ssg71
g2730
sg64
(lp2742
S':'
asbag57
(g78
g59
NtRp2743
(dp2744
g62
(dp2745
sg71
g2730
sg64
(lp2746
g57
(g58
g59
NtRp2747
(dp2748
g62
(dp2749
g70
I3
ssg71
g2743
sg64
(lp2750
g1160
asbasbasbag57
(g73
g59
NtRp2751
(dp2752
g62
(dp2753
sg71
g2600
sg64
(lp2754
g57
(g78
g59
NtRp2755
(dp2756
g62
(dp2757
g82
g83
ssg71
g2751
sg64
(lp2758
S'HTTP_REFERER'
p2759
asbag57
(g78
g59
NtRp2760
(dp2761
g62
(dp2762
g89
g90
ssg71
g2751
sg64
(lp2763
S':'
asbag57
(g78
g59
NtRp2764
(dp2765
g62
(dp2766
sg71
g2751
sg64
(lp2767
g57
(g58
g59
NtRp2768
(dp2769
g62
(dp2770
g70
I3
ssg71
g2764
sg64
(lp2771
g1182
asbasbasbag57
(g73
g59
NtRp2772
(dp2773
g62
(dp2774
sg71
g2600
sg64
(lp2775
g57
(g78
g59
NtRp2776
(dp2777
g62
(dp2778
g82
g83
ssg71
g2772
sg64
(lp2779
S'HTTP_USER_AGENT'
p2780
asbag57
(g78
g59
NtRp2781
(dp2782
g62
(dp2783
g89
g90
ssg71
g2772
sg64
(lp2784
S':'
asbag57
(g78
g59
NtRp2785
(dp2786
g62
(dp2787
sg71
g2772
sg64
(lp2788
g57
(g58
g59
NtRp2789
(dp2790
g62
(dp2791
g70
I3
ssg71
g2785
sg64
(lp2792
g1204
asbasbasbag57
(g73
g59
NtRp2793
(dp2794
g62
(dp2795
sg71
g2600
sg64
(lp2796
g57
(g78
g59
NtRp2797
(dp2798
g62
(dp2799
g82
g83
ssg71
g2793
sg64
(lp2800
S'HTTP_WEB2PY_COMPONENT_ELEMENT'
p2801
asbag57
(g78
g59
NtRp2802
(dp2803
g62
(dp2804
g89
g90
ssg71
g2793
sg64
(lp2805
S':'
asbag57
(g78
g59
NtRp2806
(dp2807
g62
(dp2808
sg71
g2793
sg64
(lp2809
g57
(g58
g59
NtRp2810
(dp2811
g62
(dp2812
g70
I3
ssg71
g2806
sg64
(lp2813
g190
asbasbasbag57
(g73
g59
NtRp2814
(dp2815
g62
(dp2816
sg71
g2600
sg64
(lp2817
g57
(g78
g59
NtRp2818
(dp2819
g62
(dp2820
g82
g83
ssg71
g2814
sg64
(lp2821
S'HTTP_WEB2PY_COMPONENT_LOCATION'
p2822
asbag57
(g78
g59
NtRp2823
(dp2824
g62
(dp2825
g89
g90
ssg71
g2814
sg64
(lp2826
S':'
asbag57
(g78
g59
NtRp2827
(dp2828
g62
(dp2829
sg71
g2814
sg64
(lp2830
g57
(g58
g59
NtRp2831
(dp2832
g62
(dp2833
g70
I3
ssg71
g2827
sg64
(lp2834
g1247
asbasbasbag57
(g73
g59
NtRp2835
(dp2836
g62
(dp2837
sg71
g2600
sg64
(lp2838
g57
(g78
g59
NtRp2839
(dp2840
g62
(dp2841
g82
g83
ssg71
g2835
sg64
(lp2842
S'HTTP_X_CLICKONCESUPPORT'
p2843
asbag57
(g78
g59
NtRp2844
(dp2845
g62
(dp2846
g89
g90
ssg71
g2835
sg64
(lp2847
S':'
asbag57
(g78
g59
NtRp2848
(dp2849
g62
(dp2850
sg71
g2835
sg64
(lp2851
g57
(g58
g59
NtRp2852
(dp2853
g62
(dp2854
g70
I3
ssg71
g2848
sg64
(lp2855
g1269
asbasbasbag57
(g73
g59
NtRp2856
(dp2857
g62
(dp2858
sg71
g2600
sg64
(lp2859
g57
(g78
g59
NtRp2860
(dp2861
g62
(dp2862
g82
g83
ssg71
g2856
sg64
(lp2863
S'HTTP_X_REQUESTED_WITH'
p2864
asbag57
(g78
g59
NtRp2865
(dp2866
g62
(dp2867
g89
g90
ssg71
g2856
sg64
(lp2868
S':'
asbag57
(g78
g59
NtRp2869
(dp2870
g62
(dp2871
sg71
g2856
sg64
(lp2872
g57
(g58
g59
NtRp2873
(dp2874
g62
(dp2875
g70
I3
ssg71
g2869
sg64
(lp2876
g1291
asbasbasbag57
(g73
g59
NtRp2877
(dp2878
g62
(dp2879
sg71
g2600
sg64
(lp2880
g57
(g78
g59
NtRp2881
(dp2882
g62
(dp2883
g82
g83
ssg71
g2877
sg64
(lp2884
S'PATH_INFO'
p2885
asbag57
(g78
g59
NtRp2886
(dp2887
g62
(dp2888
g89
g90
ssg71
g2877
sg64
(lp2889
S':'
asbag57
(g78
g59
NtRp2890
(dp2891
g62
(dp2892
sg71
g2877
sg64
(lp2893
g57
(g58
g59
NtRp2894
(dp2895
g62
(dp2896
g70
I3
ssg71
g2890
sg64
(lp2897
g1355
asbasbasbag57
(g73
g59
NtRp2898
(dp2899
g62
(dp2900
sg71
g2600
sg64
(lp2901
g57
(g78
g59
NtRp2902
(dp2903
g62
(dp2904
g82
g83
ssg71
g2898
sg64
(lp2905
S'QUERY_STRING'
p2906
asbag57
(g78
g59
NtRp2907
(dp2908
g62
(dp2909
g89
g90
ssg71
g2898
sg64
(lp2910
S':'
asbag57
(g78
g59
NtRp2911
(dp2912
g62
(dp2913
sg71
g2898
sg64
(lp2914
g57
(g58
g59
NtRp2915
(dp2916
g62
(dp2917
g70
I3
ssg71
g2911
sg64
(lp2918
S''
asbasbasbag57
(g73
g59
NtRp2919
(dp2920
g62
(dp2921
sg71
g2600
sg64
(lp2922
g57
(g78
g59
NtRp2923
(dp2924
g62
(dp2925
g82
g83
ssg71
g2919
sg64
(lp2926
S'REMOTE_ADDR'
p2927
asbag57
(g78
g59
NtRp2928
(dp2929
g62
(dp2930
g89
g90
ssg71
g2919
sg64
(lp2931
S':'
asbag57
(g78
g59
NtRp2932
(dp2933
g62
(dp2934
sg71
g2919
sg64
(lp2935
g57
(g58
g59
NtRp2936
(dp2937
g62
(dp2938
g70
I3
ssg71
g2932
sg64
(lp2939
g212
asbasbasbag57
(g73
g59
NtRp2940
(dp2941
g62
(dp2942
sg71
g2600
sg64
(lp2943
g57
(g78
g59
NtRp2944
(dp2945
g62
(dp2946
g82
g83
ssg71
g2940
sg64
(lp2947
S'REMOTE_PORT'
p2948
asbag57
(g78
g59
NtRp2949
(dp2950
g62
(dp2951
g89
g90
ssg71
g2940
sg64
(lp2952
S':'
asbag57
(g78
g59
NtRp2953
(dp2954
g62
(dp2955
sg71
g2940
sg64
(lp2956
g57
(g58
g59
NtRp2957
(dp2958
g62
(dp2959
g70
I3
ssg71
g2953
sg64
(lp2960
g1419
asbasbasbag57
(g73
g59
NtRp2961
(dp2962
g62
(dp2963
sg71
g2600
sg64
(lp2964
g57
(g78
g59
NtRp2965
(dp2966
g62
(dp2967
g82
g83
ssg71
g2961
sg64
(lp2968
S'REQUEST_METHOD'
p2969
asbag57
(g78
g59
NtRp2970
(dp2971
g62
(dp2972
g89
g90
ssg71
g2961
sg64
(lp2973
S':'
asbag57
(g78
g59
NtRp2974
(dp2975
g62
(dp2976
sg71
g2961
sg64
(lp2977
g57
(g58
g59
NtRp2978
(dp2979
g62
(dp2980
g70
I3
ssg71
g2974
sg64
(lp2981
g1441
asbasbasbag57
(g73
g59
NtRp2982
(dp2983
g62
(dp2984
sg71
g2600
sg64
(lp2985
g57
(g78
g59
NtRp2986
(dp2987
g62
(dp2988
g82
g83
ssg71
g2982
sg64
(lp2989
S'REQUEST_URI'
p2990
asbag57
(g78
g59
NtRp2991
(dp2992
g62
(dp2993
g89
g90
ssg71
g2982
sg64
(lp2994
S':'
asbag57
(g78
g59
NtRp2995
(dp2996
g62
(dp2997
sg71
g2982
sg64
(lp2998
g57
(g58
g59
NtRp2999
(dp3000
g62
(dp3001
g70
I3
ssg71
g2995
sg64
(lp3002
g1355
asbasbasbag57
(g73
g59
NtRp3003
(dp3004
g62
(dp3005
sg71
g2600
sg64
(lp3006
g57
(g78
g59
NtRp3007
(dp3008
g62
(dp3009
g82
g83
ssg71
g3003
sg64
(lp3010
S'SCRIPT_NAME'
p3011
asbag57
(g78
g59
NtRp3012
(dp3013
g62
(dp3014
g89
g90
ssg71
g3003
sg64
(lp3015
S':'
asbag57
(g78
g59
NtRp3016
(dp3017
g62
(dp3018
sg71
g3003
sg64
(lp3019
g57
(g58
g59
NtRp3020
(dp3021
g62
(dp3022
g70
I3
ssg71
g3016
sg64
(lp3023
S''
asbasbasbag57
(g73
g59
NtRp3024
(dp3025
g62
(dp3026
sg71
g2600
sg64
(lp3027
g57
(g78
g59
NtRp3028
(dp3029
g62
(dp3030
g82
g83
ssg71
g3024
sg64
(lp3031
S'SERVER_NAME'
p3032
asbag57
(g78
g59
NtRp3033
(dp3034
g62
(dp3035
g89
g90
ssg71
g3024
sg64
(lp3036
S':'
asbag57
(g78
g59
NtRp3037
(dp3038
g62
(dp3039
sg71
g3024
sg64
(lp3040
g57
(g58
g59
NtRp3041
(dp3042
g62
(dp3043
g70
I3
ssg71
g3037
sg64
(lp3044
g1505
asbasbasbag57
(g73
g59
NtRp3045
(dp3046
g62
(dp3047
sg71
g2600
sg64
(lp3048
g57
(g78
g59
NtRp3049
(dp3050
g62
(dp3051
g82
g83
ssg71
g3045
sg64
(lp3052
S'SERVER_PORT'
p3053
asbag57
(g78
g59
NtRp3054
(dp3055
g62
(dp3056
g89
g90
ssg71
g3045
sg64
(lp3057
S':'
asbag57
(g78
g59
NtRp3058
(dp3059
g62
(dp3060
sg71
g3045
sg64
(lp3061
g57
(g58
g59
NtRp3062
(dp3063
g62
(dp3064
g70
I3
ssg71
g3058
sg64
(lp3065
g1527
asbasbasbag57
(g73
g59
NtRp3066
(dp3067
g62
(dp3068
sg71
g2600
sg64
(lp3069
g57
(g78
g59
NtRp3070
(dp3071
g62
(dp3072
g82
g83
ssg71
g3066
sg64
(lp3073
S'SERVER_PROTOCOL'
p3074
asbag57
(g78
g59
NtRp3075
(dp3076
g62
(dp3077
g89
g90
ssg71
g3066
sg64
(lp3078
S':'
asbag57
(g78
g59
NtRp3079
(dp3080
g62
(dp3081
sg71
g3066
sg64
(lp3082
g57
(g58
g59
NtRp3083
(dp3084
g62
(dp3085
g70
I3
ssg71
g3079
sg64
(lp3086
g1549
asbasbasbag57
(g73
g59
NtRp3087
(dp3088
g62
(dp3089
sg71
g2600
sg64
(lp3090
g57
(g78
g59
NtRp3091
(dp3092
g62
(dp3093
g82
g83
ssg71
g3087
sg64
(lp3094
S'SERVER_SOFTWARE'
p3095
asbag57
(g78
g59
NtRp3096
(dp3097
g62
(dp3098
g89
g90
ssg71
g3087
sg64
(lp3099
S':'
asbag57
(g78
g59
NtRp3100
(dp3101
g62
(dp3102
sg71
g3087
sg64
(lp3103
g57
(g58
g59
NtRp3104
(dp3105
g62
(dp3106
g70
I3
ssg71
g3100
sg64
(lp3107
g1571
asbasbasbag57
(g73
g59
NtRp3108
(dp3109
g62
(dp3110
sg71
g2600
sg64
(lp3111
g57
(g78
g59
NtRp3112
(dp3113
g62
(dp3114
g82
g83
ssg71
g3108
sg64
(lp3115
S'wsgi.errors'
p3116
asbag57
(g78
g59
NtRp3117
(dp3118
g62
(dp3119
g89
g90
ssg71
g3108
sg64
(lp3120
S':'
asbag57
(g78
g59
NtRp3121
(dp3122
g62
(dp3123
sg71
g3108
sg64
(lp3124
g57
(g58
g59
NtRp3125
(dp3126
g62
(dp3127
g70
I3
ssg71
g3121
sg64
(lp3128
S"<open file '<stderr>', mode 'w' at 0x021750D0>"
p3129
asbasbasbag57
(g73
g59
NtRp3130
(dp3131
g62
(dp3132
sg71
g2600
sg64
(lp3133
g57
(g78
g59
NtRp3134
(dp3135
g62
(dp3136
g82
g83
ssg71
g3130
sg64
(lp3137
S'wsgi.file_wrapper'
p3138
asbag57
(g78
g59
NtRp3139
(dp3140
g62
(dp3141
g89
g90
ssg71
g3130
sg64
(lp3142
S':'
asbag57
(g78
g59
NtRp3143
(dp3144
g62
(dp3145
sg71
g3130
sg64
(lp3146
g57
(g58
g59
NtRp3147
(dp3148
g62
(dp3149
g70
I3
ssg71
g3143
sg64
(lp3150
S'<class wsgiref.util.FileWrapper at 0x0310D030>'
p3151
asbasbasbag57
(g73
g59
NtRp3152
(dp3153
g62
(dp3154
sg71
g2600
sg64
(lp3155
g57
(g78
g59
NtRp3156
(dp3157
g62
(dp3158
g82
g83
ssg71
g3152
sg64
(lp3159
S'wsgi.input'
p3160
asbag57
(g78
g59
NtRp3161
(dp3162
g62
(dp3163
g89
g90
ssg71
g3152
sg64
(lp3164
S':'
asbag57
(g78
g59
NtRp3165
(dp3166
g62
(dp3167
sg71
g3152
sg64
(lp3168
g57
(g58
g59
NtRp3169
(dp3170
g62
(dp3171
g70
I3
ssg71
g3165
sg64
(lp3172
S'<cStringIO.StringO object at 0x080AD8E0>'
p3173
asbasbasbag57
(g73
g59
NtRp3174
(dp3175
g62
(dp3176
sg71
g2600
sg64
(lp3177
g57
(g78
g59
NtRp3178
(dp3179
g62
(dp3180
g82
g83
ssg71
g3174
sg64
(lp3181
S'wsgi.multiprocess'
p3182
asbag57
(g78
g59
NtRp3183
(dp3184
g62
(dp3185
g89
g90
ssg71
g3174
sg64
(lp3186
S':'
asbag57
(g78
g59
NtRp3187
(dp3188
g62
(dp3189
sg71
g3174
sg64
(lp3190
g57
(g58
g59
NtRp3191
(dp3192
g62
(dp3193
g70
I3
ssg71
g3187
sg64
(lp3194
g985
asbasbasbag57
(g73
g59
NtRp3195
(dp3196
g62
(dp3197
sg71
g2600
sg64
(lp3198
g57
(g78
g59
NtRp3199
(dp3200
g62
(dp3201
g82
g83
ssg71
g3195
sg64
(lp3202
S'wsgi.multithread'
p3203
asbag57
(g78
g59
NtRp3204
(dp3205
g62
(dp3206
g89
g90
ssg71
g3195
sg64
(lp3207
S':'
asbag57
(g78
g59
NtRp3208
(dp3209
g62
(dp3210
sg71
g3195
sg64
(lp3211
g57
(g58
g59
NtRp3212
(dp3213
g62
(dp3214
g70
I3
ssg71
g3208
sg64
(lp3215
g100
asbasbasbag57
(g73
g59
NtRp3216
(dp3217
g62
(dp3218
sg71
g2600
sg64
(lp3219
g57
(g78
g59
NtRp3220
(dp3221
g62
(dp3222
g82
g83
ssg71
g3216
sg64
(lp3223
S'wsgi.run_once'
p3224
asbag57
(g78
g59
NtRp3225
(dp3226
g62
(dp3227
g89
g90
ssg71
g3216
sg64
(lp3228
S':'
asbag57
(g78
g59
NtRp3229
(dp3230
g62
(dp3231
sg71
g3216
sg64
(lp3232
g57
(g58
g59
NtRp3233
(dp3234
g62
(dp3235
g70
I3
ssg71
g3229
sg64
(lp3236
g985
asbasbasbag57
(g73
g59
NtRp3237
(dp3238
g62
(dp3239
sg71
g2600
sg64
(lp3240
g57
(g78
g59
NtRp3241
(dp3242
g62
(dp3243
g82
g83
ssg71
g3237
sg64
(lp3244
S'wsgi.url_scheme'
p3245
asbag57
(g78
g59
NtRp3246
(dp3247
g62
(dp3248
g89
g90
ssg71
g3237
sg64
(lp3249
S':'
asbag57
(g78
g59
NtRp3250
(dp3251
g62
(dp3252
sg71
g3237
sg64
(lp3253
g57
(g58
g59
NtRp3254
(dp3255
g62
(dp3256
g70
I3
ssg71
g3250
sg64
(lp3257
g1852
asbasbasbag57
(g73
g59
NtRp3258
(dp3259
g62
(dp3260
sg71
g2600
sg64
(lp3261
g57
(g78
g59
NtRp3262
(dp3263
g62
(dp3264
g82
g83
ssg71
g3258
sg64
(lp3265
S'wsgi.version'
p3266
asbag57
(g78
g59
NtRp3267
(dp3268
g62
(dp3269
g89
g90
ssg71
g3258
sg64
(lp3270
S':'
asbag57
(g78
g59
NtRp3271
(dp3272
g62
(dp3273
sg71
g3258
sg64
(lp3274
g57
(g58
g59
NtRp3275
(dp3276
g62
(dp3277
g70
I3
ssg71
g3271
sg64
(lp3278
S'1'
asbasbasbasbasbasbasbasbasbasbasbasbasbsS'frames'
p3279
(lp3280
(dp3281
S'file'
p3282
S'C:\\xampp\\htdocs\\web2py\\gluon\\restricted.py'
p3283
sS'dump'
p3284
(dp3285
sS'lnum'
p3286
I209
sS'lines'
p3287
(dp3288
sS'call'
p3289
S'(code="from gluon.tools import prettydate\\nimport dateti...den.\')\\nresponse._vars=response._caller(feedback)\\n", environment={\'A\': <class \'gluon.html.A\'>, \'Auth\': <class \'gluon.tools.Auth\'>, \'B\': <class \'gluon.html.B\'>, \'BEAUTIFY\': <class \'gluon.html.BEAUTIFY\'>, \'BODY\': <class \'gluon.html.BODY\'>, \'BR\': <class \'gluon.html.BR\'>, \'BUTTON\': <class \'gluon.html.BUTTON\'>, \'CAT\': <class \'gluon.html.CAT\'>, \'CENTER\': <class \'gluon.html.CENTER\'>, \'CLEANUP\': <class \'gluon.validators.CLEANUP\'>, ...}, layer=r\'C:\\xampp\\htdocs\\web2py\\applications\\testumgebung\\controllers/plugin_feedbacks.py\')'
p3290
sS'func'
p3291
S'restricted'
p3292
sa(dp3293
g3282
S'C:\\xampp\\htdocs\\web2py\\applications\\testumgebung\\controllers\\plugin_feedbacks.py'
p3294
sg3284
(dp3295
sg3286
I45
sg3287
(dp3296
I35
S'    """'
p3297
sI36
S'    pruefen, dass eine IP nicht so oft hintereinander Feedback sendet'
p3298
sI37
S'    """'
p3299
sI38
S'    # todo: auf 30 Minuten setzen, datetime irgendwie als String formatieren'
p3300
sI39
S'    #records = db((db.plugin_feedbacks_feedback.senderip == form.vars.senderip) & (db.plugin_feedbacks_feedback.commentdate > str(datetime.datetime.now() - datetime.timedelta(minutes=15)))).select()'
p3301
sI40
S''
sI41
S''
sI42
S''
sI43
S'    if session.plugin_feedbacks["sentFeedback"] == 1 and session.plugin_feedbacks["time"] > (datetime.datetime.now() - datetime.timedelta(minutes=15)):'
p3302
sI44
S"        form.errors.message = T('Wir freuen uns, dass Sie uns Feedback geben m\xc3\xb6chten. Aus Sicherheitsgr\xc3\xbcnden kann von einer Person nur einmal pro halbe Stunde ein Feedback gegeben werden.')"
p3303
ssg3289
S'()'
p3304
sg3291
S'<module>'
p3305
sa(dp3306
g3282
S'C:\\xampp\\htdocs\\web2py\\gluon\\globals.py'
p3307
sg3284
(dp3308
sg3286
I185
sg3287
(dp3309
sg3289
S'(f=<function feedback>)'
p3310
sg3291
S'<lambda>'
p3311
sa(dp3312
g3282
S'C:\\xampp\\htdocs\\web2py\\applications\\testumgebung\\controllers\\plugin_feedbacks.py'
p3313
sg3284
(dp3314
sg3286
I30
sg3287
(dp3315
I32
S'    return dict(form=form, likes=likes, dislikes=dislikes, show_tab=show_tab)'
p3316
sI33
S''
sI34
S'def check_plugin_feedbacks_feedback_form(form):'
p3317
sI25
S'    for likerow in likes:'
p3318
sI26
S'        likerow.commentdate = prettydate(likerow.commentdate,T)'
p3319
sI27
S'    for dislikerow in dislikes:'
p3320
sI28
S'        dislikerow.commentdate = prettydate(dislikerow.commentdate,T)'
p3321
sI29
S''
sI30
S'    records = db((db.plugin_feedbacks_feedback.senderip == form.vars.senderip) & (db.plugin_feedbacks_feedback.commentdate > test)).select()'
p3322
sI31
S''
ssg3289
S'()'
p3323
sg3291
S'feedback'
p3324
sasS'pyver'
p3325
S'Python 2.7: C:\\xampp\\htdocs\\web2py\\web2py.exe'
p3326
sS'session'
p3327
g57
(g58
g59
NtRp3328
(dp3329
g62
(dp3330
sg64
(lp3331
g57
(g66
g59
NtRp3332
(dp3333
g62
(dp3334
g70
I5
ssg71
Nsg64
(lp3335
g57
(g73
g59
NtRp3336
(dp3337
g62
(dp3338
sg71
g3332
sg64
(lp3339
g57
(g78
g59
NtRp3340
(dp3341
g62
(dp3342
g82
g83
ssg71
g3336
sg64
(lp3343
S'auth'
p3344
asbag57
(g78
g59
NtRp3345
(dp3346
g62
(dp3347
g89
g90
ssg71
g3336
sg64
(lp3348
S':'
asbag57
(g78
g59
NtRp3349
(dp3350
g62
(dp3351
sg71
g3336
sg64
(lp3352
g57
(g58
g59
NtRp3353
(dp3354
g62
(dp3355
g70
I5
ssg71
g3349
sg64
(lp3356
S'None'
p3357
asbasbasbag57
(g73
g59
NtRp3358
(dp3359
g62
(dp3360
sg71
g3332
sg64
(lp3361
g57
(g78
g59
NtRp3362
(dp3363
g62
(dp3364
g82
g83
ssg71
g3358
sg64
(lp3365
S'plugin_feedbacks'
p3366
asbag57
(g78
g59
NtRp3367
(dp3368
g62
(dp3369
g89
g90
ssg71
g3358
sg64
(lp3370
S':'
asbag57
(g78
g59
NtRp3371
(dp3372
g62
(dp3373
sg71
g3358
sg64
(lp3374
g57
(g58
g59
NtRp3375
(dp3376
g62
(dp3377
g70
I5
ssg71
g3371
sg64
(lp3378
g57
(g66
g59
NtRp3379
(dp3380
g62
(dp3381
g70
I4
ssg71
Nsg64
(lp3382
g57
(g73
g59
NtRp3383
(dp3384
g62
(dp3385
sg71
g3379
sg64
(lp3386
g57
(g78
g59
NtRp3387
(dp3388
g62
(dp3389
g82
g83
ssg71
g3383
sg64
(lp3390
S'sentFeedback'
p3391
asbag57
(g78
g59
NtRp3392
(dp3393
g62
(dp3394
g89
g90
ssg71
g3383
sg64
(lp3395
S':'
asbag57
(g78
g59
NtRp3396
(dp3397
g62
(dp3398
sg71
g3383
sg64
(lp3399
g57
(g58
g59
NtRp3400
(dp3401
g62
(dp3402
g70
I4
ssg71
g3396
sg64
(lp3403
S'0'
asbasbasbag57
(g73
g59
NtRp3404
(dp3405
g62
(dp3406
sg71
g3379
sg64
(lp3407
g57
(g78
g59
NtRp3408
(dp3409
g62
(dp3410
g82
g83
ssg71
g3404
sg64
(lp3411
S'time'
p3412
asbag57
(g78
g59
NtRp3413
(dp3414
g62
(dp3415
g89
g90
ssg71
g3404
sg64
(lp3416
S':'
asbag57
(g78
g59
NtRp3417
(dp3418
g62
(dp3419
sg71
g3404
sg64
(lp3420
g57
(g58
g59
NtRp3421
(dp3422
g62
(dp3423
g70
I4
ssg71
g3417
sg64
(lp3424
S'datetime.datetime(2012, 12, 18, 13, 5, 23, 716000)'
p3425
asbasbasbasbasbasbasbasbasbsS'etype'
p3426
S"<type 'exceptions.NameError'>"
p3427
sS'date'
p3428
S'Tue Dec 18 13:05:23 2012'
p3429
sS'response'
p3430
g57
(g58
g59
NtRp3431
(dp3432
g62
(dp3433
sg64
(lp3434
g57
(g66
g59
NtRp3435
(dp3436
g62
(dp3437
g70
I5
ssg71
Nsg64
(lp3438
g57
(g73
g59
NtRp3439
(dp3440
g62
(dp3441
sg71
g3435
sg64
(lp3442
g57
(g78
g59
NtRp3443
(dp3444
g62
(dp3445
g82
g83
ssg71
g3439
sg64
(lp3446
g155
asbag57
(g78
g59
NtRp3447
(dp3448
g62
(dp3449
g89
g90
ssg71
g3439
sg64
(lp3450
S':'
asbag57
(g78
g59
NtRp3451
(dp3452
g62
(dp3453
sg71
g3439
sg64
(lp3454
g57
(g58
g59
NtRp3455
(dp3456
g62
(dp3457
g70
I5
ssg71
g3451
sg64
(lp3458
S'<cStringIO.StringO object at 0x08186280>'
p3459
asbasbasbag57
(g73
g59
NtRp3460
(dp3461
g62
(dp3462
sg71
g3435
sg64
(lp3463
g57
(g78
g59
NtRp3464
(dp3465
g62
(dp3466
g82
g83
ssg71
g3460
sg64
(lp3467
g243
asbag57
(g78
g59
NtRp3468
(dp3469
g62
(dp3470
g89
g90
ssg71
g3460
sg64
(lp3471
S':'
asbag57
(g78
g59
NtRp3472
(dp3473
g62
(dp3474
sg71
g3460
sg64
(lp3475
g57
(g58
g59
NtRp3476
(dp3477
g62
(dp3478
g70
I5
ssg71
g3472
sg64
(lp3479
g57
(g66
g59
NtRp3480
(dp3481
g62
(dp3482
g70
I4
ssg71
Nsg64
(lp3483
g57
(g73
g59
NtRp3484
(dp3485
g62
(dp3486
sg71
g3480
sg64
(lp3487
g57
(g78
g59
NtRp3488
(dp3489
g62
(dp3490
g82
g83
ssg71
g3484
sg64
(lp3491
S'session_id_testumgebung'
p3492
asbag57
(g78
g59
NtRp3493
(dp3494
g62
(dp3495
g89
g90
ssg71
g3484
sg64
(lp3496
S':'
asbag57
(g78
g59
NtRp3497
(dp3498
g62
(dp3499
sg71
g3484
sg64
(lp3500
g57
(g58
g59
NtRp3501
(dp3502
g62
(dp3503
g70
I4
ssg71
g3497
sg64
(lp3504
g475
ag57
(g66
g59
NtRp3505
(dp3506
g62
(dp3507
g70
I3
ssg71
Nsg64
(lp3508
g57
(g73
g59
NtRp3509
(dp3510
g62
(dp3511
sg71
g3505
sg64
(lp3512
g57
(g78
g59
NtRp3513
(dp3514
g62
(dp3515
g82
g83
ssg71
g3509
sg64
(lp3516
g294
asbag57
(g78
g59
NtRp3517
(dp3518
g62
(dp3519
g89
g90
ssg71
g3509
sg64
(lp3520
S':'
asbag57
(g78
g59
NtRp3521
(dp3522
g62
(dp3523
sg71
g3509
sg64
(lp3524
g57
(g58
g59
NtRp3525
(dp3526
g62
(dp3527
g70
I3
ssg71
g3521
sg64
(lp3528
S''
asbasbasbag57
(g73
g59
NtRp3529
(dp3530
g62
(dp3531
sg71
g3505
sg64
(lp3532
g57
(g78
g59
NtRp3533
(dp3534
g62
(dp3535
g82
g83
ssg71
g3529
sg64
(lp3536
g315
asbag57
(g78
g59
NtRp3537
(dp3538
g62
(dp3539
g89
g90
ssg71
g3529
sg64
(lp3540
S':'
asbag57
(g78
g59
NtRp3541
(dp3542
g62
(dp3543
sg71
g3529
sg64
(lp3544
g57
(g58
g59
NtRp3545
(dp3546
g62
(dp3547
g70
I3
ssg71
g3541
sg64
(lp3548
S''
asbasbasbag57
(g73
g59
NtRp3549
(dp3550
g62
(dp3551
sg71
g3505
sg64
(lp3552
g57
(g78
g59
NtRp3553
(dp3554
g62
(dp3555
g82
g83
ssg71
g3549
sg64
(lp3556
g336
asbag57
(g78
g59
NtRp3557
(dp3558
g62
(dp3559
g89
g90
ssg71
g3549
sg64
(lp3560
S':'
asbag57
(g78
g59
NtRp3561
(dp3562
g62
(dp3563
sg71
g3549
sg64
(lp3564
g57
(g58
g59
NtRp3565
(dp3566
g62
(dp3567
g70
I3
ssg71
g3561
sg64
(lp3568
S''
asbasbasbag57
(g73
g59
NtRp3569
(dp3570
g62
(dp3571
sg71
g3505
sg64
(lp3572
g57
(g78
g59
NtRp3573
(dp3574
g62
(dp3575
g82
g83
ssg71
g3569
sg64
(lp3576
g357
asbag57
(g78
g59
NtRp3577
(dp3578
g62
(dp3579
g89
g90
ssg71
g3569
sg64
(lp3580
S':'
asbag57
(g78
g59
NtRp3581
(dp3582
g62
(dp3583
sg71
g3569
sg64
(lp3584
g57
(g58
g59
NtRp3585
(dp3586
g62
(dp3587
g70
I3
ssg71
g3581
sg64
(lp3588
S''
asbasbasbag57
(g73
g59
NtRp3589
(dp3590
g62
(dp3591
sg71
g3505
sg64
(lp3592
g57
(g78
g59
NtRp3593
(dp3594
g62
(dp3595
g82
g83
ssg71
g3589
sg64
(lp3596
g378
asbag57
(g78
g59
NtRp3597
(dp3598
g62
(dp3599
g89
g90
ssg71
g3589
sg64
(lp3600
S':'
asbag57
(g78
g59
NtRp3601
(dp3602
g62
(dp3603
sg71
g3589
sg64
(lp3604
g57
(g58
g59
NtRp3605
(dp3606
g62
(dp3607
g70
I3
ssg71
g3601
sg64
(lp3608
S''
asbasbasbag57
(g73
g59
NtRp3609
(dp3610
g62
(dp3611
sg71
g3505
sg64
(lp3612
g57
(g78
g59
NtRp3613
(dp3614
g62
(dp3615
g82
g83
ssg71
g3609
sg64
(lp3616
g399
asbag57
(g78
g59
NtRp3617
(dp3618
g62
(dp3619
g89
g90
ssg71
g3609
sg64
(lp3620
S':'
asbag57
(g78
g59
NtRp3621
(dp3622
g62
(dp3623
sg71
g3609
sg64
(lp3624
g57
(g58
g59
NtRp3625
(dp3626
g62
(dp3627
g70
I3
ssg71
g3621
sg64
(lp3628
S'/'
asbasbasbag57
(g73
g59
NtRp3629
(dp3630
g62
(dp3631
sg71
g3505
sg64
(lp3632
g57
(g78
g59
NtRp3633
(dp3634
g62
(dp3635
g82
g83
ssg71
g3629
sg64
(lp3636
g420
asbag57
(g78
g59
NtRp3637
(dp3638
g62
(dp3639
g89
g90
ssg71
g3629
sg64
(lp3640
S':'
asbag57
(g78
g59
NtRp3641
(dp3642
g62
(dp3643
sg71
g3629
sg64
(lp3644
g57
(g58
g59
NtRp3645
(dp3646
g62
(dp3647
g70
I3
ssg71
g3641
sg64
(lp3648
S''
asbasbasbag57
(g73
g59
NtRp3649
(dp3650
g62
(dp3651
sg71
g3505
sg64
(lp3652
g57
(g78
g59
NtRp3653
(dp3654
g62
(dp3655
g82
g83
ssg71
g3649
sg64
(lp3656
g441
asbag57
(g78
g59
NtRp3657
(dp3658
g62
(dp3659
g89
g90
ssg71
g3649
sg64
(lp3660
S':'
asbag57
(g78
g59
NtRp3661
(dp3662
g62
(dp3663
sg71
g3649
sg64
(lp3664
g57
(g58
g59
NtRp3665
(dp3666
g62
(dp3667
g70
I3
ssg71
g3661
sg64
(lp3668
S''
asbasbasbasbasbasbasbasbasbasbasbag57
(g73
g59
NtRp3669
(dp3670
g62
(dp3671
sg71
g3435
sg64
(lp3672
g57
(g78
g59
NtRp3673
(dp3674
g62
(dp3675
g82
g83
ssg71
g3669
sg64
(lp3676
S'delimiters'
p3677
asbag57
(g78
g59
NtRp3678
(dp3679
g62
(dp3680
g89
g90
ssg71
g3669
sg64
(lp3681
S':'
asbag57
(g78
g59
NtRp3682
(dp3683
g62
(dp3684
sg71
g3669
sg64
(lp3685
g57
(g58
g59
NtRp3686
(dp3687
g62
(dp3688
g70
I5
ssg71
g3682
sg64
(lp3689
g57
(g66
g59
NtRp3690
(dp3691
g62
(dp3692
g70
I4
ssg71
Nsg64
(lp3693
g57
(g73
g59
NtRp3694
(dp3695
g62
(dp3696
sg71
g3690
sg64
(lp3697
g57
(g78
g59
NtRp3698
(dp3699
g62
(dp3700
sg71
g3694
sg64
(lp3701
g57
(g58
g59
NtRp3702
(dp3703
g62
(dp3704
g70
I4
ssg71
g3698
sg64
(lp3705
S'{{'
p3706
asbasbasbag57
(g73
g59
NtRp3707
(dp3708
g62
(dp3709
sg71
g3690
sg64
(lp3710
g57
(g78
g59
NtRp3711
(dp3712
g62
(dp3713
sg71
g3707
sg64
(lp3714
g57
(g58
g59
NtRp3715
(dp3716
g62
(dp3717
g70
I4
ssg71
g3711
sg64
(lp3718
S'}}'
p3719
asbasbasbasbasbasbasbag57
(g73
g59
NtRp3720
(dp3721
g62
(dp3722
sg71
g3435
sg64
(lp3723
g57
(g78
g59
NtRp3724
(dp3725
g62
(dp3726
g82
g83
ssg71
g3720
sg64
(lp3727
S'files'
p3728
asbag57
(g78
g59
NtRp3729
(dp3730
g62
(dp3731
g89
g90
ssg71
g3720
sg64
(lp3732
S':'
asbag57
(g78
g59
NtRp3733
(dp3734
g62
(dp3735
sg71
g3720
sg64
(lp3736
g57
(g58
g59
NtRp3737
(dp3738
g62
(dp3739
g70
I5
ssg71
g3733
sg64
(lp3740
g57
(g66
g59
NtRp3741
(dp3742
g62
(dp3743
g70
I4
ssg71
Nsg64
(lp3744
sbasbasbasbag57
(g73
g59
NtRp3745
(dp3746
g62
(dp3747
sg71
g3435
sg64
(lp3748
g57
(g78
g59
NtRp3749
(dp3750
g62
(dp3751
g82
g83
ssg71
g3745
sg64
(lp3752
S'flash'
p3753
asbag57
(g78
g59
NtRp3754
(dp3755
g62
(dp3756
g89
g90
ssg71
g3745
sg64
(lp3757
S':'
asbag57
(g78
g59
NtRp3758
(dp3759
g62
(dp3760
sg71
g3745
sg64
(lp3761
g57
(g58
g59
NtRp3762
(dp3763
g62
(dp3764
g70
I5
ssg71
g3758
sg64
(lp3765
S''
asbasbasbag57
(g73
g59
NtRp3766
(dp3767
g62
(dp3768
sg71
g3435
sg64
(lp3769
g57
(g78
g59
NtRp3770
(dp3771
g62
(dp3772
g82
g83
ssg71
g3766
sg64
(lp3773
S'generic_patterns'
p3774
asbag57
(g78
g59
NtRp3775
(dp3776
g62
(dp3777
g89
g90
ssg71
g3766
sg64
(lp3778
S':'
asbag57
(g78
g59
NtRp3779
(dp3780
g62
(dp3781
sg71
g3766
sg64
(lp3782
g57
(g58
g59
NtRp3783
(dp3784
g62
(dp3785
g70
I5
ssg71
g3779
sg64
(lp3786
g57
(g66
g59
NtRp3787
(dp3788
g62
(dp3789
g70
I4
ssg71
Nsg64
(lp3790
g57
(g73
g59
NtRp3791
(dp3792
g62
(dp3793
sg71
g3787
sg64
(lp3794
g57
(g78
g59
NtRp3795
(dp3796
g62
(dp3797
sg71
g3791
sg64
(lp3798
g57
(g58
g59
NtRp3799
(dp3800
g62
(dp3801
g70
I4
ssg71
g3795
sg64
(lp3802
S'*'
asbasbasbasbasbasbasbag57
(g73
g59
NtRp3803
(dp3804
g62
(dp3805
sg71
g3435
sg64
(lp3806
g57
(g78
g59
NtRp3807
(dp3808
g62
(dp3809
g82
g83
ssg71
g3803
sg64
(lp3810
S'google_analytics_id'
p3811
asbag57
(g78
g59
NtRp3812
(dp3813
g62
(dp3814
g89
g90
ssg71
g3803
sg64
(lp3815
S':'
asbag57
(g78
g59
NtRp3816
(dp3817
g62
(dp3818
sg71
g3803
sg64
(lp3819
g57
(g58
g59
NtRp3820
(dp3821
g62
(dp3822
g70
I5
ssg71
g3816
sg64
(lp3823
S'None'
p3824
asbasbasbag57
(g73
g59
NtRp3825
(dp3826
g62
(dp3827
sg71
g3435
sg64
(lp3828
g57
(g78
g59
NtRp3829
(dp3830
g62
(dp3831
g82
g83
ssg71
g3825
sg64
(lp3832
S'headers'
p3833
asbag57
(g78
g59
NtRp3834
(dp3835
g62
(dp3836
g89
g90
ssg71
g3825
sg64
(lp3837
S':'
asbag57
(g78
g59
NtRp3838
(dp3839
g62
(dp3840
sg71
g3825
sg64
(lp3841
g57
(g58
g59
NtRp3842
(dp3843
g62
(dp3844
g70
I5
ssg71
g3838
sg64
(lp3845
g57
(g66
g59
NtRp3846
(dp3847
g62
(dp3848
g70
I4
ssg71
Nsg64
(lp3849
g57
(g73
g59
NtRp3850
(dp3851
g62
(dp3852
sg71
g3846
sg64
(lp3853
g57
(g78
g59
NtRp3854
(dp3855
g62
(dp3856
g82
g83
ssg71
g3850
sg64
(lp3857
S'Cache-Control'
p3858
asbag57
(g78
g59
NtRp3859
(dp3860
g62
(dp3861
g89
g90
ssg71
g3850
sg64
(lp3862
S':'
asbag57
(g78
g59
NtRp3863
(dp3864
g62
(dp3865
sg71
g3850
sg64
(lp3866
g57
(g58
g59
NtRp3867
(dp3868
g62
(dp3869
g70
I4
ssg71
g3863
sg64
(lp3870
S'no-store, no-cache, must-revalidate, post-check=0, pre-check=0'
p3871
asbasbasbag57
(g73
g59
NtRp3872
(dp3873
g62
(dp3874
sg71
g3846
sg64
(lp3875
g57
(g78
g59
NtRp3876
(dp3877
g62
(dp3878
g82
g83
ssg71
g3872
sg64
(lp3879
S'Content-Type'
p3880
asbag57
(g78
g59
NtRp3881
(dp3882
g62
(dp3883
g89
g90
ssg71
g3872
sg64
(lp3884
S':'
asbag57
(g78
g59
NtRp3885
(dp3886
g62
(dp3887
sg71
g3872
sg64
(lp3888
g57
(g58
g59
NtRp3889
(dp3890
g62
(dp3891
g70
I4
ssg71
g3885
sg64
(lp3892
S'text/html; charset=utf-8'
p3893
asbasbasbag57
(g73
g59
NtRp3894
(dp3895
g62
(dp3896
sg71
g3846
sg64
(lp3897
g57
(g78
g59
NtRp3898
(dp3899
g62
(dp3900
g82
g83
ssg71
g3894
sg64
(lp3901
S'Expires'
p3902
asbag57
(g78
g59
NtRp3903
(dp3904
g62
(dp3905
g89
g90
ssg71
g3894
sg64
(lp3906
S':'
asbag57
(g78
g59
NtRp3907
(dp3908
g62
(dp3909
sg71
g3894
sg64
(lp3910
g57
(g58
g59
NtRp3911
(dp3912
g62
(dp3913
g70
I4
ssg71
g3907
sg64
(lp3914
S'Tue, 18 Dec 2012 12:05:23 GMT'
p3915
asbasbasbag57
(g73
g59
NtRp3916
(dp3917
g62
(dp3918
sg71
g3846
sg64
(lp3919
g57
(g78
g59
NtRp3920
(dp3921
g62
(dp3922
g82
g83
ssg71
g3916
sg64
(lp3923
S'Pragma'
p3924
asbag57
(g78
g59
NtRp3925
(dp3926
g62
(dp3927
g89
g90
ssg71
g3916
sg64
(lp3928
S':'
asbag57
(g78
g59
NtRp3929
(dp3930
g62
(dp3931
sg71
g3916
sg64
(lp3932
g57
(g58
g59
NtRp3933
(dp3934
g62
(dp3935
g70
I4
ssg71
g3929
sg64
(lp3936
S'no-cache'
p3937
asbasbasbag57
(g73
g59
NtRp3938
(dp3939
g62
(dp3940
sg71
g3846
sg64
(lp3941
g57
(g78
g59
NtRp3942
(dp3943
g62
(dp3944
g82
g83
ssg71
g3938
sg64
(lp3945
S'X-Powered-By'
p3946
asbag57
(g78
g59
NtRp3947
(dp3948
g62
(dp3949
g89
g90
ssg71
g3938
sg64
(lp3950
S':'
asbag57
(g78
g59
NtRp3951
(dp3952
g62
(dp3953
sg71
g3938
sg64
(lp3954
g57
(g58
g59
NtRp3955
(dp3956
g62
(dp3957
g70
I4
ssg71
g3951
sg64
(lp3958
S'web2py'
p3959
asbasbasbasbasbasbasbag57
(g73
g59
NtRp3960
(dp3961
g62
(dp3962
sg71
g3435
sg64
(lp3963
g57
(g78
g59
NtRp3964
(dp3965
g62
(dp3966
g82
g83
ssg71
g3960
sg64
(lp3967
S'menu'
p3968
asbag57
(g78
g59
NtRp3969
(dp3970
g62
(dp3971
g89
g90
ssg71
g3960
sg64
(lp3972
S':'
asbag57
(g78
g59
NtRp3973
(dp3974
g62
(dp3975
sg71
g3960
sg64
(lp3976
g57
(g58
g59
NtRp3977
(dp3978
g62
(dp3979
g70
I5
ssg71
g3973
sg64
(lp3980
g57
(g66
g59
NtRp3981
(dp3982
g62
(dp3983
g70
I4
ssg71
Nsg64
(lp3984
g57
(g73
g59
NtRp3985
(dp3986
g62
(dp3987
sg71
g3981
sg64
(lp3988
g57
(g78
g59
NtRp3989
(dp3990
g62
(dp3991
sg71
g3985
sg64
(lp3992
g57
(g58
g59
NtRp3993
(dp3994
g62
(dp3995
g70
I4
ssg71
g3989
sg64
(lp3996
g57
(g66
g59
NtRp3997
(dp3998
g62
(dp3999
g70
I3
ssg71
Nsg64
(lp4000
g57
(g73
g59
NtRp4001
(dp4002
g62
(dp4003
sg71
g3997
sg64
(lp4004
g57
(g78
g59
NtRp4005
(dp4006
g62
(dp4007
sg71
g4001
sg64
(lp4008
g57
(g58
g59
NtRp4009
(dp4010
g62
(dp4011
g70
I3
ssg71
g4005
sg64
(lp4012
cgluon.languages
lazyT_unpickle
p4013
(S't\x04\x00\x00\x00Home'
tRp4014
asbasbasbag57
(g73
g59
NtRp4015
(dp4016
g62
(dp4017
sg71
g3997
sg64
(lp4018
g57
(g78
g59
NtRp4019
(dp4020
g62
(dp4021
sg71
g4015
sg64
(lp4022
g57
(g58
g59
NtRp4023
(dp4024
g62
(dp4025
g70
I3
ssg71
g4019
sg64
(lp4026
g985
asbasbasbag57
(g73
g59
NtRp4027
(dp4028
g62
(dp4029
sg71
g3997
sg64
(lp4030
g57
(g78
g59
NtRp4031
(dp4032
g62
(dp4033
sg71
g4027
sg64
(lp4034
g57
(g58
g59
NtRp4035
(dp4036
g62
(dp4037
g70
I3
ssg71
g4031
sg64
(lp4038
S'/testumgebung/default/index.load'
p4039
asbasbasbag57
(g73
g59
NtRp4040
(dp4041
g62
(dp4042
sg71
g3997
sg64
(lp4043
g57
(g78
g59
NtRp4044
(dp4045
g62
(dp4046
sg71
g4040
sg64
(lp4047
g57
(g58
g59
NtRp4048
(dp4049
g62
(dp4050
g70
I3
ssg71
g4044
sg64
(lp4051
g57
(g66
g59
NtRp4052
(dp4053
g62
(dp4054
g70
I2
ssg71
Nsg64
(lp4055
sbasbasbasbasbasbasbasbag57
(g73
g59
NtRp4056
(dp4057
g62
(dp4058
sg71
g3981
sg64
(lp4059
g57
(g78
g59
NtRp4060
(dp4061
g62
(dp4062
sg71
g4056
sg64
(lp4063
g57
(g58
g59
NtRp4064
(dp4065
g62
(dp4066
g70
I4
ssg71
g4060
sg64
(lp4067
g57
(g66
g59
NtRp4068
(dp4069
g62
(dp4070
g70
I3
ssg71
Nsg64
(lp4071
g57
(g73
g59
NtRp4072
(dp4073
g62
(dp4074
sg71
g4068
sg64
(lp4075
g57
(g78
g59
NtRp4076
(dp4077
g62
(dp4078
sg71
g4072
sg64
(lp4079
g57
(g58
g59
NtRp4080
(dp4081
g62
(dp4082
g70
I3
ssg71
g4076
sg64
(lp4083
g57
(cgluon.html
SPAN
p4084
g59
NtRp4085
(dp4086
g62
(dp4087
g82
S'color:yellow'
p4088
ssg71
Nsg64
(lp4089
g3959
asbasbasbasbag57
(g73
g59
NtRp4090
(dp4091
g62
(dp4092
sg71
g4068
sg64
(lp4093
g57
(g78
g59
NtRp4094
(dp4095
g62
(dp4096
sg71
g4090
sg64
(lp4097
g57
(g58
g59
NtRp4098
(dp4099
g62
(dp4100
g70
I3
ssg71
g4094
sg64
(lp4101
g985
asbasbasbag57
(g73
g59
NtRp4102
(dp4103
g62
(dp4104
sg71
g4068
sg64
(lp4105
g57
(g78
g59
NtRp4106
(dp4107
g62
(dp4108
sg71
g4102
sg64
(lp4109
g57
(g58
g59
NtRp4110
(dp4111
g62
(dp4112
g70
I3
ssg71
g4106
sg64
(lp4113
S'http://web2py.com'
p4114
asbasbasbag57
(g73
g59
NtRp4115
(dp4116
g62
(dp4117
sg71
g4068
sg64
(lp4118
g57
(g78
g59
NtRp4119
(dp4120
g62
(dp4121
sg71
g4115
sg64
(lp4122
g57
(g58
g59
NtRp4123
(dp4124
g62
(dp4125
g70
I3
ssg71
g4119
sg64
(lp4126
g57
(g66
g59
NtRp4127
(dp4128
g62
(dp4129
g70
I2
ssg71
Nsg64
(lp4130
g57
(g73
g59
NtRp4131
(dp4132
g62
(dp4133
sg71
g4127
sg64
(lp4134
g57
(g78
g59
NtRp4135
(dp4136
g62
(dp4137
sg71
g4131
sg64
(lp4138
g57
(g58
g59
NtRp4139
(dp4140
g62
(dp4141
g70
I2
ssg71
g4135
sg64
(lp4142
g57
(g66
g59
NtRp4143
(dp4144
g62
(dp4145
g70
I1
ssg71
Nsg64
(lp4146
g57
(g73
g59
NtRp4147
(dp4148
g62
(dp4149
sg71
g4143
sg64
(lp4150
g57
(g78
g59
NtRp4151
(dp4152
g62
(dp4153
sg71
g4147
sg64
(lp4154
g57
(g58
g59
NtRp4155
(dp4156
g62
(dp4157
g70
I1
ssg71
g4151
sg64
(lp4158
g4013
(S's\x08\x00\x00\x00My Sites'
tRp4159
asbasbasbag57
(g73
g59
NtRp4160
(dp4161
g62
(dp4162
sg71
g4143
sg64
(lp4163
g57
(g78
g59
NtRp4164
(dp4165
g62
(dp4166
sg71
g4160
sg64
(lp4167
g57
(g58
g59
NtRp4168
(dp4169
g62
(dp4170
g70
I1
ssg71
g4164
sg64
(lp4171
I00
asbasbasbag57
(g73
g59
NtRp4172
(dp4173
g62
(dp4174
sg71
g4143
sg64
(lp4175
g57
(g78
g59
NtRp4176
(dp4177
g62
(dp4178
sg71
g4172
sg64
(lp4179
g57
(g58
g59
NtRp4180
(dp4181
g62
(dp4182
g70
I1
ssg71
g4176
sg64
(lp4183
S'/admin/default/site.load'
p4184
asbasbasbasbasbasbasbag57
(g73
g59
NtRp4185
(dp4186
g62
(dp4187
sg71
g4127
sg64
(lp4188
g57
(g78
g59
NtRp4189
(dp4190
g62
(dp4191
sg71
g4185
sg64
(lp4192
g57
(g58
g59
NtRp4193
(dp4194
g62
(dp4195
g70
I2
ssg71
g4189
sg64
(lp4196
g57
(g66
g59
NtRp4197
(dp4198
g62
(dp4199
g70
I1
ssg71
Nsg64
(lp4200
g57
(g73
g59
NtRp4201
(dp4202
g62
(dp4203
sg71
g4197
sg64
(lp4204
g57
(g78
g59
NtRp4205
(dp4206
g62
(dp4207
sg71
g4201
sg64
(lp4208
g57
(g58
g59
NtRp4209
(dp4210
g62
(dp4211
g70
I1
ssg71
g4205
sg64
(lp4212
g4013
(S's\x08\x00\x00\x00This App'
tRp4213
asbasbasbag57
(g73
g59
NtRp4214
(dp4215
g62
(dp4216
sg71
g4197
sg64
(lp4217
g57
(g78
g59
NtRp4218
(dp4219
g62
(dp4220
sg71
g4214
sg64
(lp4221
g57
(g58
g59
NtRp4222
(dp4223
g62
(dp4224
g70
I1
ssg71
g4218
sg64
(lp4225
I00
asbasbasbag57
(g73
g59
NtRp4226
(dp4227
g62
(dp4228
sg71
g4197
sg64
(lp4229
g57
(g78
g59
NtRp4230
(dp4231
g62
(dp4232
sg71
g4226
sg64
(lp4233
g57
(g58
g59
NtRp4234
(dp4235
g62
(dp4236
g70
I1
ssg71
g4230
sg64
(lp4237
S'/admin/default/design.load/testumgebung'
p4238
asbasbasbag57
(g73
g59
NtRp4239
(dp4240
g62
(dp4241
sg71
g4197
sg64
(lp4242
g57
(g78
g59
NtRp4243
(dp4244
g62
(dp4245
sg71
g4239
sg64
(lp4246
g57
(g58
g59
NtRp4247
(dp4248
g62
(dp4249
g70
I1
ssg71
g4243
sg64
(lp4250
(lp4251
(g4013
(S't\n\x00\x00\x00Controller'
tRp4252
I00
S'/admin/default/edit.load/testumgebung/controllers/plugin_feedbacks.py'
tp4253
a(g4013
(S't\x04\x00\x00\x00View'
tRp4254
I00
S'/admin/default/edit.load/testumgebung/views/plugin_feedbacks/feedback.load'
tp4255
a(g4013
(S't\x06\x00\x00\x00Layout'
tRp4256
I00
S'/admin/default/edit.load/testumgebung/views/layout.html'
tp4257
a(g4013
(S't\n\x00\x00\x00Stylesheet'
tRp4258
I00
S'/admin/default/edit.load/testumgebung/static/css/web2py.css'
tp4259
a(g4013
(S's\x08\x00\x00\x00DB Model'
tRp4260
I00
S'/admin/default/edit.load/testumgebung/models/db.py'
tp4261
a(g4013
(S's\n\x00\x00\x00Menu Model'
tRp4262
I00
S'/admin/default/edit.load/testumgebung/models/menu.py'
tp4263
a(g4013
(S't\x08\x00\x00\x00Database'
tRp4264
I00
S'/testumgebung/appadmin/index.load'
tp4265
a(g4013
(S't\x06\x00\x00\x00Errors'
tRp4266
I00
S'/admin/default/errors.load/testumgebung'
tp4267
a(g4013
(S't\x05\x00\x00\x00About'
tRp4268
I00
S'/admin/default/about.load/testumgebung'
tp4269
aasbasbasbasbasbasbasbag57
(g73
g59
NtRp4270
(dp4271
g62
(dp4272
sg71
g4127
sg64
(lp4273
g57
(g78
g59
NtRp4274
(dp4275
g62
(dp4276
sg71
g4270
sg64
(lp4277
g57
(g58
g59
NtRp4278
(dp4279
g62
(dp4280
g70
I2
ssg71
g4274
sg64
(lp4281
g57
(g66
g59
NtRp4282
(dp4283
g62
(dp4284
g70
I1
ssg71
Nsg64
(lp4285
g57
(g73
g59
NtRp4286
(dp4287
g62
(dp4288
sg71
g4282
sg64
(lp4289
g57
(g78
g59
NtRp4290
(dp4291
g62
(dp4292
sg71
g4286
sg64
(lp4293
g57
(g58
g59
NtRp4294
(dp4295
g62
(dp4296
g70
I1
ssg71
g4290
sg64
(lp4297
S'web2py.com'
p4298
asbasbasbag57
(g73
g59
NtRp4299
(dp4300
g62
(dp4301
sg71
g4282
sg64
(lp4302
g57
(g78
g59
NtRp4303
(dp4304
g62
(dp4305
sg71
g4299
sg64
(lp4306
g57
(g58
g59
NtRp4307
(dp4308
g62
(dp4309
g70
I1
ssg71
g4303
sg64
(lp4310
I00
asbasbasbag57
(g73
g59
NtRp4311
(dp4312
g62
(dp4313
sg71
g4282
sg64
(lp4314
g57
(g78
g59
NtRp4315
(dp4316
g62
(dp4317
sg71
g4311
sg64
(lp4318
g57
(g58
g59
NtRp4319
(dp4320
g62
(dp4321
g70
I1
ssg71
g4315
sg64
(lp4322
S'http://www.web2py.com'
p4323
asbasbasbag57
(g73
g59
NtRp4324
(dp4325
g62
(dp4326
sg71
g4282
sg64
(lp4327
g57
(g78
g59
NtRp4328
(dp4329
g62
(dp4330
sg71
g4324
sg64
(lp4331
g57
(g58
g59
NtRp4332
(dp4333
g62
(dp4334
g70
I1
ssg71
g4328
sg64
(lp4335
(lp4336
(g4013
(S't\x08\x00\x00\x00Download'
tRp4337
I00
S'http://www.web2py.com/examples/default/download'
p4338
tp4339
a(g4013
(S't\x07\x00\x00\x00Support'
tRp4340
I00
S'http://www.web2py.com/examples/default/support'
p4341
tp4342
a(g4013
(S't\x04\x00\x00\x00Demo'
tRp4343
I00
S'http://web2py.com/demo_admin'
p4344
tp4345
a(g4013
(S's\x0e\x00\x00\x00Quick Examples'
tRp4346
I00
S'http://web2py.com/examples/default/examples'
p4347
tp4348
a(g4013
(S't\x03\x00\x00\x00FAQ'
tRp4349
I00
S'http://web2py.com/AlterEgo'
p4350
tp4351
a(g4013
(S't\x06\x00\x00\x00Videos'
tRp4352
I00
S'http://www.web2py.com/examples/default/videos/'
p4353
tp4354
a(g4013
(S's\x11\x00\x00\x00Free Applications'
tRp4355
I00
S'http://web2py.com/appliances'
p4356
tp4357
a(g4013
(S't\x07\x00\x00\x00Plugins'
tRp4358
I00
S'http://web2py.com/plugins'
p4359
tp4360
a(g4013
(S't\x07\x00\x00\x00Layouts'
tRp4361
I00
S'http://web2py.com/layouts'
p4362
tp4363
a(g4013
(S't\x07\x00\x00\x00Recipes'
tRp4364
I00
S'http://web2pyslices.com/'
p4365
tp4366
a(g4013
(S't\x08\x00\x00\x00Semantic'
tRp4367
I00
S'http://web2py.com/semantic'
p4368
tp4369
aasbasbasbasbasbasbasbag57
(g73
g59
NtRp4370
(dp4371
g62
(dp4372
sg71
g4127
sg64
(lp4373
g57
(g78
g59
NtRp4374
(dp4375
g62
(dp4376
sg71
g4370
sg64
(lp4377
g57
(g58
g59
NtRp4378
(dp4379
g62
(dp4380
g70
I2
ssg71
g4374
sg64
(lp4381
g57
(g66
g59
NtRp4382
(dp4383
g62
(dp4384
g70
I1
ssg71
Nsg64
(lp4385
g57
(g73
g59
NtRp4386
(dp4387
g62
(dp4388
sg71
g4382
sg64
(lp4389
g57
(g78
g59
NtRp4390
(dp4391
g62
(dp4392
sg71
g4386
sg64
(lp4393
g57
(g58
g59
NtRp4394
(dp4395
g62
(dp4396
g70
I1
ssg71
g4390
sg64
(lp4397
g4013
(S't\r\x00\x00\x00Documentation'
tRp4398
asbasbasbag57
(g73
g59
NtRp4399
(dp4400
g62
(dp4401
sg71
g4382
sg64
(lp4402
g57
(g78
g59
NtRp4403
(dp4404
g62
(dp4405
sg71
g4399
sg64
(lp4406
g57
(g58
g59
NtRp4407
(dp4408
g62
(dp4409
g70
I1
ssg71
g4403
sg64
(lp4410
I00
asbasbasbag57
(g73
g59
NtRp4411
(dp4412
g62
(dp4413
sg71
g4382
sg64
(lp4414
g57
(g78
g59
NtRp4415
(dp4416
g62
(dp4417
sg71
g4411
sg64
(lp4418
g57
(g58
g59
NtRp4419
(dp4420
g62
(dp4421
g70
I1
ssg71
g4415
sg64
(lp4422
S'http://www.web2py.com/book'
p4423
asbasbasbag57
(g73
g59
NtRp4424
(dp4425
g62
(dp4426
sg71
g4382
sg64
(lp4427
g57
(g78
g59
NtRp4428
(dp4429
g62
(dp4430
sg71
g4424
sg64
(lp4431
g57
(g58
g59
NtRp4432
(dp4433
g62
(dp4434
g70
I1
ssg71
g4428
sg64
(lp4435
(lp4436
(g4013
(S't\x07\x00\x00\x00Preface'
tRp4437
I00
S'http://www.web2py.com/book/default/chapter/00'
p4438
tp4439
a(g4013
(S't\x0c\x00\x00\x00Introduction'
tRp4440
I00
S'http://www.web2py.com/book/default/chapter/01'
p4441
tp4442
a(g4013
(S't\x06\x00\x00\x00Python'
tRp4443
I00
S'http://www.web2py.com/book/default/chapter/02'
p4444
tp4445
a(g4013
(S't\x08\x00\x00\x00Overview'
tRp4446
I00
S'http://www.web2py.com/book/default/chapter/03'
p4447
tp4448
a(g4013
(S's\x08\x00\x00\x00The Core'
tRp4449
I00
S'http://www.web2py.com/book/default/chapter/04'
p4450
tp4451
a(g4013
(S's\t\x00\x00\x00The Views'
tRp4452
I00
S'http://www.web2py.com/book/default/chapter/05'
p4453
tp4454
a(g4013
(S't\x08\x00\x00\x00Database'
tRp4455
I00
S'http://www.web2py.com/book/default/chapter/06'
p4456
tp4457
a(g4013
(S's\x14\x00\x00\x00Forms and Validators'
tRp4458
I00
S'http://www.web2py.com/book/default/chapter/07'
p4459
tp4460
a(g4013
(S's\r\x00\x00\x00Email and SMS'
tRp4461
I00
S'http://www.web2py.com/book/default/chapter/08'
p4462
tp4463
a(g4013
(S's\x0e\x00\x00\x00Access Control'
tRp4464
I00
S'http://www.web2py.com/book/default/chapter/09'
p4465
tp4466
a(g4013
(S't\x08\x00\x00\x00Services'
tRp4467
I00
S'http://www.web2py.com/book/default/chapter/10'
p4468
tp4469
a(g4013
(S's\x0c\x00\x00\x00Ajax Recipes'
tRp4470
I00
S'http://www.web2py.com/book/default/chapter/11'
p4471
tp4472
a(g4013
(S's\x16\x00\x00\x00Components and Plugins'
tRp4473
I00
S'http://www.web2py.com/book/default/chapter/12'
p4474
tp4475
a(g4013
(S's\x12\x00\x00\x00Deployment Recipes'
tRp4476
I00
S'http://www.web2py.com/book/default/chapter/13'
p4477
tp4478
a(g4013
(S's\r\x00\x00\x00Other Recipes'
tRp4479
I00
S'http://www.web2py.com/book/default/chapter/14'
p4480
tp4481
a(g4013
(S's\r\x00\x00\x00Buy this book'
tRp4482
I00
S'http://stores.lulu.com/web2py'
p4483
tp4484
aasbasbasbasbasbasbasbag57
(g73
g59
NtRp4485
(dp4486
g62
(dp4487
sg71
g4127
sg64
(lp4488
g57
(g78
g59
NtRp4489
(dp4490
g62
(dp4491
sg71
g4485
sg64
(lp4492
g57
(g58
g59
NtRp4493
(dp4494
g62
(dp4495
g70
I2
ssg71
g4489
sg64
(lp4496
g57
(g66
g59
NtRp4497
(dp4498
g62
(dp4499
g70
I1
ssg71
Nsg64
(lp4500
g57
(g73
g59
NtRp4501
(dp4502
g62
(dp4503
sg71
g4497
sg64
(lp4504
g57
(g78
g59
NtRp4505
(dp4506
g62
(dp4507
sg71
g4501
sg64
(lp4508
g57
(g58
g59
NtRp4509
(dp4510
g62
(dp4511
g70
I1
ssg71
g4505
sg64
(lp4512
g4013
(S't\t\x00\x00\x00Community'
tRp4513
asbasbasbag57
(g73
g59
NtRp4514
(dp4515
g62
(dp4516
sg71
g4497
sg64
(lp4517
g57
(g78
g59
NtRp4518
(dp4519
g62
(dp4520
sg71
g4514
sg64
(lp4521
g57
(g58
g59
NtRp4522
(dp4523
g62
(dp4524
g70
I1
ssg71
g4518
sg64
(lp4525
I00
asbasbasbag57
(g73
g59
NtRp4526
(dp4527
g62
(dp4528
sg71
g4497
sg64
(lp4529
g57
(g78
g59
NtRp4530
(dp4531
g62
(dp4532
sg71
g4526
sg64
(lp4533
g57
(g58
g59
NtRp4534
(dp4535
g62
(dp4536
g70
I1
ssg71
g4530
sg64
(lp4537
Nasbasbasbag57
(g73
g59
NtRp4538
(dp4539
g62
(dp4540
sg71
g4497
sg64
(lp4541
g57
(g78
g59
NtRp4542
(dp4543
g62
(dp4544
sg71
g4538
sg64
(lp4545
g57
(g58
g59
NtRp4546
(dp4547
g62
(dp4548
g70
I1
ssg71
g4542
sg64
(lp4549
(lp4550
(g4013
(S't\x06\x00\x00\x00Groups'
tRp4551
I00
S'http://www.web2py.com/examples/default/usergroups'
p4552
tp4553
a(g4013
(S't\x07\x00\x00\x00Twitter'
tRp4554
I00
S'http://twitter.com/web2py'
p4555
tp4556
a(g4013
(S's\t\x00\x00\x00Live Chat'
tRp4557
I00
S'http://webchat.freenode.net/?channels=web2py'
p4558
tp4559
aasbasbasbasbasbasbasbag57
(g73
g59
NtRp4560
(dp4561
g62
(dp4562
sg71
g4127
sg64
(lp4563
g57
(g78
g59
NtRp4564
(dp4565
g62
(dp4566
sg71
g4560
sg64
(lp4567
g57
(g58
g59
NtRp4568
(dp4569
g62
(dp4570
g70
I2
ssg71
g4564
sg64
(lp4571
g57
(g66
g59
NtRp4572
(dp4573
g62
(dp4574
g70
I1
ssg71
Nsg64
(lp4575
g57
(g73
g59
NtRp4576
(dp4577
g62
(dp4578
sg71
g4572
sg64
(lp4579
g57
(g78
g59
NtRp4580
(dp4581
g62
(dp4582
sg71
g4576
sg64
(lp4583
g57
(g58
g59
NtRp4584
(dp4585
g62
(dp4586
g70
I1
ssg71
g4580
sg64
(lp4587
g4013
(S't\x07\x00\x00\x00Plugins'
tRp4588
asbasbasbag57
(g73
g59
NtRp4589
(dp4590
g62
(dp4591
sg71
g4572
sg64
(lp4592
g57
(g78
g59
NtRp4593
(dp4594
g62
(dp4595
sg71
g4589
sg64
(lp4596
g57
(g58
g59
NtRp4597
(dp4598
g62
(dp4599
g70
I1
ssg71
g4593
sg64
(lp4600
I00
asbasbasbag57
(g73
g59
NtRp4601
(dp4602
g62
(dp4603
sg71
g4572
sg64
(lp4604
g57
(g78
g59
NtRp4605
(dp4606
g62
(dp4607
sg71
g4601
sg64
(lp4608
g57
(g58
g59
NtRp4609
(dp4610
g62
(dp4611
g70
I1
ssg71
g4605
sg64
(lp4612
Nasbasbasbag57
(g73
g59
NtRp4613
(dp4614
g62
(dp4615
sg71
g4572
sg64
(lp4616
g57
(g78
g59
NtRp4617
(dp4618
g62
(dp4619
sg71
g4613
sg64
(lp4620
g57
(g58
g59
NtRp4621
(dp4622
g62
(dp4623
g70
I1
ssg71
g4617
sg64
(lp4624
(lp4625
(S'plugin_wiki'
p4626
I00
S'http://web2py.com/examples/default/download'
p4627
tp4628
a(g4013
(S's\r\x00\x00\x00Other Plugins'
tRp4629
I00
g4359
tp4630
a(g4013
(S's\x0e\x00\x00\x00Layout Plugins'
tRp4631
I00
g4362
tp4632
aasbasbasbasbasbasbasbasbasbasbasbasbasbasbasbasbasbasbasbag57
(g73
g59
NtRp4633
(dp4634
g62
(dp4635
sg71
g3435
sg64
(lp4636
g57
(g78
g59
NtRp4637
(dp4638
g62
(dp4639
g82
g83
ssg71
g4633
sg64
(lp4640
S'meta'
p4641
asbag57
(g78
g59
NtRp4642
(dp4643
g62
(dp4644
g89
g90
ssg71
g4633
sg64
(lp4645
S':'
asbag57
(g78
g59
NtRp4646
(dp4647
g62
(dp4648
sg71
g4633
sg64
(lp4649
g57
(g58
g59
NtRp4650
(dp4651
g62
(dp4652
g70
I5
ssg71
g4646
sg64
(lp4653
g57
(g66
g59
NtRp4654
(dp4655
g62
(dp4656
g70
I4
ssg71
Nsg64
(lp4657
g57
(g73
g59
NtRp4658
(dp4659
g62
(dp4660
sg71
g4654
sg64
(lp4661
g57
(g78
g59
NtRp4662
(dp4663
g62
(dp4664
g82
g83
ssg71
g4658
sg64
(lp4665
S'author'
p4666
asbag57
(g78
g59
NtRp4667
(dp4668
g62
(dp4669
g89
g90
ssg71
g4658
sg64
(lp4670
S':'
asbag57
(g78
g59
NtRp4671
(dp4672
g62
(dp4673
sg71
g4658
sg64
(lp4674
g57
(g58
g59
NtRp4675
(dp4676
g62
(dp4677
g70
I4
ssg71
g4671
sg64
(lp4678
S'Your Name <you@example.com>'
p4679
asbasbasbag57
(g73
g59
NtRp4680
(dp4681
g62
(dp4682
sg71
g4654
sg64
(lp4683
g57
(g78
g59
NtRp4684
(dp4685
g62
(dp4686
g82
g83
ssg71
g4680
sg64
(lp4687
S'description'
p4688
asbag57
(g78
g59
NtRp4689
(dp4690
g62
(dp4691
g89
g90
ssg71
g4680
sg64
(lp4692
S':'
asbag57
(g78
g59
NtRp4693
(dp4694
g62
(dp4695
sg71
g4680
sg64
(lp4696
g57
(g58
g59
NtRp4697
(dp4698
g62
(dp4699
g70
I4
ssg71
g4693
sg64
(lp4700
S'a cool new app'
p4701
asbasbasbag57
(g73
g59
NtRp4702
(dp4703
g62
(dp4704
sg71
g4654
sg64
(lp4705
g57
(g78
g59
NtRp4706
(dp4707
g62
(dp4708
g82
g83
ssg71
g4702
sg64
(lp4709
S'generator'
p4710
asbag57
(g78
g59
NtRp4711
(dp4712
g62
(dp4713
g89
g90
ssg71
g4702
sg64
(lp4714
S':'
asbag57
(g78
g59
NtRp4715
(dp4716
g62
(dp4717
sg71
g4702
sg64
(lp4718
g57
(g58
g59
NtRp4719
(dp4720
g62
(dp4721
g70
I4
ssg71
g4715
sg64
(lp4722
S'Web2py Web Framework'
p4723
asbasbasbag57
(g73
g59
NtRp4724
(dp4725
g62
(dp4726
sg71
g4654
sg64
(lp4727
g57
(g78
g59
NtRp4728
(dp4729
g62
(dp4730
g82
g83
ssg71
g4724
sg64
(lp4731
S'keywords'
p4732
asbag57
(g78
g59
NtRp4733
(dp4734
g62
(dp4735
g89
g90
ssg71
g4724
sg64
(lp4736
S':'
asbag57
(g78
g59
NtRp4737
(dp4738
g62
(dp4739
sg71
g4724
sg64
(lp4740
g57
(g58
g59
NtRp4741
(dp4742
g62
(dp4743
g70
I4
ssg71
g4737
sg64
(lp4744
S'web2py, python, framework'
p4745
asbasbasbasbasbasbasbag57
(g73
g59
NtRp4746
(dp4747
g62
(dp4748
sg71
g3435
sg64
(lp4749
g57
(g78
g59
NtRp4750
(dp4751
g62
(dp4752
g82
g83
ssg71
g4746
sg64
(lp4753
S'postprocessing'
p4754
asbag57
(g78
g59
NtRp4755
(dp4756
g62
(dp4757
g89
g90
ssg71
g4746
sg64
(lp4758
S':'
asbag57
(g78
g59
NtRp4759
(dp4760
g62
(dp4761
sg71
g4746
sg64
(lp4762
g57
(g58
g59
NtRp4763
(dp4764
g62
(dp4765
g70
I5
ssg71
g4759
sg64
(lp4766
g57
(g66
g59
NtRp4767
(dp4768
g62
(dp4769
g70
I4
ssg71
Nsg64
(lp4770
sbasbasbasbag57
(g73
g59
NtRp4771
(dp4772
g62
(dp4773
sg71
g3435
sg64
(lp4774
g57
(g78
g59
NtRp4775
(dp4776
g62
(dp4777
g82
g83
ssg71
g4771
sg64
(lp4778
S'session_file'
p4779
asbag57
(g78
g59
NtRp4780
(dp4781
g62
(dp4782
g89
g90
ssg71
g4771
sg64
(lp4783
S':'
asbag57
(g78
g59
NtRp4784
(dp4785
g62
(dp4786
sg71
g4771
sg64
(lp4787
g57
(g58
g59
NtRp4788
(dp4789
g62
(dp4790
g70
I5
ssg71
g4784
sg64
(lp4791
S"<open file 'C:\\xampp\\htdocs\\web2py\\applications\\testumgebung\\sessions\\127.0.0.1-90677836-87e3-4573-bd9a-704b577fb384', mode 'rb+' at 0x083B8D88>"
p4792
asbasbasbag57
(g73
g59
NtRp4793
(dp4794
g62
(dp4795
sg71
g3435
sg64
(lp4796
g57
(g78
g59
NtRp4797
(dp4798
g62
(dp4799
g82
g83
ssg71
g4793
sg64
(lp4800
S'session_filename'
p4801
asbag57
(g78
g59
NtRp4802
(dp4803
g62
(dp4804
g89
g90
ssg71
g4793
sg64
(lp4805
S':'
asbag57
(g78
g59
NtRp4806
(dp4807
g62
(dp4808
sg71
g4793
sg64
(lp4809
g57
(g58
g59
NtRp4810
(dp4811
g62
(dp4812
g70
I5
ssg71
g4806
sg64
(lp4813
S'C:\\xampp\\htdocs\\web2py\\applications\\testumgebung\\sessions\\127.0.0.1-90677836-87e3-4573-bd9a-704b577fb384'
p4814
asbasbasbag57
(g73
g59
NtRp4815
(dp4816
g62
(dp4817
sg71
g3435
sg64
(lp4818
g57
(g78
g59
NtRp4819
(dp4820
g62
(dp4821
g82
g83
ssg71
g4815
sg64
(lp4822
S'session_id'
p4823
asbag57
(g78
g59
NtRp4824
(dp4825
g62
(dp4826
g89
g90
ssg71
g4815
sg64
(lp4827
S':'
asbag57
(g78
g59
NtRp4828
(dp4829
g62
(dp4830
sg71
g4815
sg64
(lp4831
g57
(g58
g59
NtRp4832
(dp4833
g62
(dp4834
g70
I5
ssg71
g4828
sg64
(lp4835
g475
asbasbasbag57
(g73
g59
NtRp4836
(dp4837
g62
(dp4838
sg71
g3435
sg64
(lp4839
g57
(g78
g59
NtRp4840
(dp4841
g62
(dp4842
g82
g83
ssg71
g4836
sg64
(lp4843
S'session_id_name'
p4844
asbag57
(g78
g59
NtRp4845
(dp4846
g62
(dp4847
g89
g90
ssg71
g4836
sg64
(lp4848
S':'
asbag57
(g78
g59
NtRp4849
(dp4850
g62
(dp4851
sg71
g4836
sg64
(lp4852
g57
(g58
g59
NtRp4853
(dp4854
g62
(dp4855
g70
I5
ssg71
g4849
sg64
(lp4856
g3492
asbasbasbag57
(g73
g59
NtRp4857
(dp4858
g62
(dp4859
sg71
g3435
sg64
(lp4860
g57
(g78
g59
NtRp4861
(dp4862
g62
(dp4863
g82
g83
ssg71
g4857
sg64
(lp4864
S'session_locked'
p4865
asbag57
(g78
g59
NtRp4866
(dp4867
g62
(dp4868
g89
g90
ssg71
g4857
sg64
(lp4869
S':'
asbag57
(g78
g59
NtRp4870
(dp4871
g62
(dp4872
sg71
g4857
sg64
(lp4873
g57
(g58
g59
NtRp4874
(dp4875
g62
(dp4876
g70
I5
ssg71
g4870
sg64
(lp4877
g100
asbasbasbag57
(g73
g59
NtRp4878
(dp4879
g62
(dp4880
sg71
g3435
sg64
(lp4881
g57
(g78
g59
NtRp4882
(dp4883
g62
(dp4884
g82
g83
ssg71
g4878
sg64
(lp4885
S'session_new'
p4886
asbag57
(g78
g59
NtRp4887
(dp4888
g62
(dp4889
g89
g90
ssg71
g4878
sg64
(lp4890
S':'
asbag57
(g78
g59
NtRp4891
(dp4892
g62
(dp4893
sg71
g4878
sg64
(lp4894
g57
(g58
g59
NtRp4895
(dp4896
g62
(dp4897
g70
I5
ssg71
g4891
sg64
(lp4898
g985
asbasbasbag57
(g73
g59
NtRp4899
(dp4900
g62
(dp4901
sg71
g3435
sg64
(lp4902
g57
(g78
g59
NtRp4903
(dp4904
g62
(dp4905
g82
g83
ssg71
g4899
sg64
(lp4906
S'status'
p4907
asbag57
(g78
g59
NtRp4908
(dp4909
g62
(dp4910
g89
g90
ssg71
g4899
sg64
(lp4911
S':'
asbag57
(g78
g59
NtRp4912
(dp4913
g62
(dp4914
sg71
g4899
sg64
(lp4915
g57
(g58
g59
NtRp4916
(dp4917
g62
(dp4918
g70
I5
ssg71
g4912
sg64
(lp4919
S'200'
p4920
asbasbasbag57
(g73
g59
NtRp4921
(dp4922
g62
(dp4923
sg71
g3435
sg64
(lp4924
g57
(g78
g59
NtRp4925
(dp4926
g62
(dp4927
g82
g83
ssg71
g4921
sg64
(lp4928
S'subtitle'
p4929
asbag57
(g78
g59
NtRp4930
(dp4931
g62
(dp4932
g89
g90
ssg71
g4921
sg64
(lp4933
S':'
asbag57
(g78
g59
NtRp4934
(dp4935
g62
(dp4936
sg71
g4921
sg64
(lp4937
g57
(g58
g59
NtRp4938
(dp4939
g62
(dp4940
g70
I5
ssg71
g4934
sg64
(lp4941
g4013
(S's\r\x00\x00\x00customize me!'
tRp4942
asbasbasbag57
(g73
g59
NtRp4943
(dp4944
g62
(dp4945
sg71
g3435
sg64
(lp4946
g57
(g78
g59
NtRp4947
(dp4948
g62
(dp4949
g82
g83
ssg71
g4943
sg64
(lp4950
S'title'
p4951
asbag57
(g78
g59
NtRp4952
(dp4953
g62
(dp4954
g89
g90
ssg71
g4943
sg64
(lp4955
S':'
asbag57
(g78
g59
NtRp4956
(dp4957
g62
(dp4958
sg71
g4943
sg64
(lp4959
g57
(g58
g59
NtRp4960
(dp4961
g62
(dp4962
g70
I5
ssg71
g4956
sg64
(lp4963
S'Testumgebung'
p4964
asbasbasbag57
(g73
g59
NtRp4965
(dp4966
g62
(dp4967
sg71
g3435
sg64
(lp4968
g57
(g78
g59
NtRp4969
(dp4970
g62
(dp4971
g82
g83
ssg71
g4965
sg64
(lp4972
S'view'
p4973
asbag57
(g78
g59
NtRp4974
(dp4975
g62
(dp4976
g89
g90
ssg71
g4965
sg64
(lp4977
S':'
asbag57
(g78
g59
NtRp4978
(dp4979
g62
(dp4980
sg71
g4965
sg64
(lp4981
g57
(g58
g59
NtRp4982
(dp4983
g62
(dp4984
g70
I5
ssg71
g4978
sg64
(lp4985
S'plugin_feedbacks/feedback.load'
p4986
asbasbasbasbasbsS'locals'
p4987
(dp4988
S'show_tab'
p4989
S"''"
p4990
sS'likerow'
p4991
S"<Row {'update_record': <gluon.dal.RecordUpdater ... <gluon.dal.RecordDeleter object at 0x086D8030>}>"
p4992
sg3324
S'<Table plugin_feedbacks_feedback (id,feeling,message,commentdate,senderip)>'
p4993
sS'form'
p4994
S'<gluon.sqlhtml.SQLFORM object>'
p4995
sS'dislikes'
p4996
S'<Rows (1)>'
p4997
sS'likes'
p4998
S'<Rows (7)>'
p4999
sS'dislikerow'
p5000
S"<Row {'update_record': <gluon.dal.RecordUpdater ... <gluon.dal.RecordDeleter object at 0x086D89F0>}>"
p5001
sssS'traceback'
p5002
S'Traceback (most recent call last):\n  File "gluon/restricted.py", line 209, in restricted\n  File "C:\\xampp\\htdocs\\web2py\\applications\\testumgebung\\controllers/plugin_feedbacks.py", line 45, in <module>\n  File "gluon/globals.py", line 185, in <lambda>\n  File "C:\\xampp\\htdocs\\web2py\\applications\\testumgebung\\controllers/plugin_feedbacks.py", line 30, in feedback\nNameError: global name \'test\' is not defined\n'
p5003
s.