(dp1
S'output'
p2
S"<type 'exceptions.SyntaxError'> invalid syntax (controllers/plugin_feedbacks.py, line 36)"
p3
sS'layer'
p4
S'C:\\xampp\\htdocs\\web2py\\applications\\testumgebung\\controllers/plugin_feedbacks.py'
p5
sS'code'
p6
S'from gluon.tools import prettydate\nimport datetime\n\nsession.plugin_feedbacks = {"sentFeedback": 0, "time":request.now}\n\ndef feedback():\n    \n    feedback = db.plugin_feedbacks_feedback\n    form = SQLFORM(feedback)\n    \n\n    show_tab = \'\'\n    if form.process(onvalidation=check_plugin_feedbacks_feedback_form).accepted:\n        response.flash = T("Vielen Dank f\xc3\xbcr Ihr Feedback.")\n        session.plugin_feedbacks["sentFeedback"] = 1\n        session.plugin_feedbacks["time"] = request.now\n        if form.vars.feeling == "happy":\n            show_tab = \'happy\'\n        else:\n            show_tab = \'unhappy\'\n        \n    likes = db(db.plugin_feedbacks_feedback.feeling == "happy").select(orderby=~db.plugin_feedbacks_feedback.commentdate)\n    dislikes = db(db.plugin_feedbacks_feedback.feeling == "unhappy").select(orderby=~db.plugin_feedbacks_feedback.commentdate)\n    \n    for likerow in likes:\n        likerow.commentdate = prettydate(likerow.commentdate,T)\n    for dislikerow in dislikes:\n        dislikerow.commentdate = prettydate(dislikerow.commentdate,T)\n    \n    test = datetime.datetime.now() - datetime.timedelta(minutes=15)\n    records = db((db.plugin_feedbacks_feedback.senderip == form.vars.senderip) & (db.plugin_feedbacks_feedback.commentdate > test)).select()\n    \n    \n    return dict(form=form, likes=likes, dislikes=dislikes, show_tab=show_tab, test = (datetime.datetime.now() - datetime.timedelta(minutes=15))\n\ndef check_plugin_feedbacks_feedback_form(form):\n    """\n    pruefen, dass eine IP nicht so oft hintereinander Feedback sendet\n    """\n    # todo: auf 30 Minuten setzen, datetime irgendwie als String formatieren\n    #records = db((db.plugin_feedbacks_feedback.senderip == form.vars.senderip) & (db.plugin_feedbacks_feedback.commentdate > str(datetime.datetime.now() - datetime.timedelta(minutes=15)))).select()\n    \n    \n    \n    if session.plugin_feedbacks["sentFeedback"] == 1 and session.plugin_feedbacks["time"] > (datetime.datetime.now() - datetime.timedelta(minutes=15)):\n        form.errors.message = T(\'Wir freuen uns, dass Sie uns Feedback geben m\xc3\xb6chten. Aus Sicherheitsgr\xc3\xbcnden kann von einer Person nur einmal pro halbe Stunde ein Feedback gegeben werden.\')\nresponse._vars=response._caller(feedback)\n'
p7
sS'snapshot'
p8
(dp9
S'exception'
p10
(dp11
S'__getslice__'
p12
S"<method-wrapper '__getslice__' of exceptions.SyntaxError object>"
p13
sS'text'
p14
S"'def check_plugin_feedbacks_feedback_form(form):\\n'"
p15
sS'__str__'
p16
S"<method-wrapper '__str__' of exceptions.SyntaxError object>"
p17
sS'__reduce__'
p18
S'<built-in method __reduce__ of exceptions.SyntaxError object>'
p19
sS'__dict__'
p20
S'{}'
p21
sS'__sizeof__'
p22
S'<built-in method __sizeof__ of exceptions.SyntaxError object>'
p23
sS'__init__'
p24
S"<method-wrapper '__init__' of exceptions.SyntaxError object>"
p25
sS'__setattr__'
p26
S"<method-wrapper '__setattr__' of exceptions.SyntaxError object>"
p27
sS'__reduce_ex__'
p28
S'<built-in method __reduce_ex__ of exceptions.SyntaxError object>'
p29
sS'__new__'
p30
S'<built-in method __new__ of type object>'
p31
sS'__format__'
p32
S'<built-in method __format__ of exceptions.SyntaxError object>'
p33
sS'__class__'
p34
S"<type 'exceptions.SyntaxError'>"
p35
sS'filename'
p36
S"r'C:\\xampp\\htdocs\\web2py\\applications\\testumgebung\\controllers/plugin_feedbacks.py'"
p37
sS'lineno'
p38
S'36'
p39
sS'msg'
p40
S"'invalid syntax'"
p41
sS'__doc__'
p42
S"'Invalid syntax.'"
p43
sS'__getitem__'
p44
S"<method-wrapper '__getitem__' of exceptions.SyntaxError object>"
p45
sS'__setstate__'
p46
S'<built-in method __setstate__ of exceptions.SyntaxError object>'
p47
sS'__getattribute__'
p48
S"<method-wrapper '__getattribute__' of exceptions.SyntaxError object>"
p49
sS'print_file_and_line'
p50
S'None'
p51
sS'args'
p52
S"('invalid syntax', (r'C:\\xampp\\htdocs\\web2py\\applications\\testumgebung\\controllers/plugin_feedbacks.py', 36, 3, 'def check_plugin_feedbacks_feedback_form(form):\\n'))"
p53
sS'__subclasshook__'
p54
S'<built-in method __subclasshook__ of type object>'
p55
sS'offset'
p56
S'3'
sS'__unicode__'
p57
S'<built-in method __unicode__ of exceptions.SyntaxError object>'
p58
sS'__delattr__'
p59
S"<method-wrapper '__delattr__' of exceptions.SyntaxError object>"
p60
sS'__repr__'
p61
S"<method-wrapper '__repr__' of exceptions.SyntaxError object>"
p62
sS'__hash__'
p63
S"<method-wrapper '__hash__' of exceptions.SyntaxError object>"
p64
ssS'evalue'
p65
S'invalid syntax (controllers/plugin_feedbacks.py, line 36)'
p66
sS'request'
p67
ccopy_reg
_reconstructor
p68
(cgluon.html
BEAUTIFY
p69
c__builtin__
object
p70
NtRp71
(dp72
S'attributes'
p73
(dp74
sS'components'
p75
(lp76
g68
(cgluon.html
TABLE
p77
g70
NtRp78
(dp79
g73
(dp80
S'level'
p81
I5
ssS'parent'
p82
Nsg75
(lp83
g68
(cgluon.html
TR
p84
g70
NtRp85
(dp86
g73
(dp87
sg82
g78
sg75
(lp88
g68
(cgluon.html
TD
p89
g70
NtRp90
(dp91
g73
(dp92
S'_style'
p93
S'font-weight:bold;vertical-align:top'
p94
ssg82
g85
sg75
(lp95
S'ajax'
p96
asbag68
(g89
g70
NtRp97
(dp98
g73
(dp99
S'_valign'
p100
S'top'
p101
ssg82
g85
sg75
(lp102
S':'
asbag68
(g89
g70
NtRp103
(dp104
g73
(dp105
sg82
g85
sg75
(lp106
g68
(g69
g70
NtRp107
(dp108
g73
(dp109
g81
I5
ssg82
g103
sg75
(lp110
S'True'
p111
asbasbasbag68
(g84
g70
NtRp112
(dp113
g73
(dp114
sg82
g78
sg75
(lp115
g68
(g89
g70
NtRp116
(dp117
g73
(dp118
g93
g94
ssg82
g112
sg75
(lp119
S'application'
p120
asbag68
(g89
g70
NtRp121
(dp122
g73
(dp123
g100
g101
ssg82
g112
sg75
(lp124
S':'
asbag68
(g89
g70
NtRp125
(dp126
g73
(dp127
sg82
g112
sg75
(lp128
g68
(g69
g70
NtRp129
(dp130
g73
(dp131
g81
I5
ssg82
g125
sg75
(lp132
S'testumgebung'
p133
asbasbasbag68
(g84
g70
NtRp134
(dp135
g73
(dp136
sg82
g78
sg75
(lp137
g68
(g89
g70
NtRp138
(dp139
g73
(dp140
g93
g94
ssg82
g134
sg75
(lp141
g52
asbag68
(g89
g70
NtRp142
(dp143
g73
(dp144
g100
g101
ssg82
g134
sg75
(lp145
S':'
asbag68
(g89
g70
NtRp146
(dp147
g73
(dp148
sg82
g134
sg75
(lp149
g68
(g69
g70
NtRp150
(dp151
g73
(dp152
g81
I5
ssg82
g146
sg75
(lp153
g68
(g77
g70
NtRp154
(dp155
g73
(dp156
g81
I4
ssg82
Nsg75
(lp157
sbasbasbasbag68
(g84
g70
NtRp158
(dp159
g73
(dp160
sg82
g78
sg75
(lp161
g68
(g89
g70
NtRp162
(dp163
g73
(dp164
g93
g94
ssg82
g158
sg75
(lp165
S'body'
p166
asbag68
(g89
g70
NtRp167
(dp168
g73
(dp169
g100
g101
ssg82
g158
sg75
(lp170
S':'
asbag68
(g89
g70
NtRp171
(dp172
g73
(dp173
sg82
g158
sg75
(lp174
g68
(g69
g70
NtRp175
(dp176
g73
(dp177
g81
I5
ssg82
g171
sg75
(lp178
S'<cStringIO.StringO object at 0x087F5700>'
p179
asbasbasbag68
(g84
g70
NtRp180
(dp181
g73
(dp182
sg82
g78
sg75
(lp183
g68
(g89
g70
NtRp184
(dp185
g73
(dp186
g93
g94
ssg82
g180
sg75
(lp187
S'cid'
p188
asbag68
(g89
g70
NtRp189
(dp190
g73
(dp191
g100
g101
ssg82
g180
sg75
(lp192
S':'
asbag68
(g89
g70
NtRp193
(dp194
g73
(dp195
sg82
g180
sg75
(lp196
g68
(g69
g70
NtRp197
(dp198
g73
(dp199
g81
I5
ssg82
g193
sg75
(lp200
S'c294563720002'
p201
asbasbasbag68
(g84
g70
NtRp202
(dp203
g73
(dp204
sg82
g78
sg75
(lp205
g68
(g89
g70
NtRp206
(dp207
g73
(dp208
g93
g94
ssg82
g202
sg75
(lp209
S'client'
p210
asbag68
(g89
g70
NtRp211
(dp212
g73
(dp213
g100
g101
ssg82
g202
sg75
(lp214
S':'
asbag68
(g89
g70
NtRp215
(dp216
g73
(dp217
sg82
g202
sg75
(lp218
g68
(g69
g70
NtRp219
(dp220
g73
(dp221
g81
I5
ssg82
g215
sg75
(lp222
S'127.0.0.1'
p223
asbasbasbag68
(g84
g70
NtRp224
(dp225
g73
(dp226
sg82
g78
sg75
(lp227
g68
(g89
g70
NtRp228
(dp229
g73
(dp230
g93
g94
ssg82
g224
sg75
(lp231
S'controller'
p232
asbag68
(g89
g70
NtRp233
(dp234
g73
(dp235
g100
g101
ssg82
g224
sg75
(lp236
S':'
asbag68
(g89
g70
NtRp237
(dp238
g73
(dp239
sg82
g224
sg75
(lp240
g68
(g69
g70
NtRp241
(dp242
g73
(dp243
g81
I5
ssg82
g237
sg75
(lp244
S'plugin_feedbacks'
p245
asbasbasbag68
(g84
g70
NtRp246
(dp247
g73
(dp248
sg82
g78
sg75
(lp249
g68
(g89
g70
NtRp250
(dp251
g73
(dp252
g93
g94
ssg82
g246
sg75
(lp253
S'cookies'
p254
asbag68
(g89
g70
NtRp255
(dp256
g73
(dp257
g100
g101
ssg82
g246
sg75
(lp258
S':'
asbag68
(g89
g70
NtRp259
(dp260
g73
(dp261
sg82
g246
sg75
(lp262
g68
(g69
g70
NtRp263
(dp264
g73
(dp265
g81
I5
ssg82
g259
sg75
(lp266
g68
(g77
g70
NtRp267
(dp268
g73
(dp269
g81
I4
ssg82
Nsg75
(lp270
g68
(g84
g70
NtRp271
(dp272
g73
(dp273
sg82
g267
sg75
(lp274
g68
(g89
g70
NtRp275
(dp276
g73
(dp277
g93
g94
ssg82
g271
sg75
(lp278
S'session_id_admin'
p279
asbag68
(g89
g70
NtRp280
(dp281
g73
(dp282
g100
g101
ssg82
g271
sg75
(lp283
S':'
asbag68
(g89
g70
NtRp284
(dp285
g73
(dp286
sg82
g271
sg75
(lp287
g68
(g69
g70
NtRp288
(dp289
g73
(dp290
g81
I4
ssg82
g284
sg75
(lp291
S'127.0.0.1-75c713f7-cbde-478e-9eb0-8602d2ac1f92'
p292
ag68
(g77
g70
NtRp293
(dp294
g73
(dp295
g81
I3
ssg82
Nsg75
(lp296
g68
(g84
g70
NtRp297
(dp298
g73
(dp299
sg82
g293
sg75
(lp300
g68
(g89
g70
NtRp301
(dp302
g73
(dp303
g93
g94
ssg82
g297
sg75
(lp304
S'comment'
p305
asbag68
(g89
g70
NtRp306
(dp307
g73
(dp308
g100
g101
ssg82
g297
sg75
(lp309
S':'
asbag68
(g89
g70
NtRp310
(dp311
g73
(dp312
sg82
g297
sg75
(lp313
g68
(g69
g70
NtRp314
(dp315
g73
(dp316
g81
I3
ssg82
g310
sg75
(lp317
S''
asbasbasbag68
(g84
g70
NtRp318
(dp319
g73
(dp320
sg82
g293
sg75
(lp321
g68
(g89
g70
NtRp322
(dp323
g73
(dp324
g93
g94
ssg82
g318
sg75
(lp325
S'domain'
p326
asbag68
(g89
g70
NtRp327
(dp328
g73
(dp329
g100
g101
ssg82
g318
sg75
(lp330
S':'
asbag68
(g89
g70
NtRp331
(dp332
g73
(dp333
sg82
g318
sg75
(lp334
g68
(g69
g70
NtRp335
(dp336
g73
(dp337
g81
I3
ssg82
g331
sg75
(lp338
S''
asbasbasbag68
(g84
g70
NtRp339
(dp340
g73
(dp341
sg82
g293
sg75
(lp342
g68
(g89
g70
NtRp343
(dp344
g73
(dp345
g93
g94
ssg82
g339
sg75
(lp346
S'expires'
p347
asbag68
(g89
g70
NtRp348
(dp349
g73
(dp350
g100
g101
ssg82
g339
sg75
(lp351
S':'
asbag68
(g89
g70
NtRp352
(dp353
g73
(dp354
sg82
g339
sg75
(lp355
g68
(g69
g70
NtRp356
(dp357
g73
(dp358
g81
I3
ssg82
g352
sg75
(lp359
S''
asbasbasbag68
(g84
g70
NtRp360
(dp361
g73
(dp362
sg82
g293
sg75
(lp363
g68
(g89
g70
NtRp364
(dp365
g73
(dp366
g93
g94
ssg82
g360
sg75
(lp367
S'httponly'
p368
asbag68
(g89
g70
NtRp369
(dp370
g73
(dp371
g100
g101
ssg82
g360
sg75
(lp372
S':'
asbag68
(g89
g70
NtRp373
(dp374
g73
(dp375
sg82
g360
sg75
(lp376
g68
(g69
g70
NtRp377
(dp378
g73
(dp379
g81
I3
ssg82
g373
sg75
(lp380
S''
asbasbasbag68
(g84
g70
NtRp381
(dp382
g73
(dp383
sg82
g293
sg75
(lp384
g68
(g89
g70
NtRp385
(dp386
g73
(dp387
g93
g94
ssg82
g381
sg75
(lp388
S'max-age'
p389
asbag68
(g89
g70
NtRp390
(dp391
g73
(dp392
g100
g101
ssg82
g381
sg75
(lp393
S':'
asbag68
(g89
g70
NtRp394
(dp395
g73
(dp396
sg82
g381
sg75
(lp397
g68
(g69
g70
NtRp398
(dp399
g73
(dp400
g81
I3
ssg82
g394
sg75
(lp401
S''
asbasbasbag68
(g84
g70
NtRp402
(dp403
g73
(dp404
sg82
g293
sg75
(lp405
g68
(g89
g70
NtRp406
(dp407
g73
(dp408
g93
g94
ssg82
g402
sg75
(lp409
S'path'
p410
asbag68
(g89
g70
NtRp411
(dp412
g73
(dp413
g100
g101
ssg82
g402
sg75
(lp414
S':'
asbag68
(g89
g70
NtRp415
(dp416
g73
(dp417
sg82
g402
sg75
(lp418
g68
(g69
g70
NtRp419
(dp420
g73
(dp421
g81
I3
ssg82
g415
sg75
(lp422
S''
asbasbasbag68
(g84
g70
NtRp423
(dp424
g73
(dp425
sg82
g293
sg75
(lp426
g68
(g89
g70
NtRp427
(dp428
g73
(dp429
g93
g94
ssg82
g423
sg75
(lp430
S'secure'
p431
asbag68
(g89
g70
NtRp432
(dp433
g73
(dp434
g100
g101
ssg82
g423
sg75
(lp435
S':'
asbag68
(g89
g70
NtRp436
(dp437
g73
(dp438
sg82
g423
sg75
(lp439
g68
(g69
g70
NtRp440
(dp441
g73
(dp442
g81
I3
ssg82
g436
sg75
(lp443
S''
asbasbasbag68
(g84
g70
NtRp444
(dp445
g73
(dp446
sg82
g293
sg75
(lp447
g68
(g89
g70
NtRp448
(dp449
g73
(dp450
g93
g94
ssg82
g444
sg75
(lp451
S'version'
p452
asbag68
(g89
g70
NtRp453
(dp454
g73
(dp455
g100
g101
ssg82
g444
sg75
(lp456
S':'
asbag68
(g89
g70
NtRp457
(dp458
g73
(dp459
sg82
g444
sg75
(lp460
g68
(g69
g70
NtRp461
(dp462
g73
(dp463
g81
I3
ssg82
g457
sg75
(lp464
S''
asbasbasbasbasbasbasbag68
(g84
g70
NtRp465
(dp466
g73
(dp467
sg82
g267
sg75
(lp468
g68
(g89
g70
NtRp469
(dp470
g73
(dp471
g93
g94
ssg82
g465
sg75
(lp472
S'session_id_testumgebung'
p473
asbag68
(g89
g70
NtRp474
(dp475
g73
(dp476
g100
g101
ssg82
g465
sg75
(lp477
S':'
asbag68
(g89
g70
NtRp478
(dp479
g73
(dp480
sg82
g465
sg75
(lp481
g68
(g69
g70
NtRp482
(dp483
g73
(dp484
g81
I4
ssg82
g478
sg75
(lp485
S'127.0.0.1-90677836-87e3-4573-bd9a-704b577fb384'
p486
ag68
(g77
g70
NtRp487
(dp488
g73
(dp489
g81
I3
ssg82
Nsg75
(lp490
g68
(g84
g70
NtRp491
(dp492
g73
(dp493
sg82
g487
sg75
(lp494
g68
(g89
g70
NtRp495
(dp496
g73
(dp497
g93
g94
ssg82
g491
sg75
(lp498
g305
asbag68
(g89
g70
NtRp499
(dp500
g73
(dp501
g100
g101
ssg82
g491
sg75
(lp502
S':'
asbag68
(g89
g70
NtRp503
(dp504
g73
(dp505
sg82
g491
sg75
(lp506
g68
(g69
g70
NtRp507
(dp508
g73
(dp509
g81
I3
ssg82
g503
sg75
(lp510
S''
asbasbasbag68
(g84
g70
NtRp511
(dp512
g73
(dp513
sg82
g487
sg75
(lp514
g68
(g89
g70
NtRp515
(dp516
g73
(dp517
g93
g94
ssg82
g511
sg75
(lp518
g326
asbag68
(g89
g70
NtRp519
(dp520
g73
(dp521
g100
g101
ssg82
g511
sg75
(lp522
S':'
asbag68
(g89
g70
NtRp523
(dp524
g73
(dp525
sg82
g511
sg75
(lp526
g68
(g69
g70
NtRp527
(dp528
g73
(dp529
g81
I3
ssg82
g523
sg75
(lp530
S''
asbasbasbag68
(g84
g70
NtRp531
(dp532
g73
(dp533
sg82
g487
sg75
(lp534
g68
(g89
g70
NtRp535
(dp536
g73
(dp537
g93
g94
ssg82
g531
sg75
(lp538
g347
asbag68
(g89
g70
NtRp539
(dp540
g73
(dp541
g100
g101
ssg82
g531
sg75
(lp542
S':'
asbag68
(g89
g70
NtRp543
(dp544
g73
(dp545
sg82
g531
sg75
(lp546
g68
(g69
g70
NtRp547
(dp548
g73
(dp549
g81
I3
ssg82
g543
sg75
(lp550
S''
asbasbasbag68
(g84
g70
NtRp551
(dp552
g73
(dp553
sg82
g487
sg75
(lp554
g68
(g89
g70
NtRp555
(dp556
g73
(dp557
g93
g94
ssg82
g551
sg75
(lp558
g368
asbag68
(g89
g70
NtRp559
(dp560
g73
(dp561
g100
g101
ssg82
g551
sg75
(lp562
S':'
asbag68
(g89
g70
NtRp563
(dp564
g73
(dp565
sg82
g551
sg75
(lp566
g68
(g69
g70
NtRp567
(dp568
g73
(dp569
g81
I3
ssg82
g563
sg75
(lp570
S''
asbasbasbag68
(g84
g70
NtRp571
(dp572
g73
(dp573
sg82
g487
sg75
(lp574
g68
(g89
g70
NtRp575
(dp576
g73
(dp577
g93
g94
ssg82
g571
sg75
(lp578
g389
asbag68
(g89
g70
NtRp579
(dp580
g73
(dp581
g100
g101
ssg82
g571
sg75
(lp582
S':'
asbag68
(g89
g70
NtRp583
(dp584
g73
(dp585
sg82
g571
sg75
(lp586
g68
(g69
g70
NtRp587
(dp588
g73
(dp589
g81
I3
ssg82
g583
sg75
(lp590
S''
asbasbasbag68
(g84
g70
NtRp591
(dp592
g73
(dp593
sg82
g487
sg75
(lp594
g68
(g89
g70
NtRp595
(dp596
g73
(dp597
g93
g94
ssg82
g591
sg75
(lp598
g410
asbag68
(g89
g70
NtRp599
(dp600
g73
(dp601
g100
g101
ssg82
g591
sg75
(lp602
S':'
asbag68
(g89
g70
NtRp603
(dp604
g73
(dp605
sg82
g591
sg75
(lp606
g68
(g69
g70
NtRp607
(dp608
g73
(dp609
g81
I3
ssg82
g603
sg75
(lp610
S''
asbasbasbag68
(g84
g70
NtRp611
(dp612
g73
(dp613
sg82
g487
sg75
(lp614
g68
(g89
g70
NtRp615
(dp616
g73
(dp617
g93
g94
ssg82
g611
sg75
(lp618
g431
asbag68
(g89
g70
NtRp619
(dp620
g73
(dp621
g100
g101
ssg82
g611
sg75
(lp622
S':'
asbag68
(g89
g70
NtRp623
(dp624
g73
(dp625
sg82
g611
sg75
(lp626
g68
(g69
g70
NtRp627
(dp628
g73
(dp629
g81
I3
ssg82
g623
sg75
(lp630
S''
asbasbasbag68
(g84
g70
NtRp631
(dp632
g73
(dp633
sg82
g487
sg75
(lp634
g68
(g89
g70
NtRp635
(dp636
g73
(dp637
g93
g94
ssg82
g631
sg75
(lp638
g452
asbag68
(g89
g70
NtRp639
(dp640
g73
(dp641
g100
g101
ssg82
g631
sg75
(lp642
S':'
asbag68
(g89
g70
NtRp643
(dp644
g73
(dp645
sg82
g631
sg75
(lp646
g68
(g69
g70
NtRp647
(dp648
g73
(dp649
g81
I3
ssg82
g643
sg75
(lp650
S''
asbasbasbasbasbasbasbag68
(g84
g70
NtRp651
(dp652
g73
(dp653
sg82
g267
sg75
(lp654
g68
(g89
g70
NtRp655
(dp656
g73
(dp657
g93
g94
ssg82
g651
sg75
(lp658
S'session_id_welcome'
p659
asbag68
(g89
g70
NtRp660
(dp661
g73
(dp662
g100
g101
ssg82
g651
sg75
(lp663
S':'
asbag68
(g89
g70
NtRp664
(dp665
g73
(dp666
sg82
g651
sg75
(lp667
g68
(g69
g70
NtRp668
(dp669
g73
(dp670
g81
I4
ssg82
g664
sg75
(lp671
S'127.0.0.1-0257bf03-f9f4-4cfd-a327-b5a596d499ec'
p672
ag68
(g77
g70
NtRp673
(dp674
g73
(dp675
g81
I3
ssg82
Nsg75
(lp676
g68
(g84
g70
NtRp677
(dp678
g73
(dp679
sg82
g673
sg75
(lp680
g68
(g89
g70
NtRp681
(dp682
g73
(dp683
g93
g94
ssg82
g677
sg75
(lp684
g305
asbag68
(g89
g70
NtRp685
(dp686
g73
(dp687
g100
g101
ssg82
g677
sg75
(lp688
S':'
asbag68
(g89
g70
NtRp689
(dp690
g73
(dp691
sg82
g677
sg75
(lp692
g68
(g69
g70
NtRp693
(dp694
g73
(dp695
g81
I3
ssg82
g689
sg75
(lp696
S''
asbasbasbag68
(g84
g70
NtRp697
(dp698
g73
(dp699
sg82
g673
sg75
(lp700
g68
(g89
g70
NtRp701
(dp702
g73
(dp703
g93
g94
ssg82
g697
sg75
(lp704
g326
asbag68
(g89
g70
NtRp705
(dp706
g73
(dp707
g100
g101
ssg82
g697
sg75
(lp708
S':'
asbag68
(g89
g70
NtRp709
(dp710
g73
(dp711
sg82
g697
sg75
(lp712
g68
(g69
g70
NtRp713
(dp714
g73
(dp715
g81
I3
ssg82
g709
sg75
(lp716
S''
asbasbasbag68
(g84
g70
NtRp717
(dp718
g73
(dp719
sg82
g673
sg75
(lp720
g68
(g89
g70
NtRp721
(dp722
g73
(dp723
g93
g94
ssg82
g717
sg75
(lp724
g347
asbag68
(g89
g70
NtRp725
(dp726
g73
(dp727
g100
g101
ssg82
g717
sg75
(lp728
S':'
asbag68
(g89
g70
NtRp729
(dp730
g73
(dp731
sg82
g717
sg75
(lp732
g68
(g69
g70
NtRp733
(dp734
g73
(dp735
g81
I3
ssg82
g729
sg75
(lp736
S''
asbasbasbag68
(g84
g70
NtRp737
(dp738
g73
(dp739
sg82
g673
sg75
(lp740
g68
(g89
g70
NtRp741
(dp742
g73
(dp743
g93
g94
ssg82
g737
sg75
(lp744
g368
asbag68
(g89
g70
NtRp745
(dp746
g73
(dp747
g100
g101
ssg82
g737
sg75
(lp748
S':'
asbag68
(g89
g70
NtRp749
(dp750
g73
(dp751
sg82
g737
sg75
(lp752
g68
(g69
g70
NtRp753
(dp754
g73
(dp755
g81
I3
ssg82
g749
sg75
(lp756
S''
asbasbasbag68
(g84
g70
NtRp757
(dp758
g73
(dp759
sg82
g673
sg75
(lp760
g68
(g89
g70
NtRp761
(dp762
g73
(dp763
g93
g94
ssg82
g757
sg75
(lp764
g389
asbag68
(g89
g70
NtRp765
(dp766
g73
(dp767
g100
g101
ssg82
g757
sg75
(lp768
S':'
asbag68
(g89
g70
NtRp769
(dp770
g73
(dp771
sg82
g757
sg75
(lp772
g68
(g69
g70
NtRp773
(dp774
g73
(dp775
g81
I3
ssg82
g769
sg75
(lp776
S''
asbasbasbag68
(g84
g70
NtRp777
(dp778
g73
(dp779
sg82
g673
sg75
(lp780
g68
(g89
g70
NtRp781
(dp782
g73
(dp783
g93
g94
ssg82
g777
sg75
(lp784
g410
asbag68
(g89
g70
NtRp785
(dp786
g73
(dp787
g100
g101
ssg82
g777
sg75
(lp788
S':'
asbag68
(g89
g70
NtRp789
(dp790
g73
(dp791
sg82
g777
sg75
(lp792
g68
(g69
g70
NtRp793
(dp794
g73
(dp795
g81
I3
ssg82
g789
sg75
(lp796
S''
asbasbasbag68
(g84
g70
NtRp797
(dp798
g73
(dp799
sg82
g673
sg75
(lp800
g68
(g89
g70
NtRp801
(dp802
g73
(dp803
g93
g94
ssg82
g797
sg75
(lp804
g431
asbag68
(g89
g70
NtRp805
(dp806
g73
(dp807
g100
g101
ssg82
g797
sg75
(lp808
S':'
asbag68
(g89
g70
NtRp809
(dp810
g73
(dp811
sg82
g797
sg75
(lp812
g68
(g69
g70
NtRp813
(dp814
g73
(dp815
g81
I3
ssg82
g809
sg75
(lp816
S''
asbasbasbag68
(g84
g70
NtRp817
(dp818
g73
(dp819
sg82
g673
sg75
(lp820
g68
(g89
g70
NtRp821
(dp822
g73
(dp823
g93
g94
ssg82
g817
sg75
(lp824
g452
asbag68
(g89
g70
NtRp825
(dp826
g73
(dp827
g100
g101
ssg82
g817
sg75
(lp828
S':'
asbag68
(g89
g70
NtRp829
(dp830
g73
(dp831
sg82
g817
sg75
(lp832
g68
(g69
g70
NtRp833
(dp834
g73
(dp835
g81
I3
ssg82
g829
sg75
(lp836
S''
asbasbasbasbasbasbasbasbasbasbasbag68
(g84
g70
NtRp837
(dp838
g73
(dp839
sg82
g78
sg75
(lp840
g68
(g89
g70
NtRp841
(dp842
g73
(dp843
g93
g94
ssg82
g837
sg75
(lp844
S'env'
p845
asbag68
(g89
g70
NtRp846
(dp847
g73
(dp848
g100
g101
ssg82
g837
sg75
(lp849
S':'
asbag68
(g89
g70
NtRp850
(dp851
g73
(dp852
sg82
g837
sg75
(lp853
g68
(g69
g70
NtRp854
(dp855
g73
(dp856
g81
I5
ssg82
g850
sg75
(lp857
g68
(g77
g70
NtRp858
(dp859
g73
(dp860
g81
I4
ssg82
Nsg75
(lp861
g68
(g84
g70
NtRp862
(dp863
g73
(dp864
sg82
g858
sg75
(lp865
g68
(g89
g70
NtRp866
(dp867
g73
(dp868
g93
g94
ssg82
g862
sg75
(lp869
S'app_folders'
p870
asbag68
(g89
g70
NtRp871
(dp872
g73
(dp873
g100
g101
ssg82
g862
sg75
(lp874
S':'
asbag68
(g89
g70
NtRp875
(dp876
g73
(dp877
sg82
g862
sg75
(lp878
g68
(g69
g70
NtRp879
(dp880
g73
(dp881
g81
I4
ssg82
g875
sg75
(lp882
S"set(['C:\\\\xampp\\\\htdocs\\\\web2py\\\\applications\\\\kieva\\\\', 'C:\\\\xampp\\\\htdocs\\\\web2py\\\\applications\\\\admin\\\\', 'C:\\\\xampp\\\\htdocs\\\\web2py\\\\applications\\\\welcome\\\\', 'C:\\\\xampp\\\\htdocs\\\\web2py\\\\applications\\\\testumgebung\\\\'])"
p883
asbasbasbag68
(g84
g70
NtRp884
(dp885
g73
(dp886
sg82
g858
sg75
(lp887
g68
(g89
g70
NtRp888
(dp889
g73
(dp890
g93
g94
ssg82
g884
sg75
(lp891
S'applications_parent'
p892
asbag68
(g89
g70
NtRp893
(dp894
g73
(dp895
g100
g101
ssg82
g884
sg75
(lp896
S':'
asbag68
(g89
g70
NtRp897
(dp898
g73
(dp899
sg82
g884
sg75
(lp900
g68
(g69
g70
NtRp901
(dp902
g73
(dp903
g81
I4
ssg82
g897
sg75
(lp904
S'C:\\xampp\\htdocs\\web2py'
p905
asbasbasbag68
(g84
g70
NtRp906
(dp907
g73
(dp908
sg82
g858
sg75
(lp909
g68
(g89
g70
NtRp910
(dp911
g73
(dp912
g93
g94
ssg82
g906
sg75
(lp913
S'cmd_args'
p914
asbag68
(g89
g70
NtRp915
(dp916
g73
(dp917
g100
g101
ssg82
g906
sg75
(lp918
S':'
asbag68
(g89
g70
NtRp919
(dp920
g73
(dp921
sg82
g906
sg75
(lp922
g68
(g69
g70
NtRp923
(dp924
g73
(dp925
g81
I4
ssg82
g919
sg75
(lp926
g68
(g77
g70
NtRp927
(dp928
g73
(dp929
g81
I3
ssg82
Nsg75
(lp930
sbasbasbasbag68
(g84
g70
NtRp931
(dp932
g73
(dp933
sg82
g858
sg75
(lp934
g68
(g89
g70
NtRp935
(dp936
g73
(dp937
g93
g94
ssg82
g931
sg75
(lp938
S'cmd_options'
p939
asbag68
(g89
g70
NtRp940
(dp941
g73
(dp942
g100
g101
ssg82
g931
sg75
(lp943
S':'
asbag68
(g89
g70
NtRp944
(dp945
g73
(dp946
sg82
g931
sg75
(lp947
g68
(g69
g70
NtRp948
(dp949
g73
(dp950
g81
I4
ssg82
g944
sg75
(lp951
S"<Values at 0x31dee18: {'verbose': False, 'ip': '127.0.0.1', 'with_scheduler': False, 'ips': ['10.0.0.109', '192.168.189.1', '192.168.91.1'], 'shutdown_timeout': 5, 'taskbar': False, 'port': 8000, 'maxthreads': None, 'softcron': False, 'server_name': 'swLaptop', 'bpython': False, 'nogui': False, 'nocron': False, 'extcron': False, 'run_system_tests': False, 'test': None, 'folder': 'C:\\\\xampp\\\\htdocs\\\\web2py', 'config': '', 'import_models': False, 'winservice': '', 'shell': None, 'run': '', 'log_filename': 'httpserver.log', 'debuglevel': 30, 'args': [''], 'socket_timeout': 5, 'ssl_ca_certificate': None, 'scheduler': None, 'profiler_filename': None, 'ssl_private_key': '', 'scheduler_groups': None, 'password': '<ask>', 'request_queue_size': 5, 'ssl_certificate': '', 'cronjob': False, 'numthreads': None, 'quiet': False, 'interfaces': None, 'minthreads': None, 'timeout': 10, 'plain': False, 'nobanner': False, 'pid_filename': 'httpserver.pid'}>"
p952
asbasbasbag68
(g84
g70
NtRp953
(dp954
g73
(dp955
sg82
g858
sg75
(lp956
g68
(g89
g70
NtRp957
(dp958
g73
(dp959
g93
g94
ssg82
g953
sg75
(lp960
S'db_sessions'
p961
asbag68
(g89
g70
NtRp962
(dp963
g73
(dp964
g100
g101
ssg82
g953
sg75
(lp965
S':'
asbag68
(g89
g70
NtRp966
(dp967
g73
(dp968
sg82
g953
sg75
(lp969
g68
(g69
g70
NtRp970
(dp971
g73
(dp972
g81
I4
ssg82
g966
sg75
(lp973
S'set([])'
p974
asbasbasbag68
(g84
g70
NtRp975
(dp976
g73
(dp977
sg82
g858
sg75
(lp978
g68
(g89
g70
NtRp979
(dp980
g73
(dp981
g93
g94
ssg82
g975
sg75
(lp982
S'debugging'
p983
asbag68
(g89
g70
NtRp984
(dp985
g73
(dp986
g100
g101
ssg82
g975
sg75
(lp987
S':'
asbag68
(g89
g70
NtRp988
(dp989
g73
(dp990
sg82
g975
sg75
(lp991
g68
(g69
g70
NtRp992
(dp993
g73
(dp994
g81
I4
ssg82
g988
sg75
(lp995
S'False'
p996
asbasbasbag68
(g84
g70
NtRp997
(dp998
g73
(dp999
sg82
g858
sg75
(lp1000
g68
(g89
g70
NtRp1001
(dp1002
g73
(dp1003
g93
g94
ssg82
g997
sg75
(lp1004
S'gluon_parent'
p1005
asbag68
(g89
g70
NtRp1006
(dp1007
g73
(dp1008
g100
g101
ssg82
g997
sg75
(lp1009
S':'
asbag68
(g89
g70
NtRp1010
(dp1011
g73
(dp1012
sg82
g997
sg75
(lp1013
g68
(g69
g70
NtRp1014
(dp1015
g73
(dp1016
g81
I4
ssg82
g1010
sg75
(lp1017
S'C:\\xampp\\htdocs\\web2py'
p1018
asbasbasbag68
(g84
g70
NtRp1019
(dp1020
g73
(dp1021
sg82
g858
sg75
(lp1022
g68
(g89
g70
NtRp1023
(dp1024
g73
(dp1025
g93
g94
ssg82
g1019
sg75
(lp1026
S'http_accept'
p1027
asbag68
(g89
g70
NtRp1028
(dp1029
g73
(dp1030
g100
g101
ssg82
g1019
sg75
(lp1031
S':'
asbag68
(g89
g70
NtRp1032
(dp1033
g73
(dp1034
sg82
g1019
sg75
(lp1035
g68
(g69
g70
NtRp1036
(dp1037
g73
(dp1038
g81
I4
ssg82
g1032
sg75
(lp1039
S'*/*'
p1040
asbasbasbag68
(g84
g70
NtRp1041
(dp1042
g73
(dp1043
sg82
g858
sg75
(lp1044
g68
(g89
g70
NtRp1045
(dp1046
g73
(dp1047
g93
g94
ssg82
g1041
sg75
(lp1048
S'http_accept_encoding'
p1049
asbag68
(g89
g70
NtRp1050
(dp1051
g73
(dp1052
g100
g101
ssg82
g1041
sg75
(lp1053
S':'
asbag68
(g89
g70
NtRp1054
(dp1055
g73
(dp1056
sg82
g1041
sg75
(lp1057
g68
(g69
g70
NtRp1058
(dp1059
g73
(dp1060
g81
I4
ssg82
g1054
sg75
(lp1061
S'gzip, deflate'
p1062
asbasbasbag68
(g84
g70
NtRp1063
(dp1064
g73
(dp1065
sg82
g858
sg75
(lp1066
g68
(g89
g70
NtRp1067
(dp1068
g73
(dp1069
g93
g94
ssg82
g1063
sg75
(lp1070
S'http_accept_language'
p1071
asbag68
(g89
g70
NtRp1072
(dp1073
g73
(dp1074
g100
g101
ssg82
g1063
sg75
(lp1075
S':'
asbag68
(g89
g70
NtRp1076
(dp1077
g73
(dp1078
sg82
g1063
sg75
(lp1079
g68
(g69
g70
NtRp1080
(dp1081
g73
(dp1082
g81
I4
ssg82
g1076
sg75
(lp1083
S'de-de,de;q=0.8,en-us;q=0.5,en;q=0.3'
p1084
asbasbasbag68
(g84
g70
NtRp1085
(dp1086
g73
(dp1087
sg82
g858
sg75
(lp1088
g68
(g89
g70
NtRp1089
(dp1090
g73
(dp1091
g93
g94
ssg82
g1085
sg75
(lp1092
S'http_cache_control'
p1093
asbag68
(g89
g70
NtRp1094
(dp1095
g73
(dp1096
g100
g101
ssg82
g1085
sg75
(lp1097
S':'
asbag68
(g89
g70
NtRp1098
(dp1099
g73
(dp1100
sg82
g1085
sg75
(lp1101
g68
(g69
g70
NtRp1102
(dp1103
g73
(dp1104
g81
I4
ssg82
g1098
sg75
(lp1105
S'max-age=0'
p1106
asbasbasbag68
(g84
g70
NtRp1107
(dp1108
g73
(dp1109
sg82
g858
sg75
(lp1110
g68
(g89
g70
NtRp1111
(dp1112
g73
(dp1113
g93
g94
ssg82
g1107
sg75
(lp1114
S'http_connection'
p1115
asbag68
(g89
g70
NtRp1116
(dp1117
g73
(dp1118
g100
g101
ssg82
g1107
sg75
(lp1119
S':'
asbag68
(g89
g70
NtRp1120
(dp1121
g73
(dp1122
sg82
g1107
sg75
(lp1123
g68
(g69
g70
NtRp1124
(dp1125
g73
(dp1126
g81
I4
ssg82
g1120
sg75
(lp1127
S'keep-alive'
p1128
asbasbasbag68
(g84
g70
NtRp1129
(dp1130
g73
(dp1131
sg82
g858
sg75
(lp1132
g68
(g89
g70
NtRp1133
(dp1134
g73
(dp1135
g93
g94
ssg82
g1129
sg75
(lp1136
S'http_cookie'
p1137
asbag68
(g89
g70
NtRp1138
(dp1139
g73
(dp1140
g100
g101
ssg82
g1129
sg75
(lp1141
S':'
asbag68
(g89
g70
NtRp1142
(dp1143
g73
(dp1144
sg82
g1129
sg75
(lp1145
g68
(g69
g70
NtRp1146
(dp1147
g73
(dp1148
g81
I4
ssg82
g1142
sg75
(lp1149
S'session_id_welcome=127.0.0.1-0257bf03-f9f4-4cfd-a327-b5a596d499ec; session_id_testumgebung=127.0.0.1-90677836-87e3-4573-bd9a-704b577fb384; session_id_admin=127.0.0.1-75c713f7-cbde-478e-9eb0-8602d2ac1f92'
p1150
asbasbasbag68
(g84
g70
NtRp1151
(dp1152
g73
(dp1153
sg82
g858
sg75
(lp1154
g68
(g89
g70
NtRp1155
(dp1156
g73
(dp1157
g93
g94
ssg82
g1151
sg75
(lp1158
S'http_dnt'
p1159
asbag68
(g89
g70
NtRp1160
(dp1161
g73
(dp1162
g100
g101
ssg82
g1151
sg75
(lp1163
S':'
asbag68
(g89
g70
NtRp1164
(dp1165
g73
(dp1166
sg82
g1151
sg75
(lp1167
g68
(g69
g70
NtRp1168
(dp1169
g73
(dp1170
g81
I4
ssg82
g1164
sg75
(lp1171
S'1'
asbasbasbag68
(g84
g70
NtRp1172
(dp1173
g73
(dp1174
sg82
g858
sg75
(lp1175
g68
(g89
g70
NtRp1176
(dp1177
g73
(dp1178
g93
g94
ssg82
g1172
sg75
(lp1179
S'http_host'
p1180
asbag68
(g89
g70
NtRp1181
(dp1182
g73
(dp1183
g100
g101
ssg82
g1172
sg75
(lp1184
S':'
asbag68
(g89
g70
NtRp1185
(dp1186
g73
(dp1187
sg82
g1172
sg75
(lp1188
g68
(g69
g70
NtRp1189
(dp1190
g73
(dp1191
g81
I4
ssg82
g1185
sg75
(lp1192
S'127.0.0.1:8000'
p1193
asbasbasbag68
(g84
g70
NtRp1194
(dp1195
g73
(dp1196
sg82
g858
sg75
(lp1197
g68
(g89
g70
NtRp1198
(dp1199
g73
(dp1200
g93
g94
ssg82
g1194
sg75
(lp1201
S'http_referer'
p1202
asbag68
(g89
g70
NtRp1203
(dp1204
g73
(dp1205
g100
g101
ssg82
g1194
sg75
(lp1206
S':'
asbag68
(g89
g70
NtRp1207
(dp1208
g73
(dp1209
sg82
g1194
sg75
(lp1210
g68
(g69
g70
NtRp1211
(dp1212
g73
(dp1213
g81
I4
ssg82
g1207
sg75
(lp1214
S'http://127.0.0.1:8000/testumgebung'
p1215
asbasbasbag68
(g84
g70
NtRp1216
(dp1217
g73
(dp1218
sg82
g858
sg75
(lp1219
g68
(g89
g70
NtRp1220
(dp1221
g73
(dp1222
g93
g94
ssg82
g1216
sg75
(lp1223
S'http_user_agent'
p1224
asbag68
(g89
g70
NtRp1225
(dp1226
g73
(dp1227
g100
g101
ssg82
g1216
sg75
(lp1228
S':'
asbag68
(g89
g70
NtRp1229
(dp1230
g73
(dp1231
sg82
g1216
sg75
(lp1232
g68
(g69
g70
NtRp1233
(dp1234
g73
(dp1235
g81
I4
ssg82
g1229
sg75
(lp1236
S'Mozilla/5.0 (Windows NT 6.1; WOW64; rv:17.0) Gecko/20100101 Firefox/17.0'
p1237
asbasbasbag68
(g84
g70
NtRp1238
(dp1239
g73
(dp1240
sg82
g858
sg75
(lp1241
g68
(g89
g70
NtRp1242
(dp1243
g73
(dp1244
g93
g94
ssg82
g1238
sg75
(lp1245
S'http_web2py_component_element'
p1246
asbag68
(g89
g70
NtRp1247
(dp1248
g73
(dp1249
g100
g101
ssg82
g1238
sg75
(lp1250
S':'
asbag68
(g89
g70
NtRp1251
(dp1252
g73
(dp1253
sg82
g1238
sg75
(lp1254
g68
(g69
g70
NtRp1255
(dp1256
g73
(dp1257
g81
I4
ssg82
g1251
sg75
(lp1258
g201
asbasbasbag68
(g84
g70
NtRp1259
(dp1260
g73
(dp1261
sg82
g858
sg75
(lp1262
g68
(g89
g70
NtRp1263
(dp1264
g73
(dp1265
g93
g94
ssg82
g1259
sg75
(lp1266
S'http_web2py_component_location'
p1267
asbag68
(g89
g70
NtRp1268
(dp1269
g73
(dp1270
g100
g101
ssg82
g1259
sg75
(lp1271
S':'
asbag68
(g89
g70
NtRp1272
(dp1273
g73
(dp1274
sg82
g1259
sg75
(lp1275
g68
(g69
g70
NtRp1276
(dp1277
g73
(dp1278
g81
I4
ssg82
g1272
sg75
(lp1279
S'http://127.0.0.1:8000/testumgebung'
p1280
asbasbasbag68
(g84
g70
NtRp1281
(dp1282
g73
(dp1283
sg82
g858
sg75
(lp1284
g68
(g89
g70
NtRp1285
(dp1286
g73
(dp1287
g93
g94
ssg82
g1281
sg75
(lp1288
S'http_x_clickoncesupport'
p1289
asbag68
(g89
g70
NtRp1290
(dp1291
g73
(dp1292
g100
g101
ssg82
g1281
sg75
(lp1293
S':'
asbag68
(g89
g70
NtRp1294
(dp1295
g73
(dp1296
sg82
g1281
sg75
(lp1297
g68
(g69
g70
NtRp1298
(dp1299
g73
(dp1300
g81
I4
ssg82
g1294
sg75
(lp1301
S'(.NET CLR 2.0.50727; .NET CLR 3.5.30729; .NET CLR 3.0.30729; .NET4.0C; .NET4.0E)'
p1302
asbasbasbag68
(g84
g70
NtRp1303
(dp1304
g73
(dp1305
sg82
g858
sg75
(lp1306
g68
(g89
g70
NtRp1307
(dp1308
g73
(dp1309
g93
g94
ssg82
g1303
sg75
(lp1310
S'http_x_requested_with'
p1311
asbag68
(g89
g70
NtRp1312
(dp1313
g73
(dp1314
g100
g101
ssg82
g1303
sg75
(lp1315
S':'
asbag68
(g89
g70
NtRp1316
(dp1317
g73
(dp1318
sg82
g1303
sg75
(lp1319
g68
(g69
g70
NtRp1320
(dp1321
g73
(dp1322
g81
I4
ssg82
g1316
sg75
(lp1323
S'XMLHttpRequest'
p1324
asbasbasbag68
(g84
g70
NtRp1325
(dp1326
g73
(dp1327
sg82
g858
sg75
(lp1328
g68
(g89
g70
NtRp1329
(dp1330
g73
(dp1331
g93
g94
ssg82
g1325
sg75
(lp1332
S'is_jython'
p1333
asbag68
(g89
g70
NtRp1334
(dp1335
g73
(dp1336
g100
g101
ssg82
g1325
sg75
(lp1337
S':'
asbag68
(g89
g70
NtRp1338
(dp1339
g73
(dp1340
sg82
g1325
sg75
(lp1341
g68
(g69
g70
NtRp1342
(dp1343
g73
(dp1344
g81
I4
ssg82
g1338
sg75
(lp1345
g996
asbasbasbag68
(g84
g70
NtRp1346
(dp1347
g73
(dp1348
sg82
g858
sg75
(lp1349
g68
(g89
g70
NtRp1350
(dp1351
g73
(dp1352
g93
g94
ssg82
g1346
sg75
(lp1353
S'is_pypy'
p1354
asbag68
(g89
g70
NtRp1355
(dp1356
g73
(dp1357
g100
g101
ssg82
g1346
sg75
(lp1358
S':'
asbag68
(g89
g70
NtRp1359
(dp1360
g73
(dp1361
sg82
g1346
sg75
(lp1362
g68
(g69
g70
NtRp1363
(dp1364
g73
(dp1365
g81
I4
ssg82
g1359
sg75
(lp1366
g996
asbasbasbag68
(g84
g70
NtRp1367
(dp1368
g73
(dp1369
sg82
g858
sg75
(lp1370
g68
(g89
g70
NtRp1371
(dp1372
g73
(dp1373
g93
g94
ssg82
g1367
sg75
(lp1374
S'path_info'
p1375
asbag68
(g89
g70
NtRp1376
(dp1377
g73
(dp1378
g100
g101
ssg82
g1367
sg75
(lp1379
S':'
asbag68
(g89
g70
NtRp1380
(dp1381
g73
(dp1382
sg82
g1367
sg75
(lp1383
g68
(g69
g70
NtRp1384
(dp1385
g73
(dp1386
g81
I4
ssg82
g1380
sg75
(lp1387
S'/testumgebung/plugin_feedbacks/feedback.load'
p1388
asbasbasbag68
(g84
g70
NtRp1389
(dp1390
g73
(dp1391
sg82
g858
sg75
(lp1392
g68
(g89
g70
NtRp1393
(dp1394
g73
(dp1395
g93
g94
ssg82
g1389
sg75
(lp1396
S'query_string'
p1397
asbag68
(g89
g70
NtRp1398
(dp1399
g73
(dp1400
g100
g101
ssg82
g1389
sg75
(lp1401
S':'
asbag68
(g89
g70
NtRp1402
(dp1403
g73
(dp1404
sg82
g1389
sg75
(lp1405
g68
(g69
g70
NtRp1406
(dp1407
g73
(dp1408
g81
I4
ssg82
g1402
sg75
(lp1409
S''
asbasbasbag68
(g84
g70
NtRp1410
(dp1411
g73
(dp1412
sg82
g858
sg75
(lp1413
g68
(g89
g70
NtRp1414
(dp1415
g73
(dp1416
g93
g94
ssg82
g1410
sg75
(lp1417
S'remote_addr'
p1418
asbag68
(g89
g70
NtRp1419
(dp1420
g73
(dp1421
g100
g101
ssg82
g1410
sg75
(lp1422
S':'
asbag68
(g89
g70
NtRp1423
(dp1424
g73
(dp1425
sg82
g1410
sg75
(lp1426
g68
(g69
g70
NtRp1427
(dp1428
g73
(dp1429
g81
I4
ssg82
g1423
sg75
(lp1430
g223
asbasbasbag68
(g84
g70
NtRp1431
(dp1432
g73
(dp1433
sg82
g858
sg75
(lp1434
g68
(g89
g70
NtRp1435
(dp1436
g73
(dp1437
g93
g94
ssg82
g1431
sg75
(lp1438
S'remote_port'
p1439
asbag68
(g89
g70
NtRp1440
(dp1441
g73
(dp1442
g100
g101
ssg82
g1431
sg75
(lp1443
S':'
asbag68
(g89
g70
NtRp1444
(dp1445
g73
(dp1446
sg82
g1431
sg75
(lp1447
g68
(g69
g70
NtRp1448
(dp1449
g73
(dp1450
g81
I4
ssg82
g1444
sg75
(lp1451
S'63195'
p1452
asbasbasbag68
(g84
g70
NtRp1453
(dp1454
g73
(dp1455
sg82
g858
sg75
(lp1456
g68
(g89
g70
NtRp1457
(dp1458
g73
(dp1459
g93
g94
ssg82
g1453
sg75
(lp1460
S'request_method'
p1461
asbag68
(g89
g70
NtRp1462
(dp1463
g73
(dp1464
g100
g101
ssg82
g1453
sg75
(lp1465
S':'
asbag68
(g89
g70
NtRp1466
(dp1467
g73
(dp1468
sg82
g1453
sg75
(lp1469
g68
(g69
g70
NtRp1470
(dp1471
g73
(dp1472
g81
I4
ssg82
g1466
sg75
(lp1473
S'GET'
p1474
asbasbasbag68
(g84
g70
NtRp1475
(dp1476
g73
(dp1477
sg82
g858
sg75
(lp1478
g68
(g89
g70
NtRp1479
(dp1480
g73
(dp1481
g93
g94
ssg82
g1475
sg75
(lp1482
S'request_uri'
p1483
asbag68
(g89
g70
NtRp1484
(dp1485
g73
(dp1486
g100
g101
ssg82
g1475
sg75
(lp1487
S':'
asbag68
(g89
g70
NtRp1488
(dp1489
g73
(dp1490
sg82
g1475
sg75
(lp1491
g68
(g69
g70
NtRp1492
(dp1493
g73
(dp1494
g81
I4
ssg82
g1488
sg75
(lp1495
g1388
asbasbasbag68
(g84
g70
NtRp1496
(dp1497
g73
(dp1498
sg82
g858
sg75
(lp1499
g68
(g89
g70
NtRp1500
(dp1501
g73
(dp1502
g93
g94
ssg82
g1496
sg75
(lp1503
S'script_name'
p1504
asbag68
(g89
g70
NtRp1505
(dp1506
g73
(dp1507
g100
g101
ssg82
g1496
sg75
(lp1508
S':'
asbag68
(g89
g70
NtRp1509
(dp1510
g73
(dp1511
sg82
g1496
sg75
(lp1512
g68
(g69
g70
NtRp1513
(dp1514
g73
(dp1515
g81
I4
ssg82
g1509
sg75
(lp1516
S''
asbasbasbag68
(g84
g70
NtRp1517
(dp1518
g73
(dp1519
sg82
g858
sg75
(lp1520
g68
(g89
g70
NtRp1521
(dp1522
g73
(dp1523
g93
g94
ssg82
g1517
sg75
(lp1524
S'server_name'
p1525
asbag68
(g89
g70
NtRp1526
(dp1527
g73
(dp1528
g100
g101
ssg82
g1517
sg75
(lp1529
S':'
asbag68
(g89
g70
NtRp1530
(dp1531
g73
(dp1532
sg82
g1517
sg75
(lp1533
g68
(g69
g70
NtRp1534
(dp1535
g73
(dp1536
g81
I4
ssg82
g1530
sg75
(lp1537
S'swLaptop'
p1538
asbasbasbag68
(g84
g70
NtRp1539
(dp1540
g73
(dp1541
sg82
g858
sg75
(lp1542
g68
(g89
g70
NtRp1543
(dp1544
g73
(dp1545
g93
g94
ssg82
g1539
sg75
(lp1546
S'server_port'
p1547
asbag68
(g89
g70
NtRp1548
(dp1549
g73
(dp1550
g100
g101
ssg82
g1539
sg75
(lp1551
S':'
asbag68
(g89
g70
NtRp1552
(dp1553
g73
(dp1554
sg82
g1539
sg75
(lp1555
g68
(g69
g70
NtRp1556
(dp1557
g73
(dp1558
g81
I4
ssg82
g1552
sg75
(lp1559
S'8000'
p1560
asbasbasbag68
(g84
g70
NtRp1561
(dp1562
g73
(dp1563
sg82
g858
sg75
(lp1564
g68
(g89
g70
NtRp1565
(dp1566
g73
(dp1567
g93
g94
ssg82
g1561
sg75
(lp1568
S'server_protocol'
p1569
asbag68
(g89
g70
NtRp1570
(dp1571
g73
(dp1572
g100
g101
ssg82
g1561
sg75
(lp1573
S':'
asbag68
(g89
g70
NtRp1574
(dp1575
g73
(dp1576
sg82
g1561
sg75
(lp1577
g68
(g69
g70
NtRp1578
(dp1579
g73
(dp1580
g81
I4
ssg82
g1574
sg75
(lp1581
S'HTTP/1.1'
p1582
asbasbasbag68
(g84
g70
NtRp1583
(dp1584
g73
(dp1585
sg82
g858
sg75
(lp1586
g68
(g89
g70
NtRp1587
(dp1588
g73
(dp1589
g93
g94
ssg82
g1583
sg75
(lp1590
S'server_software'
p1591
asbag68
(g89
g70
NtRp1592
(dp1593
g73
(dp1594
g100
g101
ssg82
g1583
sg75
(lp1595
S':'
asbag68
(g89
g70
NtRp1596
(dp1597
g73
(dp1598
sg82
g1583
sg75
(lp1599
g68
(g69
g70
NtRp1600
(dp1601
g73
(dp1602
g81
I4
ssg82
g1596
sg75
(lp1603
S'Rocket 1.2.4'
p1604
asbasbasbag68
(g84
g70
NtRp1605
(dp1606
g73
(dp1607
sg82
g858
sg75
(lp1608
g68
(g89
g70
NtRp1609
(dp1610
g73
(dp1611
g93
g94
ssg82
g1605
sg75
(lp1612
S'web2py_crontype'
p1613
asbag68
(g89
g70
NtRp1614
(dp1615
g73
(dp1616
g100
g101
ssg82
g1605
sg75
(lp1617
S':'
asbag68
(g89
g70
NtRp1618
(dp1619
g73
(dp1620
sg82
g1605
sg75
(lp1621
g68
(g69
g70
NtRp1622
(dp1623
g73
(dp1624
g81
I4
ssg82
g1618
sg75
(lp1625
S'hard'
p1626
asbasbasbag68
(g84
g70
NtRp1627
(dp1628
g73
(dp1629
sg82
g858
sg75
(lp1630
g68
(g89
g70
NtRp1631
(dp1632
g73
(dp1633
g93
g94
ssg82
g1627
sg75
(lp1634
S'web2py_path'
p1635
asbag68
(g89
g70
NtRp1636
(dp1637
g73
(dp1638
g100
g101
ssg82
g1627
sg75
(lp1639
S':'
asbag68
(g89
g70
NtRp1640
(dp1641
g73
(dp1642
sg82
g1627
sg75
(lp1643
g68
(g69
g70
NtRp1644
(dp1645
g73
(dp1646
g81
I4
ssg82
g1640
sg75
(lp1647
g905
asbasbasbag68
(g84
g70
NtRp1648
(dp1649
g73
(dp1650
sg82
g858
sg75
(lp1651
g68
(g89
g70
NtRp1652
(dp1653
g73
(dp1654
g93
g94
ssg82
g1648
sg75
(lp1655
S'web2py_version'
p1656
asbag68
(g89
g70
NtRp1657
(dp1658
g73
(dp1659
g100
g101
ssg82
g1648
sg75
(lp1660
S':'
asbag68
(g89
g70
NtRp1661
(dp1662
g73
(dp1663
sg82
g1648
sg75
(lp1664
g68
(g69
g70
NtRp1665
(dp1666
g73
(dp1667
g81
I4
ssg82
g1661
sg75
(lp1668
g68
(g77
g70
NtRp1669
(dp1670
g73
(dp1671
g81
I3
ssg82
Nsg75
(lp1672
g68
(g84
g70
NtRp1673
(dp1674
g73
(dp1675
sg82
g1669
sg75
(lp1676
g68
(g89
g70
NtRp1677
(dp1678
g73
(dp1679
sg82
g1673
sg75
(lp1680
g68
(g69
g70
NtRp1681
(dp1682
g73
(dp1683
g81
I3
ssg82
g1677
sg75
(lp1684
S'2'
asbasbasbag68
(g84
g70
NtRp1685
(dp1686
g73
(dp1687
sg82
g1669
sg75
(lp1688
g68
(g89
g70
NtRp1689
(dp1690
g73
(dp1691
sg82
g1685
sg75
(lp1692
g68
(g69
g70
NtRp1693
(dp1694
g73
(dp1695
g81
I3
ssg82
g1689
sg75
(lp1696
S'0'
asbasbasbag68
(g84
g70
NtRp1697
(dp1698
g73
(dp1699
sg82
g1669
sg75
(lp1700
g68
(g89
g70
NtRp1701
(dp1702
g73
(dp1703
sg82
g1697
sg75
(lp1704
g68
(g69
g70
NtRp1705
(dp1706
g73
(dp1707
g81
I3
ssg82
g1701
sg75
(lp1708
S'3'
asbasbasbag68
(g84
g70
NtRp1709
(dp1710
g73
(dp1711
sg82
g1669
sg75
(lp1712
g68
(g89
g70
NtRp1713
(dp1714
g73
(dp1715
sg82
g1709
sg75
(lp1716
g68
(g69
g70
NtRp1717
(dp1718
g73
(dp1719
g81
I3
ssg82
g1713
sg75
(lp1720
S'datetime.datetime(2012, 8, 31, 5, 58, 31)'
p1721
asbasbasbag68
(g84
g70
NtRp1722
(dp1723
g73
(dp1724
sg82
g1669
sg75
(lp1725
g68
(g89
g70
NtRp1726
(dp1727
g73
(dp1728
sg82
g1722
sg75
(lp1729
g68
(g69
g70
NtRp1730
(dp1731
g73
(dp1732
g81
I3
ssg82
g1726
sg75
(lp1733
S'stable'
p1734
asbasbasbasbasbasbasbag68
(g84
g70
NtRp1735
(dp1736
g73
(dp1737
sg82
g858
sg75
(lp1738
g68
(g89
g70
NtRp1739
(dp1740
g73
(dp1741
g93
g94
ssg82
g1735
sg75
(lp1742
S'wsgi_errors'
p1743
asbag68
(g89
g70
NtRp1744
(dp1745
g73
(dp1746
g100
g101
ssg82
g1735
sg75
(lp1747
S':'
asbag68
(g89
g70
NtRp1748
(dp1749
g73
(dp1750
sg82
g1735
sg75
(lp1751
g68
(g69
g70
NtRp1752
(dp1753
g73
(dp1754
g81
I4
ssg82
g1748
sg75
(lp1755
S"<open file '<stderr>', mode 'w' at 0x021750D0>"
p1756
asbasbasbag68
(g84
g70
NtRp1757
(dp1758
g73
(dp1759
sg82
g858
sg75
(lp1760
g68
(g89
g70
NtRp1761
(dp1762
g73
(dp1763
g93
g94
ssg82
g1757
sg75
(lp1764
S'wsgi_file_wrapper'
p1765
asbag68
(g89
g70
NtRp1766
(dp1767
g73
(dp1768
g100
g101
ssg82
g1757
sg75
(lp1769
S':'
asbag68
(g89
g70
NtRp1770
(dp1771
g73
(dp1772
sg82
g1757
sg75
(lp1773
g68
(g69
g70
NtRp1774
(dp1775
g73
(dp1776
g81
I4
ssg82
g1770
sg75
(lp1777
S'<class wsgiref.util.FileWrapper at 0x0310D030>'
p1778
asbasbasbag68
(g84
g70
NtRp1779
(dp1780
g73
(dp1781
sg82
g858
sg75
(lp1782
g68
(g89
g70
NtRp1783
(dp1784
g73
(dp1785
g93
g94
ssg82
g1779
sg75
(lp1786
S'wsgi_input'
p1787
asbag68
(g89
g70
NtRp1788
(dp1789
g73
(dp1790
g100
g101
ssg82
g1779
sg75
(lp1791
S':'
asbag68
(g89
g70
NtRp1792
(dp1793
g73
(dp1794
sg82
g1779
sg75
(lp1795
g68
(g69
g70
NtRp1796
(dp1797
g73
(dp1798
g81
I4
ssg82
g1792
sg75
(lp1799
S'<socket._fileobject object at 0x031ED1F0>'
p1800
asbasbasbag68
(g84
g70
NtRp1801
(dp1802
g73
(dp1803
sg82
g858
sg75
(lp1804
g68
(g89
g70
NtRp1805
(dp1806
g73
(dp1807
g93
g94
ssg82
g1801
sg75
(lp1808
S'wsgi_multiprocess'
p1809
asbag68
(g89
g70
NtRp1810
(dp1811
g73
(dp1812
g100
g101
ssg82
g1801
sg75
(lp1813
S':'
asbag68
(g89
g70
NtRp1814
(dp1815
g73
(dp1816
sg82
g1801
sg75
(lp1817
g68
(g69
g70
NtRp1818
(dp1819
g73
(dp1820
g81
I4
ssg82
g1814
sg75
(lp1821
g996
asbasbasbag68
(g84
g70
NtRp1822
(dp1823
g73
(dp1824
sg82
g858
sg75
(lp1825
g68
(g89
g70
NtRp1826
(dp1827
g73
(dp1828
g93
g94
ssg82
g1822
sg75
(lp1829
S'wsgi_multithread'
p1830
asbag68
(g89
g70
NtRp1831
(dp1832
g73
(dp1833
g100
g101
ssg82
g1822
sg75
(lp1834
S':'
asbag68
(g89
g70
NtRp1835
(dp1836
g73
(dp1837
sg82
g1822
sg75
(lp1838
g68
(g69
g70
NtRp1839
(dp1840
g73
(dp1841
g81
I4
ssg82
g1835
sg75
(lp1842
g111
asbasbasbag68
(g84
g70
NtRp1843
(dp1844
g73
(dp1845
sg82
g858
sg75
(lp1846
g68
(g89
g70
NtRp1847
(dp1848
g73
(dp1849
g93
g94
ssg82
g1843
sg75
(lp1850
S'wsgi_run_once'
p1851
asbag68
(g89
g70
NtRp1852
(dp1853
g73
(dp1854
g100
g101
ssg82
g1843
sg75
(lp1855
S':'
asbag68
(g89
g70
NtRp1856
(dp1857
g73
(dp1858
sg82
g1843
sg75
(lp1859
g68
(g69
g70
NtRp1860
(dp1861
g73
(dp1862
g81
I4
ssg82
g1856
sg75
(lp1863
g996
asbasbasbag68
(g84
g70
NtRp1864
(dp1865
g73
(dp1866
sg82
g858
sg75
(lp1867
g68
(g89
g70
NtRp1868
(dp1869
g73
(dp1870
g93
g94
ssg82
g1864
sg75
(lp1871
S'wsgi_url_scheme'
p1872
asbag68
(g89
g70
NtRp1873
(dp1874
g73
(dp1875
g100
g101
ssg82
g1864
sg75
(lp1876
S':'
asbag68
(g89
g70
NtRp1877
(dp1878
g73
(dp1879
sg82
g1864
sg75
(lp1880
g68
(g69
g70
NtRp1881
(dp1882
g73
(dp1883
g81
I4
ssg82
g1877
sg75
(lp1884
S'http'
p1885
asbasbasbag68
(g84
g70
NtRp1886
(dp1887
g73
(dp1888
sg82
g858
sg75
(lp1889
g68
(g89
g70
NtRp1890
(dp1891
g73
(dp1892
g93
g94
ssg82
g1886
sg75
(lp1893
S'wsgi_version'
p1894
asbag68
(g89
g70
NtRp1895
(dp1896
g73
(dp1897
g100
g101
ssg82
g1886
sg75
(lp1898
S':'
asbag68
(g89
g70
NtRp1899
(dp1900
g73
(dp1901
sg82
g1886
sg75
(lp1902
g68
(g69
g70
NtRp1903
(dp1904
g73
(dp1905
g81
I4
ssg82
g1899
sg75
(lp1906
g68
(g77
g70
NtRp1907
(dp1908
g73
(dp1909
g81
I3
ssg82
Nsg75
(lp1910
g68
(g84
g70
NtRp1911
(dp1912
g73
(dp1913
sg82
g1907
sg75
(lp1914
g68
(g89
g70
NtRp1915
(dp1916
g73
(dp1917
sg82
g1911
sg75
(lp1918
g68
(g69
g70
NtRp1919
(dp1920
g73
(dp1921
g81
I3
ssg82
g1915
sg75
(lp1922
S'1'
asbasbasbag68
(g84
g70
NtRp1923
(dp1924
g73
(dp1925
sg82
g1907
sg75
(lp1926
g68
(g89
g70
NtRp1927
(dp1928
g73
(dp1929
sg82
g1923
sg75
(lp1930
g68
(g69
g70
NtRp1931
(dp1932
g73
(dp1933
g81
I3
ssg82
g1927
sg75
(lp1934
S'0'
asbasbasbasbasbasbasbasbasbasbasbag68
(g84
g70
NtRp1935
(dp1936
g73
(dp1937
sg82
g78
sg75
(lp1938
g68
(g89
g70
NtRp1939
(dp1940
g73
(dp1941
g93
g94
ssg82
g1935
sg75
(lp1942
S'extension'
p1943
asbag68
(g89
g70
NtRp1944
(dp1945
g73
(dp1946
g100
g101
ssg82
g1935
sg75
(lp1947
S':'
asbag68
(g89
g70
NtRp1948
(dp1949
g73
(dp1950
sg82
g1935
sg75
(lp1951
g68
(g69
g70
NtRp1952
(dp1953
g73
(dp1954
g81
I5
ssg82
g1948
sg75
(lp1955
S'load'
p1956
asbasbasbag68
(g84
g70
NtRp1957
(dp1958
g73
(dp1959
sg82
g78
sg75
(lp1960
g68
(g89
g70
NtRp1961
(dp1962
g73
(dp1963
g93
g94
ssg82
g1957
sg75
(lp1964
S'folder'
p1965
asbag68
(g89
g70
NtRp1966
(dp1967
g73
(dp1968
g100
g101
ssg82
g1957
sg75
(lp1969
S':'
asbag68
(g89
g70
NtRp1970
(dp1971
g73
(dp1972
sg82
g1957
sg75
(lp1973
g68
(g69
g70
NtRp1974
(dp1975
g73
(dp1976
g81
I5
ssg82
g1970
sg75
(lp1977
S'C:\\xampp\\htdocs\\web2py\\applications\\testumgebung\\'
p1978
asbasbasbag68
(g84
g70
NtRp1979
(dp1980
g73
(dp1981
sg82
g78
sg75
(lp1982
g68
(g89
g70
NtRp1983
(dp1984
g73
(dp1985
g93
g94
ssg82
g1979
sg75
(lp1986
S'function'
p1987
asbag68
(g89
g70
NtRp1988
(dp1989
g73
(dp1990
g100
g101
ssg82
g1979
sg75
(lp1991
S':'
asbag68
(g89
g70
NtRp1992
(dp1993
g73
(dp1994
sg82
g1979
sg75
(lp1995
g68
(g69
g70
NtRp1996
(dp1997
g73
(dp1998
g81
I5
ssg82
g1992
sg75
(lp1999
S'feedback'
p2000
asbasbasbag68
(g84
g70
NtRp2001
(dp2002
g73
(dp2003
sg82
g78
sg75
(lp2004
g68
(g89
g70
NtRp2005
(dp2006
g73
(dp2007
g93
g94
ssg82
g2001
sg75
(lp2008
S'get_vars'
p2009
asbag68
(g89
g70
NtRp2010
(dp2011
g73
(dp2012
g100
g101
ssg82
g2001
sg75
(lp2013
S':'
asbag68
(g89
g70
NtRp2014
(dp2015
g73
(dp2016
sg82
g2001
sg75
(lp2017
g68
(g69
g70
NtRp2018
(dp2019
g73
(dp2020
g81
I5
ssg82
g2014
sg75
(lp2021
g68
(g77
g70
NtRp2022
(dp2023
g73
(dp2024
g81
I4
ssg82
Nsg75
(lp2025
sbasbasbasbag68
(g84
g70
NtRp2026
(dp2027
g73
(dp2028
sg82
g78
sg75
(lp2029
g68
(g89
g70
NtRp2030
(dp2031
g73
(dp2032
g93
g94
ssg82
g2026
sg75
(lp2033
S'global_settings'
p2034
asbag68
(g89
g70
NtRp2035
(dp2036
g73
(dp2037
g100
g101
ssg82
g2026
sg75
(lp2038
S':'
asbag68
(g89
g70
NtRp2039
(dp2040
g73
(dp2041
sg82
g2026
sg75
(lp2042
g68
(g69
g70
NtRp2043
(dp2044
g73
(dp2045
g81
I5
ssg82
g2039
sg75
(lp2046
g68
(g77
g70
NtRp2047
(dp2048
g73
(dp2049
g81
I4
ssg82
Nsg75
(lp2050
g68
(g84
g70
NtRp2051
(dp2052
g73
(dp2053
sg82
g2047
sg75
(lp2054
g68
(g89
g70
NtRp2055
(dp2056
g73
(dp2057
g93
g94
ssg82
g2051
sg75
(lp2058
g870
asbag68
(g89
g70
NtRp2059
(dp2060
g73
(dp2061
g100
g101
ssg82
g2051
sg75
(lp2062
S':'
asbag68
(g89
g70
NtRp2063
(dp2064
g73
(dp2065
sg82
g2051
sg75
(lp2066
g68
(g69
g70
NtRp2067
(dp2068
g73
(dp2069
g81
I4
ssg82
g2063
sg75
(lp2070
S"set(['C:\\\\xampp\\\\htdocs\\\\web2py\\\\applications\\\\kieva\\\\', 'C:\\\\xampp\\\\htdocs\\\\web2py\\\\applications\\\\admin\\\\', 'C:\\\\xampp\\\\htdocs\\\\web2py\\\\applications\\\\welcome\\\\', 'C:\\\\xampp\\\\htdocs\\\\web2py\\\\applications\\\\testumgebung\\\\'])"
p2071
asbasbasbag68
(g84
g70
NtRp2072
(dp2073
g73
(dp2074
sg82
g2047
sg75
(lp2075
g68
(g89
g70
NtRp2076
(dp2077
g73
(dp2078
g93
g94
ssg82
g2072
sg75
(lp2079
g892
asbag68
(g89
g70
NtRp2080
(dp2081
g73
(dp2082
g100
g101
ssg82
g2072
sg75
(lp2083
S':'
asbag68
(g89
g70
NtRp2084
(dp2085
g73
(dp2086
sg82
g2072
sg75
(lp2087
g68
(g69
g70
NtRp2088
(dp2089
g73
(dp2090
g81
I4
ssg82
g2084
sg75
(lp2091
g905
asbasbasbag68
(g84
g70
NtRp2092
(dp2093
g73
(dp2094
sg82
g2047
sg75
(lp2095
g68
(g89
g70
NtRp2096
(dp2097
g73
(dp2098
g93
g94
ssg82
g2092
sg75
(lp2099
g914
asbag68
(g89
g70
NtRp2100
(dp2101
g73
(dp2102
g100
g101
ssg82
g2092
sg75
(lp2103
S':'
asbag68
(g89
g70
NtRp2104
(dp2105
g73
(dp2106
sg82
g2092
sg75
(lp2107
g68
(g69
g70
NtRp2108
(dp2109
g73
(dp2110
g81
I4
ssg82
g2104
sg75
(lp2111
g68
(g77
g70
NtRp2112
(dp2113
g73
(dp2114
g81
I3
ssg82
Nsg75
(lp2115
sbasbasbasbag68
(g84
g70
NtRp2116
(dp2117
g73
(dp2118
sg82
g2047
sg75
(lp2119
g68
(g89
g70
NtRp2120
(dp2121
g73
(dp2122
g93
g94
ssg82
g2116
sg75
(lp2123
g939
asbag68
(g89
g70
NtRp2124
(dp2125
g73
(dp2126
g100
g101
ssg82
g2116
sg75
(lp2127
S':'
asbag68
(g89
g70
NtRp2128
(dp2129
g73
(dp2130
sg82
g2116
sg75
(lp2131
g68
(g69
g70
NtRp2132
(dp2133
g73
(dp2134
g81
I4
ssg82
g2128
sg75
(lp2135
S"<Values at 0x31dee18: {'verbose': False, 'ip': '127.0.0.1', 'with_scheduler': False, 'ips': ['10.0.0.109', '192.168.189.1', '192.168.91.1'], 'shutdown_timeout': 5, 'taskbar': False, 'port': 8000, 'maxthreads': None, 'softcron': False, 'server_name': 'swLaptop', 'bpython': False, 'nogui': False, 'nocron': False, 'extcron': False, 'run_system_tests': False, 'test': None, 'folder': 'C:\\\\xampp\\\\htdocs\\\\web2py', 'config': '', 'import_models': False, 'winservice': '', 'shell': None, 'run': '', 'log_filename': 'httpserver.log', 'debuglevel': 30, 'args': [''], 'socket_timeout': 5, 'ssl_ca_certificate': None, 'scheduler': None, 'profiler_filename': None, 'ssl_private_key': '', 'scheduler_groups': None, 'password': '<ask>', 'request_queue_size': 5, 'ssl_certificate': '', 'cronjob': False, 'numthreads': None, 'quiet': False, 'interfaces': None, 'minthreads': None, 'timeout': 10, 'plain': False, 'nobanner': False, 'pid_filename': 'httpserver.pid'}>"
p2136
asbasbasbag68
(g84
g70
NtRp2137
(dp2138
g73
(dp2139
sg82
g2047
sg75
(lp2140
g68
(g89
g70
NtRp2141
(dp2142
g73
(dp2143
g93
g94
ssg82
g2137
sg75
(lp2144
g961
asbag68
(g89
g70
NtRp2145
(dp2146
g73
(dp2147
g100
g101
ssg82
g2137
sg75
(lp2148
S':'
asbag68
(g89
g70
NtRp2149
(dp2150
g73
(dp2151
sg82
g2137
sg75
(lp2152
g68
(g69
g70
NtRp2153
(dp2154
g73
(dp2155
g81
I4
ssg82
g2149
sg75
(lp2156
S'set([])'
p2157
asbasbasbag68
(g84
g70
NtRp2158
(dp2159
g73
(dp2160
sg82
g2047
sg75
(lp2161
g68
(g89
g70
NtRp2162
(dp2163
g73
(dp2164
g93
g94
ssg82
g2158
sg75
(lp2165
g983
asbag68
(g89
g70
NtRp2166
(dp2167
g73
(dp2168
g100
g101
ssg82
g2158
sg75
(lp2169
S':'
asbag68
(g89
g70
NtRp2170
(dp2171
g73
(dp2172
sg82
g2158
sg75
(lp2173
g68
(g69
g70
NtRp2174
(dp2175
g73
(dp2176
g81
I4
ssg82
g2170
sg75
(lp2177
g996
asbasbasbag68
(g84
g70
NtRp2178
(dp2179
g73
(dp2180
sg82
g2047
sg75
(lp2181
g68
(g89
g70
NtRp2182
(dp2183
g73
(dp2184
g93
g94
ssg82
g2178
sg75
(lp2185
g1005
asbag68
(g89
g70
NtRp2186
(dp2187
g73
(dp2188
g100
g101
ssg82
g2178
sg75
(lp2189
S':'
asbag68
(g89
g70
NtRp2190
(dp2191
g73
(dp2192
sg82
g2178
sg75
(lp2193
g68
(g69
g70
NtRp2194
(dp2195
g73
(dp2196
g81
I4
ssg82
g2190
sg75
(lp2197
g1018
asbasbasbag68
(g84
g70
NtRp2198
(dp2199
g73
(dp2200
sg82
g2047
sg75
(lp2201
g68
(g89
g70
NtRp2202
(dp2203
g73
(dp2204
g93
g94
ssg82
g2198
sg75
(lp2205
g1333
asbag68
(g89
g70
NtRp2206
(dp2207
g73
(dp2208
g100
g101
ssg82
g2198
sg75
(lp2209
S':'
asbag68
(g89
g70
NtRp2210
(dp2211
g73
(dp2212
sg82
g2198
sg75
(lp2213
g68
(g69
g70
NtRp2214
(dp2215
g73
(dp2216
g81
I4
ssg82
g2210
sg75
(lp2217
g996
asbasbasbag68
(g84
g70
NtRp2218
(dp2219
g73
(dp2220
sg82
g2047
sg75
(lp2221
g68
(g89
g70
NtRp2222
(dp2223
g73
(dp2224
g93
g94
ssg82
g2218
sg75
(lp2225
g1354
asbag68
(g89
g70
NtRp2226
(dp2227
g73
(dp2228
g100
g101
ssg82
g2218
sg75
(lp2229
S':'
asbag68
(g89
g70
NtRp2230
(dp2231
g73
(dp2232
sg82
g2218
sg75
(lp2233
g68
(g69
g70
NtRp2234
(dp2235
g73
(dp2236
g81
I4
ssg82
g2230
sg75
(lp2237
g996
asbasbasbag68
(g84
g70
NtRp2238
(dp2239
g73
(dp2240
sg82
g2047
sg75
(lp2241
g68
(g89
g70
NtRp2242
(dp2243
g73
(dp2244
g93
g94
ssg82
g2238
sg75
(lp2245
g1613
asbag68
(g89
g70
NtRp2246
(dp2247
g73
(dp2248
g100
g101
ssg82
g2238
sg75
(lp2249
S':'
asbag68
(g89
g70
NtRp2250
(dp2251
g73
(dp2252
sg82
g2238
sg75
(lp2253
g68
(g69
g70
NtRp2254
(dp2255
g73
(dp2256
g81
I4
ssg82
g2250
sg75
(lp2257
g1626
asbasbasbag68
(g84
g70
NtRp2258
(dp2259
g73
(dp2260
sg82
g2047
sg75
(lp2261
g68
(g89
g70
NtRp2262
(dp2263
g73
(dp2264
g93
g94
ssg82
g2258
sg75
(lp2265
g1656
asbag68
(g89
g70
NtRp2266
(dp2267
g73
(dp2268
g100
g101
ssg82
g2258
sg75
(lp2269
S':'
asbag68
(g89
g70
NtRp2270
(dp2271
g73
(dp2272
sg82
g2258
sg75
(lp2273
g68
(g69
g70
NtRp2274
(dp2275
g73
(dp2276
g81
I4
ssg82
g2270
sg75
(lp2277
g68
(g77
g70
NtRp2278
(dp2279
g73
(dp2280
g81
I3
ssg82
Nsg75
(lp2281
g68
(g84
g70
NtRp2282
(dp2283
g73
(dp2284
sg82
g2278
sg75
(lp2285
g68
(g89
g70
NtRp2286
(dp2287
g73
(dp2288
sg82
g2282
sg75
(lp2289
g68
(g69
g70
NtRp2290
(dp2291
g73
(dp2292
g81
I3
ssg82
g2286
sg75
(lp2293
S'2'
asbasbasbag68
(g84
g70
NtRp2294
(dp2295
g73
(dp2296
sg82
g2278
sg75
(lp2297
g68
(g89
g70
NtRp2298
(dp2299
g73
(dp2300
sg82
g2294
sg75
(lp2301
g68
(g69
g70
NtRp2302
(dp2303
g73
(dp2304
g81
I3
ssg82
g2298
sg75
(lp2305
S'0'
asbasbasbag68
(g84
g70
NtRp2306
(dp2307
g73
(dp2308
sg82
g2278
sg75
(lp2309
g68
(g89
g70
NtRp2310
(dp2311
g73
(dp2312
sg82
g2306
sg75
(lp2313
g68
(g69
g70
NtRp2314
(dp2315
g73
(dp2316
g81
I3
ssg82
g2310
sg75
(lp2317
S'3'
asbasbasbag68
(g84
g70
NtRp2318
(dp2319
g73
(dp2320
sg82
g2278
sg75
(lp2321
g68
(g89
g70
NtRp2322
(dp2323
g73
(dp2324
sg82
g2318
sg75
(lp2325
g68
(g69
g70
NtRp2326
(dp2327
g73
(dp2328
g81
I3
ssg82
g2322
sg75
(lp2329
S'datetime.datetime(2012, 8, 31, 5, 58, 31)'
p2330
asbasbasbag68
(g84
g70
NtRp2331
(dp2332
g73
(dp2333
sg82
g2278
sg75
(lp2334
g68
(g89
g70
NtRp2335
(dp2336
g73
(dp2337
sg82
g2331
sg75
(lp2338
g68
(g69
g70
NtRp2339
(dp2340
g73
(dp2341
g81
I3
ssg82
g2335
sg75
(lp2342
g1734
asbasbasbasbasbasbasbasbasbasbasbag68
(g84
g70
NtRp2343
(dp2344
g73
(dp2345
sg82
g78
sg75
(lp2346
g68
(g89
g70
NtRp2347
(dp2348
g73
(dp2349
g93
g94
ssg82
g2343
sg75
(lp2350
S'is_https'
p2351
asbag68
(g89
g70
NtRp2352
(dp2353
g73
(dp2354
g100
g101
ssg82
g2343
sg75
(lp2355
S':'
asbag68
(g89
g70
NtRp2356
(dp2357
g73
(dp2358
sg82
g2343
sg75
(lp2359
g68
(g69
g70
NtRp2360
(dp2361
g73
(dp2362
g81
I5
ssg82
g2356
sg75
(lp2363
g996
asbasbasbag68
(g84
g70
NtRp2364
(dp2365
g73
(dp2366
sg82
g78
sg75
(lp2367
g68
(g89
g70
NtRp2368
(dp2369
g73
(dp2370
g93
g94
ssg82
g2364
sg75
(lp2371
S'is_local'
p2372
asbag68
(g89
g70
NtRp2373
(dp2374
g73
(dp2375
g100
g101
ssg82
g2364
sg75
(lp2376
S':'
asbag68
(g89
g70
NtRp2377
(dp2378
g73
(dp2379
sg82
g2364
sg75
(lp2380
g68
(g69
g70
NtRp2381
(dp2382
g73
(dp2383
g81
I5
ssg82
g2377
sg75
(lp2384
g111
asbasbasbag68
(g84
g70
NtRp2385
(dp2386
g73
(dp2387
sg82
g78
sg75
(lp2388
g68
(g89
g70
NtRp2389
(dp2390
g73
(dp2391
g93
g94
ssg82
g2385
sg75
(lp2392
S'is_restful'
p2393
asbag68
(g89
g70
NtRp2394
(dp2395
g73
(dp2396
g100
g101
ssg82
g2385
sg75
(lp2397
S':'
asbag68
(g89
g70
NtRp2398
(dp2399
g73
(dp2400
sg82
g2385
sg75
(lp2401
g68
(g69
g70
NtRp2402
(dp2403
g73
(dp2404
g81
I5
ssg82
g2398
sg75
(lp2405
g996
asbasbasbag68
(g84
g70
NtRp2406
(dp2407
g73
(dp2408
sg82
g78
sg75
(lp2409
g68
(g89
g70
NtRp2410
(dp2411
g73
(dp2412
g93
g94
ssg82
g2406
sg75
(lp2413
S'now'
p2414
asbag68
(g89
g70
NtRp2415
(dp2416
g73
(dp2417
g100
g101
ssg82
g2406
sg75
(lp2418
S':'
asbag68
(g89
g70
NtRp2419
(dp2420
g73
(dp2421
sg82
g2406
sg75
(lp2422
g68
(g69
g70
NtRp2423
(dp2424
g73
(dp2425
g81
I5
ssg82
g2419
sg75
(lp2426
S'datetime.datetime(2012, 12, 18, 12, 50, 58, 723000)'
p2427
asbasbasbag68
(g84
g70
NtRp2428
(dp2429
g73
(dp2430
sg82
g78
sg75
(lp2431
g68
(g89
g70
NtRp2432
(dp2433
g73
(dp2434
g93
g94
ssg82
g2428
sg75
(lp2435
S'post_vars'
p2436
asbag68
(g89
g70
NtRp2437
(dp2438
g73
(dp2439
g100
g101
ssg82
g2428
sg75
(lp2440
S':'
asbag68
(g89
g70
NtRp2441
(dp2442
g73
(dp2443
sg82
g2428
sg75
(lp2444
g68
(g69
g70
NtRp2445
(dp2446
g73
(dp2447
g81
I5
ssg82
g2441
sg75
(lp2448
g68
(g77
g70
NtRp2449
(dp2450
g73
(dp2451
g81
I4
ssg82
Nsg75
(lp2452
sbasbasbasbag68
(g84
g70
NtRp2453
(dp2454
g73
(dp2455
sg82
g78
sg75
(lp2456
g68
(g89
g70
NtRp2457
(dp2458
g73
(dp2459
g93
g94
ssg82
g2453
sg75
(lp2460
S'raw_args'
p2461
asbag68
(g89
g70
NtRp2462
(dp2463
g73
(dp2464
g100
g101
ssg82
g2453
sg75
(lp2465
S':'
asbag68
(g89
g70
NtRp2466
(dp2467
g73
(dp2468
sg82
g2453
sg75
(lp2469
g68
(g69
g70
NtRp2470
(dp2471
g73
(dp2472
g81
I5
ssg82
g2466
sg75
(lp2473
S'None'
p2474
asbasbasbag68
(g84
g70
NtRp2475
(dp2476
g73
(dp2477
sg82
g78
sg75
(lp2478
g68
(g89
g70
NtRp2479
(dp2480
g73
(dp2481
g93
g94
ssg82
g2475
sg75
(lp2482
S'raw_extension'
p2483
asbag68
(g89
g70
NtRp2484
(dp2485
g73
(dp2486
g100
g101
ssg82
g2475
sg75
(lp2487
S':'
asbag68
(g89
g70
NtRp2488
(dp2489
g73
(dp2490
sg82
g2475
sg75
(lp2491
g68
(g69
g70
NtRp2492
(dp2493
g73
(dp2494
g81
I5
ssg82
g2488
sg75
(lp2495
g1956
asbasbasbag68
(g84
g70
NtRp2496
(dp2497
g73
(dp2498
sg82
g78
sg75
(lp2499
g68
(g89
g70
NtRp2500
(dp2501
g73
(dp2502
g93
g94
ssg82
g2496
sg75
(lp2503
S'url'
p2504
asbag68
(g89
g70
NtRp2505
(dp2506
g73
(dp2507
g100
g101
ssg82
g2496
sg75
(lp2508
S':'
asbag68
(g89
g70
NtRp2509
(dp2510
g73
(dp2511
sg82
g2496
sg75
(lp2512
g68
(g69
g70
NtRp2513
(dp2514
g73
(dp2515
g81
I5
ssg82
g2509
sg75
(lp2516
S'/testumgebung/plugin_feedbacks/feedback.load'
p2517
asbasbasbag68
(g84
g70
NtRp2518
(dp2519
g73
(dp2520
sg82
g78
sg75
(lp2521
g68
(g89
g70
NtRp2522
(dp2523
g73
(dp2524
g93
g94
ssg82
g2518
sg75
(lp2525
S'utcnow'
p2526
asbag68
(g89
g70
NtRp2527
(dp2528
g73
(dp2529
g100
g101
ssg82
g2518
sg75
(lp2530
S':'
asbag68
(g89
g70
NtRp2531
(dp2532
g73
(dp2533
sg82
g2518
sg75
(lp2534
g68
(g69
g70
NtRp2535
(dp2536
g73
(dp2537
g81
I5
ssg82
g2531
sg75
(lp2538
S'datetime.datetime(2012, 12, 18, 11, 50, 58, 723000)'
p2539
asbasbasbag68
(g84
g70
NtRp2540
(dp2541
g73
(dp2542
sg82
g78
sg75
(lp2543
g68
(g89
g70
NtRp2544
(dp2545
g73
(dp2546
g93
g94
ssg82
g2540
sg75
(lp2547
S'uuid'
p2548
asbag68
(g89
g70
NtRp2549
(dp2550
g73
(dp2551
g100
g101
ssg82
g2540
sg75
(lp2552
S':'
asbag68
(g89
g70
NtRp2553
(dp2554
g73
(dp2555
sg82
g2540
sg75
(lp2556
g68
(g69
g70
NtRp2557
(dp2558
g73
(dp2559
g81
I5
ssg82
g2553
sg75
(lp2560
S'testumgebung/127.0.0.1.2012-12-18.12-50-58.9d7d2793-9dbd-4391-9155-3ba4de4ebe9f'
p2561
asbasbasbag68
(g84
g70
NtRp2562
(dp2563
g73
(dp2564
sg82
g78
sg75
(lp2565
g68
(g89
g70
NtRp2566
(dp2567
g73
(dp2568
g93
g94
ssg82
g2562
sg75
(lp2569
S'vars'
p2570
asbag68
(g89
g70
NtRp2571
(dp2572
g73
(dp2573
g100
g101
ssg82
g2562
sg75
(lp2574
S':'
asbag68
(g89
g70
NtRp2575
(dp2576
g73
(dp2577
sg82
g2562
sg75
(lp2578
g68
(g69
g70
NtRp2579
(dp2580
g73
(dp2581
g81
I5
ssg82
g2575
sg75
(lp2582
g68
(g77
g70
NtRp2583
(dp2584
g73
(dp2585
g81
I4
ssg82
Nsg75
(lp2586
sbasbasbasbag68
(g84
g70
NtRp2587
(dp2588
g73
(dp2589
sg82
g78
sg75
(lp2590
g68
(g89
g70
NtRp2591
(dp2592
g73
(dp2593
g93
g94
ssg82
g2587
sg75
(lp2594
S'wsgi'
p2595
asbag68
(g89
g70
NtRp2596
(dp2597
g73
(dp2598
g100
g101
ssg82
g2587
sg75
(lp2599
S':'
asbag68
(g89
g70
NtRp2600
(dp2601
g73
(dp2602
sg82
g2587
sg75
(lp2603
g68
(g69
g70
NtRp2604
(dp2605
g73
(dp2606
g81
I5
ssg82
g2600
sg75
(lp2607
g68
(g77
g70
NtRp2608
(dp2609
g73
(dp2610
g81
I4
ssg82
Nsg75
(lp2611
g68
(g84
g70
NtRp2612
(dp2613
g73
(dp2614
sg82
g2608
sg75
(lp2615
g68
(g89
g70
NtRp2616
(dp2617
g73
(dp2618
g93
g94
ssg82
g2612
sg75
(lp2619
S'environ'
p2620
asbag68
(g89
g70
NtRp2621
(dp2622
g73
(dp2623
g100
g101
ssg82
g2612
sg75
(lp2624
S':'
asbag68
(g89
g70
NtRp2625
(dp2626
g73
(dp2627
sg82
g2612
sg75
(lp2628
g68
(g69
g70
NtRp2629
(dp2630
g73
(dp2631
g81
I4
ssg82
g2625
sg75
(lp2632
g68
(g77
g70
NtRp2633
(dp2634
g73
(dp2635
g81
I3
ssg82
Nsg75
(lp2636
g68
(g84
g70
NtRp2637
(dp2638
g73
(dp2639
sg82
g2633
sg75
(lp2640
g68
(g89
g70
NtRp2641
(dp2642
g73
(dp2643
g93
g94
ssg82
g2637
sg75
(lp2644
S'HTTP_ACCEPT'
p2645
asbag68
(g89
g70
NtRp2646
(dp2647
g73
(dp2648
g100
g101
ssg82
g2637
sg75
(lp2649
S':'
asbag68
(g89
g70
NtRp2650
(dp2651
g73
(dp2652
sg82
g2637
sg75
(lp2653
g68
(g69
g70
NtRp2654
(dp2655
g73
(dp2656
g81
I3
ssg82
g2650
sg75
(lp2657
g1040
asbasbasbag68
(g84
g70
NtRp2658
(dp2659
g73
(dp2660
sg82
g2633
sg75
(lp2661
g68
(g89
g70
NtRp2662
(dp2663
g73
(dp2664
g93
g94
ssg82
g2658
sg75
(lp2665
S'HTTP_ACCEPT_ENCODING'
p2666
asbag68
(g89
g70
NtRp2667
(dp2668
g73
(dp2669
g100
g101
ssg82
g2658
sg75
(lp2670
S':'
asbag68
(g89
g70
NtRp2671
(dp2672
g73
(dp2673
sg82
g2658
sg75
(lp2674
g68
(g69
g70
NtRp2675
(dp2676
g73
(dp2677
g81
I3
ssg82
g2671
sg75
(lp2678
g1062
asbasbasbag68
(g84
g70
NtRp2679
(dp2680
g73
(dp2681
sg82
g2633
sg75
(lp2682
g68
(g89
g70
NtRp2683
(dp2684
g73
(dp2685
g93
g94
ssg82
g2679
sg75
(lp2686
S'HTTP_ACCEPT_LANGUAGE'
p2687
asbag68
(g89
g70
NtRp2688
(dp2689
g73
(dp2690
g100
g101
ssg82
g2679
sg75
(lp2691
S':'
asbag68
(g89
g70
NtRp2692
(dp2693
g73
(dp2694
sg82
g2679
sg75
(lp2695
g68
(g69
g70
NtRp2696
(dp2697
g73
(dp2698
g81
I3
ssg82
g2692
sg75
(lp2699
g1084
asbasbasbag68
(g84
g70
NtRp2700
(dp2701
g73
(dp2702
sg82
g2633
sg75
(lp2703
g68
(g89
g70
NtRp2704
(dp2705
g73
(dp2706
g93
g94
ssg82
g2700
sg75
(lp2707
S'HTTP_CACHE_CONTROL'
p2708
asbag68
(g89
g70
NtRp2709
(dp2710
g73
(dp2711
g100
g101
ssg82
g2700
sg75
(lp2712
S':'
asbag68
(g89
g70
NtRp2713
(dp2714
g73
(dp2715
sg82
g2700
sg75
(lp2716
g68
(g69
g70
NtRp2717
(dp2718
g73
(dp2719
g81
I3
ssg82
g2713
sg75
(lp2720
g1106
asbasbasbag68
(g84
g70
NtRp2721
(dp2722
g73
(dp2723
sg82
g2633
sg75
(lp2724
g68
(g89
g70
NtRp2725
(dp2726
g73
(dp2727
g93
g94
ssg82
g2721
sg75
(lp2728
S'HTTP_CONNECTION'
p2729
asbag68
(g89
g70
NtRp2730
(dp2731
g73
(dp2732
g100
g101
ssg82
g2721
sg75
(lp2733
S':'
asbag68
(g89
g70
NtRp2734
(dp2735
g73
(dp2736
sg82
g2721
sg75
(lp2737
g68
(g69
g70
NtRp2738
(dp2739
g73
(dp2740
g81
I3
ssg82
g2734
sg75
(lp2741
g1128
asbasbasbag68
(g84
g70
NtRp2742
(dp2743
g73
(dp2744
sg82
g2633
sg75
(lp2745
g68
(g89
g70
NtRp2746
(dp2747
g73
(dp2748
g93
g94
ssg82
g2742
sg75
(lp2749
S'HTTP_COOKIE'
p2750
asbag68
(g89
g70
NtRp2751
(dp2752
g73
(dp2753
g100
g101
ssg82
g2742
sg75
(lp2754
S':'
asbag68
(g89
g70
NtRp2755
(dp2756
g73
(dp2757
sg82
g2742
sg75
(lp2758
g68
(g69
g70
NtRp2759
(dp2760
g73
(dp2761
g81
I3
ssg82
g2755
sg75
(lp2762
g1150
asbasbasbag68
(g84
g70
NtRp2763
(dp2764
g73
(dp2765
sg82
g2633
sg75
(lp2766
g68
(g89
g70
NtRp2767
(dp2768
g73
(dp2769
g93
g94
ssg82
g2763
sg75
(lp2770
S'HTTP_DNT'
p2771
asbag68
(g89
g70
NtRp2772
(dp2773
g73
(dp2774
g100
g101
ssg82
g2763
sg75
(lp2775
S':'
asbag68
(g89
g70
NtRp2776
(dp2777
g73
(dp2778
sg82
g2763
sg75
(lp2779
g68
(g69
g70
NtRp2780
(dp2781
g73
(dp2782
g81
I3
ssg82
g2776
sg75
(lp2783
S'1'
asbasbasbag68
(g84
g70
NtRp2784
(dp2785
g73
(dp2786
sg82
g2633
sg75
(lp2787
g68
(g89
g70
NtRp2788
(dp2789
g73
(dp2790
g93
g94
ssg82
g2784
sg75
(lp2791
S'HTTP_HOST'
p2792
asbag68
(g89
g70
NtRp2793
(dp2794
g73
(dp2795
g100
g101
ssg82
g2784
sg75
(lp2796
S':'
asbag68
(g89
g70
NtRp2797
(dp2798
g73
(dp2799
sg82
g2784
sg75
(lp2800
g68
(g69
g70
NtRp2801
(dp2802
g73
(dp2803
g81
I3
ssg82
g2797
sg75
(lp2804
g1193
asbasbasbag68
(g84
g70
NtRp2805
(dp2806
g73
(dp2807
sg82
g2633
sg75
(lp2808
g68
(g89
g70
NtRp2809
(dp2810
g73
(dp2811
g93
g94
ssg82
g2805
sg75
(lp2812
S'HTTP_REFERER'
p2813
asbag68
(g89
g70
NtRp2814
(dp2815
g73
(dp2816
g100
g101
ssg82
g2805
sg75
(lp2817
S':'
asbag68
(g89
g70
NtRp2818
(dp2819
g73
(dp2820
sg82
g2805
sg75
(lp2821
g68
(g69
g70
NtRp2822
(dp2823
g73
(dp2824
g81
I3
ssg82
g2818
sg75
(lp2825
g1215
asbasbasbag68
(g84
g70
NtRp2826
(dp2827
g73
(dp2828
sg82
g2633
sg75
(lp2829
g68
(g89
g70
NtRp2830
(dp2831
g73
(dp2832
g93
g94
ssg82
g2826
sg75
(lp2833
S'HTTP_USER_AGENT'
p2834
asbag68
(g89
g70
NtRp2835
(dp2836
g73
(dp2837
g100
g101
ssg82
g2826
sg75
(lp2838
S':'
asbag68
(g89
g70
NtRp2839
(dp2840
g73
(dp2841
sg82
g2826
sg75
(lp2842
g68
(g69
g70
NtRp2843
(dp2844
g73
(dp2845
g81
I3
ssg82
g2839
sg75
(lp2846
g1237
asbasbasbag68
(g84
g70
NtRp2847
(dp2848
g73
(dp2849
sg82
g2633
sg75
(lp2850
g68
(g89
g70
NtRp2851
(dp2852
g73
(dp2853
g93
g94
ssg82
g2847
sg75
(lp2854
S'HTTP_WEB2PY_COMPONENT_ELEMENT'
p2855
asbag68
(g89
g70
NtRp2856
(dp2857
g73
(dp2858
g100
g101
ssg82
g2847
sg75
(lp2859
S':'
asbag68
(g89
g70
NtRp2860
(dp2861
g73
(dp2862
sg82
g2847
sg75
(lp2863
g68
(g69
g70
NtRp2864
(dp2865
g73
(dp2866
g81
I3
ssg82
g2860
sg75
(lp2867
g201
asbasbasbag68
(g84
g70
NtRp2868
(dp2869
g73
(dp2870
sg82
g2633
sg75
(lp2871
g68
(g89
g70
NtRp2872
(dp2873
g73
(dp2874
g93
g94
ssg82
g2868
sg75
(lp2875
S'HTTP_WEB2PY_COMPONENT_LOCATION'
p2876
asbag68
(g89
g70
NtRp2877
(dp2878
g73
(dp2879
g100
g101
ssg82
g2868
sg75
(lp2880
S':'
asbag68
(g89
g70
NtRp2881
(dp2882
g73
(dp2883
sg82
g2868
sg75
(lp2884
g68
(g69
g70
NtRp2885
(dp2886
g73
(dp2887
g81
I3
ssg82
g2881
sg75
(lp2888
g1280
asbasbasbag68
(g84
g70
NtRp2889
(dp2890
g73
(dp2891
sg82
g2633
sg75
(lp2892
g68
(g89
g70
NtRp2893
(dp2894
g73
(dp2895
g93
g94
ssg82
g2889
sg75
(lp2896
S'HTTP_X_CLICKONCESUPPORT'
p2897
asbag68
(g89
g70
NtRp2898
(dp2899
g73
(dp2900
g100
g101
ssg82
g2889
sg75
(lp2901
S':'
asbag68
(g89
g70
NtRp2902
(dp2903
g73
(dp2904
sg82
g2889
sg75
(lp2905
g68
(g69
g70
NtRp2906
(dp2907
g73
(dp2908
g81
I3
ssg82
g2902
sg75
(lp2909
g1302
asbasbasbag68
(g84
g70
NtRp2910
(dp2911
g73
(dp2912
sg82
g2633
sg75
(lp2913
g68
(g89
g70
NtRp2914
(dp2915
g73
(dp2916
g93
g94
ssg82
g2910
sg75
(lp2917
S'HTTP_X_REQUESTED_WITH'
p2918
asbag68
(g89
g70
NtRp2919
(dp2920
g73
(dp2921
g100
g101
ssg82
g2910
sg75
(lp2922
S':'
asbag68
(g89
g70
NtRp2923
(dp2924
g73
(dp2925
sg82
g2910
sg75
(lp2926
g68
(g69
g70
NtRp2927
(dp2928
g73
(dp2929
g81
I3
ssg82
g2923
sg75
(lp2930
g1324
asbasbasbag68
(g84
g70
NtRp2931
(dp2932
g73
(dp2933
sg82
g2633
sg75
(lp2934
g68
(g89
g70
NtRp2935
(dp2936
g73
(dp2937
g93
g94
ssg82
g2931
sg75
(lp2938
S'PATH_INFO'
p2939
asbag68
(g89
g70
NtRp2940
(dp2941
g73
(dp2942
g100
g101
ssg82
g2931
sg75
(lp2943
S':'
asbag68
(g89
g70
NtRp2944
(dp2945
g73
(dp2946
sg82
g2931
sg75
(lp2947
g68
(g69
g70
NtRp2948
(dp2949
g73
(dp2950
g81
I3
ssg82
g2944
sg75
(lp2951
g1388
asbasbasbag68
(g84
g70
NtRp2952
(dp2953
g73
(dp2954
sg82
g2633
sg75
(lp2955
g68
(g89
g70
NtRp2956
(dp2957
g73
(dp2958
g93
g94
ssg82
g2952
sg75
(lp2959
S'QUERY_STRING'
p2960
asbag68
(g89
g70
NtRp2961
(dp2962
g73
(dp2963
g100
g101
ssg82
g2952
sg75
(lp2964
S':'
asbag68
(g89
g70
NtRp2965
(dp2966
g73
(dp2967
sg82
g2952
sg75
(lp2968
g68
(g69
g70
NtRp2969
(dp2970
g73
(dp2971
g81
I3
ssg82
g2965
sg75
(lp2972
S''
asbasbasbag68
(g84
g70
NtRp2973
(dp2974
g73
(dp2975
sg82
g2633
sg75
(lp2976
g68
(g89
g70
NtRp2977
(dp2978
g73
(dp2979
g93
g94
ssg82
g2973
sg75
(lp2980
S'REMOTE_ADDR'
p2981
asbag68
(g89
g70
NtRp2982
(dp2983
g73
(dp2984
g100
g101
ssg82
g2973
sg75
(lp2985
S':'
asbag68
(g89
g70
NtRp2986
(dp2987
g73
(dp2988
sg82
g2973
sg75
(lp2989
g68
(g69
g70
NtRp2990
(dp2991
g73
(dp2992
g81
I3
ssg82
g2986
sg75
(lp2993
g223
asbasbasbag68
(g84
g70
NtRp2994
(dp2995
g73
(dp2996
sg82
g2633
sg75
(lp2997
g68
(g89
g70
NtRp2998
(dp2999
g73
(dp3000
g93
g94
ssg82
g2994
sg75
(lp3001
S'REMOTE_PORT'
p3002
asbag68
(g89
g70
NtRp3003
(dp3004
g73
(dp3005
g100
g101
ssg82
g2994
sg75
(lp3006
S':'
asbag68
(g89
g70
NtRp3007
(dp3008
g73
(dp3009
sg82
g2994
sg75
(lp3010
g68
(g69
g70
NtRp3011
(dp3012
g73
(dp3013
g81
I3
ssg82
g3007
sg75
(lp3014
g1452
asbasbasbag68
(g84
g70
NtRp3015
(dp3016
g73
(dp3017
sg82
g2633
sg75
(lp3018
g68
(g89
g70
NtRp3019
(dp3020
g73
(dp3021
g93
g94
ssg82
g3015
sg75
(lp3022
S'REQUEST_METHOD'
p3023
asbag68
(g89
g70
NtRp3024
(dp3025
g73
(dp3026
g100
g101
ssg82
g3015
sg75
(lp3027
S':'
asbag68
(g89
g70
NtRp3028
(dp3029
g73
(dp3030
sg82
g3015
sg75
(lp3031
g68
(g69
g70
NtRp3032
(dp3033
g73
(dp3034
g81
I3
ssg82
g3028
sg75
(lp3035
g1474
asbasbasbag68
(g84
g70
NtRp3036
(dp3037
g73
(dp3038
sg82
g2633
sg75
(lp3039
g68
(g89
g70
NtRp3040
(dp3041
g73
(dp3042
g93
g94
ssg82
g3036
sg75
(lp3043
S'REQUEST_URI'
p3044
asbag68
(g89
g70
NtRp3045
(dp3046
g73
(dp3047
g100
g101
ssg82
g3036
sg75
(lp3048
S':'
asbag68
(g89
g70
NtRp3049
(dp3050
g73
(dp3051
sg82
g3036
sg75
(lp3052
g68
(g69
g70
NtRp3053
(dp3054
g73
(dp3055
g81
I3
ssg82
g3049
sg75
(lp3056
g1388
asbasbasbag68
(g84
g70
NtRp3057
(dp3058
g73
(dp3059
sg82
g2633
sg75
(lp3060
g68
(g89
g70
NtRp3061
(dp3062
g73
(dp3063
g93
g94
ssg82
g3057
sg75
(lp3064
S'SCRIPT_NAME'
p3065
asbag68
(g89
g70
NtRp3066
(dp3067
g73
(dp3068
g100
g101
ssg82
g3057
sg75
(lp3069
S':'
asbag68
(g89
g70
NtRp3070
(dp3071
g73
(dp3072
sg82
g3057
sg75
(lp3073
g68
(g69
g70
NtRp3074
(dp3075
g73
(dp3076
g81
I3
ssg82
g3070
sg75
(lp3077
S''
asbasbasbag68
(g84
g70
NtRp3078
(dp3079
g73
(dp3080
sg82
g2633
sg75
(lp3081
g68
(g89
g70
NtRp3082
(dp3083
g73
(dp3084
g93
g94
ssg82
g3078
sg75
(lp3085
S'SERVER_NAME'
p3086
asbag68
(g89
g70
NtRp3087
(dp3088
g73
(dp3089
g100
g101
ssg82
g3078
sg75
(lp3090
S':'
asbag68
(g89
g70
NtRp3091
(dp3092
g73
(dp3093
sg82
g3078
sg75
(lp3094
g68
(g69
g70
NtRp3095
(dp3096
g73
(dp3097
g81
I3
ssg82
g3091
sg75
(lp3098
g1538
asbasbasbag68
(g84
g70
NtRp3099
(dp3100
g73
(dp3101
sg82
g2633
sg75
(lp3102
g68
(g89
g70
NtRp3103
(dp3104
g73
(dp3105
g93
g94
ssg82
g3099
sg75
(lp3106
S'SERVER_PORT'
p3107
asbag68
(g89
g70
NtRp3108
(dp3109
g73
(dp3110
g100
g101
ssg82
g3099
sg75
(lp3111
S':'
asbag68
(g89
g70
NtRp3112
(dp3113
g73
(dp3114
sg82
g3099
sg75
(lp3115
g68
(g69
g70
NtRp3116
(dp3117
g73
(dp3118
g81
I3
ssg82
g3112
sg75
(lp3119
g1560
asbasbasbag68
(g84
g70
NtRp3120
(dp3121
g73
(dp3122
sg82
g2633
sg75
(lp3123
g68
(g89
g70
NtRp3124
(dp3125
g73
(dp3126
g93
g94
ssg82
g3120
sg75
(lp3127
S'SERVER_PROTOCOL'
p3128
asbag68
(g89
g70
NtRp3129
(dp3130
g73
(dp3131
g100
g101
ssg82
g3120
sg75
(lp3132
S':'
asbag68
(g89
g70
NtRp3133
(dp3134
g73
(dp3135
sg82
g3120
sg75
(lp3136
g68
(g69
g70
NtRp3137
(dp3138
g73
(dp3139
g81
I3
ssg82
g3133
sg75
(lp3140
g1582
asbasbasbag68
(g84
g70
NtRp3141
(dp3142
g73
(dp3143
sg82
g2633
sg75
(lp3144
g68
(g89
g70
NtRp3145
(dp3146
g73
(dp3147
g93
g94
ssg82
g3141
sg75
(lp3148
S'SERVER_SOFTWARE'
p3149
asbag68
(g89
g70
NtRp3150
(dp3151
g73
(dp3152
g100
g101
ssg82
g3141
sg75
(lp3153
S':'
asbag68
(g89
g70
NtRp3154
(dp3155
g73
(dp3156
sg82
g3141
sg75
(lp3157
g68
(g69
g70
NtRp3158
(dp3159
g73
(dp3160
g81
I3
ssg82
g3154
sg75
(lp3161
g1604
asbasbasbag68
(g84
g70
NtRp3162
(dp3163
g73
(dp3164
sg82
g2633
sg75
(lp3165
g68
(g89
g70
NtRp3166
(dp3167
g73
(dp3168
g93
g94
ssg82
g3162
sg75
(lp3169
S'wsgi.errors'
p3170
asbag68
(g89
g70
NtRp3171
(dp3172
g73
(dp3173
g100
g101
ssg82
g3162
sg75
(lp3174
S':'
asbag68
(g89
g70
NtRp3175
(dp3176
g73
(dp3177
sg82
g3162
sg75
(lp3178
g68
(g69
g70
NtRp3179
(dp3180
g73
(dp3181
g81
I3
ssg82
g3175
sg75
(lp3182
S"<open file '<stderr>', mode 'w' at 0x021750D0>"
p3183
asbasbasbag68
(g84
g70
NtRp3184
(dp3185
g73
(dp3186
sg82
g2633
sg75
(lp3187
g68
(g89
g70
NtRp3188
(dp3189
g73
(dp3190
g93
g94
ssg82
g3184
sg75
(lp3191
S'wsgi.file_wrapper'
p3192
asbag68
(g89
g70
NtRp3193
(dp3194
g73
(dp3195
g100
g101
ssg82
g3184
sg75
(lp3196
S':'
asbag68
(g89
g70
NtRp3197
(dp3198
g73
(dp3199
sg82
g3184
sg75
(lp3200
g68
(g69
g70
NtRp3201
(dp3202
g73
(dp3203
g81
I3
ssg82
g3197
sg75
(lp3204
S'<class wsgiref.util.FileWrapper at 0x0310D030>'
p3205
asbasbasbag68
(g84
g70
NtRp3206
(dp3207
g73
(dp3208
sg82
g2633
sg75
(lp3209
g68
(g89
g70
NtRp3210
(dp3211
g73
(dp3212
g93
g94
ssg82
g3206
sg75
(lp3213
S'wsgi.input'
p3214
asbag68
(g89
g70
NtRp3215
(dp3216
g73
(dp3217
g100
g101
ssg82
g3206
sg75
(lp3218
S':'
asbag68
(g89
g70
NtRp3219
(dp3220
g73
(dp3221
sg82
g3206
sg75
(lp3222
g68
(g69
g70
NtRp3223
(dp3224
g73
(dp3225
g81
I3
ssg82
g3219
sg75
(lp3226
S'<cStringIO.StringO object at 0x087F5700>'
p3227
asbasbasbag68
(g84
g70
NtRp3228
(dp3229
g73
(dp3230
sg82
g2633
sg75
(lp3231
g68
(g89
g70
NtRp3232
(dp3233
g73
(dp3234
g93
g94
ssg82
g3228
sg75
(lp3235
S'wsgi.multiprocess'
p3236
asbag68
(g89
g70
NtRp3237
(dp3238
g73
(dp3239
g100
g101
ssg82
g3228
sg75
(lp3240
S':'
asbag68
(g89
g70
NtRp3241
(dp3242
g73
(dp3243
sg82
g3228
sg75
(lp3244
g68
(g69
g70
NtRp3245
(dp3246
g73
(dp3247
g81
I3
ssg82
g3241
sg75
(lp3248
g996
asbasbasbag68
(g84
g70
NtRp3249
(dp3250
g73
(dp3251
sg82
g2633
sg75
(lp3252
g68
(g89
g70
NtRp3253
(dp3254
g73
(dp3255
g93
g94
ssg82
g3249
sg75
(lp3256
S'wsgi.multithread'
p3257
asbag68
(g89
g70
NtRp3258
(dp3259
g73
(dp3260
g100
g101
ssg82
g3249
sg75
(lp3261
S':'
asbag68
(g89
g70
NtRp3262
(dp3263
g73
(dp3264
sg82
g3249
sg75
(lp3265
g68
(g69
g70
NtRp3266
(dp3267
g73
(dp3268
g81
I3
ssg82
g3262
sg75
(lp3269
g111
asbasbasbag68
(g84
g70
NtRp3270
(dp3271
g73
(dp3272
sg82
g2633
sg75
(lp3273
g68
(g89
g70
NtRp3274
(dp3275
g73
(dp3276
g93
g94
ssg82
g3270
sg75
(lp3277
S'wsgi.run_once'
p3278
asbag68
(g89
g70
NtRp3279
(dp3280
g73
(dp3281
g100
g101
ssg82
g3270
sg75
(lp3282
S':'
asbag68
(g89
g70
NtRp3283
(dp3284
g73
(dp3285
sg82
g3270
sg75
(lp3286
g68
(g69
g70
NtRp3287
(dp3288
g73
(dp3289
g81
I3
ssg82
g3283
sg75
(lp3290
g996
asbasbasbag68
(g84
g70
NtRp3291
(dp3292
g73
(dp3293
sg82
g2633
sg75
(lp3294
g68
(g89
g70
NtRp3295
(dp3296
g73
(dp3297
g93
g94
ssg82
g3291
sg75
(lp3298
S'wsgi.url_scheme'
p3299
asbag68
(g89
g70
NtRp3300
(dp3301
g73
(dp3302
g100
g101
ssg82
g3291
sg75
(lp3303
S':'
asbag68
(g89
g70
NtRp3304
(dp3305
g73
(dp3306
sg82
g3291
sg75
(lp3307
g68
(g69
g70
NtRp3308
(dp3309
g73
(dp3310
g81
I3
ssg82
g3304
sg75
(lp3311
g1885
asbasbasbag68
(g84
g70
NtRp3312
(dp3313
g73
(dp3314
sg82
g2633
sg75
(lp3315
g68
(g89
g70
NtRp3316
(dp3317
g73
(dp3318
g93
g94
ssg82
g3312
sg75
(lp3319
S'wsgi.version'
p3320
asbag68
(g89
g70
NtRp3321
(dp3322
g73
(dp3323
g100
g101
ssg82
g3312
sg75
(lp3324
S':'
asbag68
(g89
g70
NtRp3325
(dp3326
g73
(dp3327
sg82
g3312
sg75
(lp3328
g68
(g69
g70
NtRp3329
(dp3330
g73
(dp3331
g81
I3
ssg82
g3325
sg75
(lp3332
S'1'
asbasbasbasbasbasbasbasbasbasbasbasbasbsS'frames'
p3333
(lp3334
(dp3335
S'file'
p3336
S'C:\\xampp\\htdocs\\web2py\\gluon\\restricted.py'
p3337
sS'dump'
p3338
(dp3339
sS'lnum'
p3340
I208
sS'lines'
p3341
(dp3342
sS'call'
p3343
S'(code="from gluon.tools import prettydate\\nimport dateti...den.\')\\nresponse._vars=response._caller(feedback)\\n", environment={\'A\': <class \'gluon.html.A\'>, \'Auth\': <class \'gluon.tools.Auth\'>, \'B\': <class \'gluon.html.B\'>, \'BEAUTIFY\': <class \'gluon.html.BEAUTIFY\'>, \'BODY\': <class \'gluon.html.BODY\'>, \'BR\': <class \'gluon.html.BR\'>, \'BUTTON\': <class \'gluon.html.BUTTON\'>, \'CAT\': <class \'gluon.html.CAT\'>, \'CENTER\': <class \'gluon.html.CENTER\'>, \'CLEANUP\': <class \'gluon.validators.CLEANUP\'>, ...}, layer=r\'C:\\xampp\\htdocs\\web2py\\applications\\testumgebung\\controllers/plugin_feedbacks.py\')'
p3344
sS'func'
p3345
S'restricted'
p3346
sa(dp3347
g3336
S'C:\\xampp\\htdocs\\web2py\\gluon\\restricted.py'
p3348
sg3338
(dp3349
sg3340
I193
sg3341
(dp3350
sg3343
S'(code="from gluon.tools import prettydate\\nimport dateti...den.\')\\nresponse._vars=response._caller(feedback)\\n", layer=r\'C:\\xampp\\htdocs\\web2py\\applications\\testumgebung\\controllers/plugin_feedbacks.py\')'
p3351
sg3345
S'compile2'
p3352
sasS'pyver'
p3353
S'Python 2.7: C:\\xampp\\htdocs\\web2py\\web2py.exe'
p3354
sS'session'
p3355
g68
(g69
g70
NtRp3356
(dp3357
g73
(dp3358
sg75
(lp3359
g68
(g77
g70
NtRp3360
(dp3361
g73
(dp3362
g81
I5
ssg82
Nsg75
(lp3363
g68
(g84
g70
NtRp3364
(dp3365
g73
(dp3366
sg82
g3360
sg75
(lp3367
g68
(g89
g70
NtRp3368
(dp3369
g73
(dp3370
g93
g94
ssg82
g3364
sg75
(lp3371
S'auth'
p3372
asbag68
(g89
g70
NtRp3373
(dp3374
g73
(dp3375
g100
g101
ssg82
g3364
sg75
(lp3376
S':'
asbag68
(g89
g70
NtRp3377
(dp3378
g73
(dp3379
sg82
g3364
sg75
(lp3380
g68
(g69
g70
NtRp3381
(dp3382
g73
(dp3383
g81
I5
ssg82
g3377
sg75
(lp3384
S'None'
p3385
asbasbasbag68
(g84
g70
NtRp3386
(dp3387
g73
(dp3388
sg82
g3360
sg75
(lp3389
g68
(g89
g70
NtRp3390
(dp3391
g73
(dp3392
g93
g94
ssg82
g3386
sg75
(lp3393
S'plugin_feedbacks'
p3394
asbag68
(g89
g70
NtRp3395
(dp3396
g73
(dp3397
g100
g101
ssg82
g3386
sg75
(lp3398
S':'
asbag68
(g89
g70
NtRp3399
(dp3400
g73
(dp3401
sg82
g3386
sg75
(lp3402
g68
(g69
g70
NtRp3403
(dp3404
g73
(dp3405
g81
I5
ssg82
g3399
sg75
(lp3406
g68
(g77
g70
NtRp3407
(dp3408
g73
(dp3409
g81
I4
ssg82
Nsg75
(lp3410
g68
(g84
g70
NtRp3411
(dp3412
g73
(dp3413
sg82
g3407
sg75
(lp3414
g68
(g89
g70
NtRp3415
(dp3416
g73
(dp3417
g93
g94
ssg82
g3411
sg75
(lp3418
S'sentFeedback'
p3419
asbag68
(g89
g70
NtRp3420
(dp3421
g73
(dp3422
g100
g101
ssg82
g3411
sg75
(lp3423
S':'
asbag68
(g89
g70
NtRp3424
(dp3425
g73
(dp3426
sg82
g3411
sg75
(lp3427
g68
(g69
g70
NtRp3428
(dp3429
g73
(dp3430
g81
I4
ssg82
g3424
sg75
(lp3431
S'0'
asbasbasbag68
(g84
g70
NtRp3432
(dp3433
g73
(dp3434
sg82
g3407
sg75
(lp3435
g68
(g89
g70
NtRp3436
(dp3437
g73
(dp3438
g93
g94
ssg82
g3432
sg75
(lp3439
S'time'
p3440
asbag68
(g89
g70
NtRp3441
(dp3442
g73
(dp3443
g100
g101
ssg82
g3432
sg75
(lp3444
S':'
asbag68
(g89
g70
NtRp3445
(dp3446
g73
(dp3447
sg82
g3432
sg75
(lp3448
g68
(g69
g70
NtRp3449
(dp3450
g73
(dp3451
g81
I4
ssg82
g3445
sg75
(lp3452
S'datetime.datetime(2012, 12, 18, 12, 50, 29, 550000)'
p3453
asbasbasbasbasbasbasbasbasbsS'etype'
p3454
S"<type 'exceptions.SyntaxError'>"
p3455
sS'date'
p3456
S'Tue Dec 18 12:50:58 2012'
p3457
sS'response'
p3458
g68
(g69
g70
NtRp3459
(dp3460
g73
(dp3461
sg75
(lp3462
g68
(g77
g70
NtRp3463
(dp3464
g73
(dp3465
g81
I5
ssg82
Nsg75
(lp3466
g68
(g84
g70
NtRp3467
(dp3468
g73
(dp3469
sg82
g3463
sg75
(lp3470
g68
(g89
g70
NtRp3471
(dp3472
g73
(dp3473
g93
g94
ssg82
g3467
sg75
(lp3474
g166
asbag68
(g89
g70
NtRp3475
(dp3476
g73
(dp3477
g100
g101
ssg82
g3467
sg75
(lp3478
S':'
asbag68
(g89
g70
NtRp3479
(dp3480
g73
(dp3481
sg82
g3467
sg75
(lp3482
g68
(g69
g70
NtRp3483
(dp3484
g73
(dp3485
g81
I5
ssg82
g3479
sg75
(lp3486
S'<cStringIO.StringO object at 0x08B691C0>'
p3487
asbasbasbag68
(g84
g70
NtRp3488
(dp3489
g73
(dp3490
sg82
g3463
sg75
(lp3491
g68
(g89
g70
NtRp3492
(dp3493
g73
(dp3494
g93
g94
ssg82
g3488
sg75
(lp3495
g254
asbag68
(g89
g70
NtRp3496
(dp3497
g73
(dp3498
g100
g101
ssg82
g3488
sg75
(lp3499
S':'
asbag68
(g89
g70
NtRp3500
(dp3501
g73
(dp3502
sg82
g3488
sg75
(lp3503
g68
(g69
g70
NtRp3504
(dp3505
g73
(dp3506
g81
I5
ssg82
g3500
sg75
(lp3507
g68
(g77
g70
NtRp3508
(dp3509
g73
(dp3510
g81
I4
ssg82
Nsg75
(lp3511
g68
(g84
g70
NtRp3512
(dp3513
g73
(dp3514
sg82
g3508
sg75
(lp3515
g68
(g89
g70
NtRp3516
(dp3517
g73
(dp3518
g93
g94
ssg82
g3512
sg75
(lp3519
S'session_id_testumgebung'
p3520
asbag68
(g89
g70
NtRp3521
(dp3522
g73
(dp3523
g100
g101
ssg82
g3512
sg75
(lp3524
S':'
asbag68
(g89
g70
NtRp3525
(dp3526
g73
(dp3527
sg82
g3512
sg75
(lp3528
g68
(g69
g70
NtRp3529
(dp3530
g73
(dp3531
g81
I4
ssg82
g3525
sg75
(lp3532
g486
ag68
(g77
g70
NtRp3533
(dp3534
g73
(dp3535
g81
I3
ssg82
Nsg75
(lp3536
g68
(g84
g70
NtRp3537
(dp3538
g73
(dp3539
sg82
g3533
sg75
(lp3540
g68
(g89
g70
NtRp3541
(dp3542
g73
(dp3543
g93
g94
ssg82
g3537
sg75
(lp3544
g305
asbag68
(g89
g70
NtRp3545
(dp3546
g73
(dp3547
g100
g101
ssg82
g3537
sg75
(lp3548
S':'
asbag68
(g89
g70
NtRp3549
(dp3550
g73
(dp3551
sg82
g3537
sg75
(lp3552
g68
(g69
g70
NtRp3553
(dp3554
g73
(dp3555
g81
I3
ssg82
g3549
sg75
(lp3556
S''
asbasbasbag68
(g84
g70
NtRp3557
(dp3558
g73
(dp3559
sg82
g3533
sg75
(lp3560
g68
(g89
g70
NtRp3561
(dp3562
g73
(dp3563
g93
g94
ssg82
g3557
sg75
(lp3564
g326
asbag68
(g89
g70
NtRp3565
(dp3566
g73
(dp3567
g100
g101
ssg82
g3557
sg75
(lp3568
S':'
asbag68
(g89
g70
NtRp3569
(dp3570
g73
(dp3571
sg82
g3557
sg75
(lp3572
g68
(g69
g70
NtRp3573
(dp3574
g73
(dp3575
g81
I3
ssg82
g3569
sg75
(lp3576
S''
asbasbasbag68
(g84
g70
NtRp3577
(dp3578
g73
(dp3579
sg82
g3533
sg75
(lp3580
g68
(g89
g70
NtRp3581
(dp3582
g73
(dp3583
g93
g94
ssg82
g3577
sg75
(lp3584
g347
asbag68
(g89
g70
NtRp3585
(dp3586
g73
(dp3587
g100
g101
ssg82
g3577
sg75
(lp3588
S':'
asbag68
(g89
g70
NtRp3589
(dp3590
g73
(dp3591
sg82
g3577
sg75
(lp3592
g68
(g69
g70
NtRp3593
(dp3594
g73
(dp3595
g81
I3
ssg82
g3589
sg75
(lp3596
S''
asbasbasbag68
(g84
g70
NtRp3597
(dp3598
g73
(dp3599
sg82
g3533
sg75
(lp3600
g68
(g89
g70
NtRp3601
(dp3602
g73
(dp3603
g93
g94
ssg82
g3597
sg75
(lp3604
g368
asbag68
(g89
g70
NtRp3605
(dp3606
g73
(dp3607
g100
g101
ssg82
g3597
sg75
(lp3608
S':'
asbag68
(g89
g70
NtRp3609
(dp3610
g73
(dp3611
sg82
g3597
sg75
(lp3612
g68
(g69
g70
NtRp3613
(dp3614
g73
(dp3615
g81
I3
ssg82
g3609
sg75
(lp3616
S''
asbasbasbag68
(g84
g70
NtRp3617
(dp3618
g73
(dp3619
sg82
g3533
sg75
(lp3620
g68
(g89
g70
NtRp3621
(dp3622
g73
(dp3623
g93
g94
ssg82
g3617
sg75
(lp3624
g389
asbag68
(g89
g70
NtRp3625
(dp3626
g73
(dp3627
g100
g101
ssg82
g3617
sg75
(lp3628
S':'
asbag68
(g89
g70
NtRp3629
(dp3630
g73
(dp3631
sg82
g3617
sg75
(lp3632
g68
(g69
g70
NtRp3633
(dp3634
g73
(dp3635
g81
I3
ssg82
g3629
sg75
(lp3636
S''
asbasbasbag68
(g84
g70
NtRp3637
(dp3638
g73
(dp3639
sg82
g3533
sg75
(lp3640
g68
(g89
g70
NtRp3641
(dp3642
g73
(dp3643
g93
g94
ssg82
g3637
sg75
(lp3644
g410
asbag68
(g89
g70
NtRp3645
(dp3646
g73
(dp3647
g100
g101
ssg82
g3637
sg75
(lp3648
S':'
asbag68
(g89
g70
NtRp3649
(dp3650
g73
(dp3651
sg82
g3637
sg75
(lp3652
g68
(g69
g70
NtRp3653
(dp3654
g73
(dp3655
g81
I3
ssg82
g3649
sg75
(lp3656
S'/'
asbasbasbag68
(g84
g70
NtRp3657
(dp3658
g73
(dp3659
sg82
g3533
sg75
(lp3660
g68
(g89
g70
NtRp3661
(dp3662
g73
(dp3663
g93
g94
ssg82
g3657
sg75
(lp3664
g431
asbag68
(g89
g70
NtRp3665
(dp3666
g73
(dp3667
g100
g101
ssg82
g3657
sg75
(lp3668
S':'
asbag68
(g89
g70
NtRp3669
(dp3670
g73
(dp3671
sg82
g3657
sg75
(lp3672
g68
(g69
g70
NtRp3673
(dp3674
g73
(dp3675
g81
I3
ssg82
g3669
sg75
(lp3676
S''
asbasbasbag68
(g84
g70
NtRp3677
(dp3678
g73
(dp3679
sg82
g3533
sg75
(lp3680
g68
(g89
g70
NtRp3681
(dp3682
g73
(dp3683
g93
g94
ssg82
g3677
sg75
(lp3684
g452
asbag68
(g89
g70
NtRp3685
(dp3686
g73
(dp3687
g100
g101
ssg82
g3677
sg75
(lp3688
S':'
asbag68
(g89
g70
NtRp3689
(dp3690
g73
(dp3691
sg82
g3677
sg75
(lp3692
g68
(g69
g70
NtRp3693
(dp3694
g73
(dp3695
g81
I3
ssg82
g3689
sg75
(lp3696
S''
asbasbasbasbasbasbasbasbasbasbasbag68
(g84
g70
NtRp3697
(dp3698
g73
(dp3699
sg82
g3463
sg75
(lp3700
g68
(g89
g70
NtRp3701
(dp3702
g73
(dp3703
g93
g94
ssg82
g3697
sg75
(lp3704
S'delimiters'
p3705
asbag68
(g89
g70
NtRp3706
(dp3707
g73
(dp3708
g100
g101
ssg82
g3697
sg75
(lp3709
S':'
asbag68
(g89
g70
NtRp3710
(dp3711
g73
(dp3712
sg82
g3697
sg75
(lp3713
g68
(g69
g70
NtRp3714
(dp3715
g73
(dp3716
g81
I5
ssg82
g3710
sg75
(lp3717
g68
(g77
g70
NtRp3718
(dp3719
g73
(dp3720
g81
I4
ssg82
Nsg75
(lp3721
g68
(g84
g70
NtRp3722
(dp3723
g73
(dp3724
sg82
g3718
sg75
(lp3725
g68
(g89
g70
NtRp3726
(dp3727
g73
(dp3728
sg82
g3722
sg75
(lp3729
g68
(g69
g70
NtRp3730
(dp3731
g73
(dp3732
g81
I4
ssg82
g3726
sg75
(lp3733
S'{{'
p3734
asbasbasbag68
(g84
g70
NtRp3735
(dp3736
g73
(dp3737
sg82
g3718
sg75
(lp3738
g68
(g89
g70
NtRp3739
(dp3740
g73
(dp3741
sg82
g3735
sg75
(lp3742
g68
(g69
g70
NtRp3743
(dp3744
g73
(dp3745
g81
I4
ssg82
g3739
sg75
(lp3746
S'}}'
p3747
asbasbasbasbasbasbasbag68
(g84
g70
NtRp3748
(dp3749
g73
(dp3750
sg82
g3463
sg75
(lp3751
g68
(g89
g70
NtRp3752
(dp3753
g73
(dp3754
g93
g94
ssg82
g3748
sg75
(lp3755
S'files'
p3756
asbag68
(g89
g70
NtRp3757
(dp3758
g73
(dp3759
g100
g101
ssg82
g3748
sg75
(lp3760
S':'
asbag68
(g89
g70
NtRp3761
(dp3762
g73
(dp3763
sg82
g3748
sg75
(lp3764
g68
(g69
g70
NtRp3765
(dp3766
g73
(dp3767
g81
I5
ssg82
g3761
sg75
(lp3768
g68
(g77
g70
NtRp3769
(dp3770
g73
(dp3771
g81
I4
ssg82
Nsg75
(lp3772
sbasbasbasbag68
(g84
g70
NtRp3773
(dp3774
g73
(dp3775
sg82
g3463
sg75
(lp3776
g68
(g89
g70
NtRp3777
(dp3778
g73
(dp3779
g93
g94
ssg82
g3773
sg75
(lp3780
S'flash'
p3781
asbag68
(g89
g70
NtRp3782
(dp3783
g73
(dp3784
g100
g101
ssg82
g3773
sg75
(lp3785
S':'
asbag68
(g89
g70
NtRp3786
(dp3787
g73
(dp3788
sg82
g3773
sg75
(lp3789
g68
(g69
g70
NtRp3790
(dp3791
g73
(dp3792
g81
I5
ssg82
g3786
sg75
(lp3793
S''
asbasbasbag68
(g84
g70
NtRp3794
(dp3795
g73
(dp3796
sg82
g3463
sg75
(lp3797
g68
(g89
g70
NtRp3798
(dp3799
g73
(dp3800
g93
g94
ssg82
g3794
sg75
(lp3801
S'generic_patterns'
p3802
asbag68
(g89
g70
NtRp3803
(dp3804
g73
(dp3805
g100
g101
ssg82
g3794
sg75
(lp3806
S':'
asbag68
(g89
g70
NtRp3807
(dp3808
g73
(dp3809
sg82
g3794
sg75
(lp3810
g68
(g69
g70
NtRp3811
(dp3812
g73
(dp3813
g81
I5
ssg82
g3807
sg75
(lp3814
g68
(g77
g70
NtRp3815
(dp3816
g73
(dp3817
g81
I4
ssg82
Nsg75
(lp3818
g68
(g84
g70
NtRp3819
(dp3820
g73
(dp3821
sg82
g3815
sg75
(lp3822
g68
(g89
g70
NtRp3823
(dp3824
g73
(dp3825
sg82
g3819
sg75
(lp3826
g68
(g69
g70
NtRp3827
(dp3828
g73
(dp3829
g81
I4
ssg82
g3823
sg75
(lp3830
S'*'
asbasbasbasbasbasbasbag68
(g84
g70
NtRp3831
(dp3832
g73
(dp3833
sg82
g3463
sg75
(lp3834
g68
(g89
g70
NtRp3835
(dp3836
g73
(dp3837
g93
g94
ssg82
g3831
sg75
(lp3838
S'google_analytics_id'
p3839
asbag68
(g89
g70
NtRp3840
(dp3841
g73
(dp3842
g100
g101
ssg82
g3831
sg75
(lp3843
S':'
asbag68
(g89
g70
NtRp3844
(dp3845
g73
(dp3846
sg82
g3831
sg75
(lp3847
g68
(g69
g70
NtRp3848
(dp3849
g73
(dp3850
g81
I5
ssg82
g3844
sg75
(lp3851
S'None'
p3852
asbasbasbag68
(g84
g70
NtRp3853
(dp3854
g73
(dp3855
sg82
g3463
sg75
(lp3856
g68
(g89
g70
NtRp3857
(dp3858
g73
(dp3859
g93
g94
ssg82
g3853
sg75
(lp3860
S'headers'
p3861
asbag68
(g89
g70
NtRp3862
(dp3863
g73
(dp3864
g100
g101
ssg82
g3853
sg75
(lp3865
S':'
asbag68
(g89
g70
NtRp3866
(dp3867
g73
(dp3868
sg82
g3853
sg75
(lp3869
g68
(g69
g70
NtRp3870
(dp3871
g73
(dp3872
g81
I5
ssg82
g3866
sg75
(lp3873
g68
(g77
g70
NtRp3874
(dp3875
g73
(dp3876
g81
I4
ssg82
Nsg75
(lp3877
g68
(g84
g70
NtRp3878
(dp3879
g73
(dp3880
sg82
g3874
sg75
(lp3881
g68
(g89
g70
NtRp3882
(dp3883
g73
(dp3884
g93
g94
ssg82
g3878
sg75
(lp3885
S'Cache-Control'
p3886
asbag68
(g89
g70
NtRp3887
(dp3888
g73
(dp3889
g100
g101
ssg82
g3878
sg75
(lp3890
S':'
asbag68
(g89
g70
NtRp3891
(dp3892
g73
(dp3893
sg82
g3878
sg75
(lp3894
g68
(g69
g70
NtRp3895
(dp3896
g73
(dp3897
g81
I4
ssg82
g3891
sg75
(lp3898
S'no-store, no-cache, must-revalidate, post-check=0, pre-check=0'
p3899
asbasbasbag68
(g84
g70
NtRp3900
(dp3901
g73
(dp3902
sg82
g3874
sg75
(lp3903
g68
(g89
g70
NtRp3904
(dp3905
g73
(dp3906
g93
g94
ssg82
g3900
sg75
(lp3907
S'Content-Type'
p3908
asbag68
(g89
g70
NtRp3909
(dp3910
g73
(dp3911
g100
g101
ssg82
g3900
sg75
(lp3912
S':'
asbag68
(g89
g70
NtRp3913
(dp3914
g73
(dp3915
sg82
g3900
sg75
(lp3916
g68
(g69
g70
NtRp3917
(dp3918
g73
(dp3919
g81
I4
ssg82
g3913
sg75
(lp3920
S'text/html; charset=utf-8'
p3921
asbasbasbag68
(g84
g70
NtRp3922
(dp3923
g73
(dp3924
sg82
g3874
sg75
(lp3925
g68
(g89
g70
NtRp3926
(dp3927
g73
(dp3928
g93
g94
ssg82
g3922
sg75
(lp3929
S'Expires'
p3930
asbag68
(g89
g70
NtRp3931
(dp3932
g73
(dp3933
g100
g101
ssg82
g3922
sg75
(lp3934
S':'
asbag68
(g89
g70
NtRp3935
(dp3936
g73
(dp3937
sg82
g3922
sg75
(lp3938
g68
(g69
g70
NtRp3939
(dp3940
g73
(dp3941
g81
I4
ssg82
g3935
sg75
(lp3942
S'Tue, 18 Dec 2012 11:50:58 GMT'
p3943
asbasbasbag68
(g84
g70
NtRp3944
(dp3945
g73
(dp3946
sg82
g3874
sg75
(lp3947
g68
(g89
g70
NtRp3948
(dp3949
g73
(dp3950
g93
g94
ssg82
g3944
sg75
(lp3951
S'Pragma'
p3952
asbag68
(g89
g70
NtRp3953
(dp3954
g73
(dp3955
g100
g101
ssg82
g3944
sg75
(lp3956
S':'
asbag68
(g89
g70
NtRp3957
(dp3958
g73
(dp3959
sg82
g3944
sg75
(lp3960
g68
(g69
g70
NtRp3961
(dp3962
g73
(dp3963
g81
I4
ssg82
g3957
sg75
(lp3964
S'no-cache'
p3965
asbasbasbag68
(g84
g70
NtRp3966
(dp3967
g73
(dp3968
sg82
g3874
sg75
(lp3969
g68
(g89
g70
NtRp3970
(dp3971
g73
(dp3972
g93
g94
ssg82
g3966
sg75
(lp3973
S'X-Powered-By'
p3974
asbag68
(g89
g70
NtRp3975
(dp3976
g73
(dp3977
g100
g101
ssg82
g3966
sg75
(lp3978
S':'
asbag68
(g89
g70
NtRp3979
(dp3980
g73
(dp3981
sg82
g3966
sg75
(lp3982
g68
(g69
g70
NtRp3983
(dp3984
g73
(dp3985
g81
I4
ssg82
g3979
sg75
(lp3986
S'web2py'
p3987
asbasbasbasbasbasbasbag68
(g84
g70
NtRp3988
(dp3989
g73
(dp3990
sg82
g3463
sg75
(lp3991
g68
(g89
g70
NtRp3992
(dp3993
g73
(dp3994
g93
g94
ssg82
g3988
sg75
(lp3995
S'menu'
p3996
asbag68
(g89
g70
NtRp3997
(dp3998
g73
(dp3999
g100
g101
ssg82
g3988
sg75
(lp4000
S':'
asbag68
(g89
g70
NtRp4001
(dp4002
g73
(dp4003
sg82
g3988
sg75
(lp4004
g68
(g69
g70
NtRp4005
(dp4006
g73
(dp4007
g81
I5
ssg82
g4001
sg75
(lp4008
g68
(g77
g70
NtRp4009
(dp4010
g73
(dp4011
g81
I4
ssg82
Nsg75
(lp4012
g68
(g84
g70
NtRp4013
(dp4014
g73
(dp4015
sg82
g4009
sg75
(lp4016
g68
(g89
g70
NtRp4017
(dp4018
g73
(dp4019
sg82
g4013
sg75
(lp4020
g68
(g69
g70
NtRp4021
(dp4022
g73
(dp4023
g81
I4
ssg82
g4017
sg75
(lp4024
g68
(g77
g70
NtRp4025
(dp4026
g73
(dp4027
g81
I3
ssg82
Nsg75
(lp4028
g68
(g84
g70
NtRp4029
(dp4030
g73
(dp4031
sg82
g4025
sg75
(lp4032
g68
(g89
g70
NtRp4033
(dp4034
g73
(dp4035
sg82
g4029
sg75
(lp4036
g68
(g69
g70
NtRp4037
(dp4038
g73
(dp4039
g81
I3
ssg82
g4033
sg75
(lp4040
cgluon.languages
lazyT_unpickle
p4041
(S't\x04\x00\x00\x00Home'
tRp4042
asbasbasbag68
(g84
g70
NtRp4043
(dp4044
g73
(dp4045
sg82
g4025
sg75
(lp4046
g68
(g89
g70
NtRp4047
(dp4048
g73
(dp4049
sg82
g4043
sg75
(lp4050
g68
(g69
g70
NtRp4051
(dp4052
g73
(dp4053
g81
I3
ssg82
g4047
sg75
(lp4054
g996
asbasbasbag68
(g84
g70
NtRp4055
(dp4056
g73
(dp4057
sg82
g4025
sg75
(lp4058
g68
(g89
g70
NtRp4059
(dp4060
g73
(dp4061
sg82
g4055
sg75
(lp4062
g68
(g69
g70
NtRp4063
(dp4064
g73
(dp4065
g81
I3
ssg82
g4059
sg75
(lp4066
S'/testumgebung/default/index.load'
p4067
asbasbasbag68
(g84
g70
NtRp4068
(dp4069
g73
(dp4070
sg82
g4025
sg75
(lp4071
g68
(g89
g70
NtRp4072
(dp4073
g73
(dp4074
sg82
g4068
sg75
(lp4075
g68
(g69
g70
NtRp4076
(dp4077
g73
(dp4078
g81
I3
ssg82
g4072
sg75
(lp4079
g68
(g77
g70
NtRp4080
(dp4081
g73
(dp4082
g81
I2
ssg82
Nsg75
(lp4083
sbasbasbasbasbasbasbasbag68
(g84
g70
NtRp4084
(dp4085
g73
(dp4086
sg82
g4009
sg75
(lp4087
g68
(g89
g70
NtRp4088
(dp4089
g73
(dp4090
sg82
g4084
sg75
(lp4091
g68
(g69
g70
NtRp4092
(dp4093
g73
(dp4094
g81
I4
ssg82
g4088
sg75
(lp4095
g68
(g77
g70
NtRp4096
(dp4097
g73
(dp4098
g81
I3
ssg82
Nsg75
(lp4099
g68
(g84
g70
NtRp4100
(dp4101
g73
(dp4102
sg82
g4096
sg75
(lp4103
g68
(g89
g70
NtRp4104
(dp4105
g73
(dp4106
sg82
g4100
sg75
(lp4107
g68
(g69
g70
NtRp4108
(dp4109
g73
(dp4110
g81
I3
ssg82
g4104
sg75
(lp4111
g68
(cgluon.html
SPAN
p4112
g70
NtRp4113
(dp4114
g73
(dp4115
g93
S'color:yellow'
p4116
ssg82
Nsg75
(lp4117
g3987
asbasbasbasbag68
(g84
g70
NtRp4118
(dp4119
g73
(dp4120
sg82
g4096
sg75
(lp4121
g68
(g89
g70
NtRp4122
(dp4123
g73
(dp4124
sg82
g4118
sg75
(lp4125
g68
(g69
g70
NtRp4126
(dp4127
g73
(dp4128
g81
I3
ssg82
g4122
sg75
(lp4129
g996
asbasbasbag68
(g84
g70
NtRp4130
(dp4131
g73
(dp4132
sg82
g4096
sg75
(lp4133
g68
(g89
g70
NtRp4134
(dp4135
g73
(dp4136
sg82
g4130
sg75
(lp4137
g68
(g69
g70
NtRp4138
(dp4139
g73
(dp4140
g81
I3
ssg82
g4134
sg75
(lp4141
S'http://web2py.com'
p4142
asbasbasbag68
(g84
g70
NtRp4143
(dp4144
g73
(dp4145
sg82
g4096
sg75
(lp4146
g68
(g89
g70
NtRp4147
(dp4148
g73
(dp4149
sg82
g4143
sg75
(lp4150
g68
(g69
g70
NtRp4151
(dp4152
g73
(dp4153
g81
I3
ssg82
g4147
sg75
(lp4154
g68
(g77
g70
NtRp4155
(dp4156
g73
(dp4157
g81
I2
ssg82
Nsg75
(lp4158
g68
(g84
g70
NtRp4159
(dp4160
g73
(dp4161
sg82
g4155
sg75
(lp4162
g68
(g89
g70
NtRp4163
(dp4164
g73
(dp4165
sg82
g4159
sg75
(lp4166
g68
(g69
g70
NtRp4167
(dp4168
g73
(dp4169
g81
I2
ssg82
g4163
sg75
(lp4170
g68
(g77
g70
NtRp4171
(dp4172
g73
(dp4173
g81
I1
ssg82
Nsg75
(lp4174
g68
(g84
g70
NtRp4175
(dp4176
g73
(dp4177
sg82
g4171
sg75
(lp4178
g68
(g89
g70
NtRp4179
(dp4180
g73
(dp4181
sg82
g4175
sg75
(lp4182
g68
(g69
g70
NtRp4183
(dp4184
g73
(dp4185
g81
I1
ssg82
g4179
sg75
(lp4186
g4041
(S's\x08\x00\x00\x00My Sites'
tRp4187
asbasbasbag68
(g84
g70
NtRp4188
(dp4189
g73
(dp4190
sg82
g4171
sg75
(lp4191
g68
(g89
g70
NtRp4192
(dp4193
g73
(dp4194
sg82
g4188
sg75
(lp4195
g68
(g69
g70
NtRp4196
(dp4197
g73
(dp4198
g81
I1
ssg82
g4192
sg75
(lp4199
I00
asbasbasbag68
(g84
g70
NtRp4200
(dp4201
g73
(dp4202
sg82
g4171
sg75
(lp4203
g68
(g89
g70
NtRp4204
(dp4205
g73
(dp4206
sg82
g4200
sg75
(lp4207
g68
(g69
g70
NtRp4208
(dp4209
g73
(dp4210
g81
I1
ssg82
g4204
sg75
(lp4211
S'/admin/default/site.load'
p4212
asbasbasbasbasbasbasbag68
(g84
g70
NtRp4213
(dp4214
g73
(dp4215
sg82
g4155
sg75
(lp4216
g68
(g89
g70
NtRp4217
(dp4218
g73
(dp4219
sg82
g4213
sg75
(lp4220
g68
(g69
g70
NtRp4221
(dp4222
g73
(dp4223
g81
I2
ssg82
g4217
sg75
(lp4224
g68
(g77
g70
NtRp4225
(dp4226
g73
(dp4227
g81
I1
ssg82
Nsg75
(lp4228
g68
(g84
g70
NtRp4229
(dp4230
g73
(dp4231
sg82
g4225
sg75
(lp4232
g68
(g89
g70
NtRp4233
(dp4234
g73
(dp4235
sg82
g4229
sg75
(lp4236
g68
(g69
g70
NtRp4237
(dp4238
g73
(dp4239
g81
I1
ssg82
g4233
sg75
(lp4240
g4041
(S's\x08\x00\x00\x00This App'
tRp4241
asbasbasbag68
(g84
g70
NtRp4242
(dp4243
g73
(dp4244
sg82
g4225
sg75
(lp4245
g68
(g89
g70
NtRp4246
(dp4247
g73
(dp4248
sg82
g4242
sg75
(lp4249
g68
(g69
g70
NtRp4250
(dp4251
g73
(dp4252
g81
I1
ssg82
g4246
sg75
(lp4253
I00
asbasbasbag68
(g84
g70
NtRp4254
(dp4255
g73
(dp4256
sg82
g4225
sg75
(lp4257
g68
(g89
g70
NtRp4258
(dp4259
g73
(dp4260
sg82
g4254
sg75
(lp4261
g68
(g69
g70
NtRp4262
(dp4263
g73
(dp4264
g81
I1
ssg82
g4258
sg75
(lp4265
S'/admin/default/design.load/testumgebung'
p4266
asbasbasbag68
(g84
g70
NtRp4267
(dp4268
g73
(dp4269
sg82
g4225
sg75
(lp4270
g68
(g89
g70
NtRp4271
(dp4272
g73
(dp4273
sg82
g4267
sg75
(lp4274
g68
(g69
g70
NtRp4275
(dp4276
g73
(dp4277
g81
I1
ssg82
g4271
sg75
(lp4278
(lp4279
(g4041
(S't\n\x00\x00\x00Controller'
tRp4280
I00
S'/admin/default/edit.load/testumgebung/controllers/plugin_feedbacks.py'
tp4281
a(g4041
(S't\x04\x00\x00\x00View'
tRp4282
I00
S'/admin/default/edit.load/testumgebung/views/plugin_feedbacks/feedback.load'
tp4283
a(g4041
(S't\x06\x00\x00\x00Layout'
tRp4284
I00
S'/admin/default/edit.load/testumgebung/views/layout.html'
tp4285
a(g4041
(S't\n\x00\x00\x00Stylesheet'
tRp4286
I00
S'/admin/default/edit.load/testumgebung/static/css/web2py.css'
tp4287
a(g4041
(S's\x08\x00\x00\x00DB Model'
tRp4288
I00
S'/admin/default/edit.load/testumgebung/models/db.py'
tp4289
a(g4041
(S's\n\x00\x00\x00Menu Model'
tRp4290
I00
S'/admin/default/edit.load/testumgebung/models/menu.py'
tp4291
a(g4041
(S't\x08\x00\x00\x00Database'
tRp4292
I00
S'/testumgebung/appadmin/index.load'
tp4293
a(g4041
(S't\x06\x00\x00\x00Errors'
tRp4294
I00
S'/admin/default/errors.load/testumgebung'
tp4295
a(g4041
(S't\x05\x00\x00\x00About'
tRp4296
I00
S'/admin/default/about.load/testumgebung'
tp4297
aasbasbasbasbasbasbasbag68
(g84
g70
NtRp4298
(dp4299
g73
(dp4300
sg82
g4155
sg75
(lp4301
g68
(g89
g70
NtRp4302
(dp4303
g73
(dp4304
sg82
g4298
sg75
(lp4305
g68
(g69
g70
NtRp4306
(dp4307
g73
(dp4308
g81
I2
ssg82
g4302
sg75
(lp4309
g68
(g77
g70
NtRp4310
(dp4311
g73
(dp4312
g81
I1
ssg82
Nsg75
(lp4313
g68
(g84
g70
NtRp4314
(dp4315
g73
(dp4316
sg82
g4310
sg75
(lp4317
g68
(g89
g70
NtRp4318
(dp4319
g73
(dp4320
sg82
g4314
sg75
(lp4321
g68
(g69
g70
NtRp4322
(dp4323
g73
(dp4324
g81
I1
ssg82
g4318
sg75
(lp4325
S'web2py.com'
p4326
asbasbasbag68
(g84
g70
NtRp4327
(dp4328
g73
(dp4329
sg82
g4310
sg75
(lp4330
g68
(g89
g70
NtRp4331
(dp4332
g73
(dp4333
sg82
g4327
sg75
(lp4334
g68
(g69
g70
NtRp4335
(dp4336
g73
(dp4337
g81
I1
ssg82
g4331
sg75
(lp4338
I00
asbasbasbag68
(g84
g70
NtRp4339
(dp4340
g73
(dp4341
sg82
g4310
sg75
(lp4342
g68
(g89
g70
NtRp4343
(dp4344
g73
(dp4345
sg82
g4339
sg75
(lp4346
g68
(g69
g70
NtRp4347
(dp4348
g73
(dp4349
g81
I1
ssg82
g4343
sg75
(lp4350
S'http://www.web2py.com'
p4351
asbasbasbag68
(g84
g70
NtRp4352
(dp4353
g73
(dp4354
sg82
g4310
sg75
(lp4355
g68
(g89
g70
NtRp4356
(dp4357
g73
(dp4358
sg82
g4352
sg75
(lp4359
g68
(g69
g70
NtRp4360
(dp4361
g73
(dp4362
g81
I1
ssg82
g4356
sg75
(lp4363
(lp4364
(g4041
(S't\x08\x00\x00\x00Download'
tRp4365
I00
S'http://www.web2py.com/examples/default/download'
p4366
tp4367
a(g4041
(S't\x07\x00\x00\x00Support'
tRp4368
I00
S'http://www.web2py.com/examples/default/support'
p4369
tp4370
a(g4041
(S't\x04\x00\x00\x00Demo'
tRp4371
I00
S'http://web2py.com/demo_admin'
p4372
tp4373
a(g4041
(S's\x0e\x00\x00\x00Quick Examples'
tRp4374
I00
S'http://web2py.com/examples/default/examples'
p4375
tp4376
a(g4041
(S't\x03\x00\x00\x00FAQ'
tRp4377
I00
S'http://web2py.com/AlterEgo'
p4378
tp4379
a(g4041
(S't\x06\x00\x00\x00Videos'
tRp4380
I00
S'http://www.web2py.com/examples/default/videos/'
p4381
tp4382
a(g4041
(S's\x11\x00\x00\x00Free Applications'
tRp4383
I00
S'http://web2py.com/appliances'
p4384
tp4385
a(g4041
(S't\x07\x00\x00\x00Plugins'
tRp4386
I00
S'http://web2py.com/plugins'
p4387
tp4388
a(g4041
(S't\x07\x00\x00\x00Layouts'
tRp4389
I00
S'http://web2py.com/layouts'
p4390
tp4391
a(g4041
(S't\x07\x00\x00\x00Recipes'
tRp4392
I00
S'http://web2pyslices.com/'
p4393
tp4394
a(g4041
(S't\x08\x00\x00\x00Semantic'
tRp4395
I00
S'http://web2py.com/semantic'
p4396
tp4397
aasbasbasbasbasbasbasbag68
(g84
g70
NtRp4398
(dp4399
g73
(dp4400
sg82
g4155
sg75
(lp4401
g68
(g89
g70
NtRp4402
(dp4403
g73
(dp4404
sg82
g4398
sg75
(lp4405
g68
(g69
g70
NtRp4406
(dp4407
g73
(dp4408
g81
I2
ssg82
g4402
sg75
(lp4409
g68
(g77
g70
NtRp4410
(dp4411
g73
(dp4412
g81
I1
ssg82
Nsg75
(lp4413
g68
(g84
g70
NtRp4414
(dp4415
g73
(dp4416
sg82
g4410
sg75
(lp4417
g68
(g89
g70
NtRp4418
(dp4419
g73
(dp4420
sg82
g4414
sg75
(lp4421
g68
(g69
g70
NtRp4422
(dp4423
g73
(dp4424
g81
I1
ssg82
g4418
sg75
(lp4425
g4041
(S't\r\x00\x00\x00Documentation'
tRp4426
asbasbasbag68
(g84
g70
NtRp4427
(dp4428
g73
(dp4429
sg82
g4410
sg75
(lp4430
g68
(g89
g70
NtRp4431
(dp4432
g73
(dp4433
sg82
g4427
sg75
(lp4434
g68
(g69
g70
NtRp4435
(dp4436
g73
(dp4437
g81
I1
ssg82
g4431
sg75
(lp4438
I00
asbasbasbag68
(g84
g70
NtRp4439
(dp4440
g73
(dp4441
sg82
g4410
sg75
(lp4442
g68
(g89
g70
NtRp4443
(dp4444
g73
(dp4445
sg82
g4439
sg75
(lp4446
g68
(g69
g70
NtRp4447
(dp4448
g73
(dp4449
g81
I1
ssg82
g4443
sg75
(lp4450
S'http://www.web2py.com/book'
p4451
asbasbasbag68
(g84
g70
NtRp4452
(dp4453
g73
(dp4454
sg82
g4410
sg75
(lp4455
g68
(g89
g70
NtRp4456
(dp4457
g73
(dp4458
sg82
g4452
sg75
(lp4459
g68
(g69
g70
NtRp4460
(dp4461
g73
(dp4462
g81
I1
ssg82
g4456
sg75
(lp4463
(lp4464
(g4041
(S't\x07\x00\x00\x00Preface'
tRp4465
I00
S'http://www.web2py.com/book/default/chapter/00'
p4466
tp4467
a(g4041
(S't\x0c\x00\x00\x00Introduction'
tRp4468
I00
S'http://www.web2py.com/book/default/chapter/01'
p4469
tp4470
a(g4041
(S't\x06\x00\x00\x00Python'
tRp4471
I00
S'http://www.web2py.com/book/default/chapter/02'
p4472
tp4473
a(g4041
(S't\x08\x00\x00\x00Overview'
tRp4474
I00
S'http://www.web2py.com/book/default/chapter/03'
p4475
tp4476
a(g4041
(S's\x08\x00\x00\x00The Core'
tRp4477
I00
S'http://www.web2py.com/book/default/chapter/04'
p4478
tp4479
a(g4041
(S's\t\x00\x00\x00The Views'
tRp4480
I00
S'http://www.web2py.com/book/default/chapter/05'
p4481
tp4482
a(g4041
(S't\x08\x00\x00\x00Database'
tRp4483
I00
S'http://www.web2py.com/book/default/chapter/06'
p4484
tp4485
a(g4041
(S's\x14\x00\x00\x00Forms and Validators'
tRp4486
I00
S'http://www.web2py.com/book/default/chapter/07'
p4487
tp4488
a(g4041
(S's\r\x00\x00\x00Email and SMS'
tRp4489
I00
S'http://www.web2py.com/book/default/chapter/08'
p4490
tp4491
a(g4041
(S's\x0e\x00\x00\x00Access Control'
tRp4492
I00
S'http://www.web2py.com/book/default/chapter/09'
p4493
tp4494
a(g4041
(S't\x08\x00\x00\x00Services'
tRp4495
I00
S'http://www.web2py.com/book/default/chapter/10'
p4496
tp4497
a(g4041
(S's\x0c\x00\x00\x00Ajax Recipes'
tRp4498
I00
S'http://www.web2py.com/book/default/chapter/11'
p4499
tp4500
a(g4041
(S's\x16\x00\x00\x00Components and Plugins'
tRp4501
I00
S'http://www.web2py.com/book/default/chapter/12'
p4502
tp4503
a(g4041
(S's\x12\x00\x00\x00Deployment Recipes'
tRp4504
I00
S'http://www.web2py.com/book/default/chapter/13'
p4505
tp4506
a(g4041
(S's\r\x00\x00\x00Other Recipes'
tRp4507
I00
S'http://www.web2py.com/book/default/chapter/14'
p4508
tp4509
a(g4041
(S's\r\x00\x00\x00Buy this book'
tRp4510
I00
S'http://stores.lulu.com/web2py'
p4511
tp4512
aasbasbasbasbasbasbasbag68
(g84
g70
NtRp4513
(dp4514
g73
(dp4515
sg82
g4155
sg75
(lp4516
g68
(g89
g70
NtRp4517
(dp4518
g73
(dp4519
sg82
g4513
sg75
(lp4520
g68
(g69
g70
NtRp4521
(dp4522
g73
(dp4523
g81
I2
ssg82
g4517
sg75
(lp4524
g68
(g77
g70
NtRp4525
(dp4526
g73
(dp4527
g81
I1
ssg82
Nsg75
(lp4528
g68
(g84
g70
NtRp4529
(dp4530
g73
(dp4531
sg82
g4525
sg75
(lp4532
g68
(g89
g70
NtRp4533
(dp4534
g73
(dp4535
sg82
g4529
sg75
(lp4536
g68
(g69
g70
NtRp4537
(dp4538
g73
(dp4539
g81
I1
ssg82
g4533
sg75
(lp4540
g4041
(S't\t\x00\x00\x00Community'
tRp4541
asbasbasbag68
(g84
g70
NtRp4542
(dp4543
g73
(dp4544
sg82
g4525
sg75
(lp4545
g68
(g89
g70
NtRp4546
(dp4547
g73
(dp4548
sg82
g4542
sg75
(lp4549
g68
(g69
g70
NtRp4550
(dp4551
g73
(dp4552
g81
I1
ssg82
g4546
sg75
(lp4553
I00
asbasbasbag68
(g84
g70
NtRp4554
(dp4555
g73
(dp4556
sg82
g4525
sg75
(lp4557
g68
(g89
g70
NtRp4558
(dp4559
g73
(dp4560
sg82
g4554
sg75
(lp4561
g68
(g69
g70
NtRp4562
(dp4563
g73
(dp4564
g81
I1
ssg82
g4558
sg75
(lp4565
Nasbasbasbag68
(g84
g70
NtRp4566
(dp4567
g73
(dp4568
sg82
g4525
sg75
(lp4569
g68
(g89
g70
NtRp4570
(dp4571
g73
(dp4572
sg82
g4566
sg75
(lp4573
g68
(g69
g70
NtRp4574
(dp4575
g73
(dp4576
g81
I1
ssg82
g4570
sg75
(lp4577
(lp4578
(g4041
(S't\x06\x00\x00\x00Groups'
tRp4579
I00
S'http://www.web2py.com/examples/default/usergroups'
p4580
tp4581
a(g4041
(S't\x07\x00\x00\x00Twitter'
tRp4582
I00
S'http://twitter.com/web2py'
p4583
tp4584
a(g4041
(S's\t\x00\x00\x00Live Chat'
tRp4585
I00
S'http://webchat.freenode.net/?channels=web2py'
p4586
tp4587
aasbasbasbasbasbasbasbag68
(g84
g70
NtRp4588
(dp4589
g73
(dp4590
sg82
g4155
sg75
(lp4591
g68
(g89
g70
NtRp4592
(dp4593
g73
(dp4594
sg82
g4588
sg75
(lp4595
g68
(g69
g70
NtRp4596
(dp4597
g73
(dp4598
g81
I2
ssg82
g4592
sg75
(lp4599
g68
(g77
g70
NtRp4600
(dp4601
g73
(dp4602
g81
I1
ssg82
Nsg75
(lp4603
g68
(g84
g70
NtRp4604
(dp4605
g73
(dp4606
sg82
g4600
sg75
(lp4607
g68
(g89
g70
NtRp4608
(dp4609
g73
(dp4610
sg82
g4604
sg75
(lp4611
g68
(g69
g70
NtRp4612
(dp4613
g73
(dp4614
g81
I1
ssg82
g4608
sg75
(lp4615
g4041
(S't\x07\x00\x00\x00Plugins'
tRp4616
asbasbasbag68
(g84
g70
NtRp4617
(dp4618
g73
(dp4619
sg82
g4600
sg75
(lp4620
g68
(g89
g70
NtRp4621
(dp4622
g73
(dp4623
sg82
g4617
sg75
(lp4624
g68
(g69
g70
NtRp4625
(dp4626
g73
(dp4627
g81
I1
ssg82
g4621
sg75
(lp4628
I00
asbasbasbag68
(g84
g70
NtRp4629
(dp4630
g73
(dp4631
sg82
g4600
sg75
(lp4632
g68
(g89
g70
NtRp4633
(dp4634
g73
(dp4635
sg82
g4629
sg75
(lp4636
g68
(g69
g70
NtRp4637
(dp4638
g73
(dp4639
g81
I1
ssg82
g4633
sg75
(lp4640
Nasbasbasbag68
(g84
g70
NtRp4641
(dp4642
g73
(dp4643
sg82
g4600
sg75
(lp4644
g68
(g89
g70
NtRp4645
(dp4646
g73
(dp4647
sg82
g4641
sg75
(lp4648
g68
(g69
g70
NtRp4649
(dp4650
g73
(dp4651
g81
I1
ssg82
g4645
sg75
(lp4652
(lp4653
(S'plugin_wiki'
p4654
I00
S'http://web2py.com/examples/default/download'
p4655
tp4656
a(g4041
(S's\r\x00\x00\x00Other Plugins'
tRp4657
I00
g4387
tp4658
a(g4041
(S's\x0e\x00\x00\x00Layout Plugins'
tRp4659
I00
g4390
tp4660
aasbasbasbasbasbasbasbasbasbasbasbasbasbasbasbasbasbasbasbag68
(g84
g70
NtRp4661
(dp4662
g73
(dp4663
sg82
g3463
sg75
(lp4664
g68
(g89
g70
NtRp4665
(dp4666
g73
(dp4667
g93
g94
ssg82
g4661
sg75
(lp4668
S'meta'
p4669
asbag68
(g89
g70
NtRp4670
(dp4671
g73
(dp4672
g100
g101
ssg82
g4661
sg75
(lp4673
S':'
asbag68
(g89
g70
NtRp4674
(dp4675
g73
(dp4676
sg82
g4661
sg75
(lp4677
g68
(g69
g70
NtRp4678
(dp4679
g73
(dp4680
g81
I5
ssg82
g4674
sg75
(lp4681
g68
(g77
g70
NtRp4682
(dp4683
g73
(dp4684
g81
I4
ssg82
Nsg75
(lp4685
g68
(g84
g70
NtRp4686
(dp4687
g73
(dp4688
sg82
g4682
sg75
(lp4689
g68
(g89
g70
NtRp4690
(dp4691
g73
(dp4692
g93
g94
ssg82
g4686
sg75
(lp4693
S'author'
p4694
asbag68
(g89
g70
NtRp4695
(dp4696
g73
(dp4697
g100
g101
ssg82
g4686
sg75
(lp4698
S':'
asbag68
(g89
g70
NtRp4699
(dp4700
g73
(dp4701
sg82
g4686
sg75
(lp4702
g68
(g69
g70
NtRp4703
(dp4704
g73
(dp4705
g81
I4
ssg82
g4699
sg75
(lp4706
S'Your Name <you@example.com>'
p4707
asbasbasbag68
(g84
g70
NtRp4708
(dp4709
g73
(dp4710
sg82
g4682
sg75
(lp4711
g68
(g89
g70
NtRp4712
(dp4713
g73
(dp4714
g93
g94
ssg82
g4708
sg75
(lp4715
S'description'
p4716
asbag68
(g89
g70
NtRp4717
(dp4718
g73
(dp4719
g100
g101
ssg82
g4708
sg75
(lp4720
S':'
asbag68
(g89
g70
NtRp4721
(dp4722
g73
(dp4723
sg82
g4708
sg75
(lp4724
g68
(g69
g70
NtRp4725
(dp4726
g73
(dp4727
g81
I4
ssg82
g4721
sg75
(lp4728
S'a cool new app'
p4729
asbasbasbag68
(g84
g70
NtRp4730
(dp4731
g73
(dp4732
sg82
g4682
sg75
(lp4733
g68
(g89
g70
NtRp4734
(dp4735
g73
(dp4736
g93
g94
ssg82
g4730
sg75
(lp4737
S'generator'
p4738
asbag68
(g89
g70
NtRp4739
(dp4740
g73
(dp4741
g100
g101
ssg82
g4730
sg75
(lp4742
S':'
asbag68
(g89
g70
NtRp4743
(dp4744
g73
(dp4745
sg82
g4730
sg75
(lp4746
g68
(g69
g70
NtRp4747
(dp4748
g73
(dp4749
g81
I4
ssg82
g4743
sg75
(lp4750
S'Web2py Web Framework'
p4751
asbasbasbag68
(g84
g70
NtRp4752
(dp4753
g73
(dp4754
sg82
g4682
sg75
(lp4755
g68
(g89
g70
NtRp4756
(dp4757
g73
(dp4758
g93
g94
ssg82
g4752
sg75
(lp4759
S'keywords'
p4760
asbag68
(g89
g70
NtRp4761
(dp4762
g73
(dp4763
g100
g101
ssg82
g4752
sg75
(lp4764
S':'
asbag68
(g89
g70
NtRp4765
(dp4766
g73
(dp4767
sg82
g4752
sg75
(lp4768
g68
(g69
g70
NtRp4769
(dp4770
g73
(dp4771
g81
I4
ssg82
g4765
sg75
(lp4772
S'web2py, python, framework'
p4773
asbasbasbasbasbasbasbag68
(g84
g70
NtRp4774
(dp4775
g73
(dp4776
sg82
g3463
sg75
(lp4777
g68
(g89
g70
NtRp4778
(dp4779
g73
(dp4780
g93
g94
ssg82
g4774
sg75
(lp4781
S'postprocessing'
p4782
asbag68
(g89
g70
NtRp4783
(dp4784
g73
(dp4785
g100
g101
ssg82
g4774
sg75
(lp4786
S':'
asbag68
(g89
g70
NtRp4787
(dp4788
g73
(dp4789
sg82
g4774
sg75
(lp4790
g68
(g69
g70
NtRp4791
(dp4792
g73
(dp4793
g81
I5
ssg82
g4787
sg75
(lp4794
g68
(g77
g70
NtRp4795
(dp4796
g73
(dp4797
g81
I4
ssg82
Nsg75
(lp4798
sbasbasbasbag68
(g84
g70
NtRp4799
(dp4800
g73
(dp4801
sg82
g3463
sg75
(lp4802
g68
(g89
g70
NtRp4803
(dp4804
g73
(dp4805
g93
g94
ssg82
g4799
sg75
(lp4806
S'session_file'
p4807
asbag68
(g89
g70
NtRp4808
(dp4809
g73
(dp4810
g100
g101
ssg82
g4799
sg75
(lp4811
S':'
asbag68
(g89
g70
NtRp4812
(dp4813
g73
(dp4814
sg82
g4799
sg75
(lp4815
g68
(g69
g70
NtRp4816
(dp4817
g73
(dp4818
g81
I5
ssg82
g4812
sg75
(lp4819
S"<open file 'C:\\xampp\\htdocs\\web2py\\applications\\testumgebung\\sessions\\127.0.0.1-90677836-87e3-4573-bd9a-704b577fb384', mode 'rb+' at 0x08BD39C0>"
p4820
asbasbasbag68
(g84
g70
NtRp4821
(dp4822
g73
(dp4823
sg82
g3463
sg75
(lp4824
g68
(g89
g70
NtRp4825
(dp4826
g73
(dp4827
g93
g94
ssg82
g4821
sg75
(lp4828
S'session_filename'
p4829
asbag68
(g89
g70
NtRp4830
(dp4831
g73
(dp4832
g100
g101
ssg82
g4821
sg75
(lp4833
S':'
asbag68
(g89
g70
NtRp4834
(dp4835
g73
(dp4836
sg82
g4821
sg75
(lp4837
g68
(g69
g70
NtRp4838
(dp4839
g73
(dp4840
g81
I5
ssg82
g4834
sg75
(lp4841
S'C:\\xampp\\htdocs\\web2py\\applications\\testumgebung\\sessions\\127.0.0.1-90677836-87e3-4573-bd9a-704b577fb384'
p4842
asbasbasbag68
(g84
g70
NtRp4843
(dp4844
g73
(dp4845
sg82
g3463
sg75
(lp4846
g68
(g89
g70
NtRp4847
(dp4848
g73
(dp4849
g93
g94
ssg82
g4843
sg75
(lp4850
S'session_id'
p4851
asbag68
(g89
g70
NtRp4852
(dp4853
g73
(dp4854
g100
g101
ssg82
g4843
sg75
(lp4855
S':'
asbag68
(g89
g70
NtRp4856
(dp4857
g73
(dp4858
sg82
g4843
sg75
(lp4859
g68
(g69
g70
NtRp4860
(dp4861
g73
(dp4862
g81
I5
ssg82
g4856
sg75
(lp4863
g486
asbasbasbag68
(g84
g70
NtRp4864
(dp4865
g73
(dp4866
sg82
g3463
sg75
(lp4867
g68
(g89
g70
NtRp4868
(dp4869
g73
(dp4870
g93
g94
ssg82
g4864
sg75
(lp4871
S'session_id_name'
p4872
asbag68
(g89
g70
NtRp4873
(dp4874
g73
(dp4875
g100
g101
ssg82
g4864
sg75
(lp4876
S':'
asbag68
(g89
g70
NtRp4877
(dp4878
g73
(dp4879
sg82
g4864
sg75
(lp4880
g68
(g69
g70
NtRp4881
(dp4882
g73
(dp4883
g81
I5
ssg82
g4877
sg75
(lp4884
g3520
asbasbasbag68
(g84
g70
NtRp4885
(dp4886
g73
(dp4887
sg82
g3463
sg75
(lp4888
g68
(g89
g70
NtRp4889
(dp4890
g73
(dp4891
g93
g94
ssg82
g4885
sg75
(lp4892
S'session_locked'
p4893
asbag68
(g89
g70
NtRp4894
(dp4895
g73
(dp4896
g100
g101
ssg82
g4885
sg75
(lp4897
S':'
asbag68
(g89
g70
NtRp4898
(dp4899
g73
(dp4900
sg82
g4885
sg75
(lp4901
g68
(g69
g70
NtRp4902
(dp4903
g73
(dp4904
g81
I5
ssg82
g4898
sg75
(lp4905
g111
asbasbasbag68
(g84
g70
NtRp4906
(dp4907
g73
(dp4908
sg82
g3463
sg75
(lp4909
g68
(g89
g70
NtRp4910
(dp4911
g73
(dp4912
g93
g94
ssg82
g4906
sg75
(lp4913
S'session_new'
p4914
asbag68
(g89
g70
NtRp4915
(dp4916
g73
(dp4917
g100
g101
ssg82
g4906
sg75
(lp4918
S':'
asbag68
(g89
g70
NtRp4919
(dp4920
g73
(dp4921
sg82
g4906
sg75
(lp4922
g68
(g69
g70
NtRp4923
(dp4924
g73
(dp4925
g81
I5
ssg82
g4919
sg75
(lp4926
g996
asbasbasbag68
(g84
g70
NtRp4927
(dp4928
g73
(dp4929
sg82
g3463
sg75
(lp4930
g68
(g89
g70
NtRp4931
(dp4932
g73
(dp4933
g93
g94
ssg82
g4927
sg75
(lp4934
S'status'
p4935
asbag68
(g89
g70
NtRp4936
(dp4937
g73
(dp4938
g100
g101
ssg82
g4927
sg75
(lp4939
S':'
asbag68
(g89
g70
NtRp4940
(dp4941
g73
(dp4942
sg82
g4927
sg75
(lp4943
g68
(g69
g70
NtRp4944
(dp4945
g73
(dp4946
g81
I5
ssg82
g4940
sg75
(lp4947
S'200'
p4948
asbasbasbag68
(g84
g70
NtRp4949
(dp4950
g73
(dp4951
sg82
g3463
sg75
(lp4952
g68
(g89
g70
NtRp4953
(dp4954
g73
(dp4955
g93
g94
ssg82
g4949
sg75
(lp4956
S'subtitle'
p4957
asbag68
(g89
g70
NtRp4958
(dp4959
g73
(dp4960
g100
g101
ssg82
g4949
sg75
(lp4961
S':'
asbag68
(g89
g70
NtRp4962
(dp4963
g73
(dp4964
sg82
g4949
sg75
(lp4965
g68
(g69
g70
NtRp4966
(dp4967
g73
(dp4968
g81
I5
ssg82
g4962
sg75
(lp4969
g4041
(S's\r\x00\x00\x00customize me!'
tRp4970
asbasbasbag68
(g84
g70
NtRp4971
(dp4972
g73
(dp4973
sg82
g3463
sg75
(lp4974
g68
(g89
g70
NtRp4975
(dp4976
g73
(dp4977
g93
g94
ssg82
g4971
sg75
(lp4978
S'title'
p4979
asbag68
(g89
g70
NtRp4980
(dp4981
g73
(dp4982
g100
g101
ssg82
g4971
sg75
(lp4983
S':'
asbag68
(g89
g70
NtRp4984
(dp4985
g73
(dp4986
sg82
g4971
sg75
(lp4987
g68
(g69
g70
NtRp4988
(dp4989
g73
(dp4990
g81
I5
ssg82
g4984
sg75
(lp4991
S'Testumgebung'
p4992
asbasbasbag68
(g84
g70
NtRp4993
(dp4994
g73
(dp4995
sg82
g3463
sg75
(lp4996
g68
(g89
g70
NtRp4997
(dp4998
g73
(dp4999
g93
g94
ssg82
g4993
sg75
(lp5000
S'view'
p5001
asbag68
(g89
g70
NtRp5002
(dp5003
g73
(dp5004
g100
g101
ssg82
g4993
sg75
(lp5005
S':'
asbag68
(g89
g70
NtRp5006
(dp5007
g73
(dp5008
sg82
g4993
sg75
(lp5009
g68
(g69
g70
NtRp5010
(dp5011
g73
(dp5012
g81
I5
ssg82
g5006
sg75
(lp5013
S'plugin_feedbacks/feedback.load'
p5014
asbasbasbasbasbsS'locals'
p5015
(dp5016
g4
S"r'C:\\xampp\\htdocs\\web2py\\applications\\testumgebung\\controllers/plugin_feedbacks.py'"
p5017
sg6
S'"from gluon.tools import prettydate\\nimport dateti...den.\')\\nresponse._vars=response._caller(feedback)\\n"'
p5018
sssS'traceback'
p5019
S'Traceback (most recent call last):\n  File "gluon/restricted.py", line 208, in restricted\n  File "gluon/restricted.py", line 193, in compile2\n  File "C:\\xampp\\htdocs\\web2py\\applications\\testumgebung\\controllers/plugin_feedbacks.py", line 36\n    def check_plugin_feedbacks_feedback_form(form):\n      ^\nSyntaxError: invalid syntax\n'
p5020
s.