(dp1
S'output'
p2
S"<type 'exceptions.SyntaxError'> invalid syntax (plugin_feedbacks/feedback.load, line 9)"
p3
sS'layer'
p4
S'C:\\xampp\\htdocs\\web2py\\applications\\testumgebung\\views\\plugin_feedbacks/feedback.load'
p5
sS'code'
p6
S'response.write(\'<div id="plugin_feedbacks_container">\\r\\n\\r\\n\\t\', escape=False)\nresponse.write(session)\nresponse.write(\'\\r\\n\\t<br />\\r\\n\\t\', escape=False)\nresponse.write(session.plugin_feedbacks["sentFeedback"])\nresponse.write(\'\\r\\n\\t<br />\\r\\n\\t\', escape=False)\nresponse.write(session.plugin_feedbacks["time"])\nresponse.write(\'\\r\\n\\t<br />\\r\\n\\t\', escape=False)\nresponse.write((datetime.datetime.now() - datetime.timedelta(minutes=15))\nresponse.write(\'\\r\\n\\r\\n\\r\\n\\r\\n    <ul class="nav nav-pills" id="plugin_feedbacks_tab">\\r\\n\\t    <li class="active">\\r\\n\\t    \\t<a href="#feedback" data-toggle="tab"><i class="icon-comment"></i> \', escape=False)\nresponse.write(T(\'Wir lieben Feedback\'))\nresponse.write(\'</a>\\r\\n\\t    </li>\\r\\n\\t    <li><a href="#like" data-toggle="tab"><i class="icon-thumbs-up"></i> \', escape=False)\nresponse.write(T(\'anderen gef\xc3\xa4llt\'))\nresponse.write(\'</a></li>\\r\\n\\t    <li><a href="#dislike" data-toggle="tab"><i class="icon-thumbs-down"></i> \', escape=False)\nresponse.write(T(\'anderen gef\xc3\xa4llt nicht\'))\nresponse.write(\'</a></li>\\r\\n    </ul>\\r\\n    \\r\\n    <div class="tab-content">\\r\\n\\t\\t<div class="tab-pane active" id="feedback">\\r\\n\\t\\t\\t\', escape=False)\nresponse.write(form.custom.begin)\nresponse.write(\'\\r\\n\\t\\t\\t\\r\\n\\t\\t\\t\\t<p><i>\\r\\n\\t\\t\\t\\t\\t\', escape=False)\nresponse.write(T("Wir freuen uns \xc3\xbcber Ihr pers\xc3\xb6nliches Feedback. Gef\xc3\xa4llt Ihnen die Seite? Was k\xc3\xb6nnen wir verbessern? Liegt Ihnen etwas anderes zu dieser Seite auf dem Herzen?"))\nresponse.write(\'\\r\\n\\t\\t\\t\\t\\t<br />\\r\\n\\t\\t\\t\\t\\t\', escape=False)\nresponse.write(T("Wir freuen uns auf Ihre Meinung!"))\nresponse.write(\'\\r\\n\\t\\t\\t\\t</i></p>\\r\\n\\t\\r\\n\\t\\t\\t\\t<div id="plugin_feedbacks_messagebox">\\r\\n\\t\\t\\t\\t\\t\', escape=False)\nresponse.write(T("Diese Seite"))\nresponse.write(\' \\r\\n\\t\\t\\t\\t\\t\\r\\n\\t\\t\\t\\t\\t<div id="plugin_feedbacks_boxes">\\r\\n\\t\\t\\t\\t\\t\\t<input id="feelinghappy" type="radio" value="happy" name="feeling">\\r\\n\\t\\t\\t\\t\\t\\t<label class="btn" for="feelinghappy"><i class="icon-thumbs-up"></i> \', escape=False)\nresponse.write(T(\'gef\xc3\xa4llt mir\'))\nresponse.write(\'</label> / \\r\\n\\t\\t\\t\\t\\t\\t\\r\\n\\t\\t\\t\\t\\t\\t<input id="feelingunhappy" type="radio" value="unhappy" name="feeling">\\r\\n\\t\\t\\t\\t\\t\\t<label class="btn" for="feelingunhappy"><i class="icon-thumbs-down"></i> \', escape=False)\nresponse.write(T(\'gef\xc3\xa4llt mir nicht\'))\nresponse.write(\'</label>\\r\\n\\t\\t\\t\\t\\t</div>, \\r\\n\\t\\t\\t\\t\\r\\n\\t\\t\\t\\t\\t\', escape=False)\nresponse.write(T("weil"))\nresponse.write(\' ...\\r\\n\\t\\t\\t\\t\\t\\r\\n\\t\\t\\t\\t\\t<br /><br />\\r\\n\\t\\t\\t\\t\\t\\r\\n\\t\\t\\t\\t\\t\', escape=False)\nresponse.write(form.custom.widget.message)\nresponse.write(\'\\r\\n\\t\\t\\t\\t\\t\\r\\n\\t\\t\\t\\t\\t<small><b><div class="pull-left" id="left_signs">140</div></b></small>\\r\\n\\t\\t\\t\\t\\t<div id="plugin_feedbacks_submit" class="pull-right">\\r\\n\\t\\t\\t\\t\\t\\t<a class="btn btn-small" data-content="\', escape=False)\nresponse.write(T(\'Wir speichern keine pers\xc3\xb6nlichen Daten von Ihnen.\'))\nresponse.write(\'" data-placement="top" rel="popover" href="#" data-original-title="\', escape=False)\nresponse.write(T(\'Information\'))\nresponse.write(\'"><i class="icon-info-sign"></i></a> \\r\\n\\t\\t\\t\\t\\t\\t<input type="submit" value="\', escape=False)\nresponse.write(T(\'Ver\xc3\xb6ffentlichen\'))\nresponse.write(\'" class="btn btn-success" />\\r\\n\\t\\t\\t\\t\\t</div>\\r\\n\\t\\t\\t\\t\\t<div class="clearfix"></div>\\r\\n\\t\\t\\t\\t</div>\\r\\n\\t\\t\\t\\t\\r\\n\\t\\t\\t\\r\\n\\t\\t\\t\', escape=False)\nresponse.write(form.custom.end)\nresponse.write(\'\\r\\n\\t\\t</div>\\r\\n\\t\\t<div class="tab-pane" id="like">\\r\\n\\t\\t\\r\\n\\t\\t\\t<h4>\', escape=False)\nresponse.write(T("Anderen gef\xc3\xa4llt diese Seite, weil ..."))\nresponse.write(\'</h4>\\r\\n\\t\\t\\r\\n\\t\\t\\t\', escape=False)\nfor row in likes:\n    response.write(\'\\r\\n\\t\\t\\t\\t<blockquote>\\r\\n\\t\\t\\t\\t\\t<span>\\r\\n\\t\\t\\t\\t\\t\\t\', escape=False)\n    response.write(T("User sagt:"))\n    response.write(\'<br />\\r\\n\\t\\t\\t\\t\\t\\t<small>\', escape=False)\n    response.write(row.commentdate)\n    response.write(\'</small>\\r\\n\\t\\t\\t\\t\\t</span>\\r\\n\\t\\t\\t\\t\\t<p>\', escape=False)\n    response.write(row.message)\n    response.write(\'</p>\\r\\n\\t\\t\\t\\t\\t<div class="clearfix"></div>\\r\\n\\t\\t\\t\\t</blockquote>\\r\\n\\t\\t\\t\', escape=False)\n    pass\nresponse.write(\'\\r\\n\\t\\t</div>\\r\\n\\t\\t<div class="tab-pane" id="dislike">\\r\\n\\t\\t\\r\\n\\t\\t\\t<h4>\', escape=False)\nresponse.write(T("Anderen gef\xc3\xa4llt diese Seite nicht, weil ..."))\nresponse.write(\'</h4>\\r\\n\\t\\t\\r\\n\\t\\t\\t\', escape=False)\nfor row in dislikes:\n    response.write(\'\\r\\n\\t\\t\\t\\t<blockquote>\\r\\n\\t\\t\\t\\t\\t<span>\\r\\n\\t\\t\\t\\t\\t\\t\', escape=False)\n    response.write(T("User sagt:"))\n    response.write(\'<br />\\r\\n\\t\\t\\t\\t\\t\\t<small>\', escape=False)\n    response.write(row.commentdate)\n    response.write(\'</small>\\r\\n\\t\\t\\t\\t\\t</span>\\r\\n\\t\\t\\t\\t\\t<p>\', escape=False)\n    response.write(row.message)\n    response.write(\'</p>\\r\\n\\t\\t\\t\\t\\t<div class="clearfix"></div>\\r\\n\\t\\t\\t\\t</blockquote>\\r\\n\\t\\t\\t\', escape=False)\n    pass\nresponse.write(\'\\r\\n\\t\\t\\t\\r\\n\\t\\t</div>\\r\\n\\t</div>\\r\\n\\r\\n\\r\\n<script type="text/javascript">\\r\\n\\r\\n\\t$(function() {\\r\\n\\t\\treloadActions();\\r\\n\\t\\t\\r\\n\\t\\t\', escape=False)\nif show_tab == "happy":\n    response.write("\\r\\n\\t\\t$(\'#plugin_feedbacks_tab li:eq(1) a\').tab(\'show\');\\r\\n\\t", escape=False)\nelif show_tab == "unhappy":\n    response.write("\\r\\n\\t\\t$(\'#plugin_feedbacks_tab li:eq(2) a\').tab(\'show\');\\r\\n\\t", escape=False)\n    pass\nresponse.write(\'\\r\\n\\t\\t\\r\\n\\t\\t\\r\\n\\t});\\r\\n\\t\\r\\n\\t\\r\\n</script>\\r\\n\\r\\n</div>\', escape=False)'
p7
sS'snapshot'
p8
(dp9
S'exception'
p10
(dp11
S'__getslice__'
p12
S"<method-wrapper '__getslice__' of exceptions.SyntaxError object>"
p13
sS'text'
p14
S'\'response.write(\\\'\\\\r\\\\n\\\\r\\\\n\\\\r\\\\n\\\\r\\\\n    <ul class="n...b"><i class="icon-comment"></i> \\\', escape=False)\\n\''
p15
sS'__str__'
p16
S"<method-wrapper '__str__' of exceptions.SyntaxError object>"
p17
sS'__reduce__'
p18
S'<built-in method __reduce__ of exceptions.SyntaxError object>'
p19
sS'__dict__'
p20
S'{}'
p21
sS'__sizeof__'
p22
S'<built-in method __sizeof__ of exceptions.SyntaxError object>'
p23
sS'__init__'
p24
S"<method-wrapper '__init__' of exceptions.SyntaxError object>"
p25
sS'__setattr__'
p26
S"<method-wrapper '__setattr__' of exceptions.SyntaxError object>"
p27
sS'__reduce_ex__'
p28
S'<built-in method __reduce_ex__ of exceptions.SyntaxError object>'
p29
sS'__new__'
p30
S'<built-in method __new__ of type object>'
p31
sS'__format__'
p32
S'<built-in method __format__ of exceptions.SyntaxError object>'
p33
sS'__class__'
p34
S"<type 'exceptions.SyntaxError'>"
p35
sS'filename'
p36
S"r'C:\\xampp\\htdocs\\web2py\\applications\\testumgebung\\views\\plugin_feedbacks/feedback.load'"
p37
sS'lineno'
p38
S'9'
sS'msg'
p39
S"'invalid syntax'"
p40
sS'__doc__'
p41
S"'Invalid syntax.'"
p42
sS'__getitem__'
p43
S"<method-wrapper '__getitem__' of exceptions.SyntaxError object>"
p44
sS'__setstate__'
p45
S'<built-in method __setstate__ of exceptions.SyntaxError object>'
p46
sS'__getattribute__'
p47
S"<method-wrapper '__getattribute__' of exceptions.SyntaxError object>"
p48
sS'print_file_and_line'
p49
S'None'
p50
sS'args'
p51
S'(\'invalid syntax\', (r\'C:\\xampp\\htdocs\\web2py\\applications\\testumgebung\\views\\plugin_feedbacks/feedback.load\', 9, 8, \'response.write(\\\'\\\\r\\\\n\\\\r\\\\n\\\\r\\\\n\\\\r\\\\n    <ul class="n...b"><i class="icon-comment"></i> \\\', escape=False)\\n\'))'
p52
sS'__subclasshook__'
p53
S'<built-in method __subclasshook__ of type object>'
p54
sS'offset'
p55
S'8'
sS'__unicode__'
p56
S'<built-in method __unicode__ of exceptions.SyntaxError object>'
p57
sS'__delattr__'
p58
S"<method-wrapper '__delattr__' of exceptions.SyntaxError object>"
p59
sS'__repr__'
p60
S"<method-wrapper '__repr__' of exceptions.SyntaxError object>"
p61
sS'__hash__'
p62
S"<method-wrapper '__hash__' of exceptions.SyntaxError object>"
p63
ssS'evalue'
p64
S'invalid syntax (plugin_feedbacks/feedback.load, line 9)'
p65
sS'request'
p66
ccopy_reg
_reconstructor
p67
(cgluon.html
BEAUTIFY
p68
c__builtin__
object
p69
NtRp70
(dp71
S'attributes'
p72
(dp73
sS'components'
p74
(lp75
g67
(cgluon.html
TABLE
p76
g69
NtRp77
(dp78
g72
(dp79
S'level'
p80
I5
ssS'parent'
p81
Nsg74
(lp82
g67
(cgluon.html
TR
p83
g69
NtRp84
(dp85
g72
(dp86
sg81
g77
sg74
(lp87
g67
(cgluon.html
TD
p88
g69
NtRp89
(dp90
g72
(dp91
S'_style'
p92
S'font-weight:bold;vertical-align:top'
p93
ssg81
g84
sg74
(lp94
S'ajax'
p95
asbag67
(g88
g69
NtRp96
(dp97
g72
(dp98
S'_valign'
p99
S'top'
p100
ssg81
g84
sg74
(lp101
S':'
asbag67
(g88
g69
NtRp102
(dp103
g72
(dp104
sg81
g84
sg74
(lp105
g67
(g68
g69
NtRp106
(dp107
g72
(dp108
g80
I5
ssg81
g102
sg74
(lp109
S'True'
p110
asbasbasbag67
(g83
g69
NtRp111
(dp112
g72
(dp113
sg81
g77
sg74
(lp114
g67
(g88
g69
NtRp115
(dp116
g72
(dp117
g92
g93
ssg81
g111
sg74
(lp118
S'application'
p119
asbag67
(g88
g69
NtRp120
(dp121
g72
(dp122
g99
g100
ssg81
g111
sg74
(lp123
S':'
asbag67
(g88
g69
NtRp124
(dp125
g72
(dp126
sg81
g111
sg74
(lp127
g67
(g68
g69
NtRp128
(dp129
g72
(dp130
g80
I5
ssg81
g124
sg74
(lp131
S'testumgebung'
p132
asbasbasbag67
(g83
g69
NtRp133
(dp134
g72
(dp135
sg81
g77
sg74
(lp136
g67
(g88
g69
NtRp137
(dp138
g72
(dp139
g92
g93
ssg81
g133
sg74
(lp140
g51
asbag67
(g88
g69
NtRp141
(dp142
g72
(dp143
g99
g100
ssg81
g133
sg74
(lp144
S':'
asbag67
(g88
g69
NtRp145
(dp146
g72
(dp147
sg81
g133
sg74
(lp148
g67
(g68
g69
NtRp149
(dp150
g72
(dp151
g80
I5
ssg81
g145
sg74
(lp152
g67
(g76
g69
NtRp153
(dp154
g72
(dp155
g80
I4
ssg81
Nsg74
(lp156
sbasbasbasbag67
(g83
g69
NtRp157
(dp158
g72
(dp159
sg81
g77
sg74
(lp160
g67
(g88
g69
NtRp161
(dp162
g72
(dp163
g92
g93
ssg81
g157
sg74
(lp164
S'body'
p165
asbag67
(g88
g69
NtRp166
(dp167
g72
(dp168
g99
g100
ssg81
g157
sg74
(lp169
S':'
asbag67
(g88
g69
NtRp170
(dp171
g72
(dp172
sg81
g157
sg74
(lp173
g67
(g68
g69
NtRp174
(dp175
g72
(dp176
g80
I5
ssg81
g170
sg74
(lp177
S'<cStringIO.StringO object at 0x034E8520>'
p178
asbasbasbag67
(g83
g69
NtRp179
(dp180
g72
(dp181
sg81
g77
sg74
(lp182
g67
(g88
g69
NtRp183
(dp184
g72
(dp185
g92
g93
ssg81
g179
sg74
(lp186
S'cid'
p187
asbag67
(g88
g69
NtRp188
(dp189
g72
(dp190
g99
g100
ssg81
g179
sg74
(lp191
S':'
asbag67
(g88
g69
NtRp192
(dp193
g72
(dp194
sg81
g179
sg74
(lp195
g67
(g68
g69
NtRp196
(dp197
g72
(dp198
g80
I5
ssg81
g192
sg74
(lp199
S'c097977997705'
p200
asbasbasbag67
(g83
g69
NtRp201
(dp202
g72
(dp203
sg81
g77
sg74
(lp204
g67
(g88
g69
NtRp205
(dp206
g72
(dp207
g92
g93
ssg81
g201
sg74
(lp208
S'client'
p209
asbag67
(g88
g69
NtRp210
(dp211
g72
(dp212
g99
g100
ssg81
g201
sg74
(lp213
S':'
asbag67
(g88
g69
NtRp214
(dp215
g72
(dp216
sg81
g201
sg74
(lp217
g67
(g68
g69
NtRp218
(dp219
g72
(dp220
g80
I5
ssg81
g214
sg74
(lp221
S'127.0.0.1'
p222
asbasbasbag67
(g83
g69
NtRp223
(dp224
g72
(dp225
sg81
g77
sg74
(lp226
g67
(g88
g69
NtRp227
(dp228
g72
(dp229
g92
g93
ssg81
g223
sg74
(lp230
S'controller'
p231
asbag67
(g88
g69
NtRp232
(dp233
g72
(dp234
g99
g100
ssg81
g223
sg74
(lp235
S':'
asbag67
(g88
g69
NtRp236
(dp237
g72
(dp238
sg81
g223
sg74
(lp239
g67
(g68
g69
NtRp240
(dp241
g72
(dp242
g80
I5
ssg81
g236
sg74
(lp243
S'plugin_feedbacks'
p244
asbasbasbag67
(g83
g69
NtRp245
(dp246
g72
(dp247
sg81
g77
sg74
(lp248
g67
(g88
g69
NtRp249
(dp250
g72
(dp251
g92
g93
ssg81
g245
sg74
(lp252
S'cookies'
p253
asbag67
(g88
g69
NtRp254
(dp255
g72
(dp256
g99
g100
ssg81
g245
sg74
(lp257
S':'
asbag67
(g88
g69
NtRp258
(dp259
g72
(dp260
sg81
g245
sg74
(lp261
g67
(g68
g69
NtRp262
(dp263
g72
(dp264
g80
I5
ssg81
g258
sg74
(lp265
g67
(g76
g69
NtRp266
(dp267
g72
(dp268
g80
I4
ssg81
Nsg74
(lp269
g67
(g83
g69
NtRp270
(dp271
g72
(dp272
sg81
g266
sg74
(lp273
g67
(g88
g69
NtRp274
(dp275
g72
(dp276
g92
g93
ssg81
g270
sg74
(lp277
S'session_id_admin'
p278
asbag67
(g88
g69
NtRp279
(dp280
g72
(dp281
g99
g100
ssg81
g270
sg74
(lp282
S':'
asbag67
(g88
g69
NtRp283
(dp284
g72
(dp285
sg81
g270
sg74
(lp286
g67
(g68
g69
NtRp287
(dp288
g72
(dp289
g80
I4
ssg81
g283
sg74
(lp290
S'127.0.0.1-75c713f7-cbde-478e-9eb0-8602d2ac1f92'
p291
ag67
(g76
g69
NtRp292
(dp293
g72
(dp294
g80
I3
ssg81
Nsg74
(lp295
g67
(g83
g69
NtRp296
(dp297
g72
(dp298
sg81
g292
sg74
(lp299
g67
(g88
g69
NtRp300
(dp301
g72
(dp302
g92
g93
ssg81
g296
sg74
(lp303
S'comment'
p304
asbag67
(g88
g69
NtRp305
(dp306
g72
(dp307
g99
g100
ssg81
g296
sg74
(lp308
S':'
asbag67
(g88
g69
NtRp309
(dp310
g72
(dp311
sg81
g296
sg74
(lp312
g67
(g68
g69
NtRp313
(dp314
g72
(dp315
g80
I3
ssg81
g309
sg74
(lp316
S''
asbasbasbag67
(g83
g69
NtRp317
(dp318
g72
(dp319
sg81
g292
sg74
(lp320
g67
(g88
g69
NtRp321
(dp322
g72
(dp323
g92
g93
ssg81
g317
sg74
(lp324
S'domain'
p325
asbag67
(g88
g69
NtRp326
(dp327
g72
(dp328
g99
g100
ssg81
g317
sg74
(lp329
S':'
asbag67
(g88
g69
NtRp330
(dp331
g72
(dp332
sg81
g317
sg74
(lp333
g67
(g68
g69
NtRp334
(dp335
g72
(dp336
g80
I3
ssg81
g330
sg74
(lp337
S''
asbasbasbag67
(g83
g69
NtRp338
(dp339
g72
(dp340
sg81
g292
sg74
(lp341
g67
(g88
g69
NtRp342
(dp343
g72
(dp344
g92
g93
ssg81
g338
sg74
(lp345
S'expires'
p346
asbag67
(g88
g69
NtRp347
(dp348
g72
(dp349
g99
g100
ssg81
g338
sg74
(lp350
S':'
asbag67
(g88
g69
NtRp351
(dp352
g72
(dp353
sg81
g338
sg74
(lp354
g67
(g68
g69
NtRp355
(dp356
g72
(dp357
g80
I3
ssg81
g351
sg74
(lp358
S''
asbasbasbag67
(g83
g69
NtRp359
(dp360
g72
(dp361
sg81
g292
sg74
(lp362
g67
(g88
g69
NtRp363
(dp364
g72
(dp365
g92
g93
ssg81
g359
sg74
(lp366
S'httponly'
p367
asbag67
(g88
g69
NtRp368
(dp369
g72
(dp370
g99
g100
ssg81
g359
sg74
(lp371
S':'
asbag67
(g88
g69
NtRp372
(dp373
g72
(dp374
sg81
g359
sg74
(lp375
g67
(g68
g69
NtRp376
(dp377
g72
(dp378
g80
I3
ssg81
g372
sg74
(lp379
S''
asbasbasbag67
(g83
g69
NtRp380
(dp381
g72
(dp382
sg81
g292
sg74
(lp383
g67
(g88
g69
NtRp384
(dp385
g72
(dp386
g92
g93
ssg81
g380
sg74
(lp387
S'max-age'
p388
asbag67
(g88
g69
NtRp389
(dp390
g72
(dp391
g99
g100
ssg81
g380
sg74
(lp392
S':'
asbag67
(g88
g69
NtRp393
(dp394
g72
(dp395
sg81
g380
sg74
(lp396
g67
(g68
g69
NtRp397
(dp398
g72
(dp399
g80
I3
ssg81
g393
sg74
(lp400
S''
asbasbasbag67
(g83
g69
NtRp401
(dp402
g72
(dp403
sg81
g292
sg74
(lp404
g67
(g88
g69
NtRp405
(dp406
g72
(dp407
g92
g93
ssg81
g401
sg74
(lp408
S'path'
p409
asbag67
(g88
g69
NtRp410
(dp411
g72
(dp412
g99
g100
ssg81
g401
sg74
(lp413
S':'
asbag67
(g88
g69
NtRp414
(dp415
g72
(dp416
sg81
g401
sg74
(lp417
g67
(g68
g69
NtRp418
(dp419
g72
(dp420
g80
I3
ssg81
g414
sg74
(lp421
S''
asbasbasbag67
(g83
g69
NtRp422
(dp423
g72
(dp424
sg81
g292
sg74
(lp425
g67
(g88
g69
NtRp426
(dp427
g72
(dp428
g92
g93
ssg81
g422
sg74
(lp429
S'secure'
p430
asbag67
(g88
g69
NtRp431
(dp432
g72
(dp433
g99
g100
ssg81
g422
sg74
(lp434
S':'
asbag67
(g88
g69
NtRp435
(dp436
g72
(dp437
sg81
g422
sg74
(lp438
g67
(g68
g69
NtRp439
(dp440
g72
(dp441
g80
I3
ssg81
g435
sg74
(lp442
S''
asbasbasbag67
(g83
g69
NtRp443
(dp444
g72
(dp445
sg81
g292
sg74
(lp446
g67
(g88
g69
NtRp447
(dp448
g72
(dp449
g92
g93
ssg81
g443
sg74
(lp450
S'version'
p451
asbag67
(g88
g69
NtRp452
(dp453
g72
(dp454
g99
g100
ssg81
g443
sg74
(lp455
S':'
asbag67
(g88
g69
NtRp456
(dp457
g72
(dp458
sg81
g443
sg74
(lp459
g67
(g68
g69
NtRp460
(dp461
g72
(dp462
g80
I3
ssg81
g456
sg74
(lp463
S''
asbasbasbasbasbasbasbag67
(g83
g69
NtRp464
(dp465
g72
(dp466
sg81
g266
sg74
(lp467
g67
(g88
g69
NtRp468
(dp469
g72
(dp470
g92
g93
ssg81
g464
sg74
(lp471
S'session_id_testumgebung'
p472
asbag67
(g88
g69
NtRp473
(dp474
g72
(dp475
g99
g100
ssg81
g464
sg74
(lp476
S':'
asbag67
(g88
g69
NtRp477
(dp478
g72
(dp479
sg81
g464
sg74
(lp480
g67
(g68
g69
NtRp481
(dp482
g72
(dp483
g80
I4
ssg81
g477
sg74
(lp484
S'127.0.0.1-90677836-87e3-4573-bd9a-704b577fb384'
p485
ag67
(g76
g69
NtRp486
(dp487
g72
(dp488
g80
I3
ssg81
Nsg74
(lp489
g67
(g83
g69
NtRp490
(dp491
g72
(dp492
sg81
g486
sg74
(lp493
g67
(g88
g69
NtRp494
(dp495
g72
(dp496
g92
g93
ssg81
g490
sg74
(lp497
g304
asbag67
(g88
g69
NtRp498
(dp499
g72
(dp500
g99
g100
ssg81
g490
sg74
(lp501
S':'
asbag67
(g88
g69
NtRp502
(dp503
g72
(dp504
sg81
g490
sg74
(lp505
g67
(g68
g69
NtRp506
(dp507
g72
(dp508
g80
I3
ssg81
g502
sg74
(lp509
S''
asbasbasbag67
(g83
g69
NtRp510
(dp511
g72
(dp512
sg81
g486
sg74
(lp513
g67
(g88
g69
NtRp514
(dp515
g72
(dp516
g92
g93
ssg81
g510
sg74
(lp517
g325
asbag67
(g88
g69
NtRp518
(dp519
g72
(dp520
g99
g100
ssg81
g510
sg74
(lp521
S':'
asbag67
(g88
g69
NtRp522
(dp523
g72
(dp524
sg81
g510
sg74
(lp525
g67
(g68
g69
NtRp526
(dp527
g72
(dp528
g80
I3
ssg81
g522
sg74
(lp529
S''
asbasbasbag67
(g83
g69
NtRp530
(dp531
g72
(dp532
sg81
g486
sg74
(lp533
g67
(g88
g69
NtRp534
(dp535
g72
(dp536
g92
g93
ssg81
g530
sg74
(lp537
g346
asbag67
(g88
g69
NtRp538
(dp539
g72
(dp540
g99
g100
ssg81
g530
sg74
(lp541
S':'
asbag67
(g88
g69
NtRp542
(dp543
g72
(dp544
sg81
g530
sg74
(lp545
g67
(g68
g69
NtRp546
(dp547
g72
(dp548
g80
I3
ssg81
g542
sg74
(lp549
S''
asbasbasbag67
(g83
g69
NtRp550
(dp551
g72
(dp552
sg81
g486
sg74
(lp553
g67
(g88
g69
NtRp554
(dp555
g72
(dp556
g92
g93
ssg81
g550
sg74
(lp557
g367
asbag67
(g88
g69
NtRp558
(dp559
g72
(dp560
g99
g100
ssg81
g550
sg74
(lp561
S':'
asbag67
(g88
g69
NtRp562
(dp563
g72
(dp564
sg81
g550
sg74
(lp565
g67
(g68
g69
NtRp566
(dp567
g72
(dp568
g80
I3
ssg81
g562
sg74
(lp569
S''
asbasbasbag67
(g83
g69
NtRp570
(dp571
g72
(dp572
sg81
g486
sg74
(lp573
g67
(g88
g69
NtRp574
(dp575
g72
(dp576
g92
g93
ssg81
g570
sg74
(lp577
g388
asbag67
(g88
g69
NtRp578
(dp579
g72
(dp580
g99
g100
ssg81
g570
sg74
(lp581
S':'
asbag67
(g88
g69
NtRp582
(dp583
g72
(dp584
sg81
g570
sg74
(lp585
g67
(g68
g69
NtRp586
(dp587
g72
(dp588
g80
I3
ssg81
g582
sg74
(lp589
S''
asbasbasbag67
(g83
g69
NtRp590
(dp591
g72
(dp592
sg81
g486
sg74
(lp593
g67
(g88
g69
NtRp594
(dp595
g72
(dp596
g92
g93
ssg81
g590
sg74
(lp597
g409
asbag67
(g88
g69
NtRp598
(dp599
g72
(dp600
g99
g100
ssg81
g590
sg74
(lp601
S':'
asbag67
(g88
g69
NtRp602
(dp603
g72
(dp604
sg81
g590
sg74
(lp605
g67
(g68
g69
NtRp606
(dp607
g72
(dp608
g80
I3
ssg81
g602
sg74
(lp609
S''
asbasbasbag67
(g83
g69
NtRp610
(dp611
g72
(dp612
sg81
g486
sg74
(lp613
g67
(g88
g69
NtRp614
(dp615
g72
(dp616
g92
g93
ssg81
g610
sg74
(lp617
g430
asbag67
(g88
g69
NtRp618
(dp619
g72
(dp620
g99
g100
ssg81
g610
sg74
(lp621
S':'
asbag67
(g88
g69
NtRp622
(dp623
g72
(dp624
sg81
g610
sg74
(lp625
g67
(g68
g69
NtRp626
(dp627
g72
(dp628
g80
I3
ssg81
g622
sg74
(lp629
S''
asbasbasbag67
(g83
g69
NtRp630
(dp631
g72
(dp632
sg81
g486
sg74
(lp633
g67
(g88
g69
NtRp634
(dp635
g72
(dp636
g92
g93
ssg81
g630
sg74
(lp637
g451
asbag67
(g88
g69
NtRp638
(dp639
g72
(dp640
g99
g100
ssg81
g630
sg74
(lp641
S':'
asbag67
(g88
g69
NtRp642
(dp643
g72
(dp644
sg81
g630
sg74
(lp645
g67
(g68
g69
NtRp646
(dp647
g72
(dp648
g80
I3
ssg81
g642
sg74
(lp649
S''
asbasbasbasbasbasbasbag67
(g83
g69
NtRp650
(dp651
g72
(dp652
sg81
g266
sg74
(lp653
g67
(g88
g69
NtRp654
(dp655
g72
(dp656
g92
g93
ssg81
g650
sg74
(lp657
S'session_id_welcome'
p658
asbag67
(g88
g69
NtRp659
(dp660
g72
(dp661
g99
g100
ssg81
g650
sg74
(lp662
S':'
asbag67
(g88
g69
NtRp663
(dp664
g72
(dp665
sg81
g650
sg74
(lp666
g67
(g68
g69
NtRp667
(dp668
g72
(dp669
g80
I4
ssg81
g663
sg74
(lp670
S'127.0.0.1-0257bf03-f9f4-4cfd-a327-b5a596d499ec'
p671
ag67
(g76
g69
NtRp672
(dp673
g72
(dp674
g80
I3
ssg81
Nsg74
(lp675
g67
(g83
g69
NtRp676
(dp677
g72
(dp678
sg81
g672
sg74
(lp679
g67
(g88
g69
NtRp680
(dp681
g72
(dp682
g92
g93
ssg81
g676
sg74
(lp683
g304
asbag67
(g88
g69
NtRp684
(dp685
g72
(dp686
g99
g100
ssg81
g676
sg74
(lp687
S':'
asbag67
(g88
g69
NtRp688
(dp689
g72
(dp690
sg81
g676
sg74
(lp691
g67
(g68
g69
NtRp692
(dp693
g72
(dp694
g80
I3
ssg81
g688
sg74
(lp695
S''
asbasbasbag67
(g83
g69
NtRp696
(dp697
g72
(dp698
sg81
g672
sg74
(lp699
g67
(g88
g69
NtRp700
(dp701
g72
(dp702
g92
g93
ssg81
g696
sg74
(lp703
g325
asbag67
(g88
g69
NtRp704
(dp705
g72
(dp706
g99
g100
ssg81
g696
sg74
(lp707
S':'
asbag67
(g88
g69
NtRp708
(dp709
g72
(dp710
sg81
g696
sg74
(lp711
g67
(g68
g69
NtRp712
(dp713
g72
(dp714
g80
I3
ssg81
g708
sg74
(lp715
S''
asbasbasbag67
(g83
g69
NtRp716
(dp717
g72
(dp718
sg81
g672
sg74
(lp719
g67
(g88
g69
NtRp720
(dp721
g72
(dp722
g92
g93
ssg81
g716
sg74
(lp723
g346
asbag67
(g88
g69
NtRp724
(dp725
g72
(dp726
g99
g100
ssg81
g716
sg74
(lp727
S':'
asbag67
(g88
g69
NtRp728
(dp729
g72
(dp730
sg81
g716
sg74
(lp731
g67
(g68
g69
NtRp732
(dp733
g72
(dp734
g80
I3
ssg81
g728
sg74
(lp735
S''
asbasbasbag67
(g83
g69
NtRp736
(dp737
g72
(dp738
sg81
g672
sg74
(lp739
g67
(g88
g69
NtRp740
(dp741
g72
(dp742
g92
g93
ssg81
g736
sg74
(lp743
g367
asbag67
(g88
g69
NtRp744
(dp745
g72
(dp746
g99
g100
ssg81
g736
sg74
(lp747
S':'
asbag67
(g88
g69
NtRp748
(dp749
g72
(dp750
sg81
g736
sg74
(lp751
g67
(g68
g69
NtRp752
(dp753
g72
(dp754
g80
I3
ssg81
g748
sg74
(lp755
S''
asbasbasbag67
(g83
g69
NtRp756
(dp757
g72
(dp758
sg81
g672
sg74
(lp759
g67
(g88
g69
NtRp760
(dp761
g72
(dp762
g92
g93
ssg81
g756
sg74
(lp763
g388
asbag67
(g88
g69
NtRp764
(dp765
g72
(dp766
g99
g100
ssg81
g756
sg74
(lp767
S':'
asbag67
(g88
g69
NtRp768
(dp769
g72
(dp770
sg81
g756
sg74
(lp771
g67
(g68
g69
NtRp772
(dp773
g72
(dp774
g80
I3
ssg81
g768
sg74
(lp775
S''
asbasbasbag67
(g83
g69
NtRp776
(dp777
g72
(dp778
sg81
g672
sg74
(lp779
g67
(g88
g69
NtRp780
(dp781
g72
(dp782
g92
g93
ssg81
g776
sg74
(lp783
g409
asbag67
(g88
g69
NtRp784
(dp785
g72
(dp786
g99
g100
ssg81
g776
sg74
(lp787
S':'
asbag67
(g88
g69
NtRp788
(dp789
g72
(dp790
sg81
g776
sg74
(lp791
g67
(g68
g69
NtRp792
(dp793
g72
(dp794
g80
I3
ssg81
g788
sg74
(lp795
S''
asbasbasbag67
(g83
g69
NtRp796
(dp797
g72
(dp798
sg81
g672
sg74
(lp799
g67
(g88
g69
NtRp800
(dp801
g72
(dp802
g92
g93
ssg81
g796
sg74
(lp803
g430
asbag67
(g88
g69
NtRp804
(dp805
g72
(dp806
g99
g100
ssg81
g796
sg74
(lp807
S':'
asbag67
(g88
g69
NtRp808
(dp809
g72
(dp810
sg81
g796
sg74
(lp811
g67
(g68
g69
NtRp812
(dp813
g72
(dp814
g80
I3
ssg81
g808
sg74
(lp815
S''
asbasbasbag67
(g83
g69
NtRp816
(dp817
g72
(dp818
sg81
g672
sg74
(lp819
g67
(g88
g69
NtRp820
(dp821
g72
(dp822
g92
g93
ssg81
g816
sg74
(lp823
g451
asbag67
(g88
g69
NtRp824
(dp825
g72
(dp826
g99
g100
ssg81
g816
sg74
(lp827
S':'
asbag67
(g88
g69
NtRp828
(dp829
g72
(dp830
sg81
g816
sg74
(lp831
g67
(g68
g69
NtRp832
(dp833
g72
(dp834
g80
I3
ssg81
g828
sg74
(lp835
S''
asbasbasbasbasbasbasbasbasbasbasbag67
(g83
g69
NtRp836
(dp837
g72
(dp838
sg81
g77
sg74
(lp839
g67
(g88
g69
NtRp840
(dp841
g72
(dp842
g92
g93
ssg81
g836
sg74
(lp843
S'env'
p844
asbag67
(g88
g69
NtRp845
(dp846
g72
(dp847
g99
g100
ssg81
g836
sg74
(lp848
S':'
asbag67
(g88
g69
NtRp849
(dp850
g72
(dp851
sg81
g836
sg74
(lp852
g67
(g68
g69
NtRp853
(dp854
g72
(dp855
g80
I5
ssg81
g849
sg74
(lp856
g67
(g76
g69
NtRp857
(dp858
g72
(dp859
g80
I4
ssg81
Nsg74
(lp860
g67
(g83
g69
NtRp861
(dp862
g72
(dp863
sg81
g857
sg74
(lp864
g67
(g88
g69
NtRp865
(dp866
g72
(dp867
g92
g93
ssg81
g861
sg74
(lp868
S'app_folders'
p869
asbag67
(g88
g69
NtRp870
(dp871
g72
(dp872
g99
g100
ssg81
g861
sg74
(lp873
S':'
asbag67
(g88
g69
NtRp874
(dp875
g72
(dp876
sg81
g861
sg74
(lp877
g67
(g68
g69
NtRp878
(dp879
g72
(dp880
g80
I4
ssg81
g874
sg74
(lp881
S"set(['C:\\\\xampp\\\\htdocs\\\\web2py\\\\applications\\\\kieva\\\\', 'C:\\\\xampp\\\\htdocs\\\\web2py\\\\applications\\\\admin\\\\', 'C:\\\\xampp\\\\htdocs\\\\web2py\\\\applications\\\\welcome\\\\', 'C:\\\\xampp\\\\htdocs\\\\web2py\\\\applications\\\\testumgebung\\\\'])"
p882
asbasbasbag67
(g83
g69
NtRp883
(dp884
g72
(dp885
sg81
g857
sg74
(lp886
g67
(g88
g69
NtRp887
(dp888
g72
(dp889
g92
g93
ssg81
g883
sg74
(lp890
S'applications_parent'
p891
asbag67
(g88
g69
NtRp892
(dp893
g72
(dp894
g99
g100
ssg81
g883
sg74
(lp895
S':'
asbag67
(g88
g69
NtRp896
(dp897
g72
(dp898
sg81
g883
sg74
(lp899
g67
(g68
g69
NtRp900
(dp901
g72
(dp902
g80
I4
ssg81
g896
sg74
(lp903
S'C:\\xampp\\htdocs\\web2py'
p904
asbasbasbag67
(g83
g69
NtRp905
(dp906
g72
(dp907
sg81
g857
sg74
(lp908
g67
(g88
g69
NtRp909
(dp910
g72
(dp911
g92
g93
ssg81
g905
sg74
(lp912
S'cmd_args'
p913
asbag67
(g88
g69
NtRp914
(dp915
g72
(dp916
g99
g100
ssg81
g905
sg74
(lp917
S':'
asbag67
(g88
g69
NtRp918
(dp919
g72
(dp920
sg81
g905
sg74
(lp921
g67
(g68
g69
NtRp922
(dp923
g72
(dp924
g80
I4
ssg81
g918
sg74
(lp925
g67
(g76
g69
NtRp926
(dp927
g72
(dp928
g80
I3
ssg81
Nsg74
(lp929
sbasbasbasbag67
(g83
g69
NtRp930
(dp931
g72
(dp932
sg81
g857
sg74
(lp933
g67
(g88
g69
NtRp934
(dp935
g72
(dp936
g92
g93
ssg81
g930
sg74
(lp937
S'cmd_options'
p938
asbag67
(g88
g69
NtRp939
(dp940
g72
(dp941
g99
g100
ssg81
g930
sg74
(lp942
S':'
asbag67
(g88
g69
NtRp943
(dp944
g72
(dp945
sg81
g930
sg74
(lp946
g67
(g68
g69
NtRp947
(dp948
g72
(dp949
g80
I4
ssg81
g943
sg74
(lp950
S"<Values at 0x31dee18: {'verbose': False, 'ip': '127.0.0.1', 'with_scheduler': False, 'ips': ['10.0.0.109', '192.168.189.1', '192.168.91.1'], 'shutdown_timeout': 5, 'taskbar': False, 'port': 8000, 'maxthreads': None, 'softcron': False, 'server_name': 'swLaptop', 'bpython': False, 'nogui': False, 'nocron': False, 'extcron': False, 'run_system_tests': False, 'test': None, 'folder': 'C:\\\\xampp\\\\htdocs\\\\web2py', 'config': '', 'import_models': False, 'winservice': '', 'shell': None, 'run': '', 'log_filename': 'httpserver.log', 'debuglevel': 30, 'args': [''], 'socket_timeout': 5, 'ssl_ca_certificate': None, 'scheduler': None, 'profiler_filename': None, 'ssl_private_key': '', 'scheduler_groups': None, 'password': '<ask>', 'request_queue_size': 5, 'ssl_certificate': '', 'cronjob': False, 'numthreads': None, 'quiet': False, 'interfaces': None, 'minthreads': None, 'timeout': 10, 'plain': False, 'nobanner': False, 'pid_filename': 'httpserver.pid'}>"
p951
asbasbasbag67
(g83
g69
NtRp952
(dp953
g72
(dp954
sg81
g857
sg74
(lp955
g67
(g88
g69
NtRp956
(dp957
g72
(dp958
g92
g93
ssg81
g952
sg74
(lp959
S'db_sessions'
p960
asbag67
(g88
g69
NtRp961
(dp962
g72
(dp963
g99
g100
ssg81
g952
sg74
(lp964
S':'
asbag67
(g88
g69
NtRp965
(dp966
g72
(dp967
sg81
g952
sg74
(lp968
g67
(g68
g69
NtRp969
(dp970
g72
(dp971
g80
I4
ssg81
g965
sg74
(lp972
S'set([])'
p973
asbasbasbag67
(g83
g69
NtRp974
(dp975
g72
(dp976
sg81
g857
sg74
(lp977
g67
(g88
g69
NtRp978
(dp979
g72
(dp980
g92
g93
ssg81
g974
sg74
(lp981
S'debugging'
p982
asbag67
(g88
g69
NtRp983
(dp984
g72
(dp985
g99
g100
ssg81
g974
sg74
(lp986
S':'
asbag67
(g88
g69
NtRp987
(dp988
g72
(dp989
sg81
g974
sg74
(lp990
g67
(g68
g69
NtRp991
(dp992
g72
(dp993
g80
I4
ssg81
g987
sg74
(lp994
S'False'
p995
asbasbasbag67
(g83
g69
NtRp996
(dp997
g72
(dp998
sg81
g857
sg74
(lp999
g67
(g88
g69
NtRp1000
(dp1001
g72
(dp1002
g92
g93
ssg81
g996
sg74
(lp1003
S'gluon_parent'
p1004
asbag67
(g88
g69
NtRp1005
(dp1006
g72
(dp1007
g99
g100
ssg81
g996
sg74
(lp1008
S':'
asbag67
(g88
g69
NtRp1009
(dp1010
g72
(dp1011
sg81
g996
sg74
(lp1012
g67
(g68
g69
NtRp1013
(dp1014
g72
(dp1015
g80
I4
ssg81
g1009
sg74
(lp1016
S'C:\\xampp\\htdocs\\web2py'
p1017
asbasbasbag67
(g83
g69
NtRp1018
(dp1019
g72
(dp1020
sg81
g857
sg74
(lp1021
g67
(g88
g69
NtRp1022
(dp1023
g72
(dp1024
g92
g93
ssg81
g1018
sg74
(lp1025
S'http_accept'
p1026
asbag67
(g88
g69
NtRp1027
(dp1028
g72
(dp1029
g99
g100
ssg81
g1018
sg74
(lp1030
S':'
asbag67
(g88
g69
NtRp1031
(dp1032
g72
(dp1033
sg81
g1018
sg74
(lp1034
g67
(g68
g69
NtRp1035
(dp1036
g72
(dp1037
g80
I4
ssg81
g1031
sg74
(lp1038
S'*/*'
p1039
asbasbasbag67
(g83
g69
NtRp1040
(dp1041
g72
(dp1042
sg81
g857
sg74
(lp1043
g67
(g88
g69
NtRp1044
(dp1045
g72
(dp1046
g92
g93
ssg81
g1040
sg74
(lp1047
S'http_accept_encoding'
p1048
asbag67
(g88
g69
NtRp1049
(dp1050
g72
(dp1051
g99
g100
ssg81
g1040
sg74
(lp1052
S':'
asbag67
(g88
g69
NtRp1053
(dp1054
g72
(dp1055
sg81
g1040
sg74
(lp1056
g67
(g68
g69
NtRp1057
(dp1058
g72
(dp1059
g80
I4
ssg81
g1053
sg74
(lp1060
S'gzip, deflate'
p1061
asbasbasbag67
(g83
g69
NtRp1062
(dp1063
g72
(dp1064
sg81
g857
sg74
(lp1065
g67
(g88
g69
NtRp1066
(dp1067
g72
(dp1068
g92
g93
ssg81
g1062
sg74
(lp1069
S'http_accept_language'
p1070
asbag67
(g88
g69
NtRp1071
(dp1072
g72
(dp1073
g99
g100
ssg81
g1062
sg74
(lp1074
S':'
asbag67
(g88
g69
NtRp1075
(dp1076
g72
(dp1077
sg81
g1062
sg74
(lp1078
g67
(g68
g69
NtRp1079
(dp1080
g72
(dp1081
g80
I4
ssg81
g1075
sg74
(lp1082
S'de-de,de;q=0.8,en-us;q=0.5,en;q=0.3'
p1083
asbasbasbag67
(g83
g69
NtRp1084
(dp1085
g72
(dp1086
sg81
g857
sg74
(lp1087
g67
(g88
g69
NtRp1088
(dp1089
g72
(dp1090
g92
g93
ssg81
g1084
sg74
(lp1091
S'http_cache_control'
p1092
asbag67
(g88
g69
NtRp1093
(dp1094
g72
(dp1095
g99
g100
ssg81
g1084
sg74
(lp1096
S':'
asbag67
(g88
g69
NtRp1097
(dp1098
g72
(dp1099
sg81
g1084
sg74
(lp1100
g67
(g68
g69
NtRp1101
(dp1102
g72
(dp1103
g80
I4
ssg81
g1097
sg74
(lp1104
S'max-age=0'
p1105
asbasbasbag67
(g83
g69
NtRp1106
(dp1107
g72
(dp1108
sg81
g857
sg74
(lp1109
g67
(g88
g69
NtRp1110
(dp1111
g72
(dp1112
g92
g93
ssg81
g1106
sg74
(lp1113
S'http_connection'
p1114
asbag67
(g88
g69
NtRp1115
(dp1116
g72
(dp1117
g99
g100
ssg81
g1106
sg74
(lp1118
S':'
asbag67
(g88
g69
NtRp1119
(dp1120
g72
(dp1121
sg81
g1106
sg74
(lp1122
g67
(g68
g69
NtRp1123
(dp1124
g72
(dp1125
g80
I4
ssg81
g1119
sg74
(lp1126
S'keep-alive'
p1127
asbasbasbag67
(g83
g69
NtRp1128
(dp1129
g72
(dp1130
sg81
g857
sg74
(lp1131
g67
(g88
g69
NtRp1132
(dp1133
g72
(dp1134
g92
g93
ssg81
g1128
sg74
(lp1135
S'http_cookie'
p1136
asbag67
(g88
g69
NtRp1137
(dp1138
g72
(dp1139
g99
g100
ssg81
g1128
sg74
(lp1140
S':'
asbag67
(g88
g69
NtRp1141
(dp1142
g72
(dp1143
sg81
g1128
sg74
(lp1144
g67
(g68
g69
NtRp1145
(dp1146
g72
(dp1147
g80
I4
ssg81
g1141
sg74
(lp1148
S'session_id_welcome=127.0.0.1-0257bf03-f9f4-4cfd-a327-b5a596d499ec; session_id_testumgebung=127.0.0.1-90677836-87e3-4573-bd9a-704b577fb384; session_id_admin=127.0.0.1-75c713f7-cbde-478e-9eb0-8602d2ac1f92'
p1149
asbasbasbag67
(g83
g69
NtRp1150
(dp1151
g72
(dp1152
sg81
g857
sg74
(lp1153
g67
(g88
g69
NtRp1154
(dp1155
g72
(dp1156
g92
g93
ssg81
g1150
sg74
(lp1157
S'http_dnt'
p1158
asbag67
(g88
g69
NtRp1159
(dp1160
g72
(dp1161
g99
g100
ssg81
g1150
sg74
(lp1162
S':'
asbag67
(g88
g69
NtRp1163
(dp1164
g72
(dp1165
sg81
g1150
sg74
(lp1166
g67
(g68
g69
NtRp1167
(dp1168
g72
(dp1169
g80
I4
ssg81
g1163
sg74
(lp1170
S'1'
asbasbasbag67
(g83
g69
NtRp1171
(dp1172
g72
(dp1173
sg81
g857
sg74
(lp1174
g67
(g88
g69
NtRp1175
(dp1176
g72
(dp1177
g92
g93
ssg81
g1171
sg74
(lp1178
S'http_host'
p1179
asbag67
(g88
g69
NtRp1180
(dp1181
g72
(dp1182
g99
g100
ssg81
g1171
sg74
(lp1183
S':'
asbag67
(g88
g69
NtRp1184
(dp1185
g72
(dp1186
sg81
g1171
sg74
(lp1187
g67
(g68
g69
NtRp1188
(dp1189
g72
(dp1190
g80
I4
ssg81
g1184
sg74
(lp1191
S'127.0.0.1:8000'
p1192
asbasbasbag67
(g83
g69
NtRp1193
(dp1194
g72
(dp1195
sg81
g857
sg74
(lp1196
g67
(g88
g69
NtRp1197
(dp1198
g72
(dp1199
g92
g93
ssg81
g1193
sg74
(lp1200
S'http_referer'
p1201
asbag67
(g88
g69
NtRp1202
(dp1203
g72
(dp1204
g99
g100
ssg81
g1193
sg74
(lp1205
S':'
asbag67
(g88
g69
NtRp1206
(dp1207
g72
(dp1208
sg81
g1193
sg74
(lp1209
g67
(g68
g69
NtRp1210
(dp1211
g72
(dp1212
g80
I4
ssg81
g1206
sg74
(lp1213
S'http://127.0.0.1:8000/testumgebung'
p1214
asbasbasbag67
(g83
g69
NtRp1215
(dp1216
g72
(dp1217
sg81
g857
sg74
(lp1218
g67
(g88
g69
NtRp1219
(dp1220
g72
(dp1221
g92
g93
ssg81
g1215
sg74
(lp1222
S'http_user_agent'
p1223
asbag67
(g88
g69
NtRp1224
(dp1225
g72
(dp1226
g99
g100
ssg81
g1215
sg74
(lp1227
S':'
asbag67
(g88
g69
NtRp1228
(dp1229
g72
(dp1230
sg81
g1215
sg74
(lp1231
g67
(g68
g69
NtRp1232
(dp1233
g72
(dp1234
g80
I4
ssg81
g1228
sg74
(lp1235
S'Mozilla/5.0 (Windows NT 6.1; WOW64; rv:17.0) Gecko/20100101 Firefox/17.0'
p1236
asbasbasbag67
(g83
g69
NtRp1237
(dp1238
g72
(dp1239
sg81
g857
sg74
(lp1240
g67
(g88
g69
NtRp1241
(dp1242
g72
(dp1243
g92
g93
ssg81
g1237
sg74
(lp1244
S'http_web2py_component_element'
p1245
asbag67
(g88
g69
NtRp1246
(dp1247
g72
(dp1248
g99
g100
ssg81
g1237
sg74
(lp1249
S':'
asbag67
(g88
g69
NtRp1250
(dp1251
g72
(dp1252
sg81
g1237
sg74
(lp1253
g67
(g68
g69
NtRp1254
(dp1255
g72
(dp1256
g80
I4
ssg81
g1250
sg74
(lp1257
g200
asbasbasbag67
(g83
g69
NtRp1258
(dp1259
g72
(dp1260
sg81
g857
sg74
(lp1261
g67
(g88
g69
NtRp1262
(dp1263
g72
(dp1264
g92
g93
ssg81
g1258
sg74
(lp1265
S'http_web2py_component_location'
p1266
asbag67
(g88
g69
NtRp1267
(dp1268
g72
(dp1269
g99
g100
ssg81
g1258
sg74
(lp1270
S':'
asbag67
(g88
g69
NtRp1271
(dp1272
g72
(dp1273
sg81
g1258
sg74
(lp1274
g67
(g68
g69
NtRp1275
(dp1276
g72
(dp1277
g80
I4
ssg81
g1271
sg74
(lp1278
S'http://127.0.0.1:8000/testumgebung'
p1279
asbasbasbag67
(g83
g69
NtRp1280
(dp1281
g72
(dp1282
sg81
g857
sg74
(lp1283
g67
(g88
g69
NtRp1284
(dp1285
g72
(dp1286
g92
g93
ssg81
g1280
sg74
(lp1287
S'http_x_clickoncesupport'
p1288
asbag67
(g88
g69
NtRp1289
(dp1290
g72
(dp1291
g99
g100
ssg81
g1280
sg74
(lp1292
S':'
asbag67
(g88
g69
NtRp1293
(dp1294
g72
(dp1295
sg81
g1280
sg74
(lp1296
g67
(g68
g69
NtRp1297
(dp1298
g72
(dp1299
g80
I4
ssg81
g1293
sg74
(lp1300
S'(.NET CLR 2.0.50727; .NET CLR 3.5.30729; .NET CLR 3.0.30729; .NET4.0C; .NET4.0E)'
p1301
asbasbasbag67
(g83
g69
NtRp1302
(dp1303
g72
(dp1304
sg81
g857
sg74
(lp1305
g67
(g88
g69
NtRp1306
(dp1307
g72
(dp1308
g92
g93
ssg81
g1302
sg74
(lp1309
S'http_x_requested_with'
p1310
asbag67
(g88
g69
NtRp1311
(dp1312
g72
(dp1313
g99
g100
ssg81
g1302
sg74
(lp1314
S':'
asbag67
(g88
g69
NtRp1315
(dp1316
g72
(dp1317
sg81
g1302
sg74
(lp1318
g67
(g68
g69
NtRp1319
(dp1320
g72
(dp1321
g80
I4
ssg81
g1315
sg74
(lp1322
S'XMLHttpRequest'
p1323
asbasbasbag67
(g83
g69
NtRp1324
(dp1325
g72
(dp1326
sg81
g857
sg74
(lp1327
g67
(g88
g69
NtRp1328
(dp1329
g72
(dp1330
g92
g93
ssg81
g1324
sg74
(lp1331
S'is_jython'
p1332
asbag67
(g88
g69
NtRp1333
(dp1334
g72
(dp1335
g99
g100
ssg81
g1324
sg74
(lp1336
S':'
asbag67
(g88
g69
NtRp1337
(dp1338
g72
(dp1339
sg81
g1324
sg74
(lp1340
g67
(g68
g69
NtRp1341
(dp1342
g72
(dp1343
g80
I4
ssg81
g1337
sg74
(lp1344
g995
asbasbasbag67
(g83
g69
NtRp1345
(dp1346
g72
(dp1347
sg81
g857
sg74
(lp1348
g67
(g88
g69
NtRp1349
(dp1350
g72
(dp1351
g92
g93
ssg81
g1345
sg74
(lp1352
S'is_pypy'
p1353
asbag67
(g88
g69
NtRp1354
(dp1355
g72
(dp1356
g99
g100
ssg81
g1345
sg74
(lp1357
S':'
asbag67
(g88
g69
NtRp1358
(dp1359
g72
(dp1360
sg81
g1345
sg74
(lp1361
g67
(g68
g69
NtRp1362
(dp1363
g72
(dp1364
g80
I4
ssg81
g1358
sg74
(lp1365
g995
asbasbasbag67
(g83
g69
NtRp1366
(dp1367
g72
(dp1368
sg81
g857
sg74
(lp1369
g67
(g88
g69
NtRp1370
(dp1371
g72
(dp1372
g92
g93
ssg81
g1366
sg74
(lp1373
S'path_info'
p1374
asbag67
(g88
g69
NtRp1375
(dp1376
g72
(dp1377
g99
g100
ssg81
g1366
sg74
(lp1378
S':'
asbag67
(g88
g69
NtRp1379
(dp1380
g72
(dp1381
sg81
g1366
sg74
(lp1382
g67
(g68
g69
NtRp1383
(dp1384
g72
(dp1385
g80
I4
ssg81
g1379
sg74
(lp1386
S'/testumgebung/plugin_feedbacks/feedback.load'
p1387
asbasbasbag67
(g83
g69
NtRp1388
(dp1389
g72
(dp1390
sg81
g857
sg74
(lp1391
g67
(g88
g69
NtRp1392
(dp1393
g72
(dp1394
g92
g93
ssg81
g1388
sg74
(lp1395
S'query_string'
p1396
asbag67
(g88
g69
NtRp1397
(dp1398
g72
(dp1399
g99
g100
ssg81
g1388
sg74
(lp1400
S':'
asbag67
(g88
g69
NtRp1401
(dp1402
g72
(dp1403
sg81
g1388
sg74
(lp1404
g67
(g68
g69
NtRp1405
(dp1406
g72
(dp1407
g80
I4
ssg81
g1401
sg74
(lp1408
S''
asbasbasbag67
(g83
g69
NtRp1409
(dp1410
g72
(dp1411
sg81
g857
sg74
(lp1412
g67
(g88
g69
NtRp1413
(dp1414
g72
(dp1415
g92
g93
ssg81
g1409
sg74
(lp1416
S'remote_addr'
p1417
asbag67
(g88
g69
NtRp1418
(dp1419
g72
(dp1420
g99
g100
ssg81
g1409
sg74
(lp1421
S':'
asbag67
(g88
g69
NtRp1422
(dp1423
g72
(dp1424
sg81
g1409
sg74
(lp1425
g67
(g68
g69
NtRp1426
(dp1427
g72
(dp1428
g80
I4
ssg81
g1422
sg74
(lp1429
g222
asbasbasbag67
(g83
g69
NtRp1430
(dp1431
g72
(dp1432
sg81
g857
sg74
(lp1433
g67
(g88
g69
NtRp1434
(dp1435
g72
(dp1436
g92
g93
ssg81
g1430
sg74
(lp1437
S'remote_port'
p1438
asbag67
(g88
g69
NtRp1439
(dp1440
g72
(dp1441
g99
g100
ssg81
g1430
sg74
(lp1442
S':'
asbag67
(g88
g69
NtRp1443
(dp1444
g72
(dp1445
sg81
g1430
sg74
(lp1446
g67
(g68
g69
NtRp1447
(dp1448
g72
(dp1449
g80
I4
ssg81
g1443
sg74
(lp1450
S'63170'
p1451
asbasbasbag67
(g83
g69
NtRp1452
(dp1453
g72
(dp1454
sg81
g857
sg74
(lp1455
g67
(g88
g69
NtRp1456
(dp1457
g72
(dp1458
g92
g93
ssg81
g1452
sg74
(lp1459
S'request_method'
p1460
asbag67
(g88
g69
NtRp1461
(dp1462
g72
(dp1463
g99
g100
ssg81
g1452
sg74
(lp1464
S':'
asbag67
(g88
g69
NtRp1465
(dp1466
g72
(dp1467
sg81
g1452
sg74
(lp1468
g67
(g68
g69
NtRp1469
(dp1470
g72
(dp1471
g80
I4
ssg81
g1465
sg74
(lp1472
S'GET'
p1473
asbasbasbag67
(g83
g69
NtRp1474
(dp1475
g72
(dp1476
sg81
g857
sg74
(lp1477
g67
(g88
g69
NtRp1478
(dp1479
g72
(dp1480
g92
g93
ssg81
g1474
sg74
(lp1481
S'request_uri'
p1482
asbag67
(g88
g69
NtRp1483
(dp1484
g72
(dp1485
g99
g100
ssg81
g1474
sg74
(lp1486
S':'
asbag67
(g88
g69
NtRp1487
(dp1488
g72
(dp1489
sg81
g1474
sg74
(lp1490
g67
(g68
g69
NtRp1491
(dp1492
g72
(dp1493
g80
I4
ssg81
g1487
sg74
(lp1494
g1387
asbasbasbag67
(g83
g69
NtRp1495
(dp1496
g72
(dp1497
sg81
g857
sg74
(lp1498
g67
(g88
g69
NtRp1499
(dp1500
g72
(dp1501
g92
g93
ssg81
g1495
sg74
(lp1502
S'script_name'
p1503
asbag67
(g88
g69
NtRp1504
(dp1505
g72
(dp1506
g99
g100
ssg81
g1495
sg74
(lp1507
S':'
asbag67
(g88
g69
NtRp1508
(dp1509
g72
(dp1510
sg81
g1495
sg74
(lp1511
g67
(g68
g69
NtRp1512
(dp1513
g72
(dp1514
g80
I4
ssg81
g1508
sg74
(lp1515
S''
asbasbasbag67
(g83
g69
NtRp1516
(dp1517
g72
(dp1518
sg81
g857
sg74
(lp1519
g67
(g88
g69
NtRp1520
(dp1521
g72
(dp1522
g92
g93
ssg81
g1516
sg74
(lp1523
S'server_name'
p1524
asbag67
(g88
g69
NtRp1525
(dp1526
g72
(dp1527
g99
g100
ssg81
g1516
sg74
(lp1528
S':'
asbag67
(g88
g69
NtRp1529
(dp1530
g72
(dp1531
sg81
g1516
sg74
(lp1532
g67
(g68
g69
NtRp1533
(dp1534
g72
(dp1535
g80
I4
ssg81
g1529
sg74
(lp1536
S'swLaptop'
p1537
asbasbasbag67
(g83
g69
NtRp1538
(dp1539
g72
(dp1540
sg81
g857
sg74
(lp1541
g67
(g88
g69
NtRp1542
(dp1543
g72
(dp1544
g92
g93
ssg81
g1538
sg74
(lp1545
S'server_port'
p1546
asbag67
(g88
g69
NtRp1547
(dp1548
g72
(dp1549
g99
g100
ssg81
g1538
sg74
(lp1550
S':'
asbag67
(g88
g69
NtRp1551
(dp1552
g72
(dp1553
sg81
g1538
sg74
(lp1554
g67
(g68
g69
NtRp1555
(dp1556
g72
(dp1557
g80
I4
ssg81
g1551
sg74
(lp1558
S'8000'
p1559
asbasbasbag67
(g83
g69
NtRp1560
(dp1561
g72
(dp1562
sg81
g857
sg74
(lp1563
g67
(g88
g69
NtRp1564
(dp1565
g72
(dp1566
g92
g93
ssg81
g1560
sg74
(lp1567
S'server_protocol'
p1568
asbag67
(g88
g69
NtRp1569
(dp1570
g72
(dp1571
g99
g100
ssg81
g1560
sg74
(lp1572
S':'
asbag67
(g88
g69
NtRp1573
(dp1574
g72
(dp1575
sg81
g1560
sg74
(lp1576
g67
(g68
g69
NtRp1577
(dp1578
g72
(dp1579
g80
I4
ssg81
g1573
sg74
(lp1580
S'HTTP/1.1'
p1581
asbasbasbag67
(g83
g69
NtRp1582
(dp1583
g72
(dp1584
sg81
g857
sg74
(lp1585
g67
(g88
g69
NtRp1586
(dp1587
g72
(dp1588
g92
g93
ssg81
g1582
sg74
(lp1589
S'server_software'
p1590
asbag67
(g88
g69
NtRp1591
(dp1592
g72
(dp1593
g99
g100
ssg81
g1582
sg74
(lp1594
S':'
asbag67
(g88
g69
NtRp1595
(dp1596
g72
(dp1597
sg81
g1582
sg74
(lp1598
g67
(g68
g69
NtRp1599
(dp1600
g72
(dp1601
g80
I4
ssg81
g1595
sg74
(lp1602
S'Rocket 1.2.4'
p1603
asbasbasbag67
(g83
g69
NtRp1604
(dp1605
g72
(dp1606
sg81
g857
sg74
(lp1607
g67
(g88
g69
NtRp1608
(dp1609
g72
(dp1610
g92
g93
ssg81
g1604
sg74
(lp1611
S'web2py_crontype'
p1612
asbag67
(g88
g69
NtRp1613
(dp1614
g72
(dp1615
g99
g100
ssg81
g1604
sg74
(lp1616
S':'
asbag67
(g88
g69
NtRp1617
(dp1618
g72
(dp1619
sg81
g1604
sg74
(lp1620
g67
(g68
g69
NtRp1621
(dp1622
g72
(dp1623
g80
I4
ssg81
g1617
sg74
(lp1624
S'hard'
p1625
asbasbasbag67
(g83
g69
NtRp1626
(dp1627
g72
(dp1628
sg81
g857
sg74
(lp1629
g67
(g88
g69
NtRp1630
(dp1631
g72
(dp1632
g92
g93
ssg81
g1626
sg74
(lp1633
S'web2py_path'
p1634
asbag67
(g88
g69
NtRp1635
(dp1636
g72
(dp1637
g99
g100
ssg81
g1626
sg74
(lp1638
S':'
asbag67
(g88
g69
NtRp1639
(dp1640
g72
(dp1641
sg81
g1626
sg74
(lp1642
g67
(g68
g69
NtRp1643
(dp1644
g72
(dp1645
g80
I4
ssg81
g1639
sg74
(lp1646
g904
asbasbasbag67
(g83
g69
NtRp1647
(dp1648
g72
(dp1649
sg81
g857
sg74
(lp1650
g67
(g88
g69
NtRp1651
(dp1652
g72
(dp1653
g92
g93
ssg81
g1647
sg74
(lp1654
S'web2py_version'
p1655
asbag67
(g88
g69
NtRp1656
(dp1657
g72
(dp1658
g99
g100
ssg81
g1647
sg74
(lp1659
S':'
asbag67
(g88
g69
NtRp1660
(dp1661
g72
(dp1662
sg81
g1647
sg74
(lp1663
g67
(g68
g69
NtRp1664
(dp1665
g72
(dp1666
g80
I4
ssg81
g1660
sg74
(lp1667
g67
(g76
g69
NtRp1668
(dp1669
g72
(dp1670
g80
I3
ssg81
Nsg74
(lp1671
g67
(g83
g69
NtRp1672
(dp1673
g72
(dp1674
sg81
g1668
sg74
(lp1675
g67
(g88
g69
NtRp1676
(dp1677
g72
(dp1678
sg81
g1672
sg74
(lp1679
g67
(g68
g69
NtRp1680
(dp1681
g72
(dp1682
g80
I3
ssg81
g1676
sg74
(lp1683
S'2'
asbasbasbag67
(g83
g69
NtRp1684
(dp1685
g72
(dp1686
sg81
g1668
sg74
(lp1687
g67
(g88
g69
NtRp1688
(dp1689
g72
(dp1690
sg81
g1684
sg74
(lp1691
g67
(g68
g69
NtRp1692
(dp1693
g72
(dp1694
g80
I3
ssg81
g1688
sg74
(lp1695
S'0'
asbasbasbag67
(g83
g69
NtRp1696
(dp1697
g72
(dp1698
sg81
g1668
sg74
(lp1699
g67
(g88
g69
NtRp1700
(dp1701
g72
(dp1702
sg81
g1696
sg74
(lp1703
g67
(g68
g69
NtRp1704
(dp1705
g72
(dp1706
g80
I3
ssg81
g1700
sg74
(lp1707
S'3'
asbasbasbag67
(g83
g69
NtRp1708
(dp1709
g72
(dp1710
sg81
g1668
sg74
(lp1711
g67
(g88
g69
NtRp1712
(dp1713
g72
(dp1714
sg81
g1708
sg74
(lp1715
g67
(g68
g69
NtRp1716
(dp1717
g72
(dp1718
g80
I3
ssg81
g1712
sg74
(lp1719
S'datetime.datetime(2012, 8, 31, 5, 58, 31)'
p1720
asbasbasbag67
(g83
g69
NtRp1721
(dp1722
g72
(dp1723
sg81
g1668
sg74
(lp1724
g67
(g88
g69
NtRp1725
(dp1726
g72
(dp1727
sg81
g1721
sg74
(lp1728
g67
(g68
g69
NtRp1729
(dp1730
g72
(dp1731
g80
I3
ssg81
g1725
sg74
(lp1732
S'stable'
p1733
asbasbasbasbasbasbasbag67
(g83
g69
NtRp1734
(dp1735
g72
(dp1736
sg81
g857
sg74
(lp1737
g67
(g88
g69
NtRp1738
(dp1739
g72
(dp1740
g92
g93
ssg81
g1734
sg74
(lp1741
S'wsgi_errors'
p1742
asbag67
(g88
g69
NtRp1743
(dp1744
g72
(dp1745
g99
g100
ssg81
g1734
sg74
(lp1746
S':'
asbag67
(g88
g69
NtRp1747
(dp1748
g72
(dp1749
sg81
g1734
sg74
(lp1750
g67
(g68
g69
NtRp1751
(dp1752
g72
(dp1753
g80
I4
ssg81
g1747
sg74
(lp1754
S"<open file '<stderr>', mode 'w' at 0x021750D0>"
p1755
asbasbasbag67
(g83
g69
NtRp1756
(dp1757
g72
(dp1758
sg81
g857
sg74
(lp1759
g67
(g88
g69
NtRp1760
(dp1761
g72
(dp1762
g92
g93
ssg81
g1756
sg74
(lp1763
S'wsgi_file_wrapper'
p1764
asbag67
(g88
g69
NtRp1765
(dp1766
g72
(dp1767
g99
g100
ssg81
g1756
sg74
(lp1768
S':'
asbag67
(g88
g69
NtRp1769
(dp1770
g72
(dp1771
sg81
g1756
sg74
(lp1772
g67
(g68
g69
NtRp1773
(dp1774
g72
(dp1775
g80
I4
ssg81
g1769
sg74
(lp1776
S'<class wsgiref.util.FileWrapper at 0x0310D030>'
p1777
asbasbasbag67
(g83
g69
NtRp1778
(dp1779
g72
(dp1780
sg81
g857
sg74
(lp1781
g67
(g88
g69
NtRp1782
(dp1783
g72
(dp1784
g92
g93
ssg81
g1778
sg74
(lp1785
S'wsgi_input'
p1786
asbag67
(g88
g69
NtRp1787
(dp1788
g72
(dp1789
g99
g100
ssg81
g1778
sg74
(lp1790
S':'
asbag67
(g88
g69
NtRp1791
(dp1792
g72
(dp1793
sg81
g1778
sg74
(lp1794
g67
(g68
g69
NtRp1795
(dp1796
g72
(dp1797
g80
I4
ssg81
g1791
sg74
(lp1798
S'<socket._fileobject object at 0x084F7AF0>'
p1799
asbasbasbag67
(g83
g69
NtRp1800
(dp1801
g72
(dp1802
sg81
g857
sg74
(lp1803
g67
(g88
g69
NtRp1804
(dp1805
g72
(dp1806
g92
g93
ssg81
g1800
sg74
(lp1807
S'wsgi_multiprocess'
p1808
asbag67
(g88
g69
NtRp1809
(dp1810
g72
(dp1811
g99
g100
ssg81
g1800
sg74
(lp1812
S':'
asbag67
(g88
g69
NtRp1813
(dp1814
g72
(dp1815
sg81
g1800
sg74
(lp1816
g67
(g68
g69
NtRp1817
(dp1818
g72
(dp1819
g80
I4
ssg81
g1813
sg74
(lp1820
g995
asbasbasbag67
(g83
g69
NtRp1821
(dp1822
g72
(dp1823
sg81
g857
sg74
(lp1824
g67
(g88
g69
NtRp1825
(dp1826
g72
(dp1827
g92
g93
ssg81
g1821
sg74
(lp1828
S'wsgi_multithread'
p1829
asbag67
(g88
g69
NtRp1830
(dp1831
g72
(dp1832
g99
g100
ssg81
g1821
sg74
(lp1833
S':'
asbag67
(g88
g69
NtRp1834
(dp1835
g72
(dp1836
sg81
g1821
sg74
(lp1837
g67
(g68
g69
NtRp1838
(dp1839
g72
(dp1840
g80
I4
ssg81
g1834
sg74
(lp1841
g110
asbasbasbag67
(g83
g69
NtRp1842
(dp1843
g72
(dp1844
sg81
g857
sg74
(lp1845
g67
(g88
g69
NtRp1846
(dp1847
g72
(dp1848
g92
g93
ssg81
g1842
sg74
(lp1849
S'wsgi_run_once'
p1850
asbag67
(g88
g69
NtRp1851
(dp1852
g72
(dp1853
g99
g100
ssg81
g1842
sg74
(lp1854
S':'
asbag67
(g88
g69
NtRp1855
(dp1856
g72
(dp1857
sg81
g1842
sg74
(lp1858
g67
(g68
g69
NtRp1859
(dp1860
g72
(dp1861
g80
I4
ssg81
g1855
sg74
(lp1862
g995
asbasbasbag67
(g83
g69
NtRp1863
(dp1864
g72
(dp1865
sg81
g857
sg74
(lp1866
g67
(g88
g69
NtRp1867
(dp1868
g72
(dp1869
g92
g93
ssg81
g1863
sg74
(lp1870
S'wsgi_url_scheme'
p1871
asbag67
(g88
g69
NtRp1872
(dp1873
g72
(dp1874
g99
g100
ssg81
g1863
sg74
(lp1875
S':'
asbag67
(g88
g69
NtRp1876
(dp1877
g72
(dp1878
sg81
g1863
sg74
(lp1879
g67
(g68
g69
NtRp1880
(dp1881
g72
(dp1882
g80
I4
ssg81
g1876
sg74
(lp1883
S'http'
p1884
asbasbasbag67
(g83
g69
NtRp1885
(dp1886
g72
(dp1887
sg81
g857
sg74
(lp1888
g67
(g88
g69
NtRp1889
(dp1890
g72
(dp1891
g92
g93
ssg81
g1885
sg74
(lp1892
S'wsgi_version'
p1893
asbag67
(g88
g69
NtRp1894
(dp1895
g72
(dp1896
g99
g100
ssg81
g1885
sg74
(lp1897
S':'
asbag67
(g88
g69
NtRp1898
(dp1899
g72
(dp1900
sg81
g1885
sg74
(lp1901
g67
(g68
g69
NtRp1902
(dp1903
g72
(dp1904
g80
I4
ssg81
g1898
sg74
(lp1905
g67
(g76
g69
NtRp1906
(dp1907
g72
(dp1908
g80
I3
ssg81
Nsg74
(lp1909
g67
(g83
g69
NtRp1910
(dp1911
g72
(dp1912
sg81
g1906
sg74
(lp1913
g67
(g88
g69
NtRp1914
(dp1915
g72
(dp1916
sg81
g1910
sg74
(lp1917
g67
(g68
g69
NtRp1918
(dp1919
g72
(dp1920
g80
I3
ssg81
g1914
sg74
(lp1921
S'1'
asbasbasbag67
(g83
g69
NtRp1922
(dp1923
g72
(dp1924
sg81
g1906
sg74
(lp1925
g67
(g88
g69
NtRp1926
(dp1927
g72
(dp1928
sg81
g1922
sg74
(lp1929
g67
(g68
g69
NtRp1930
(dp1931
g72
(dp1932
g80
I3
ssg81
g1926
sg74
(lp1933
S'0'
asbasbasbasbasbasbasbasbasbasbasbag67
(g83
g69
NtRp1934
(dp1935
g72
(dp1936
sg81
g77
sg74
(lp1937
g67
(g88
g69
NtRp1938
(dp1939
g72
(dp1940
g92
g93
ssg81
g1934
sg74
(lp1941
S'extension'
p1942
asbag67
(g88
g69
NtRp1943
(dp1944
g72
(dp1945
g99
g100
ssg81
g1934
sg74
(lp1946
S':'
asbag67
(g88
g69
NtRp1947
(dp1948
g72
(dp1949
sg81
g1934
sg74
(lp1950
g67
(g68
g69
NtRp1951
(dp1952
g72
(dp1953
g80
I5
ssg81
g1947
sg74
(lp1954
S'load'
p1955
asbasbasbag67
(g83
g69
NtRp1956
(dp1957
g72
(dp1958
sg81
g77
sg74
(lp1959
g67
(g88
g69
NtRp1960
(dp1961
g72
(dp1962
g92
g93
ssg81
g1956
sg74
(lp1963
S'folder'
p1964
asbag67
(g88
g69
NtRp1965
(dp1966
g72
(dp1967
g99
g100
ssg81
g1956
sg74
(lp1968
S':'
asbag67
(g88
g69
NtRp1969
(dp1970
g72
(dp1971
sg81
g1956
sg74
(lp1972
g67
(g68
g69
NtRp1973
(dp1974
g72
(dp1975
g80
I5
ssg81
g1969
sg74
(lp1976
S'C:\\xampp\\htdocs\\web2py\\applications\\testumgebung\\'
p1977
asbasbasbag67
(g83
g69
NtRp1978
(dp1979
g72
(dp1980
sg81
g77
sg74
(lp1981
g67
(g88
g69
NtRp1982
(dp1983
g72
(dp1984
g92
g93
ssg81
g1978
sg74
(lp1985
S'function'
p1986
asbag67
(g88
g69
NtRp1987
(dp1988
g72
(dp1989
g99
g100
ssg81
g1978
sg74
(lp1990
S':'
asbag67
(g88
g69
NtRp1991
(dp1992
g72
(dp1993
sg81
g1978
sg74
(lp1994
g67
(g68
g69
NtRp1995
(dp1996
g72
(dp1997
g80
I5
ssg81
g1991
sg74
(lp1998
S'feedback'
p1999
asbasbasbag67
(g83
g69
NtRp2000
(dp2001
g72
(dp2002
sg81
g77
sg74
(lp2003
g67
(g88
g69
NtRp2004
(dp2005
g72
(dp2006
g92
g93
ssg81
g2000
sg74
(lp2007
S'get_vars'
p2008
asbag67
(g88
g69
NtRp2009
(dp2010
g72
(dp2011
g99
g100
ssg81
g2000
sg74
(lp2012
S':'
asbag67
(g88
g69
NtRp2013
(dp2014
g72
(dp2015
sg81
g2000
sg74
(lp2016
g67
(g68
g69
NtRp2017
(dp2018
g72
(dp2019
g80
I5
ssg81
g2013
sg74
(lp2020
g67
(g76
g69
NtRp2021
(dp2022
g72
(dp2023
g80
I4
ssg81
Nsg74
(lp2024
sbasbasbasbag67
(g83
g69
NtRp2025
(dp2026
g72
(dp2027
sg81
g77
sg74
(lp2028
g67
(g88
g69
NtRp2029
(dp2030
g72
(dp2031
g92
g93
ssg81
g2025
sg74
(lp2032
S'global_settings'
p2033
asbag67
(g88
g69
NtRp2034
(dp2035
g72
(dp2036
g99
g100
ssg81
g2025
sg74
(lp2037
S':'
asbag67
(g88
g69
NtRp2038
(dp2039
g72
(dp2040
sg81
g2025
sg74
(lp2041
g67
(g68
g69
NtRp2042
(dp2043
g72
(dp2044
g80
I5
ssg81
g2038
sg74
(lp2045
g67
(g76
g69
NtRp2046
(dp2047
g72
(dp2048
g80
I4
ssg81
Nsg74
(lp2049
g67
(g83
g69
NtRp2050
(dp2051
g72
(dp2052
sg81
g2046
sg74
(lp2053
g67
(g88
g69
NtRp2054
(dp2055
g72
(dp2056
g92
g93
ssg81
g2050
sg74
(lp2057
g869
asbag67
(g88
g69
NtRp2058
(dp2059
g72
(dp2060
g99
g100
ssg81
g2050
sg74
(lp2061
S':'
asbag67
(g88
g69
NtRp2062
(dp2063
g72
(dp2064
sg81
g2050
sg74
(lp2065
g67
(g68
g69
NtRp2066
(dp2067
g72
(dp2068
g80
I4
ssg81
g2062
sg74
(lp2069
S"set(['C:\\\\xampp\\\\htdocs\\\\web2py\\\\applications\\\\kieva\\\\', 'C:\\\\xampp\\\\htdocs\\\\web2py\\\\applications\\\\admin\\\\', 'C:\\\\xampp\\\\htdocs\\\\web2py\\\\applications\\\\welcome\\\\', 'C:\\\\xampp\\\\htdocs\\\\web2py\\\\applications\\\\testumgebung\\\\'])"
p2070
asbasbasbag67
(g83
g69
NtRp2071
(dp2072
g72
(dp2073
sg81
g2046
sg74
(lp2074
g67
(g88
g69
NtRp2075
(dp2076
g72
(dp2077
g92
g93
ssg81
g2071
sg74
(lp2078
g891
asbag67
(g88
g69
NtRp2079
(dp2080
g72
(dp2081
g99
g100
ssg81
g2071
sg74
(lp2082
S':'
asbag67
(g88
g69
NtRp2083
(dp2084
g72
(dp2085
sg81
g2071
sg74
(lp2086
g67
(g68
g69
NtRp2087
(dp2088
g72
(dp2089
g80
I4
ssg81
g2083
sg74
(lp2090
g904
asbasbasbag67
(g83
g69
NtRp2091
(dp2092
g72
(dp2093
sg81
g2046
sg74
(lp2094
g67
(g88
g69
NtRp2095
(dp2096
g72
(dp2097
g92
g93
ssg81
g2091
sg74
(lp2098
g913
asbag67
(g88
g69
NtRp2099
(dp2100
g72
(dp2101
g99
g100
ssg81
g2091
sg74
(lp2102
S':'
asbag67
(g88
g69
NtRp2103
(dp2104
g72
(dp2105
sg81
g2091
sg74
(lp2106
g67
(g68
g69
NtRp2107
(dp2108
g72
(dp2109
g80
I4
ssg81
g2103
sg74
(lp2110
g67
(g76
g69
NtRp2111
(dp2112
g72
(dp2113
g80
I3
ssg81
Nsg74
(lp2114
sbasbasbasbag67
(g83
g69
NtRp2115
(dp2116
g72
(dp2117
sg81
g2046
sg74
(lp2118
g67
(g88
g69
NtRp2119
(dp2120
g72
(dp2121
g92
g93
ssg81
g2115
sg74
(lp2122
g938
asbag67
(g88
g69
NtRp2123
(dp2124
g72
(dp2125
g99
g100
ssg81
g2115
sg74
(lp2126
S':'
asbag67
(g88
g69
NtRp2127
(dp2128
g72
(dp2129
sg81
g2115
sg74
(lp2130
g67
(g68
g69
NtRp2131
(dp2132
g72
(dp2133
g80
I4
ssg81
g2127
sg74
(lp2134
S"<Values at 0x31dee18: {'verbose': False, 'ip': '127.0.0.1', 'with_scheduler': False, 'ips': ['10.0.0.109', '192.168.189.1', '192.168.91.1'], 'shutdown_timeout': 5, 'taskbar': False, 'port': 8000, 'maxthreads': None, 'softcron': False, 'server_name': 'swLaptop', 'bpython': False, 'nogui': False, 'nocron': False, 'extcron': False, 'run_system_tests': False, 'test': None, 'folder': 'C:\\\\xampp\\\\htdocs\\\\web2py', 'config': '', 'import_models': False, 'winservice': '', 'shell': None, 'run': '', 'log_filename': 'httpserver.log', 'debuglevel': 30, 'args': [''], 'socket_timeout': 5, 'ssl_ca_certificate': None, 'scheduler': None, 'profiler_filename': None, 'ssl_private_key': '', 'scheduler_groups': None, 'password': '<ask>', 'request_queue_size': 5, 'ssl_certificate': '', 'cronjob': False, 'numthreads': None, 'quiet': False, 'interfaces': None, 'minthreads': None, 'timeout': 10, 'plain': False, 'nobanner': False, 'pid_filename': 'httpserver.pid'}>"
p2135
asbasbasbag67
(g83
g69
NtRp2136
(dp2137
g72
(dp2138
sg81
g2046
sg74
(lp2139
g67
(g88
g69
NtRp2140
(dp2141
g72
(dp2142
g92
g93
ssg81
g2136
sg74
(lp2143
g960
asbag67
(g88
g69
NtRp2144
(dp2145
g72
(dp2146
g99
g100
ssg81
g2136
sg74
(lp2147
S':'
asbag67
(g88
g69
NtRp2148
(dp2149
g72
(dp2150
sg81
g2136
sg74
(lp2151
g67
(g68
g69
NtRp2152
(dp2153
g72
(dp2154
g80
I4
ssg81
g2148
sg74
(lp2155
S'set([])'
p2156
asbasbasbag67
(g83
g69
NtRp2157
(dp2158
g72
(dp2159
sg81
g2046
sg74
(lp2160
g67
(g88
g69
NtRp2161
(dp2162
g72
(dp2163
g92
g93
ssg81
g2157
sg74
(lp2164
g982
asbag67
(g88
g69
NtRp2165
(dp2166
g72
(dp2167
g99
g100
ssg81
g2157
sg74
(lp2168
S':'
asbag67
(g88
g69
NtRp2169
(dp2170
g72
(dp2171
sg81
g2157
sg74
(lp2172
g67
(g68
g69
NtRp2173
(dp2174
g72
(dp2175
g80
I4
ssg81
g2169
sg74
(lp2176
g995
asbasbasbag67
(g83
g69
NtRp2177
(dp2178
g72
(dp2179
sg81
g2046
sg74
(lp2180
g67
(g88
g69
NtRp2181
(dp2182
g72
(dp2183
g92
g93
ssg81
g2177
sg74
(lp2184
g1004
asbag67
(g88
g69
NtRp2185
(dp2186
g72
(dp2187
g99
g100
ssg81
g2177
sg74
(lp2188
S':'
asbag67
(g88
g69
NtRp2189
(dp2190
g72
(dp2191
sg81
g2177
sg74
(lp2192
g67
(g68
g69
NtRp2193
(dp2194
g72
(dp2195
g80
I4
ssg81
g2189
sg74
(lp2196
g1017
asbasbasbag67
(g83
g69
NtRp2197
(dp2198
g72
(dp2199
sg81
g2046
sg74
(lp2200
g67
(g88
g69
NtRp2201
(dp2202
g72
(dp2203
g92
g93
ssg81
g2197
sg74
(lp2204
g1332
asbag67
(g88
g69
NtRp2205
(dp2206
g72
(dp2207
g99
g100
ssg81
g2197
sg74
(lp2208
S':'
asbag67
(g88
g69
NtRp2209
(dp2210
g72
(dp2211
sg81
g2197
sg74
(lp2212
g67
(g68
g69
NtRp2213
(dp2214
g72
(dp2215
g80
I4
ssg81
g2209
sg74
(lp2216
g995
asbasbasbag67
(g83
g69
NtRp2217
(dp2218
g72
(dp2219
sg81
g2046
sg74
(lp2220
g67
(g88
g69
NtRp2221
(dp2222
g72
(dp2223
g92
g93
ssg81
g2217
sg74
(lp2224
g1353
asbag67
(g88
g69
NtRp2225
(dp2226
g72
(dp2227
g99
g100
ssg81
g2217
sg74
(lp2228
S':'
asbag67
(g88
g69
NtRp2229
(dp2230
g72
(dp2231
sg81
g2217
sg74
(lp2232
g67
(g68
g69
NtRp2233
(dp2234
g72
(dp2235
g80
I4
ssg81
g2229
sg74
(lp2236
g995
asbasbasbag67
(g83
g69
NtRp2237
(dp2238
g72
(dp2239
sg81
g2046
sg74
(lp2240
g67
(g88
g69
NtRp2241
(dp2242
g72
(dp2243
g92
g93
ssg81
g2237
sg74
(lp2244
g1612
asbag67
(g88
g69
NtRp2245
(dp2246
g72
(dp2247
g99
g100
ssg81
g2237
sg74
(lp2248
S':'
asbag67
(g88
g69
NtRp2249
(dp2250
g72
(dp2251
sg81
g2237
sg74
(lp2252
g67
(g68
g69
NtRp2253
(dp2254
g72
(dp2255
g80
I4
ssg81
g2249
sg74
(lp2256
g1625
asbasbasbag67
(g83
g69
NtRp2257
(dp2258
g72
(dp2259
sg81
g2046
sg74
(lp2260
g67
(g88
g69
NtRp2261
(dp2262
g72
(dp2263
g92
g93
ssg81
g2257
sg74
(lp2264
g1655
asbag67
(g88
g69
NtRp2265
(dp2266
g72
(dp2267
g99
g100
ssg81
g2257
sg74
(lp2268
S':'
asbag67
(g88
g69
NtRp2269
(dp2270
g72
(dp2271
sg81
g2257
sg74
(lp2272
g67
(g68
g69
NtRp2273
(dp2274
g72
(dp2275
g80
I4
ssg81
g2269
sg74
(lp2276
g67
(g76
g69
NtRp2277
(dp2278
g72
(dp2279
g80
I3
ssg81
Nsg74
(lp2280
g67
(g83
g69
NtRp2281
(dp2282
g72
(dp2283
sg81
g2277
sg74
(lp2284
g67
(g88
g69
NtRp2285
(dp2286
g72
(dp2287
sg81
g2281
sg74
(lp2288
g67
(g68
g69
NtRp2289
(dp2290
g72
(dp2291
g80
I3
ssg81
g2285
sg74
(lp2292
S'2'
asbasbasbag67
(g83
g69
NtRp2293
(dp2294
g72
(dp2295
sg81
g2277
sg74
(lp2296
g67
(g88
g69
NtRp2297
(dp2298
g72
(dp2299
sg81
g2293
sg74
(lp2300
g67
(g68
g69
NtRp2301
(dp2302
g72
(dp2303
g80
I3
ssg81
g2297
sg74
(lp2304
S'0'
asbasbasbag67
(g83
g69
NtRp2305
(dp2306
g72
(dp2307
sg81
g2277
sg74
(lp2308
g67
(g88
g69
NtRp2309
(dp2310
g72
(dp2311
sg81
g2305
sg74
(lp2312
g67
(g68
g69
NtRp2313
(dp2314
g72
(dp2315
g80
I3
ssg81
g2309
sg74
(lp2316
S'3'
asbasbasbag67
(g83
g69
NtRp2317
(dp2318
g72
(dp2319
sg81
g2277
sg74
(lp2320
g67
(g88
g69
NtRp2321
(dp2322
g72
(dp2323
sg81
g2317
sg74
(lp2324
g67
(g68
g69
NtRp2325
(dp2326
g72
(dp2327
g80
I3
ssg81
g2321
sg74
(lp2328
S'datetime.datetime(2012, 8, 31, 5, 58, 31)'
p2329
asbasbasbag67
(g83
g69
NtRp2330
(dp2331
g72
(dp2332
sg81
g2277
sg74
(lp2333
g67
(g88
g69
NtRp2334
(dp2335
g72
(dp2336
sg81
g2330
sg74
(lp2337
g67
(g68
g69
NtRp2338
(dp2339
g72
(dp2340
g80
I3
ssg81
g2334
sg74
(lp2341
g1733
asbasbasbasbasbasbasbasbasbasbasbag67
(g83
g69
NtRp2342
(dp2343
g72
(dp2344
sg81
g77
sg74
(lp2345
g67
(g88
g69
NtRp2346
(dp2347
g72
(dp2348
g92
g93
ssg81
g2342
sg74
(lp2349
S'is_https'
p2350
asbag67
(g88
g69
NtRp2351
(dp2352
g72
(dp2353
g99
g100
ssg81
g2342
sg74
(lp2354
S':'
asbag67
(g88
g69
NtRp2355
(dp2356
g72
(dp2357
sg81
g2342
sg74
(lp2358
g67
(g68
g69
NtRp2359
(dp2360
g72
(dp2361
g80
I5
ssg81
g2355
sg74
(lp2362
g995
asbasbasbag67
(g83
g69
NtRp2363
(dp2364
g72
(dp2365
sg81
g77
sg74
(lp2366
g67
(g88
g69
NtRp2367
(dp2368
g72
(dp2369
g92
g93
ssg81
g2363
sg74
(lp2370
S'is_local'
p2371
asbag67
(g88
g69
NtRp2372
(dp2373
g72
(dp2374
g99
g100
ssg81
g2363
sg74
(lp2375
S':'
asbag67
(g88
g69
NtRp2376
(dp2377
g72
(dp2378
sg81
g2363
sg74
(lp2379
g67
(g68
g69
NtRp2380
(dp2381
g72
(dp2382
g80
I5
ssg81
g2376
sg74
(lp2383
g110
asbasbasbag67
(g83
g69
NtRp2384
(dp2385
g72
(dp2386
sg81
g77
sg74
(lp2387
g67
(g88
g69
NtRp2388
(dp2389
g72
(dp2390
g92
g93
ssg81
g2384
sg74
(lp2391
S'is_restful'
p2392
asbag67
(g88
g69
NtRp2393
(dp2394
g72
(dp2395
g99
g100
ssg81
g2384
sg74
(lp2396
S':'
asbag67
(g88
g69
NtRp2397
(dp2398
g72
(dp2399
sg81
g2384
sg74
(lp2400
g67
(g68
g69
NtRp2401
(dp2402
g72
(dp2403
g80
I5
ssg81
g2397
sg74
(lp2404
g995
asbasbasbag67
(g83
g69
NtRp2405
(dp2406
g72
(dp2407
sg81
g77
sg74
(lp2408
g67
(g88
g69
NtRp2409
(dp2410
g72
(dp2411
g92
g93
ssg81
g2405
sg74
(lp2412
S'now'
p2413
asbag67
(g88
g69
NtRp2414
(dp2415
g72
(dp2416
g99
g100
ssg81
g2405
sg74
(lp2417
S':'
asbag67
(g88
g69
NtRp2418
(dp2419
g72
(dp2420
sg81
g2405
sg74
(lp2421
g67
(g68
g69
NtRp2422
(dp2423
g72
(dp2424
g80
I5
ssg81
g2418
sg74
(lp2425
S'datetime.datetime(2012, 12, 18, 12, 50, 7, 203000)'
p2426
asbasbasbag67
(g83
g69
NtRp2427
(dp2428
g72
(dp2429
sg81
g77
sg74
(lp2430
g67
(g88
g69
NtRp2431
(dp2432
g72
(dp2433
g92
g93
ssg81
g2427
sg74
(lp2434
S'post_vars'
p2435
asbag67
(g88
g69
NtRp2436
(dp2437
g72
(dp2438
g99
g100
ssg81
g2427
sg74
(lp2439
S':'
asbag67
(g88
g69
NtRp2440
(dp2441
g72
(dp2442
sg81
g2427
sg74
(lp2443
g67
(g68
g69
NtRp2444
(dp2445
g72
(dp2446
g80
I5
ssg81
g2440
sg74
(lp2447
g67
(g76
g69
NtRp2448
(dp2449
g72
(dp2450
g80
I4
ssg81
Nsg74
(lp2451
sbasbasbasbag67
(g83
g69
NtRp2452
(dp2453
g72
(dp2454
sg81
g77
sg74
(lp2455
g67
(g88
g69
NtRp2456
(dp2457
g72
(dp2458
g92
g93
ssg81
g2452
sg74
(lp2459
S'raw_args'
p2460
asbag67
(g88
g69
NtRp2461
(dp2462
g72
(dp2463
g99
g100
ssg81
g2452
sg74
(lp2464
S':'
asbag67
(g88
g69
NtRp2465
(dp2466
g72
(dp2467
sg81
g2452
sg74
(lp2468
g67
(g68
g69
NtRp2469
(dp2470
g72
(dp2471
g80
I5
ssg81
g2465
sg74
(lp2472
S'None'
p2473
asbasbasbag67
(g83
g69
NtRp2474
(dp2475
g72
(dp2476
sg81
g77
sg74
(lp2477
g67
(g88
g69
NtRp2478
(dp2479
g72
(dp2480
g92
g93
ssg81
g2474
sg74
(lp2481
S'raw_extension'
p2482
asbag67
(g88
g69
NtRp2483
(dp2484
g72
(dp2485
g99
g100
ssg81
g2474
sg74
(lp2486
S':'
asbag67
(g88
g69
NtRp2487
(dp2488
g72
(dp2489
sg81
g2474
sg74
(lp2490
g67
(g68
g69
NtRp2491
(dp2492
g72
(dp2493
g80
I5
ssg81
g2487
sg74
(lp2494
g1955
asbasbasbag67
(g83
g69
NtRp2495
(dp2496
g72
(dp2497
sg81
g77
sg74
(lp2498
g67
(g88
g69
NtRp2499
(dp2500
g72
(dp2501
g92
g93
ssg81
g2495
sg74
(lp2502
S'url'
p2503
asbag67
(g88
g69
NtRp2504
(dp2505
g72
(dp2506
g99
g100
ssg81
g2495
sg74
(lp2507
S':'
asbag67
(g88
g69
NtRp2508
(dp2509
g72
(dp2510
sg81
g2495
sg74
(lp2511
g67
(g68
g69
NtRp2512
(dp2513
g72
(dp2514
g80
I5
ssg81
g2508
sg74
(lp2515
S'/testumgebung/plugin_feedbacks/feedback.load'
p2516
asbasbasbag67
(g83
g69
NtRp2517
(dp2518
g72
(dp2519
sg81
g77
sg74
(lp2520
g67
(g88
g69
NtRp2521
(dp2522
g72
(dp2523
g92
g93
ssg81
g2517
sg74
(lp2524
S'utcnow'
p2525
asbag67
(g88
g69
NtRp2526
(dp2527
g72
(dp2528
g99
g100
ssg81
g2517
sg74
(lp2529
S':'
asbag67
(g88
g69
NtRp2530
(dp2531
g72
(dp2532
sg81
g2517
sg74
(lp2533
g67
(g68
g69
NtRp2534
(dp2535
g72
(dp2536
g80
I5
ssg81
g2530
sg74
(lp2537
S'datetime.datetime(2012, 12, 18, 11, 50, 7, 203000)'
p2538
asbasbasbag67
(g83
g69
NtRp2539
(dp2540
g72
(dp2541
sg81
g77
sg74
(lp2542
g67
(g88
g69
NtRp2543
(dp2544
g72
(dp2545
g92
g93
ssg81
g2539
sg74
(lp2546
S'uuid'
p2547
asbag67
(g88
g69
NtRp2548
(dp2549
g72
(dp2550
g99
g100
ssg81
g2539
sg74
(lp2551
S':'
asbag67
(g88
g69
NtRp2552
(dp2553
g72
(dp2554
sg81
g2539
sg74
(lp2555
g67
(g68
g69
NtRp2556
(dp2557
g72
(dp2558
g80
I5
ssg81
g2552
sg74
(lp2559
S'testumgebung/127.0.0.1.2012-12-18.12-50-07.3b526aaa-edd6-4208-a962-f1c490f71774'
p2560
asbasbasbag67
(g83
g69
NtRp2561
(dp2562
g72
(dp2563
sg81
g77
sg74
(lp2564
g67
(g88
g69
NtRp2565
(dp2566
g72
(dp2567
g92
g93
ssg81
g2561
sg74
(lp2568
S'vars'
p2569
asbag67
(g88
g69
NtRp2570
(dp2571
g72
(dp2572
g99
g100
ssg81
g2561
sg74
(lp2573
S':'
asbag67
(g88
g69
NtRp2574
(dp2575
g72
(dp2576
sg81
g2561
sg74
(lp2577
g67
(g68
g69
NtRp2578
(dp2579
g72
(dp2580
g80
I5
ssg81
g2574
sg74
(lp2581
g67
(g76
g69
NtRp2582
(dp2583
g72
(dp2584
g80
I4
ssg81
Nsg74
(lp2585
sbasbasbasbag67
(g83
g69
NtRp2586
(dp2587
g72
(dp2588
sg81
g77
sg74
(lp2589
g67
(g88
g69
NtRp2590
(dp2591
g72
(dp2592
g92
g93
ssg81
g2586
sg74
(lp2593
S'wsgi'
p2594
asbag67
(g88
g69
NtRp2595
(dp2596
g72
(dp2597
g99
g100
ssg81
g2586
sg74
(lp2598
S':'
asbag67
(g88
g69
NtRp2599
(dp2600
g72
(dp2601
sg81
g2586
sg74
(lp2602
g67
(g68
g69
NtRp2603
(dp2604
g72
(dp2605
g80
I5
ssg81
g2599
sg74
(lp2606
g67
(g76
g69
NtRp2607
(dp2608
g72
(dp2609
g80
I4
ssg81
Nsg74
(lp2610
g67
(g83
g69
NtRp2611
(dp2612
g72
(dp2613
sg81
g2607
sg74
(lp2614
g67
(g88
g69
NtRp2615
(dp2616
g72
(dp2617
g92
g93
ssg81
g2611
sg74
(lp2618
S'environ'
p2619
asbag67
(g88
g69
NtRp2620
(dp2621
g72
(dp2622
g99
g100
ssg81
g2611
sg74
(lp2623
S':'
asbag67
(g88
g69
NtRp2624
(dp2625
g72
(dp2626
sg81
g2611
sg74
(lp2627
g67
(g68
g69
NtRp2628
(dp2629
g72
(dp2630
g80
I4
ssg81
g2624
sg74
(lp2631
g67
(g76
g69
NtRp2632
(dp2633
g72
(dp2634
g80
I3
ssg81
Nsg74
(lp2635
g67
(g83
g69
NtRp2636
(dp2637
g72
(dp2638
sg81
g2632
sg74
(lp2639
g67
(g88
g69
NtRp2640
(dp2641
g72
(dp2642
g92
g93
ssg81
g2636
sg74
(lp2643
S'HTTP_ACCEPT'
p2644
asbag67
(g88
g69
NtRp2645
(dp2646
g72
(dp2647
g99
g100
ssg81
g2636
sg74
(lp2648
S':'
asbag67
(g88
g69
NtRp2649
(dp2650
g72
(dp2651
sg81
g2636
sg74
(lp2652
g67
(g68
g69
NtRp2653
(dp2654
g72
(dp2655
g80
I3
ssg81
g2649
sg74
(lp2656
g1039
asbasbasbag67
(g83
g69
NtRp2657
(dp2658
g72
(dp2659
sg81
g2632
sg74
(lp2660
g67
(g88
g69
NtRp2661
(dp2662
g72
(dp2663
g92
g93
ssg81
g2657
sg74
(lp2664
S'HTTP_ACCEPT_ENCODING'
p2665
asbag67
(g88
g69
NtRp2666
(dp2667
g72
(dp2668
g99
g100
ssg81
g2657
sg74
(lp2669
S':'
asbag67
(g88
g69
NtRp2670
(dp2671
g72
(dp2672
sg81
g2657
sg74
(lp2673
g67
(g68
g69
NtRp2674
(dp2675
g72
(dp2676
g80
I3
ssg81
g2670
sg74
(lp2677
g1061
asbasbasbag67
(g83
g69
NtRp2678
(dp2679
g72
(dp2680
sg81
g2632
sg74
(lp2681
g67
(g88
g69
NtRp2682
(dp2683
g72
(dp2684
g92
g93
ssg81
g2678
sg74
(lp2685
S'HTTP_ACCEPT_LANGUAGE'
p2686
asbag67
(g88
g69
NtRp2687
(dp2688
g72
(dp2689
g99
g100
ssg81
g2678
sg74
(lp2690
S':'
asbag67
(g88
g69
NtRp2691
(dp2692
g72
(dp2693
sg81
g2678
sg74
(lp2694
g67
(g68
g69
NtRp2695
(dp2696
g72
(dp2697
g80
I3
ssg81
g2691
sg74
(lp2698
g1083
asbasbasbag67
(g83
g69
NtRp2699
(dp2700
g72
(dp2701
sg81
g2632
sg74
(lp2702
g67
(g88
g69
NtRp2703
(dp2704
g72
(dp2705
g92
g93
ssg81
g2699
sg74
(lp2706
S'HTTP_CACHE_CONTROL'
p2707
asbag67
(g88
g69
NtRp2708
(dp2709
g72
(dp2710
g99
g100
ssg81
g2699
sg74
(lp2711
S':'
asbag67
(g88
g69
NtRp2712
(dp2713
g72
(dp2714
sg81
g2699
sg74
(lp2715
g67
(g68
g69
NtRp2716
(dp2717
g72
(dp2718
g80
I3
ssg81
g2712
sg74
(lp2719
g1105
asbasbasbag67
(g83
g69
NtRp2720
(dp2721
g72
(dp2722
sg81
g2632
sg74
(lp2723
g67
(g88
g69
NtRp2724
(dp2725
g72
(dp2726
g92
g93
ssg81
g2720
sg74
(lp2727
S'HTTP_CONNECTION'
p2728
asbag67
(g88
g69
NtRp2729
(dp2730
g72
(dp2731
g99
g100
ssg81
g2720
sg74
(lp2732
S':'
asbag67
(g88
g69
NtRp2733
(dp2734
g72
(dp2735
sg81
g2720
sg74
(lp2736
g67
(g68
g69
NtRp2737
(dp2738
g72
(dp2739
g80
I3
ssg81
g2733
sg74
(lp2740
g1127
asbasbasbag67
(g83
g69
NtRp2741
(dp2742
g72
(dp2743
sg81
g2632
sg74
(lp2744
g67
(g88
g69
NtRp2745
(dp2746
g72
(dp2747
g92
g93
ssg81
g2741
sg74
(lp2748
S'HTTP_COOKIE'
p2749
asbag67
(g88
g69
NtRp2750
(dp2751
g72
(dp2752
g99
g100
ssg81
g2741
sg74
(lp2753
S':'
asbag67
(g88
g69
NtRp2754
(dp2755
g72
(dp2756
sg81
g2741
sg74
(lp2757
g67
(g68
g69
NtRp2758
(dp2759
g72
(dp2760
g80
I3
ssg81
g2754
sg74
(lp2761
g1149
asbasbasbag67
(g83
g69
NtRp2762
(dp2763
g72
(dp2764
sg81
g2632
sg74
(lp2765
g67
(g88
g69
NtRp2766
(dp2767
g72
(dp2768
g92
g93
ssg81
g2762
sg74
(lp2769
S'HTTP_DNT'
p2770
asbag67
(g88
g69
NtRp2771
(dp2772
g72
(dp2773
g99
g100
ssg81
g2762
sg74
(lp2774
S':'
asbag67
(g88
g69
NtRp2775
(dp2776
g72
(dp2777
sg81
g2762
sg74
(lp2778
g67
(g68
g69
NtRp2779
(dp2780
g72
(dp2781
g80
I3
ssg81
g2775
sg74
(lp2782
S'1'
asbasbasbag67
(g83
g69
NtRp2783
(dp2784
g72
(dp2785
sg81
g2632
sg74
(lp2786
g67
(g88
g69
NtRp2787
(dp2788
g72
(dp2789
g92
g93
ssg81
g2783
sg74
(lp2790
S'HTTP_HOST'
p2791
asbag67
(g88
g69
NtRp2792
(dp2793
g72
(dp2794
g99
g100
ssg81
g2783
sg74
(lp2795
S':'
asbag67
(g88
g69
NtRp2796
(dp2797
g72
(dp2798
sg81
g2783
sg74
(lp2799
g67
(g68
g69
NtRp2800
(dp2801
g72
(dp2802
g80
I3
ssg81
g2796
sg74
(lp2803
g1192
asbasbasbag67
(g83
g69
NtRp2804
(dp2805
g72
(dp2806
sg81
g2632
sg74
(lp2807
g67
(g88
g69
NtRp2808
(dp2809
g72
(dp2810
g92
g93
ssg81
g2804
sg74
(lp2811
S'HTTP_REFERER'
p2812
asbag67
(g88
g69
NtRp2813
(dp2814
g72
(dp2815
g99
g100
ssg81
g2804
sg74
(lp2816
S':'
asbag67
(g88
g69
NtRp2817
(dp2818
g72
(dp2819
sg81
g2804
sg74
(lp2820
g67
(g68
g69
NtRp2821
(dp2822
g72
(dp2823
g80
I3
ssg81
g2817
sg74
(lp2824
g1214
asbasbasbag67
(g83
g69
NtRp2825
(dp2826
g72
(dp2827
sg81
g2632
sg74
(lp2828
g67
(g88
g69
NtRp2829
(dp2830
g72
(dp2831
g92
g93
ssg81
g2825
sg74
(lp2832
S'HTTP_USER_AGENT'
p2833
asbag67
(g88
g69
NtRp2834
(dp2835
g72
(dp2836
g99
g100
ssg81
g2825
sg74
(lp2837
S':'
asbag67
(g88
g69
NtRp2838
(dp2839
g72
(dp2840
sg81
g2825
sg74
(lp2841
g67
(g68
g69
NtRp2842
(dp2843
g72
(dp2844
g80
I3
ssg81
g2838
sg74
(lp2845
g1236
asbasbasbag67
(g83
g69
NtRp2846
(dp2847
g72
(dp2848
sg81
g2632
sg74
(lp2849
g67
(g88
g69
NtRp2850
(dp2851
g72
(dp2852
g92
g93
ssg81
g2846
sg74
(lp2853
S'HTTP_WEB2PY_COMPONENT_ELEMENT'
p2854
asbag67
(g88
g69
NtRp2855
(dp2856
g72
(dp2857
g99
g100
ssg81
g2846
sg74
(lp2858
S':'
asbag67
(g88
g69
NtRp2859
(dp2860
g72
(dp2861
sg81
g2846
sg74
(lp2862
g67
(g68
g69
NtRp2863
(dp2864
g72
(dp2865
g80
I3
ssg81
g2859
sg74
(lp2866
g200
asbasbasbag67
(g83
g69
NtRp2867
(dp2868
g72
(dp2869
sg81
g2632
sg74
(lp2870
g67
(g88
g69
NtRp2871
(dp2872
g72
(dp2873
g92
g93
ssg81
g2867
sg74
(lp2874
S'HTTP_WEB2PY_COMPONENT_LOCATION'
p2875
asbag67
(g88
g69
NtRp2876
(dp2877
g72
(dp2878
g99
g100
ssg81
g2867
sg74
(lp2879
S':'
asbag67
(g88
g69
NtRp2880
(dp2881
g72
(dp2882
sg81
g2867
sg74
(lp2883
g67
(g68
g69
NtRp2884
(dp2885
g72
(dp2886
g80
I3
ssg81
g2880
sg74
(lp2887
g1279
asbasbasbag67
(g83
g69
NtRp2888
(dp2889
g72
(dp2890
sg81
g2632
sg74
(lp2891
g67
(g88
g69
NtRp2892
(dp2893
g72
(dp2894
g92
g93
ssg81
g2888
sg74
(lp2895
S'HTTP_X_CLICKONCESUPPORT'
p2896
asbag67
(g88
g69
NtRp2897
(dp2898
g72
(dp2899
g99
g100
ssg81
g2888
sg74
(lp2900
S':'
asbag67
(g88
g69
NtRp2901
(dp2902
g72
(dp2903
sg81
g2888
sg74
(lp2904
g67
(g68
g69
NtRp2905
(dp2906
g72
(dp2907
g80
I3
ssg81
g2901
sg74
(lp2908
g1301
asbasbasbag67
(g83
g69
NtRp2909
(dp2910
g72
(dp2911
sg81
g2632
sg74
(lp2912
g67
(g88
g69
NtRp2913
(dp2914
g72
(dp2915
g92
g93
ssg81
g2909
sg74
(lp2916
S'HTTP_X_REQUESTED_WITH'
p2917
asbag67
(g88
g69
NtRp2918
(dp2919
g72
(dp2920
g99
g100
ssg81
g2909
sg74
(lp2921
S':'
asbag67
(g88
g69
NtRp2922
(dp2923
g72
(dp2924
sg81
g2909
sg74
(lp2925
g67
(g68
g69
NtRp2926
(dp2927
g72
(dp2928
g80
I3
ssg81
g2922
sg74
(lp2929
g1323
asbasbasbag67
(g83
g69
NtRp2930
(dp2931
g72
(dp2932
sg81
g2632
sg74
(lp2933
g67
(g88
g69
NtRp2934
(dp2935
g72
(dp2936
g92
g93
ssg81
g2930
sg74
(lp2937
S'PATH_INFO'
p2938
asbag67
(g88
g69
NtRp2939
(dp2940
g72
(dp2941
g99
g100
ssg81
g2930
sg74
(lp2942
S':'
asbag67
(g88
g69
NtRp2943
(dp2944
g72
(dp2945
sg81
g2930
sg74
(lp2946
g67
(g68
g69
NtRp2947
(dp2948
g72
(dp2949
g80
I3
ssg81
g2943
sg74
(lp2950
g1387
asbasbasbag67
(g83
g69
NtRp2951
(dp2952
g72
(dp2953
sg81
g2632
sg74
(lp2954
g67
(g88
g69
NtRp2955
(dp2956
g72
(dp2957
g92
g93
ssg81
g2951
sg74
(lp2958
S'QUERY_STRING'
p2959
asbag67
(g88
g69
NtRp2960
(dp2961
g72
(dp2962
g99
g100
ssg81
g2951
sg74
(lp2963
S':'
asbag67
(g88
g69
NtRp2964
(dp2965
g72
(dp2966
sg81
g2951
sg74
(lp2967
g67
(g68
g69
NtRp2968
(dp2969
g72
(dp2970
g80
I3
ssg81
g2964
sg74
(lp2971
S''
asbasbasbag67
(g83
g69
NtRp2972
(dp2973
g72
(dp2974
sg81
g2632
sg74
(lp2975
g67
(g88
g69
NtRp2976
(dp2977
g72
(dp2978
g92
g93
ssg81
g2972
sg74
(lp2979
S'REMOTE_ADDR'
p2980
asbag67
(g88
g69
NtRp2981
(dp2982
g72
(dp2983
g99
g100
ssg81
g2972
sg74
(lp2984
S':'
asbag67
(g88
g69
NtRp2985
(dp2986
g72
(dp2987
sg81
g2972
sg74
(lp2988
g67
(g68
g69
NtRp2989
(dp2990
g72
(dp2991
g80
I3
ssg81
g2985
sg74
(lp2992
g222
asbasbasbag67
(g83
g69
NtRp2993
(dp2994
g72
(dp2995
sg81
g2632
sg74
(lp2996
g67
(g88
g69
NtRp2997
(dp2998
g72
(dp2999
g92
g93
ssg81
g2993
sg74
(lp3000
S'REMOTE_PORT'
p3001
asbag67
(g88
g69
NtRp3002
(dp3003
g72
(dp3004
g99
g100
ssg81
g2993
sg74
(lp3005
S':'
asbag67
(g88
g69
NtRp3006
(dp3007
g72
(dp3008
sg81
g2993
sg74
(lp3009
g67
(g68
g69
NtRp3010
(dp3011
g72
(dp3012
g80
I3
ssg81
g3006
sg74
(lp3013
g1451
asbasbasbag67
(g83
g69
NtRp3014
(dp3015
g72
(dp3016
sg81
g2632
sg74
(lp3017
g67
(g88
g69
NtRp3018
(dp3019
g72
(dp3020
g92
g93
ssg81
g3014
sg74
(lp3021
S'REQUEST_METHOD'
p3022
asbag67
(g88
g69
NtRp3023
(dp3024
g72
(dp3025
g99
g100
ssg81
g3014
sg74
(lp3026
S':'
asbag67
(g88
g69
NtRp3027
(dp3028
g72
(dp3029
sg81
g3014
sg74
(lp3030
g67
(g68
g69
NtRp3031
(dp3032
g72
(dp3033
g80
I3
ssg81
g3027
sg74
(lp3034
g1473
asbasbasbag67
(g83
g69
NtRp3035
(dp3036
g72
(dp3037
sg81
g2632
sg74
(lp3038
g67
(g88
g69
NtRp3039
(dp3040
g72
(dp3041
g92
g93
ssg81
g3035
sg74
(lp3042
S'REQUEST_URI'
p3043
asbag67
(g88
g69
NtRp3044
(dp3045
g72
(dp3046
g99
g100
ssg81
g3035
sg74
(lp3047
S':'
asbag67
(g88
g69
NtRp3048
(dp3049
g72
(dp3050
sg81
g3035
sg74
(lp3051
g67
(g68
g69
NtRp3052
(dp3053
g72
(dp3054
g80
I3
ssg81
g3048
sg74
(lp3055
g1387
asbasbasbag67
(g83
g69
NtRp3056
(dp3057
g72
(dp3058
sg81
g2632
sg74
(lp3059
g67
(g88
g69
NtRp3060
(dp3061
g72
(dp3062
g92
g93
ssg81
g3056
sg74
(lp3063
S'SCRIPT_NAME'
p3064
asbag67
(g88
g69
NtRp3065
(dp3066
g72
(dp3067
g99
g100
ssg81
g3056
sg74
(lp3068
S':'
asbag67
(g88
g69
NtRp3069
(dp3070
g72
(dp3071
sg81
g3056
sg74
(lp3072
g67
(g68
g69
NtRp3073
(dp3074
g72
(dp3075
g80
I3
ssg81
g3069
sg74
(lp3076
S''
asbasbasbag67
(g83
g69
NtRp3077
(dp3078
g72
(dp3079
sg81
g2632
sg74
(lp3080
g67
(g88
g69
NtRp3081
(dp3082
g72
(dp3083
g92
g93
ssg81
g3077
sg74
(lp3084
S'SERVER_NAME'
p3085
asbag67
(g88
g69
NtRp3086
(dp3087
g72
(dp3088
g99
g100
ssg81
g3077
sg74
(lp3089
S':'
asbag67
(g88
g69
NtRp3090
(dp3091
g72
(dp3092
sg81
g3077
sg74
(lp3093
g67
(g68
g69
NtRp3094
(dp3095
g72
(dp3096
g80
I3
ssg81
g3090
sg74
(lp3097
g1537
asbasbasbag67
(g83
g69
NtRp3098
(dp3099
g72
(dp3100
sg81
g2632
sg74
(lp3101
g67
(g88
g69
NtRp3102
(dp3103
g72
(dp3104
g92
g93
ssg81
g3098
sg74
(lp3105
S'SERVER_PORT'
p3106
asbag67
(g88
g69
NtRp3107
(dp3108
g72
(dp3109
g99
g100
ssg81
g3098
sg74
(lp3110
S':'
asbag67
(g88
g69
NtRp3111
(dp3112
g72
(dp3113
sg81
g3098
sg74
(lp3114
g67
(g68
g69
NtRp3115
(dp3116
g72
(dp3117
g80
I3
ssg81
g3111
sg74
(lp3118
g1559
asbasbasbag67
(g83
g69
NtRp3119
(dp3120
g72
(dp3121
sg81
g2632
sg74
(lp3122
g67
(g88
g69
NtRp3123
(dp3124
g72
(dp3125
g92
g93
ssg81
g3119
sg74
(lp3126
S'SERVER_PROTOCOL'
p3127
asbag67
(g88
g69
NtRp3128
(dp3129
g72
(dp3130
g99
g100
ssg81
g3119
sg74
(lp3131
S':'
asbag67
(g88
g69
NtRp3132
(dp3133
g72
(dp3134
sg81
g3119
sg74
(lp3135
g67
(g68
g69
NtRp3136
(dp3137
g72
(dp3138
g80
I3
ssg81
g3132
sg74
(lp3139
g1581
asbasbasbag67
(g83
g69
NtRp3140
(dp3141
g72
(dp3142
sg81
g2632
sg74
(lp3143
g67
(g88
g69
NtRp3144
(dp3145
g72
(dp3146
g92
g93
ssg81
g3140
sg74
(lp3147
S'SERVER_SOFTWARE'
p3148
asbag67
(g88
g69
NtRp3149
(dp3150
g72
(dp3151
g99
g100
ssg81
g3140
sg74
(lp3152
S':'
asbag67
(g88
g69
NtRp3153
(dp3154
g72
(dp3155
sg81
g3140
sg74
(lp3156
g67
(g68
g69
NtRp3157
(dp3158
g72
(dp3159
g80
I3
ssg81
g3153
sg74
(lp3160
g1603
asbasbasbag67
(g83
g69
NtRp3161
(dp3162
g72
(dp3163
sg81
g2632
sg74
(lp3164
g67
(g88
g69
NtRp3165
(dp3166
g72
(dp3167
g92
g93
ssg81
g3161
sg74
(lp3168
S'wsgi.errors'
p3169
asbag67
(g88
g69
NtRp3170
(dp3171
g72
(dp3172
g99
g100
ssg81
g3161
sg74
(lp3173
S':'
asbag67
(g88
g69
NtRp3174
(dp3175
g72
(dp3176
sg81
g3161
sg74
(lp3177
g67
(g68
g69
NtRp3178
(dp3179
g72
(dp3180
g80
I3
ssg81
g3174
sg74
(lp3181
S"<open file '<stderr>', mode 'w' at 0x021750D0>"
p3182
asbasbasbag67
(g83
g69
NtRp3183
(dp3184
g72
(dp3185
sg81
g2632
sg74
(lp3186
g67
(g88
g69
NtRp3187
(dp3188
g72
(dp3189
g92
g93
ssg81
g3183
sg74
(lp3190
S'wsgi.file_wrapper'
p3191
asbag67
(g88
g69
NtRp3192
(dp3193
g72
(dp3194
g99
g100
ssg81
g3183
sg74
(lp3195
S':'
asbag67
(g88
g69
NtRp3196
(dp3197
g72
(dp3198
sg81
g3183
sg74
(lp3199
g67
(g68
g69
NtRp3200
(dp3201
g72
(dp3202
g80
I3
ssg81
g3196
sg74
(lp3203
S'<class wsgiref.util.FileWrapper at 0x0310D030>'
p3204
asbasbasbag67
(g83
g69
NtRp3205
(dp3206
g72
(dp3207
sg81
g2632
sg74
(lp3208
g67
(g88
g69
NtRp3209
(dp3210
g72
(dp3211
g92
g93
ssg81
g3205
sg74
(lp3212
S'wsgi.input'
p3213
asbag67
(g88
g69
NtRp3214
(dp3215
g72
(dp3216
g99
g100
ssg81
g3205
sg74
(lp3217
S':'
asbag67
(g88
g69
NtRp3218
(dp3219
g72
(dp3220
sg81
g3205
sg74
(lp3221
g67
(g68
g69
NtRp3222
(dp3223
g72
(dp3224
g80
I3
ssg81
g3218
sg74
(lp3225
S'<cStringIO.StringO object at 0x034E8520>'
p3226
asbasbasbag67
(g83
g69
NtRp3227
(dp3228
g72
(dp3229
sg81
g2632
sg74
(lp3230
g67
(g88
g69
NtRp3231
(dp3232
g72
(dp3233
g92
g93
ssg81
g3227
sg74
(lp3234
S'wsgi.multiprocess'
p3235
asbag67
(g88
g69
NtRp3236
(dp3237
g72
(dp3238
g99
g100
ssg81
g3227
sg74
(lp3239
S':'
asbag67
(g88
g69
NtRp3240
(dp3241
g72
(dp3242
sg81
g3227
sg74
(lp3243
g67
(g68
g69
NtRp3244
(dp3245
g72
(dp3246
g80
I3
ssg81
g3240
sg74
(lp3247
g995
asbasbasbag67
(g83
g69
NtRp3248
(dp3249
g72
(dp3250
sg81
g2632
sg74
(lp3251
g67
(g88
g69
NtRp3252
(dp3253
g72
(dp3254
g92
g93
ssg81
g3248
sg74
(lp3255
S'wsgi.multithread'
p3256
asbag67
(g88
g69
NtRp3257
(dp3258
g72
(dp3259
g99
g100
ssg81
g3248
sg74
(lp3260
S':'
asbag67
(g88
g69
NtRp3261
(dp3262
g72
(dp3263
sg81
g3248
sg74
(lp3264
g67
(g68
g69
NtRp3265
(dp3266
g72
(dp3267
g80
I3
ssg81
g3261
sg74
(lp3268
g110
asbasbasbag67
(g83
g69
NtRp3269
(dp3270
g72
(dp3271
sg81
g2632
sg74
(lp3272
g67
(g88
g69
NtRp3273
(dp3274
g72
(dp3275
g92
g93
ssg81
g3269
sg74
(lp3276
S'wsgi.run_once'
p3277
asbag67
(g88
g69
NtRp3278
(dp3279
g72
(dp3280
g99
g100
ssg81
g3269
sg74
(lp3281
S':'
asbag67
(g88
g69
NtRp3282
(dp3283
g72
(dp3284
sg81
g3269
sg74
(lp3285
g67
(g68
g69
NtRp3286
(dp3287
g72
(dp3288
g80
I3
ssg81
g3282
sg74
(lp3289
g995
asbasbasbag67
(g83
g69
NtRp3290
(dp3291
g72
(dp3292
sg81
g2632
sg74
(lp3293
g67
(g88
g69
NtRp3294
(dp3295
g72
(dp3296
g92
g93
ssg81
g3290
sg74
(lp3297
S'wsgi.url_scheme'
p3298
asbag67
(g88
g69
NtRp3299
(dp3300
g72
(dp3301
g99
g100
ssg81
g3290
sg74
(lp3302
S':'
asbag67
(g88
g69
NtRp3303
(dp3304
g72
(dp3305
sg81
g3290
sg74
(lp3306
g67
(g68
g69
NtRp3307
(dp3308
g72
(dp3309
g80
I3
ssg81
g3303
sg74
(lp3310
g1884
asbasbasbag67
(g83
g69
NtRp3311
(dp3312
g72
(dp3313
sg81
g2632
sg74
(lp3314
g67
(g88
g69
NtRp3315
(dp3316
g72
(dp3317
g92
g93
ssg81
g3311
sg74
(lp3318
S'wsgi.version'
p3319
asbag67
(g88
g69
NtRp3320
(dp3321
g72
(dp3322
g99
g100
ssg81
g3311
sg74
(lp3323
S':'
asbag67
(g88
g69
NtRp3324
(dp3325
g72
(dp3326
sg81
g3311
sg74
(lp3327
g67
(g68
g69
NtRp3328
(dp3329
g72
(dp3330
g80
I3
ssg81
g3324
sg74
(lp3331
S'1'
asbasbasbasbasbasbasbasbasbasbasbasbasbsS'frames'
p3332
(lp3333
(dp3334
S'file'
p3335
S'C:\\xampp\\htdocs\\web2py\\gluon\\restricted.py'
p3336
sS'dump'
p3337
(dp3338
sS'lnum'
p3339
I208
sS'lines'
p3340
(dp3341
sS'call'
p3342
S'(code=\'response.write(\\\'<div id="plugin_feedbacks_contai...\\\\r\\\\n\\\\t\\\\r\\\\n</script>\\\\r\\\\n\\\\r\\\\n</div>\\\', escape=False)\', environment={\'A\': <class \'gluon.html.A\'>, \'Auth\': <class \'gluon.tools.Auth\'>, \'B\': <class \'gluon.html.B\'>, \'BEAUTIFY\': <class \'gluon.html.BEAUTIFY\'>, \'BODY\': <class \'gluon.html.BODY\'>, \'BR\': <class \'gluon.html.BR\'>, \'BUTTON\': <class \'gluon.html.BUTTON\'>, \'CAT\': <class \'gluon.html.CAT\'>, \'CENTER\': <class \'gluon.html.CENTER\'>, \'CLEANUP\': <class \'gluon.validators.CLEANUP\'>, ...}, layer=r\'C:\\xampp\\htdocs\\web2py\\applications\\testumgebung\\views\\plugin_feedbacks/feedback.load\')'
p3343
sS'func'
p3344
S'restricted'
p3345
sa(dp3346
g3335
S'C:\\xampp\\htdocs\\web2py\\gluon\\restricted.py'
p3347
sg3337
(dp3348
sg3339
I193
sg3340
(dp3349
sg3342
S'(code=\'response.write(\\\'<div id="plugin_feedbacks_contai...\\\\r\\\\n\\\\t\\\\r\\\\n</script>\\\\r\\\\n\\\\r\\\\n</div>\\\', escape=False)\', layer=r\'C:\\xampp\\htdocs\\web2py\\applications\\testumgebung\\views\\plugin_feedbacks/feedback.load\')'
p3350
sg3344
S'compile2'
p3351
sasS'pyver'
p3352
S'Python 2.7: C:\\xampp\\htdocs\\web2py\\web2py.exe'
p3353
sS'session'
p3354
g67
(g68
g69
NtRp3355
(dp3356
g72
(dp3357
sg74
(lp3358
g67
(g76
g69
NtRp3359
(dp3360
g72
(dp3361
g80
I5
ssg81
Nsg74
(lp3362
g67
(g83
g69
NtRp3363
(dp3364
g72
(dp3365
sg81
g3359
sg74
(lp3366
g67
(g88
g69
NtRp3367
(dp3368
g72
(dp3369
g92
g93
ssg81
g3363
sg74
(lp3370
S'auth'
p3371
asbag67
(g88
g69
NtRp3372
(dp3373
g72
(dp3374
g99
g100
ssg81
g3363
sg74
(lp3375
S':'
asbag67
(g88
g69
NtRp3376
(dp3377
g72
(dp3378
sg81
g3363
sg74
(lp3379
g67
(g68
g69
NtRp3380
(dp3381
g72
(dp3382
g80
I5
ssg81
g3376
sg74
(lp3383
S'None'
p3384
asbasbasbag67
(g83
g69
NtRp3385
(dp3386
g72
(dp3387
sg81
g3359
sg74
(lp3388
g67
(g88
g69
NtRp3389
(dp3390
g72
(dp3391
g92
g93
ssg81
g3385
sg74
(lp3392
S'plugin_feedbacks'
p3393
asbag67
(g88
g69
NtRp3394
(dp3395
g72
(dp3396
g99
g100
ssg81
g3385
sg74
(lp3397
S':'
asbag67
(g88
g69
NtRp3398
(dp3399
g72
(dp3400
sg81
g3385
sg74
(lp3401
g67
(g68
g69
NtRp3402
(dp3403
g72
(dp3404
g80
I5
ssg81
g3398
sg74
(lp3405
g67
(g76
g69
NtRp3406
(dp3407
g72
(dp3408
g80
I4
ssg81
Nsg74
(lp3409
g67
(g83
g69
NtRp3410
(dp3411
g72
(dp3412
sg81
g3406
sg74
(lp3413
g67
(g88
g69
NtRp3414
(dp3415
g72
(dp3416
g92
g93
ssg81
g3410
sg74
(lp3417
S'sentFeedback'
p3418
asbag67
(g88
g69
NtRp3419
(dp3420
g72
(dp3421
g99
g100
ssg81
g3410
sg74
(lp3422
S':'
asbag67
(g88
g69
NtRp3423
(dp3424
g72
(dp3425
sg81
g3410
sg74
(lp3426
g67
(g68
g69
NtRp3427
(dp3428
g72
(dp3429
g80
I4
ssg81
g3423
sg74
(lp3430
S'0'
asbasbasbag67
(g83
g69
NtRp3431
(dp3432
g72
(dp3433
sg81
g3406
sg74
(lp3434
g67
(g88
g69
NtRp3435
(dp3436
g72
(dp3437
g92
g93
ssg81
g3431
sg74
(lp3438
S'time'
p3439
asbag67
(g88
g69
NtRp3440
(dp3441
g72
(dp3442
g99
g100
ssg81
g3431
sg74
(lp3443
S':'
asbag67
(g88
g69
NtRp3444
(dp3445
g72
(dp3446
sg81
g3431
sg74
(lp3447
g67
(g68
g69
NtRp3448
(dp3449
g72
(dp3450
g80
I4
ssg81
g3444
sg74
(lp3451
S'datetime.datetime(2012, 12, 18, 12, 50, 7, 203000)'
p3452
asbasbasbasbasbasbasbasbasbsS'etype'
p3453
S"<type 'exceptions.SyntaxError'>"
p3454
sS'date'
p3455
S'Tue Dec 18 12:50:07 2012'
p3456
sS'response'
p3457
g67
(g68
g69
NtRp3458
(dp3459
g72
(dp3460
sg74
(lp3461
g67
(g76
g69
NtRp3462
(dp3463
g72
(dp3464
g80
I5
ssg81
Nsg74
(lp3465
g67
(g83
g69
NtRp3466
(dp3467
g72
(dp3468
sg81
g3462
sg74
(lp3469
g67
(g88
g69
NtRp3470
(dp3471
g72
(dp3472
g92
g93
ssg81
g3466
sg74
(lp3473
g165
asbag67
(g88
g69
NtRp3474
(dp3475
g72
(dp3476
g99
g100
ssg81
g3466
sg74
(lp3477
S':'
asbag67
(g88
g69
NtRp3478
(dp3479
g72
(dp3480
sg81
g3466
sg74
(lp3481
g67
(g68
g69
NtRp3482
(dp3483
g72
(dp3484
g80
I5
ssg81
g3478
sg74
(lp3485
S'<cStringIO.StringO object at 0x082E16C0>'
p3486
asbasbasbag67
(g83
g69
NtRp3487
(dp3488
g72
(dp3489
sg81
g3462
sg74
(lp3490
g67
(g88
g69
NtRp3491
(dp3492
g72
(dp3493
g92
g93
ssg81
g3487
sg74
(lp3494
g253
asbag67
(g88
g69
NtRp3495
(dp3496
g72
(dp3497
g99
g100
ssg81
g3487
sg74
(lp3498
S':'
asbag67
(g88
g69
NtRp3499
(dp3500
g72
(dp3501
sg81
g3487
sg74
(lp3502
g67
(g68
g69
NtRp3503
(dp3504
g72
(dp3505
g80
I5
ssg81
g3499
sg74
(lp3506
g67
(g76
g69
NtRp3507
(dp3508
g72
(dp3509
g80
I4
ssg81
Nsg74
(lp3510
g67
(g83
g69
NtRp3511
(dp3512
g72
(dp3513
sg81
g3507
sg74
(lp3514
g67
(g88
g69
NtRp3515
(dp3516
g72
(dp3517
g92
g93
ssg81
g3511
sg74
(lp3518
S'session_id_testumgebung'
p3519
asbag67
(g88
g69
NtRp3520
(dp3521
g72
(dp3522
g99
g100
ssg81
g3511
sg74
(lp3523
S':'
asbag67
(g88
g69
NtRp3524
(dp3525
g72
(dp3526
sg81
g3511
sg74
(lp3527
g67
(g68
g69
NtRp3528
(dp3529
g72
(dp3530
g80
I4
ssg81
g3524
sg74
(lp3531
g485
ag67
(g76
g69
NtRp3532
(dp3533
g72
(dp3534
g80
I3
ssg81
Nsg74
(lp3535
g67
(g83
g69
NtRp3536
(dp3537
g72
(dp3538
sg81
g3532
sg74
(lp3539
g67
(g88
g69
NtRp3540
(dp3541
g72
(dp3542
g92
g93
ssg81
g3536
sg74
(lp3543
g304
asbag67
(g88
g69
NtRp3544
(dp3545
g72
(dp3546
g99
g100
ssg81
g3536
sg74
(lp3547
S':'
asbag67
(g88
g69
NtRp3548
(dp3549
g72
(dp3550
sg81
g3536
sg74
(lp3551
g67
(g68
g69
NtRp3552
(dp3553
g72
(dp3554
g80
I3
ssg81
g3548
sg74
(lp3555
S''
asbasbasbag67
(g83
g69
NtRp3556
(dp3557
g72
(dp3558
sg81
g3532
sg74
(lp3559
g67
(g88
g69
NtRp3560
(dp3561
g72
(dp3562
g92
g93
ssg81
g3556
sg74
(lp3563
g325
asbag67
(g88
g69
NtRp3564
(dp3565
g72
(dp3566
g99
g100
ssg81
g3556
sg74
(lp3567
S':'
asbag67
(g88
g69
NtRp3568
(dp3569
g72
(dp3570
sg81
g3556
sg74
(lp3571
g67
(g68
g69
NtRp3572
(dp3573
g72
(dp3574
g80
I3
ssg81
g3568
sg74
(lp3575
S''
asbasbasbag67
(g83
g69
NtRp3576
(dp3577
g72
(dp3578
sg81
g3532
sg74
(lp3579
g67
(g88
g69
NtRp3580
(dp3581
g72
(dp3582
g92
g93
ssg81
g3576
sg74
(lp3583
g346
asbag67
(g88
g69
NtRp3584
(dp3585
g72
(dp3586
g99
g100
ssg81
g3576
sg74
(lp3587
S':'
asbag67
(g88
g69
NtRp3588
(dp3589
g72
(dp3590
sg81
g3576
sg74
(lp3591
g67
(g68
g69
NtRp3592
(dp3593
g72
(dp3594
g80
I3
ssg81
g3588
sg74
(lp3595
S''
asbasbasbag67
(g83
g69
NtRp3596
(dp3597
g72
(dp3598
sg81
g3532
sg74
(lp3599
g67
(g88
g69
NtRp3600
(dp3601
g72
(dp3602
g92
g93
ssg81
g3596
sg74
(lp3603
g367
asbag67
(g88
g69
NtRp3604
(dp3605
g72
(dp3606
g99
g100
ssg81
g3596
sg74
(lp3607
S':'
asbag67
(g88
g69
NtRp3608
(dp3609
g72
(dp3610
sg81
g3596
sg74
(lp3611
g67
(g68
g69
NtRp3612
(dp3613
g72
(dp3614
g80
I3
ssg81
g3608
sg74
(lp3615
S''
asbasbasbag67
(g83
g69
NtRp3616
(dp3617
g72
(dp3618
sg81
g3532
sg74
(lp3619
g67
(g88
g69
NtRp3620
(dp3621
g72
(dp3622
g92
g93
ssg81
g3616
sg74
(lp3623
g388
asbag67
(g88
g69
NtRp3624
(dp3625
g72
(dp3626
g99
g100
ssg81
g3616
sg74
(lp3627
S':'
asbag67
(g88
g69
NtRp3628
(dp3629
g72
(dp3630
sg81
g3616
sg74
(lp3631
g67
(g68
g69
NtRp3632
(dp3633
g72
(dp3634
g80
I3
ssg81
g3628
sg74
(lp3635
S''
asbasbasbag67
(g83
g69
NtRp3636
(dp3637
g72
(dp3638
sg81
g3532
sg74
(lp3639
g67
(g88
g69
NtRp3640
(dp3641
g72
(dp3642
g92
g93
ssg81
g3636
sg74
(lp3643
g409
asbag67
(g88
g69
NtRp3644
(dp3645
g72
(dp3646
g99
g100
ssg81
g3636
sg74
(lp3647
S':'
asbag67
(g88
g69
NtRp3648
(dp3649
g72
(dp3650
sg81
g3636
sg74
(lp3651
g67
(g68
g69
NtRp3652
(dp3653
g72
(dp3654
g80
I3
ssg81
g3648
sg74
(lp3655
S'/'
asbasbasbag67
(g83
g69
NtRp3656
(dp3657
g72
(dp3658
sg81
g3532
sg74
(lp3659
g67
(g88
g69
NtRp3660
(dp3661
g72
(dp3662
g92
g93
ssg81
g3656
sg74
(lp3663
g430
asbag67
(g88
g69
NtRp3664
(dp3665
g72
(dp3666
g99
g100
ssg81
g3656
sg74
(lp3667
S':'
asbag67
(g88
g69
NtRp3668
(dp3669
g72
(dp3670
sg81
g3656
sg74
(lp3671
g67
(g68
g69
NtRp3672
(dp3673
g72
(dp3674
g80
I3
ssg81
g3668
sg74
(lp3675
S''
asbasbasbag67
(g83
g69
NtRp3676
(dp3677
g72
(dp3678
sg81
g3532
sg74
(lp3679
g67
(g88
g69
NtRp3680
(dp3681
g72
(dp3682
g92
g93
ssg81
g3676
sg74
(lp3683
g451
asbag67
(g88
g69
NtRp3684
(dp3685
g72
(dp3686
g99
g100
ssg81
g3676
sg74
(lp3687
S':'
asbag67
(g88
g69
NtRp3688
(dp3689
g72
(dp3690
sg81
g3676
sg74
(lp3691
g67
(g68
g69
NtRp3692
(dp3693
g72
(dp3694
g80
I3
ssg81
g3688
sg74
(lp3695
S''
asbasbasbasbasbasbasbasbasbasbasbag67
(g83
g69
NtRp3696
(dp3697
g72
(dp3698
sg81
g3462
sg74
(lp3699
g67
(g88
g69
NtRp3700
(dp3701
g72
(dp3702
g92
g93
ssg81
g3696
sg74
(lp3703
S'delimiters'
p3704
asbag67
(g88
g69
NtRp3705
(dp3706
g72
(dp3707
g99
g100
ssg81
g3696
sg74
(lp3708
S':'
asbag67
(g88
g69
NtRp3709
(dp3710
g72
(dp3711
sg81
g3696
sg74
(lp3712
g67
(g68
g69
NtRp3713
(dp3714
g72
(dp3715
g80
I5
ssg81
g3709
sg74
(lp3716
g67
(g76
g69
NtRp3717
(dp3718
g72
(dp3719
g80
I4
ssg81
Nsg74
(lp3720
g67
(g83
g69
NtRp3721
(dp3722
g72
(dp3723
sg81
g3717
sg74
(lp3724
g67
(g88
g69
NtRp3725
(dp3726
g72
(dp3727
sg81
g3721
sg74
(lp3728
g67
(g68
g69
NtRp3729
(dp3730
g72
(dp3731
g80
I4
ssg81
g3725
sg74
(lp3732
S'{{'
p3733
asbasbasbag67
(g83
g69
NtRp3734
(dp3735
g72
(dp3736
sg81
g3717
sg74
(lp3737
g67
(g88
g69
NtRp3738
(dp3739
g72
(dp3740
sg81
g3734
sg74
(lp3741
g67
(g68
g69
NtRp3742
(dp3743
g72
(dp3744
g80
I4
ssg81
g3738
sg74
(lp3745
S'}}'
p3746
asbasbasbasbasbasbasbag67
(g83
g69
NtRp3747
(dp3748
g72
(dp3749
sg81
g3462
sg74
(lp3750
g67
(g88
g69
NtRp3751
(dp3752
g72
(dp3753
g92
g93
ssg81
g3747
sg74
(lp3754
S'files'
p3755
asbag67
(g88
g69
NtRp3756
(dp3757
g72
(dp3758
g99
g100
ssg81
g3747
sg74
(lp3759
S':'
asbag67
(g88
g69
NtRp3760
(dp3761
g72
(dp3762
sg81
g3747
sg74
(lp3763
g67
(g68
g69
NtRp3764
(dp3765
g72
(dp3766
g80
I5
ssg81
g3760
sg74
(lp3767
g67
(g76
g69
NtRp3768
(dp3769
g72
(dp3770
g80
I4
ssg81
Nsg74
(lp3771
sbasbasbasbag67
(g83
g69
NtRp3772
(dp3773
g72
(dp3774
sg81
g3462
sg74
(lp3775
g67
(g88
g69
NtRp3776
(dp3777
g72
(dp3778
g92
g93
ssg81
g3772
sg74
(lp3779
S'flash'
p3780
asbag67
(g88
g69
NtRp3781
(dp3782
g72
(dp3783
g99
g100
ssg81
g3772
sg74
(lp3784
S':'
asbag67
(g88
g69
NtRp3785
(dp3786
g72
(dp3787
sg81
g3772
sg74
(lp3788
g67
(g68
g69
NtRp3789
(dp3790
g72
(dp3791
g80
I5
ssg81
g3785
sg74
(lp3792
S''
asbasbasbag67
(g83
g69
NtRp3793
(dp3794
g72
(dp3795
sg81
g3462
sg74
(lp3796
g67
(g88
g69
NtRp3797
(dp3798
g72
(dp3799
g92
g93
ssg81
g3793
sg74
(lp3800
S'generic_patterns'
p3801
asbag67
(g88
g69
NtRp3802
(dp3803
g72
(dp3804
g99
g100
ssg81
g3793
sg74
(lp3805
S':'
asbag67
(g88
g69
NtRp3806
(dp3807
g72
(dp3808
sg81
g3793
sg74
(lp3809
g67
(g68
g69
NtRp3810
(dp3811
g72
(dp3812
g80
I5
ssg81
g3806
sg74
(lp3813
g67
(g76
g69
NtRp3814
(dp3815
g72
(dp3816
g80
I4
ssg81
Nsg74
(lp3817
g67
(g83
g69
NtRp3818
(dp3819
g72
(dp3820
sg81
g3814
sg74
(lp3821
g67
(g88
g69
NtRp3822
(dp3823
g72
(dp3824
sg81
g3818
sg74
(lp3825
g67
(g68
g69
NtRp3826
(dp3827
g72
(dp3828
g80
I4
ssg81
g3822
sg74
(lp3829
S'*'
asbasbasbasbasbasbasbag67
(g83
g69
NtRp3830
(dp3831
g72
(dp3832
sg81
g3462
sg74
(lp3833
g67
(g88
g69
NtRp3834
(dp3835
g72
(dp3836
g92
g93
ssg81
g3830
sg74
(lp3837
S'google_analytics_id'
p3838
asbag67
(g88
g69
NtRp3839
(dp3840
g72
(dp3841
g99
g100
ssg81
g3830
sg74
(lp3842
S':'
asbag67
(g88
g69
NtRp3843
(dp3844
g72
(dp3845
sg81
g3830
sg74
(lp3846
g67
(g68
g69
NtRp3847
(dp3848
g72
(dp3849
g80
I5
ssg81
g3843
sg74
(lp3850
S'None'
p3851
asbasbasbag67
(g83
g69
NtRp3852
(dp3853
g72
(dp3854
sg81
g3462
sg74
(lp3855
g67
(g88
g69
NtRp3856
(dp3857
g72
(dp3858
g92
g93
ssg81
g3852
sg74
(lp3859
S'headers'
p3860
asbag67
(g88
g69
NtRp3861
(dp3862
g72
(dp3863
g99
g100
ssg81
g3852
sg74
(lp3864
S':'
asbag67
(g88
g69
NtRp3865
(dp3866
g72
(dp3867
sg81
g3852
sg74
(lp3868
g67
(g68
g69
NtRp3869
(dp3870
g72
(dp3871
g80
I5
ssg81
g3865
sg74
(lp3872
g67
(g76
g69
NtRp3873
(dp3874
g72
(dp3875
g80
I4
ssg81
Nsg74
(lp3876
g67
(g83
g69
NtRp3877
(dp3878
g72
(dp3879
sg81
g3873
sg74
(lp3880
g67
(g88
g69
NtRp3881
(dp3882
g72
(dp3883
g92
g93
ssg81
g3877
sg74
(lp3884
S'Cache-Control'
p3885
asbag67
(g88
g69
NtRp3886
(dp3887
g72
(dp3888
g99
g100
ssg81
g3877
sg74
(lp3889
S':'
asbag67
(g88
g69
NtRp3890
(dp3891
g72
(dp3892
sg81
g3877
sg74
(lp3893
g67
(g68
g69
NtRp3894
(dp3895
g72
(dp3896
g80
I4
ssg81
g3890
sg74
(lp3897
S'no-store, no-cache, must-revalidate, post-check=0, pre-check=0'
p3898
asbasbasbag67
(g83
g69
NtRp3899
(dp3900
g72
(dp3901
sg81
g3873
sg74
(lp3902
g67
(g88
g69
NtRp3903
(dp3904
g72
(dp3905
g92
g93
ssg81
g3899
sg74
(lp3906
S'Content-Type'
p3907
asbag67
(g88
g69
NtRp3908
(dp3909
g72
(dp3910
g99
g100
ssg81
g3899
sg74
(lp3911
S':'
asbag67
(g88
g69
NtRp3912
(dp3913
g72
(dp3914
sg81
g3899
sg74
(lp3915
g67
(g68
g69
NtRp3916
(dp3917
g72
(dp3918
g80
I4
ssg81
g3912
sg74
(lp3919
S'text/html; charset=utf-8'
p3920
asbasbasbag67
(g83
g69
NtRp3921
(dp3922
g72
(dp3923
sg81
g3873
sg74
(lp3924
g67
(g88
g69
NtRp3925
(dp3926
g72
(dp3927
g92
g93
ssg81
g3921
sg74
(lp3928
S'Expires'
p3929
asbag67
(g88
g69
NtRp3930
(dp3931
g72
(dp3932
g99
g100
ssg81
g3921
sg74
(lp3933
S':'
asbag67
(g88
g69
NtRp3934
(dp3935
g72
(dp3936
sg81
g3921
sg74
(lp3937
g67
(g68
g69
NtRp3938
(dp3939
g72
(dp3940
g80
I4
ssg81
g3934
sg74
(lp3941
S'Tue, 18 Dec 2012 11:50:07 GMT'
p3942
asbasbasbag67
(g83
g69
NtRp3943
(dp3944
g72
(dp3945
sg81
g3873
sg74
(lp3946
g67
(g88
g69
NtRp3947
(dp3948
g72
(dp3949
g92
g93
ssg81
g3943
sg74
(lp3950
S'Pragma'
p3951
asbag67
(g88
g69
NtRp3952
(dp3953
g72
(dp3954
g99
g100
ssg81
g3943
sg74
(lp3955
S':'
asbag67
(g88
g69
NtRp3956
(dp3957
g72
(dp3958
sg81
g3943
sg74
(lp3959
g67
(g68
g69
NtRp3960
(dp3961
g72
(dp3962
g80
I4
ssg81
g3956
sg74
(lp3963
S'no-cache'
p3964
asbasbasbag67
(g83
g69
NtRp3965
(dp3966
g72
(dp3967
sg81
g3873
sg74
(lp3968
g67
(g88
g69
NtRp3969
(dp3970
g72
(dp3971
g92
g93
ssg81
g3965
sg74
(lp3972
S'X-Powered-By'
p3973
asbag67
(g88
g69
NtRp3974
(dp3975
g72
(dp3976
g99
g100
ssg81
g3965
sg74
(lp3977
S':'
asbag67
(g88
g69
NtRp3978
(dp3979
g72
(dp3980
sg81
g3965
sg74
(lp3981
g67
(g68
g69
NtRp3982
(dp3983
g72
(dp3984
g80
I4
ssg81
g3978
sg74
(lp3985
S'web2py'
p3986
asbasbasbasbasbasbasbag67
(g83
g69
NtRp3987
(dp3988
g72
(dp3989
sg81
g3462
sg74
(lp3990
g67
(g88
g69
NtRp3991
(dp3992
g72
(dp3993
g92
g93
ssg81
g3987
sg74
(lp3994
S'menu'
p3995
asbag67
(g88
g69
NtRp3996
(dp3997
g72
(dp3998
g99
g100
ssg81
g3987
sg74
(lp3999
S':'
asbag67
(g88
g69
NtRp4000
(dp4001
g72
(dp4002
sg81
g3987
sg74
(lp4003
g67
(g68
g69
NtRp4004
(dp4005
g72
(dp4006
g80
I5
ssg81
g4000
sg74
(lp4007
g67
(g76
g69
NtRp4008
(dp4009
g72
(dp4010
g80
I4
ssg81
Nsg74
(lp4011
g67
(g83
g69
NtRp4012
(dp4013
g72
(dp4014
sg81
g4008
sg74
(lp4015
g67
(g88
g69
NtRp4016
(dp4017
g72
(dp4018
sg81
g4012
sg74
(lp4019
g67
(g68
g69
NtRp4020
(dp4021
g72
(dp4022
g80
I4
ssg81
g4016
sg74
(lp4023
g67
(g76
g69
NtRp4024
(dp4025
g72
(dp4026
g80
I3
ssg81
Nsg74
(lp4027
g67
(g83
g69
NtRp4028
(dp4029
g72
(dp4030
sg81
g4024
sg74
(lp4031
g67
(g88
g69
NtRp4032
(dp4033
g72
(dp4034
sg81
g4028
sg74
(lp4035
g67
(g68
g69
NtRp4036
(dp4037
g72
(dp4038
g80
I3
ssg81
g4032
sg74
(lp4039
cgluon.languages
lazyT_unpickle
p4040
(S't\x04\x00\x00\x00Home'
tRp4041
asbasbasbag67
(g83
g69
NtRp4042
(dp4043
g72
(dp4044
sg81
g4024
sg74
(lp4045
g67
(g88
g69
NtRp4046
(dp4047
g72
(dp4048
sg81
g4042
sg74
(lp4049
g67
(g68
g69
NtRp4050
(dp4051
g72
(dp4052
g80
I3
ssg81
g4046
sg74
(lp4053
g995
asbasbasbag67
(g83
g69
NtRp4054
(dp4055
g72
(dp4056
sg81
g4024
sg74
(lp4057
g67
(g88
g69
NtRp4058
(dp4059
g72
(dp4060
sg81
g4054
sg74
(lp4061
g67
(g68
g69
NtRp4062
(dp4063
g72
(dp4064
g80
I3
ssg81
g4058
sg74
(lp4065
S'/testumgebung/default/index.load'
p4066
asbasbasbag67
(g83
g69
NtRp4067
(dp4068
g72
(dp4069
sg81
g4024
sg74
(lp4070
g67
(g88
g69
NtRp4071
(dp4072
g72
(dp4073
sg81
g4067
sg74
(lp4074
g67
(g68
g69
NtRp4075
(dp4076
g72
(dp4077
g80
I3
ssg81
g4071
sg74
(lp4078
g67
(g76
g69
NtRp4079
(dp4080
g72
(dp4081
g80
I2
ssg81
Nsg74
(lp4082
sbasbasbasbasbasbasbasbag67
(g83
g69
NtRp4083
(dp4084
g72
(dp4085
sg81
g4008
sg74
(lp4086
g67
(g88
g69
NtRp4087
(dp4088
g72
(dp4089
sg81
g4083
sg74
(lp4090
g67
(g68
g69
NtRp4091
(dp4092
g72
(dp4093
g80
I4
ssg81
g4087
sg74
(lp4094
g67
(g76
g69
NtRp4095
(dp4096
g72
(dp4097
g80
I3
ssg81
Nsg74
(lp4098
g67
(g83
g69
NtRp4099
(dp4100
g72
(dp4101
sg81
g4095
sg74
(lp4102
g67
(g88
g69
NtRp4103
(dp4104
g72
(dp4105
sg81
g4099
sg74
(lp4106
g67
(g68
g69
NtRp4107
(dp4108
g72
(dp4109
g80
I3
ssg81
g4103
sg74
(lp4110
g67
(cgluon.html
SPAN
p4111
g69
NtRp4112
(dp4113
g72
(dp4114
g92
S'color:yellow'
p4115
ssg81
Nsg74
(lp4116
g3986
asbasbasbasbag67
(g83
g69
NtRp4117
(dp4118
g72
(dp4119
sg81
g4095
sg74
(lp4120
g67
(g88
g69
NtRp4121
(dp4122
g72
(dp4123
sg81
g4117
sg74
(lp4124
g67
(g68
g69
NtRp4125
(dp4126
g72
(dp4127
g80
I3
ssg81
g4121
sg74
(lp4128
g995
asbasbasbag67
(g83
g69
NtRp4129
(dp4130
g72
(dp4131
sg81
g4095
sg74
(lp4132
g67
(g88
g69
NtRp4133
(dp4134
g72
(dp4135
sg81
g4129
sg74
(lp4136
g67
(g68
g69
NtRp4137
(dp4138
g72
(dp4139
g80
I3
ssg81
g4133
sg74
(lp4140
S'http://web2py.com'
p4141
asbasbasbag67
(g83
g69
NtRp4142
(dp4143
g72
(dp4144
sg81
g4095
sg74
(lp4145
g67
(g88
g69
NtRp4146
(dp4147
g72
(dp4148
sg81
g4142
sg74
(lp4149
g67
(g68
g69
NtRp4150
(dp4151
g72
(dp4152
g80
I3
ssg81
g4146
sg74
(lp4153
g67
(g76
g69
NtRp4154
(dp4155
g72
(dp4156
g80
I2
ssg81
Nsg74
(lp4157
g67
(g83
g69
NtRp4158
(dp4159
g72
(dp4160
sg81
g4154
sg74
(lp4161
g67
(g88
g69
NtRp4162
(dp4163
g72
(dp4164
sg81
g4158
sg74
(lp4165
g67
(g68
g69
NtRp4166
(dp4167
g72
(dp4168
g80
I2
ssg81
g4162
sg74
(lp4169
g67
(g76
g69
NtRp4170
(dp4171
g72
(dp4172
g80
I1
ssg81
Nsg74
(lp4173
g67
(g83
g69
NtRp4174
(dp4175
g72
(dp4176
sg81
g4170
sg74
(lp4177
g67
(g88
g69
NtRp4178
(dp4179
g72
(dp4180
sg81
g4174
sg74
(lp4181
g67
(g68
g69
NtRp4182
(dp4183
g72
(dp4184
g80
I1
ssg81
g4178
sg74
(lp4185
g4040
(S's\x08\x00\x00\x00My Sites'
tRp4186
asbasbasbag67
(g83
g69
NtRp4187
(dp4188
g72
(dp4189
sg81
g4170
sg74
(lp4190
g67
(g88
g69
NtRp4191
(dp4192
g72
(dp4193
sg81
g4187
sg74
(lp4194
g67
(g68
g69
NtRp4195
(dp4196
g72
(dp4197
g80
I1
ssg81
g4191
sg74
(lp4198
I00
asbasbasbag67
(g83
g69
NtRp4199
(dp4200
g72
(dp4201
sg81
g4170
sg74
(lp4202
g67
(g88
g69
NtRp4203
(dp4204
g72
(dp4205
sg81
g4199
sg74
(lp4206
g67
(g68
g69
NtRp4207
(dp4208
g72
(dp4209
g80
I1
ssg81
g4203
sg74
(lp4210
S'/admin/default/site.load'
p4211
asbasbasbasbasbasbasbag67
(g83
g69
NtRp4212
(dp4213
g72
(dp4214
sg81
g4154
sg74
(lp4215
g67
(g88
g69
NtRp4216
(dp4217
g72
(dp4218
sg81
g4212
sg74
(lp4219
g67
(g68
g69
NtRp4220
(dp4221
g72
(dp4222
g80
I2
ssg81
g4216
sg74
(lp4223
g67
(g76
g69
NtRp4224
(dp4225
g72
(dp4226
g80
I1
ssg81
Nsg74
(lp4227
g67
(g83
g69
NtRp4228
(dp4229
g72
(dp4230
sg81
g4224
sg74
(lp4231
g67
(g88
g69
NtRp4232
(dp4233
g72
(dp4234
sg81
g4228
sg74
(lp4235
g67
(g68
g69
NtRp4236
(dp4237
g72
(dp4238
g80
I1
ssg81
g4232
sg74
(lp4239
g4040
(S's\x08\x00\x00\x00This App'
tRp4240
asbasbasbag67
(g83
g69
NtRp4241
(dp4242
g72
(dp4243
sg81
g4224
sg74
(lp4244
g67
(g88
g69
NtRp4245
(dp4246
g72
(dp4247
sg81
g4241
sg74
(lp4248
g67
(g68
g69
NtRp4249
(dp4250
g72
(dp4251
g80
I1
ssg81
g4245
sg74
(lp4252
I00
asbasbasbag67
(g83
g69
NtRp4253
(dp4254
g72
(dp4255
sg81
g4224
sg74
(lp4256
g67
(g88
g69
NtRp4257
(dp4258
g72
(dp4259
sg81
g4253
sg74
(lp4260
g67
(g68
g69
NtRp4261
(dp4262
g72
(dp4263
g80
I1
ssg81
g4257
sg74
(lp4264
S'/admin/default/design.load/testumgebung'
p4265
asbasbasbag67
(g83
g69
NtRp4266
(dp4267
g72
(dp4268
sg81
g4224
sg74
(lp4269
g67
(g88
g69
NtRp4270
(dp4271
g72
(dp4272
sg81
g4266
sg74
(lp4273
g67
(g68
g69
NtRp4274
(dp4275
g72
(dp4276
g80
I1
ssg81
g4270
sg74
(lp4277
(lp4278
(g4040
(S't\n\x00\x00\x00Controller'
tRp4279
I00
S'/admin/default/edit.load/testumgebung/controllers/plugin_feedbacks.py'
tp4280
a(g4040
(S't\x04\x00\x00\x00View'
tRp4281
I00
S'/admin/default/edit.load/testumgebung/views/plugin_feedbacks/feedback.load'
tp4282
a(g4040
(S't\x06\x00\x00\x00Layout'
tRp4283
I00
S'/admin/default/edit.load/testumgebung/views/layout.html'
tp4284
a(g4040
(S't\n\x00\x00\x00Stylesheet'
tRp4285
I00
S'/admin/default/edit.load/testumgebung/static/css/web2py.css'
tp4286
a(g4040
(S's\x08\x00\x00\x00DB Model'
tRp4287
I00
S'/admin/default/edit.load/testumgebung/models/db.py'
tp4288
a(g4040
(S's\n\x00\x00\x00Menu Model'
tRp4289
I00
S'/admin/default/edit.load/testumgebung/models/menu.py'
tp4290
a(g4040
(S't\x08\x00\x00\x00Database'
tRp4291
I00
S'/testumgebung/appadmin/index.load'
tp4292
a(g4040
(S't\x06\x00\x00\x00Errors'
tRp4293
I00
S'/admin/default/errors.load/testumgebung'
tp4294
a(g4040
(S't\x05\x00\x00\x00About'
tRp4295
I00
S'/admin/default/about.load/testumgebung'
tp4296
aasbasbasbasbasbasbasbag67
(g83
g69
NtRp4297
(dp4298
g72
(dp4299
sg81
g4154
sg74
(lp4300
g67
(g88
g69
NtRp4301
(dp4302
g72
(dp4303
sg81
g4297
sg74
(lp4304
g67
(g68
g69
NtRp4305
(dp4306
g72
(dp4307
g80
I2
ssg81
g4301
sg74
(lp4308
g67
(g76
g69
NtRp4309
(dp4310
g72
(dp4311
g80
I1
ssg81
Nsg74
(lp4312
g67
(g83
g69
NtRp4313
(dp4314
g72
(dp4315
sg81
g4309
sg74
(lp4316
g67
(g88
g69
NtRp4317
(dp4318
g72
(dp4319
sg81
g4313
sg74
(lp4320
g67
(g68
g69
NtRp4321
(dp4322
g72
(dp4323
g80
I1
ssg81
g4317
sg74
(lp4324
S'web2py.com'
p4325
asbasbasbag67
(g83
g69
NtRp4326
(dp4327
g72
(dp4328
sg81
g4309
sg74
(lp4329
g67
(g88
g69
NtRp4330
(dp4331
g72
(dp4332
sg81
g4326
sg74
(lp4333
g67
(g68
g69
NtRp4334
(dp4335
g72
(dp4336
g80
I1
ssg81
g4330
sg74
(lp4337
I00
asbasbasbag67
(g83
g69
NtRp4338
(dp4339
g72
(dp4340
sg81
g4309
sg74
(lp4341
g67
(g88
g69
NtRp4342
(dp4343
g72
(dp4344
sg81
g4338
sg74
(lp4345
g67
(g68
g69
NtRp4346
(dp4347
g72
(dp4348
g80
I1
ssg81
g4342
sg74
(lp4349
S'http://www.web2py.com'
p4350
asbasbasbag67
(g83
g69
NtRp4351
(dp4352
g72
(dp4353
sg81
g4309
sg74
(lp4354
g67
(g88
g69
NtRp4355
(dp4356
g72
(dp4357
sg81
g4351
sg74
(lp4358
g67
(g68
g69
NtRp4359
(dp4360
g72
(dp4361
g80
I1
ssg81
g4355
sg74
(lp4362
(lp4363
(g4040
(S't\x08\x00\x00\x00Download'
tRp4364
I00
S'http://www.web2py.com/examples/default/download'
p4365
tp4366
a(g4040
(S't\x07\x00\x00\x00Support'
tRp4367
I00
S'http://www.web2py.com/examples/default/support'
p4368
tp4369
a(g4040
(S't\x04\x00\x00\x00Demo'
tRp4370
I00
S'http://web2py.com/demo_admin'
p4371
tp4372
a(g4040
(S's\x0e\x00\x00\x00Quick Examples'
tRp4373
I00
S'http://web2py.com/examples/default/examples'
p4374
tp4375
a(g4040
(S't\x03\x00\x00\x00FAQ'
tRp4376
I00
S'http://web2py.com/AlterEgo'
p4377
tp4378
a(g4040
(S't\x06\x00\x00\x00Videos'
tRp4379
I00
S'http://www.web2py.com/examples/default/videos/'
p4380
tp4381
a(g4040
(S's\x11\x00\x00\x00Free Applications'
tRp4382
I00
S'http://web2py.com/appliances'
p4383
tp4384
a(g4040
(S't\x07\x00\x00\x00Plugins'
tRp4385
I00
S'http://web2py.com/plugins'
p4386
tp4387
a(g4040
(S't\x07\x00\x00\x00Layouts'
tRp4388
I00
S'http://web2py.com/layouts'
p4389
tp4390
a(g4040
(S't\x07\x00\x00\x00Recipes'
tRp4391
I00
S'http://web2pyslices.com/'
p4392
tp4393
a(g4040
(S't\x08\x00\x00\x00Semantic'
tRp4394
I00
S'http://web2py.com/semantic'
p4395
tp4396
aasbasbasbasbasbasbasbag67
(g83
g69
NtRp4397
(dp4398
g72
(dp4399
sg81
g4154
sg74
(lp4400
g67
(g88
g69
NtRp4401
(dp4402
g72
(dp4403
sg81
g4397
sg74
(lp4404
g67
(g68
g69
NtRp4405
(dp4406
g72
(dp4407
g80
I2
ssg81
g4401
sg74
(lp4408
g67
(g76
g69
NtRp4409
(dp4410
g72
(dp4411
g80
I1
ssg81
Nsg74
(lp4412
g67
(g83
g69
NtRp4413
(dp4414
g72
(dp4415
sg81
g4409
sg74
(lp4416
g67
(g88
g69
NtRp4417
(dp4418
g72
(dp4419
sg81
g4413
sg74
(lp4420
g67
(g68
g69
NtRp4421
(dp4422
g72
(dp4423
g80
I1
ssg81
g4417
sg74
(lp4424
g4040
(S't\r\x00\x00\x00Documentation'
tRp4425
asbasbasbag67
(g83
g69
NtRp4426
(dp4427
g72
(dp4428
sg81
g4409
sg74
(lp4429
g67
(g88
g69
NtRp4430
(dp4431
g72
(dp4432
sg81
g4426
sg74
(lp4433
g67
(g68
g69
NtRp4434
(dp4435
g72
(dp4436
g80
I1
ssg81
g4430
sg74
(lp4437
I00
asbasbasbag67
(g83
g69
NtRp4438
(dp4439
g72
(dp4440
sg81
g4409
sg74
(lp4441
g67
(g88
g69
NtRp4442
(dp4443
g72
(dp4444
sg81
g4438
sg74
(lp4445
g67
(g68
g69
NtRp4446
(dp4447
g72
(dp4448
g80
I1
ssg81
g4442
sg74
(lp4449
S'http://www.web2py.com/book'
p4450
asbasbasbag67
(g83
g69
NtRp4451
(dp4452
g72
(dp4453
sg81
g4409
sg74
(lp4454
g67
(g88
g69
NtRp4455
(dp4456
g72
(dp4457
sg81
g4451
sg74
(lp4458
g67
(g68
g69
NtRp4459
(dp4460
g72
(dp4461
g80
I1
ssg81
g4455
sg74
(lp4462
(lp4463
(g4040
(S't\x07\x00\x00\x00Preface'
tRp4464
I00
S'http://www.web2py.com/book/default/chapter/00'
p4465
tp4466
a(g4040
(S't\x0c\x00\x00\x00Introduction'
tRp4467
I00
S'http://www.web2py.com/book/default/chapter/01'
p4468
tp4469
a(g4040
(S't\x06\x00\x00\x00Python'
tRp4470
I00
S'http://www.web2py.com/book/default/chapter/02'
p4471
tp4472
a(g4040
(S't\x08\x00\x00\x00Overview'
tRp4473
I00
S'http://www.web2py.com/book/default/chapter/03'
p4474
tp4475
a(g4040
(S's\x08\x00\x00\x00The Core'
tRp4476
I00
S'http://www.web2py.com/book/default/chapter/04'
p4477
tp4478
a(g4040
(S's\t\x00\x00\x00The Views'
tRp4479
I00
S'http://www.web2py.com/book/default/chapter/05'
p4480
tp4481
a(g4040
(S't\x08\x00\x00\x00Database'
tRp4482
I00
S'http://www.web2py.com/book/default/chapter/06'
p4483
tp4484
a(g4040
(S's\x14\x00\x00\x00Forms and Validators'
tRp4485
I00
S'http://www.web2py.com/book/default/chapter/07'
p4486
tp4487
a(g4040
(S's\r\x00\x00\x00Email and SMS'
tRp4488
I00
S'http://www.web2py.com/book/default/chapter/08'
p4489
tp4490
a(g4040
(S's\x0e\x00\x00\x00Access Control'
tRp4491
I00
S'http://www.web2py.com/book/default/chapter/09'
p4492
tp4493
a(g4040
(S't\x08\x00\x00\x00Services'
tRp4494
I00
S'http://www.web2py.com/book/default/chapter/10'
p4495
tp4496
a(g4040
(S's\x0c\x00\x00\x00Ajax Recipes'
tRp4497
I00
S'http://www.web2py.com/book/default/chapter/11'
p4498
tp4499
a(g4040
(S's\x16\x00\x00\x00Components and Plugins'
tRp4500
I00
S'http://www.web2py.com/book/default/chapter/12'
p4501
tp4502
a(g4040
(S's\x12\x00\x00\x00Deployment Recipes'
tRp4503
I00
S'http://www.web2py.com/book/default/chapter/13'
p4504
tp4505
a(g4040
(S's\r\x00\x00\x00Other Recipes'
tRp4506
I00
S'http://www.web2py.com/book/default/chapter/14'
p4507
tp4508
a(g4040
(S's\r\x00\x00\x00Buy this book'
tRp4509
I00
S'http://stores.lulu.com/web2py'
p4510
tp4511
aasbasbasbasbasbasbasbag67
(g83
g69
NtRp4512
(dp4513
g72
(dp4514
sg81
g4154
sg74
(lp4515
g67
(g88
g69
NtRp4516
(dp4517
g72
(dp4518
sg81
g4512
sg74
(lp4519
g67
(g68
g69
NtRp4520
(dp4521
g72
(dp4522
g80
I2
ssg81
g4516
sg74
(lp4523
g67
(g76
g69
NtRp4524
(dp4525
g72
(dp4526
g80
I1
ssg81
Nsg74
(lp4527
g67
(g83
g69
NtRp4528
(dp4529
g72
(dp4530
sg81
g4524
sg74
(lp4531
g67
(g88
g69
NtRp4532
(dp4533
g72
(dp4534
sg81
g4528
sg74
(lp4535
g67
(g68
g69
NtRp4536
(dp4537
g72
(dp4538
g80
I1
ssg81
g4532
sg74
(lp4539
g4040
(S't\t\x00\x00\x00Community'
tRp4540
asbasbasbag67
(g83
g69
NtRp4541
(dp4542
g72
(dp4543
sg81
g4524
sg74
(lp4544
g67
(g88
g69
NtRp4545
(dp4546
g72
(dp4547
sg81
g4541
sg74
(lp4548
g67
(g68
g69
NtRp4549
(dp4550
g72
(dp4551
g80
I1
ssg81
g4545
sg74
(lp4552
I00
asbasbasbag67
(g83
g69
NtRp4553
(dp4554
g72
(dp4555
sg81
g4524
sg74
(lp4556
g67
(g88
g69
NtRp4557
(dp4558
g72
(dp4559
sg81
g4553
sg74
(lp4560
g67
(g68
g69
NtRp4561
(dp4562
g72
(dp4563
g80
I1
ssg81
g4557
sg74
(lp4564
Nasbasbasbag67
(g83
g69
NtRp4565
(dp4566
g72
(dp4567
sg81
g4524
sg74
(lp4568
g67
(g88
g69
NtRp4569
(dp4570
g72
(dp4571
sg81
g4565
sg74
(lp4572
g67
(g68
g69
NtRp4573
(dp4574
g72
(dp4575
g80
I1
ssg81
g4569
sg74
(lp4576
(lp4577
(g4040
(S't\x06\x00\x00\x00Groups'
tRp4578
I00
S'http://www.web2py.com/examples/default/usergroups'
p4579
tp4580
a(g4040
(S't\x07\x00\x00\x00Twitter'
tRp4581
I00
S'http://twitter.com/web2py'
p4582
tp4583
a(g4040
(S's\t\x00\x00\x00Live Chat'
tRp4584
I00
S'http://webchat.freenode.net/?channels=web2py'
p4585
tp4586
aasbasbasbasbasbasbasbag67
(g83
g69
NtRp4587
(dp4588
g72
(dp4589
sg81
g4154
sg74
(lp4590
g67
(g88
g69
NtRp4591
(dp4592
g72
(dp4593
sg81
g4587
sg74
(lp4594
g67
(g68
g69
NtRp4595
(dp4596
g72
(dp4597
g80
I2
ssg81
g4591
sg74
(lp4598
g67
(g76
g69
NtRp4599
(dp4600
g72
(dp4601
g80
I1
ssg81
Nsg74
(lp4602
g67
(g83
g69
NtRp4603
(dp4604
g72
(dp4605
sg81
g4599
sg74
(lp4606
g67
(g88
g69
NtRp4607
(dp4608
g72
(dp4609
sg81
g4603
sg74
(lp4610
g67
(g68
g69
NtRp4611
(dp4612
g72
(dp4613
g80
I1
ssg81
g4607
sg74
(lp4614
g4040
(S't\x07\x00\x00\x00Plugins'
tRp4615
asbasbasbag67
(g83
g69
NtRp4616
(dp4617
g72
(dp4618
sg81
g4599
sg74
(lp4619
g67
(g88
g69
NtRp4620
(dp4621
g72
(dp4622
sg81
g4616
sg74
(lp4623
g67
(g68
g69
NtRp4624
(dp4625
g72
(dp4626
g80
I1
ssg81
g4620
sg74
(lp4627
I00
asbasbasbag67
(g83
g69
NtRp4628
(dp4629
g72
(dp4630
sg81
g4599
sg74
(lp4631
g67
(g88
g69
NtRp4632
(dp4633
g72
(dp4634
sg81
g4628
sg74
(lp4635
g67
(g68
g69
NtRp4636
(dp4637
g72
(dp4638
g80
I1
ssg81
g4632
sg74
(lp4639
Nasbasbasbag67
(g83
g69
NtRp4640
(dp4641
g72
(dp4642
sg81
g4599
sg74
(lp4643
g67
(g88
g69
NtRp4644
(dp4645
g72
(dp4646
sg81
g4640
sg74
(lp4647
g67
(g68
g69
NtRp4648
(dp4649
g72
(dp4650
g80
I1
ssg81
g4644
sg74
(lp4651
(lp4652
(S'plugin_wiki'
p4653
I00
S'http://web2py.com/examples/default/download'
p4654
tp4655
a(g4040
(S's\r\x00\x00\x00Other Plugins'
tRp4656
I00
g4386
tp4657
a(g4040
(S's\x0e\x00\x00\x00Layout Plugins'
tRp4658
I00
g4389
tp4659
aasbasbasbasbasbasbasbasbasbasbasbasbasbasbasbasbasbasbasbag67
(g83
g69
NtRp4660
(dp4661
g72
(dp4662
sg81
g3462
sg74
(lp4663
g67
(g88
g69
NtRp4664
(dp4665
g72
(dp4666
g92
g93
ssg81
g4660
sg74
(lp4667
S'meta'
p4668
asbag67
(g88
g69
NtRp4669
(dp4670
g72
(dp4671
g99
g100
ssg81
g4660
sg74
(lp4672
S':'
asbag67
(g88
g69
NtRp4673
(dp4674
g72
(dp4675
sg81
g4660
sg74
(lp4676
g67
(g68
g69
NtRp4677
(dp4678
g72
(dp4679
g80
I5
ssg81
g4673
sg74
(lp4680
g67
(g76
g69
NtRp4681
(dp4682
g72
(dp4683
g80
I4
ssg81
Nsg74
(lp4684
g67
(g83
g69
NtRp4685
(dp4686
g72
(dp4687
sg81
g4681
sg74
(lp4688
g67
(g88
g69
NtRp4689
(dp4690
g72
(dp4691
g92
g93
ssg81
g4685
sg74
(lp4692
S'author'
p4693
asbag67
(g88
g69
NtRp4694
(dp4695
g72
(dp4696
g99
g100
ssg81
g4685
sg74
(lp4697
S':'
asbag67
(g88
g69
NtRp4698
(dp4699
g72
(dp4700
sg81
g4685
sg74
(lp4701
g67
(g68
g69
NtRp4702
(dp4703
g72
(dp4704
g80
I4
ssg81
g4698
sg74
(lp4705
S'Your Name <you@example.com>'
p4706
asbasbasbag67
(g83
g69
NtRp4707
(dp4708
g72
(dp4709
sg81
g4681
sg74
(lp4710
g67
(g88
g69
NtRp4711
(dp4712
g72
(dp4713
g92
g93
ssg81
g4707
sg74
(lp4714
S'description'
p4715
asbag67
(g88
g69
NtRp4716
(dp4717
g72
(dp4718
g99
g100
ssg81
g4707
sg74
(lp4719
S':'
asbag67
(g88
g69
NtRp4720
(dp4721
g72
(dp4722
sg81
g4707
sg74
(lp4723
g67
(g68
g69
NtRp4724
(dp4725
g72
(dp4726
g80
I4
ssg81
g4720
sg74
(lp4727
S'a cool new app'
p4728
asbasbasbag67
(g83
g69
NtRp4729
(dp4730
g72
(dp4731
sg81
g4681
sg74
(lp4732
g67
(g88
g69
NtRp4733
(dp4734
g72
(dp4735
g92
g93
ssg81
g4729
sg74
(lp4736
S'generator'
p4737
asbag67
(g88
g69
NtRp4738
(dp4739
g72
(dp4740
g99
g100
ssg81
g4729
sg74
(lp4741
S':'
asbag67
(g88
g69
NtRp4742
(dp4743
g72
(dp4744
sg81
g4729
sg74
(lp4745
g67
(g68
g69
NtRp4746
(dp4747
g72
(dp4748
g80
I4
ssg81
g4742
sg74
(lp4749
S'Web2py Web Framework'
p4750
asbasbasbag67
(g83
g69
NtRp4751
(dp4752
g72
(dp4753
sg81
g4681
sg74
(lp4754
g67
(g88
g69
NtRp4755
(dp4756
g72
(dp4757
g92
g93
ssg81
g4751
sg74
(lp4758
S'keywords'
p4759
asbag67
(g88
g69
NtRp4760
(dp4761
g72
(dp4762
g99
g100
ssg81
g4751
sg74
(lp4763
S':'
asbag67
(g88
g69
NtRp4764
(dp4765
g72
(dp4766
sg81
g4751
sg74
(lp4767
g67
(g68
g69
NtRp4768
(dp4769
g72
(dp4770
g80
I4
ssg81
g4764
sg74
(lp4771
S'web2py, python, framework'
p4772
asbasbasbasbasbasbasbag67
(g83
g69
NtRp4773
(dp4774
g72
(dp4775
sg81
g3462
sg74
(lp4776
g67
(g88
g69
NtRp4777
(dp4778
g72
(dp4779
g92
g93
ssg81
g4773
sg74
(lp4780
S'postprocessing'
p4781
asbag67
(g88
g69
NtRp4782
(dp4783
g72
(dp4784
g99
g100
ssg81
g4773
sg74
(lp4785
S':'
asbag67
(g88
g69
NtRp4786
(dp4787
g72
(dp4788
sg81
g4773
sg74
(lp4789
g67
(g68
g69
NtRp4790
(dp4791
g72
(dp4792
g80
I5
ssg81
g4786
sg74
(lp4793
g67
(g76
g69
NtRp4794
(dp4795
g72
(dp4796
g80
I4
ssg81
Nsg74
(lp4797
sbasbasbasbag67
(g83
g69
NtRp4798
(dp4799
g72
(dp4800
sg81
g3462
sg74
(lp4801
g67
(g88
g69
NtRp4802
(dp4803
g72
(dp4804
g92
g93
ssg81
g4798
sg74
(lp4805
S'session_file'
p4806
asbag67
(g88
g69
NtRp4807
(dp4808
g72
(dp4809
g99
g100
ssg81
g4798
sg74
(lp4810
S':'
asbag67
(g88
g69
NtRp4811
(dp4812
g72
(dp4813
sg81
g4798
sg74
(lp4814
g67
(g68
g69
NtRp4815
(dp4816
g72
(dp4817
g80
I5
ssg81
g4811
sg74
(lp4818
S"<open file 'C:\\xampp\\htdocs\\web2py\\applications\\testumgebung\\sessions\\127.0.0.1-90677836-87e3-4573-bd9a-704b577fb384', mode 'rb+' at 0x0887A390>"
p4819
asbasbasbag67
(g83
g69
NtRp4820
(dp4821
g72
(dp4822
sg81
g3462
sg74
(lp4823
g67
(g88
g69
NtRp4824
(dp4825
g72
(dp4826
g92
g93
ssg81
g4820
sg74
(lp4827
S'session_filename'
p4828
asbag67
(g88
g69
NtRp4829
(dp4830
g72
(dp4831
g99
g100
ssg81
g4820
sg74
(lp4832
S':'
asbag67
(g88
g69
NtRp4833
(dp4834
g72
(dp4835
sg81
g4820
sg74
(lp4836
g67
(g68
g69
NtRp4837
(dp4838
g72
(dp4839
g80
I5
ssg81
g4833
sg74
(lp4840
S'C:\\xampp\\htdocs\\web2py\\applications\\testumgebung\\sessions\\127.0.0.1-90677836-87e3-4573-bd9a-704b577fb384'
p4841
asbasbasbag67
(g83
g69
NtRp4842
(dp4843
g72
(dp4844
sg81
g3462
sg74
(lp4845
g67
(g88
g69
NtRp4846
(dp4847
g72
(dp4848
g92
g93
ssg81
g4842
sg74
(lp4849
S'session_id'
p4850
asbag67
(g88
g69
NtRp4851
(dp4852
g72
(dp4853
g99
g100
ssg81
g4842
sg74
(lp4854
S':'
asbag67
(g88
g69
NtRp4855
(dp4856
g72
(dp4857
sg81
g4842
sg74
(lp4858
g67
(g68
g69
NtRp4859
(dp4860
g72
(dp4861
g80
I5
ssg81
g4855
sg74
(lp4862
g485
asbasbasbag67
(g83
g69
NtRp4863
(dp4864
g72
(dp4865
sg81
g3462
sg74
(lp4866
g67
(g88
g69
NtRp4867
(dp4868
g72
(dp4869
g92
g93
ssg81
g4863
sg74
(lp4870
S'session_id_name'
p4871
asbag67
(g88
g69
NtRp4872
(dp4873
g72
(dp4874
g99
g100
ssg81
g4863
sg74
(lp4875
S':'
asbag67
(g88
g69
NtRp4876
(dp4877
g72
(dp4878
sg81
g4863
sg74
(lp4879
g67
(g68
g69
NtRp4880
(dp4881
g72
(dp4882
g80
I5
ssg81
g4876
sg74
(lp4883
g3519
asbasbasbag67
(g83
g69
NtRp4884
(dp4885
g72
(dp4886
sg81
g3462
sg74
(lp4887
g67
(g88
g69
NtRp4888
(dp4889
g72
(dp4890
g92
g93
ssg81
g4884
sg74
(lp4891
S'session_locked'
p4892
asbag67
(g88
g69
NtRp4893
(dp4894
g72
(dp4895
g99
g100
ssg81
g4884
sg74
(lp4896
S':'
asbag67
(g88
g69
NtRp4897
(dp4898
g72
(dp4899
sg81
g4884
sg74
(lp4900
g67
(g68
g69
NtRp4901
(dp4902
g72
(dp4903
g80
I5
ssg81
g4897
sg74
(lp4904
g110
asbasbasbag67
(g83
g69
NtRp4905
(dp4906
g72
(dp4907
sg81
g3462
sg74
(lp4908
g67
(g88
g69
NtRp4909
(dp4910
g72
(dp4911
g92
g93
ssg81
g4905
sg74
(lp4912
S'session_new'
p4913
asbag67
(g88
g69
NtRp4914
(dp4915
g72
(dp4916
g99
g100
ssg81
g4905
sg74
(lp4917
S':'
asbag67
(g88
g69
NtRp4918
(dp4919
g72
(dp4920
sg81
g4905
sg74
(lp4921
g67
(g68
g69
NtRp4922
(dp4923
g72
(dp4924
g80
I5
ssg81
g4918
sg74
(lp4925
g995
asbasbasbag67
(g83
g69
NtRp4926
(dp4927
g72
(dp4928
sg81
g3462
sg74
(lp4929
g67
(g88
g69
NtRp4930
(dp4931
g72
(dp4932
g92
g93
ssg81
g4926
sg74
(lp4933
S'status'
p4934
asbag67
(g88
g69
NtRp4935
(dp4936
g72
(dp4937
g99
g100
ssg81
g4926
sg74
(lp4938
S':'
asbag67
(g88
g69
NtRp4939
(dp4940
g72
(dp4941
sg81
g4926
sg74
(lp4942
g67
(g68
g69
NtRp4943
(dp4944
g72
(dp4945
g80
I5
ssg81
g4939
sg74
(lp4946
S'200'
p4947
asbasbasbag67
(g83
g69
NtRp4948
(dp4949
g72
(dp4950
sg81
g3462
sg74
(lp4951
g67
(g88
g69
NtRp4952
(dp4953
g72
(dp4954
g92
g93
ssg81
g4948
sg74
(lp4955
S'subtitle'
p4956
asbag67
(g88
g69
NtRp4957
(dp4958
g72
(dp4959
g99
g100
ssg81
g4948
sg74
(lp4960
S':'
asbag67
(g88
g69
NtRp4961
(dp4962
g72
(dp4963
sg81
g4948
sg74
(lp4964
g67
(g68
g69
NtRp4965
(dp4966
g72
(dp4967
g80
I5
ssg81
g4961
sg74
(lp4968
g4040
(S's\r\x00\x00\x00customize me!'
tRp4969
asbasbasbag67
(g83
g69
NtRp4970
(dp4971
g72
(dp4972
sg81
g3462
sg74
(lp4973
g67
(g88
g69
NtRp4974
(dp4975
g72
(dp4976
g92
g93
ssg81
g4970
sg74
(lp4977
S'title'
p4978
asbag67
(g88
g69
NtRp4979
(dp4980
g72
(dp4981
g99
g100
ssg81
g4970
sg74
(lp4982
S':'
asbag67
(g88
g69
NtRp4983
(dp4984
g72
(dp4985
sg81
g4970
sg74
(lp4986
g67
(g68
g69
NtRp4987
(dp4988
g72
(dp4989
g80
I5
ssg81
g4983
sg74
(lp4990
S'Testumgebung'
p4991
asbasbasbag67
(g83
g69
NtRp4992
(dp4993
g72
(dp4994
sg81
g3462
sg74
(lp4995
g67
(g88
g69
NtRp4996
(dp4997
g72
(dp4998
g92
g93
ssg81
g4992
sg74
(lp4999
S'view'
p5000
asbag67
(g88
g69
NtRp5001
(dp5002
g72
(dp5003
g99
g100
ssg81
g4992
sg74
(lp5004
S':'
asbag67
(g88
g69
NtRp5005
(dp5006
g72
(dp5007
sg81
g4992
sg74
(lp5008
g67
(g68
g69
NtRp5009
(dp5010
g72
(dp5011
g80
I5
ssg81
g5005
sg74
(lp5012
S'plugin_feedbacks/feedback.load'
p5013
asbasbasbasbasbsS'locals'
p5014
(dp5015
g4
S"r'C:\\xampp\\htdocs\\web2py\\applications\\testumgebung\\views\\plugin_feedbacks/feedback.load'"
p5016
sg6
S'\'response.write(\\\'<div id="plugin_feedbacks_contai...\\\\r\\\\n\\\\t\\\\r\\\\n</script>\\\\r\\\\n\\\\r\\\\n</div>\\\', escape=False)\''
p5017
sssS'traceback'
p5018
S'Traceback (most recent call last):\n  File "gluon/restricted.py", line 208, in restricted\n  File "gluon/restricted.py", line 193, in compile2\n  File "C:\\xampp\\htdocs\\web2py\\applications\\testumgebung\\views\\plugin_feedbacks/feedback.load", line 9\n    response.write(\'\\r\\n\\r\\n\\r\\n\\r\\n    <ul class="nav nav-pills" id="plugin_feedbacks_tab">\\r\\n\\t    <li class="active">\\r\\n\\t    \\t<a href="#feedback" data-toggle="tab"><i class="icon-comment"></i> \', escape=False)\n           ^\nSyntaxError: invalid syntax\n'
p5019
s.