(dp1
S'output'
p2
S"<type 'exceptions.SyntaxError'> <img/> tags cannot have components"
p3
sS'layer'
p4
S'C:\\xampp\\htdocs\\web2py\\applications\\testumgebung\\controllers/default.py'
p5
sS'code'
p6
S'# -*- coding: utf-8 -*-\n# this file is released under public domain and you can use without limitations\nfrom plugin_kibit_widgets import LikertWidget\nfrom plugin_kibit_widgets import SmileyWidget\n\ndb.answers.scale.widget = LikertWidget()\ndb.answers_smiley.scale.widget = SmileyWidget()\n#########################################################################\n## This is a samples controller\n## - index is the default action of any application\n## - user is required for authentication and authorization\n## - download is for downloading files uploaded in the db (does streaming)\n## - call exposes all registered services (none by default)\n#########################################################################\n\ndef index():\n    """\n    """\n\n\n    form = SQLFORM(db.answers)\n    \n    form2 = SQLFORM(db.answers_smiley)\n\n\n\n\n    return dict(message=T(\'Hello World\'), form=form, form2=form2)\n\ndef user():\n    """\n    exposes:\n    http://..../[app]/default/user/login\n    http://..../[app]/default/user/logout\n    http://..../[app]/default/user/register\n    http://..../[app]/default/user/profile\n    http://..../[app]/default/user/retrieve_password\n    http://..../[app]/default/user/change_password\n    use @auth.requires_login()\n        @auth.requires_membership(\'group name\')\n        @auth.requires_permission(\'read\',\'table name\',record_id)\n    to decorate functions that need access control\n    """\n    return dict(form=auth())\n\n\ndef download():\n    """\n    allows downloading of uploaded files\n    http://..../[app]/default/download/[filename]\n    """\n    return response.download(request,db)\n\n\ndef call():\n    """\n    exposes services. for example:\n    http://..../[app]/default/call/jsonrpc\n    decorate with @services.jsonrpc the functions to expose\n    supports xml, json, xmlrpc, jsonrpc, amfrpc, rss, csv\n    """\n    return service()\n\n\n@auth.requires_signature()\ndef data():\n    """\n    http://..../[app]/default/data/tables\n    http://..../[app]/default/data/create/[table]\n    http://..../[app]/default/data/read/[table]/[id]\n    http://..../[app]/default/data/update/[table]/[id]\n    http://..../[app]/default/data/delete/[table]/[id]\n    http://..../[app]/default/data/select/[table]\n    http://..../[app]/default/data/search/[table]\n    but URLs must be signed, i.e. linked with\n      A(\'table\',_href=URL(\'data/tables\',user_signature=True))\n    or with the signed load operator\n      LOAD(\'default\',\'data.load\',args=\'tables\',ajax=True,user_signature=True)\n    """\n    return dict(form=crud())\n\nresponse._vars=response._caller(index)\n'
p7
sS'snapshot'
p8
(dp9
S'exception'
p10
(dp11
S'__getslice__'
p12
S"<method-wrapper '__getslice__' of exceptions.SyntaxError object>"
p13
sS'text'
p14
S'None'
p15
sS'__str__'
p16
S"<method-wrapper '__str__' of exceptions.SyntaxError object>"
p17
sS'__reduce__'
p18
S'<built-in method __reduce__ of exceptions.SyntaxError object>'
p19
sS'__dict__'
p20
S'{}'
p21
sS'__sizeof__'
p22
S'<built-in method __sizeof__ of exceptions.SyntaxError object>'
p23
sS'__init__'
p24
S"<method-wrapper '__init__' of exceptions.SyntaxError object>"
p25
sS'__setattr__'
p26
S"<method-wrapper '__setattr__' of exceptions.SyntaxError object>"
p27
sS'__reduce_ex__'
p28
S'<built-in method __reduce_ex__ of exceptions.SyntaxError object>'
p29
sS'__new__'
p30
S'<built-in method __new__ of type object>'
p31
sS'__format__'
p32
S'<built-in method __format__ of exceptions.SyntaxError object>'
p33
sS'__class__'
p34
S"<type 'exceptions.SyntaxError'>"
p35
sS'filename'
p36
S'None'
p37
sS'lineno'
p38
S'None'
p39
sS'msg'
p40
S"'<img/> tags cannot have components'"
p41
sS'__doc__'
p42
S"'Invalid syntax.'"
p43
sS'__getitem__'
p44
S"<method-wrapper '__getitem__' of exceptions.SyntaxError object>"
p45
sS'__setstate__'
p46
S'<built-in method __setstate__ of exceptions.SyntaxError object>'
p47
sS'__getattribute__'
p48
S"<method-wrapper '__getattribute__' of exceptions.SyntaxError object>"
p49
sS'print_file_and_line'
p50
S'None'
p51
sS'args'
p52
S"('<img/> tags cannot have components',)"
p53
sS'__subclasshook__'
p54
S'<built-in method __subclasshook__ of type object>'
p55
sS'offset'
p56
S'None'
p57
sS'__unicode__'
p58
S'<built-in method __unicode__ of exceptions.SyntaxError object>'
p59
sS'__delattr__'
p60
S"<method-wrapper '__delattr__' of exceptions.SyntaxError object>"
p61
sS'__repr__'
p62
S"<method-wrapper '__repr__' of exceptions.SyntaxError object>"
p63
sS'__hash__'
p64
S"<method-wrapper '__hash__' of exceptions.SyntaxError object>"
p65
ssS'evalue'
p66
S'<img/> tags cannot have components'
p67
sS'request'
p68
ccopy_reg
_reconstructor
p69
(cgluon.html
BEAUTIFY
p70
c__builtin__
object
p71
NtRp72
(dp73
S'attributes'
p74
(dp75
sS'components'
p76
(lp77
g69
(cgluon.html
TABLE
p78
g71
NtRp79
(dp80
g74
(dp81
S'level'
p82
I5
ssS'parent'
p83
Nsg76
(lp84
g69
(cgluon.html
TR
p85
g71
NtRp86
(dp87
g74
(dp88
sg83
g79
sg76
(lp89
g69
(cgluon.html
TD
p90
g71
NtRp91
(dp92
g74
(dp93
S'_style'
p94
S'font-weight:bold;vertical-align:top'
p95
ssg83
g86
sg76
(lp96
S'ajax'
p97
asbag69
(g90
g71
NtRp98
(dp99
g74
(dp100
S'_valign'
p101
S'top'
p102
ssg83
g86
sg76
(lp103
S':'
asbag69
(g90
g71
NtRp104
(dp105
g74
(dp106
sg83
g86
sg76
(lp107
g69
(g70
g71
NtRp108
(dp109
g74
(dp110
g82
I5
ssg83
g104
sg76
(lp111
S'False'
p112
asbasbasbag69
(g85
g71
NtRp113
(dp114
g74
(dp115
sg83
g79
sg76
(lp116
g69
(g90
g71
NtRp117
(dp118
g74
(dp119
g94
g95
ssg83
g113
sg76
(lp120
S'application'
p121
asbag69
(g90
g71
NtRp122
(dp123
g74
(dp124
g101
g102
ssg83
g113
sg76
(lp125
S':'
asbag69
(g90
g71
NtRp126
(dp127
g74
(dp128
sg83
g113
sg76
(lp129
g69
(g70
g71
NtRp130
(dp131
g74
(dp132
g82
I5
ssg83
g126
sg76
(lp133
S'testumgebung'
p134
asbasbasbag69
(g85
g71
NtRp135
(dp136
g74
(dp137
sg83
g79
sg76
(lp138
g69
(g90
g71
NtRp139
(dp140
g74
(dp141
g94
g95
ssg83
g135
sg76
(lp142
g52
asbag69
(g90
g71
NtRp143
(dp144
g74
(dp145
g101
g102
ssg83
g135
sg76
(lp146
S':'
asbag69
(g90
g71
NtRp147
(dp148
g74
(dp149
sg83
g135
sg76
(lp150
g69
(g70
g71
NtRp151
(dp152
g74
(dp153
g82
I5
ssg83
g147
sg76
(lp154
g69
(g78
g71
NtRp155
(dp156
g74
(dp157
g82
I4
ssg83
Nsg76
(lp158
sbasbasbasbag69
(g85
g71
NtRp159
(dp160
g74
(dp161
sg83
g79
sg76
(lp162
g69
(g90
g71
NtRp163
(dp164
g74
(dp165
g94
g95
ssg83
g159
sg76
(lp166
S'body'
p167
asbag69
(g90
g71
NtRp168
(dp169
g74
(dp170
g101
g102
ssg83
g159
sg76
(lp171
S':'
asbag69
(g90
g71
NtRp172
(dp173
g74
(dp174
sg83
g159
sg76
(lp175
g69
(g70
g71
NtRp176
(dp177
g74
(dp178
g82
I5
ssg83
g172
sg76
(lp179
S'<cStringIO.StringO object at 0x0650D380>'
p180
asbasbasbag69
(g85
g71
NtRp181
(dp182
g74
(dp183
sg83
g79
sg76
(lp184
g69
(g90
g71
NtRp185
(dp186
g74
(dp187
g94
g95
ssg83
g181
sg76
(lp188
S'cid'
p189
asbag69
(g90
g71
NtRp190
(dp191
g74
(dp192
g101
g102
ssg83
g181
sg76
(lp193
S':'
asbag69
(g90
g71
NtRp194
(dp195
g74
(dp196
sg83
g181
sg76
(lp197
g69
(g70
g71
NtRp198
(dp199
g74
(dp200
g82
I5
ssg83
g194
sg76
(lp201
S'None'
p202
asbasbasbag69
(g85
g71
NtRp203
(dp204
g74
(dp205
sg83
g79
sg76
(lp206
g69
(g90
g71
NtRp207
(dp208
g74
(dp209
g94
g95
ssg83
g203
sg76
(lp210
S'client'
p211
asbag69
(g90
g71
NtRp212
(dp213
g74
(dp214
g101
g102
ssg83
g203
sg76
(lp215
S':'
asbag69
(g90
g71
NtRp216
(dp217
g74
(dp218
sg83
g203
sg76
(lp219
g69
(g70
g71
NtRp220
(dp221
g74
(dp222
g82
I5
ssg83
g216
sg76
(lp223
S'127.0.0.1'
p224
asbasbasbag69
(g85
g71
NtRp225
(dp226
g74
(dp227
sg83
g79
sg76
(lp228
g69
(g90
g71
NtRp229
(dp230
g74
(dp231
g94
g95
ssg83
g225
sg76
(lp232
S'controller'
p233
asbag69
(g90
g71
NtRp234
(dp235
g74
(dp236
g101
g102
ssg83
g225
sg76
(lp237
S':'
asbag69
(g90
g71
NtRp238
(dp239
g74
(dp240
sg83
g225
sg76
(lp241
g69
(g70
g71
NtRp242
(dp243
g74
(dp244
g82
I5
ssg83
g238
sg76
(lp245
S'default'
p246
asbasbasbag69
(g85
g71
NtRp247
(dp248
g74
(dp249
sg83
g79
sg76
(lp250
g69
(g90
g71
NtRp251
(dp252
g74
(dp253
g94
g95
ssg83
g247
sg76
(lp254
S'cookies'
p255
asbag69
(g90
g71
NtRp256
(dp257
g74
(dp258
g101
g102
ssg83
g247
sg76
(lp259
S':'
asbag69
(g90
g71
NtRp260
(dp261
g74
(dp262
sg83
g247
sg76
(lp263
g69
(g70
g71
NtRp264
(dp265
g74
(dp266
g82
I5
ssg83
g260
sg76
(lp267
g69
(g78
g71
NtRp268
(dp269
g74
(dp270
g82
I4
ssg83
Nsg76
(lp271
g69
(g85
g71
NtRp272
(dp273
g74
(dp274
sg83
g268
sg76
(lp275
g69
(g90
g71
NtRp276
(dp277
g74
(dp278
g94
g95
ssg83
g272
sg76
(lp279
S'session_id_admin'
p280
asbag69
(g90
g71
NtRp281
(dp282
g74
(dp283
g101
g102
ssg83
g272
sg76
(lp284
S':'
asbag69
(g90
g71
NtRp285
(dp286
g74
(dp287
sg83
g272
sg76
(lp288
g69
(g70
g71
NtRp289
(dp290
g74
(dp291
g82
I4
ssg83
g285
sg76
(lp292
S'127.0.0.1-68488cad-9e24-4639-ac03-e5ae8e169abe'
p293
ag69
(g78
g71
NtRp294
(dp295
g74
(dp296
g82
I3
ssg83
Nsg76
(lp297
g69
(g85
g71
NtRp298
(dp299
g74
(dp300
sg83
g294
sg76
(lp301
g69
(g90
g71
NtRp302
(dp303
g74
(dp304
g94
g95
ssg83
g298
sg76
(lp305
S'comment'
p306
asbag69
(g90
g71
NtRp307
(dp308
g74
(dp309
g101
g102
ssg83
g298
sg76
(lp310
S':'
asbag69
(g90
g71
NtRp311
(dp312
g74
(dp313
sg83
g298
sg76
(lp314
g69
(g70
g71
NtRp315
(dp316
g74
(dp317
g82
I3
ssg83
g311
sg76
(lp318
S''
asbasbasbag69
(g85
g71
NtRp319
(dp320
g74
(dp321
sg83
g294
sg76
(lp322
g69
(g90
g71
NtRp323
(dp324
g74
(dp325
g94
g95
ssg83
g319
sg76
(lp326
S'domain'
p327
asbag69
(g90
g71
NtRp328
(dp329
g74
(dp330
g101
g102
ssg83
g319
sg76
(lp331
S':'
asbag69
(g90
g71
NtRp332
(dp333
g74
(dp334
sg83
g319
sg76
(lp335
g69
(g70
g71
NtRp336
(dp337
g74
(dp338
g82
I3
ssg83
g332
sg76
(lp339
S''
asbasbasbag69
(g85
g71
NtRp340
(dp341
g74
(dp342
sg83
g294
sg76
(lp343
g69
(g90
g71
NtRp344
(dp345
g74
(dp346
g94
g95
ssg83
g340
sg76
(lp347
S'expires'
p348
asbag69
(g90
g71
NtRp349
(dp350
g74
(dp351
g101
g102
ssg83
g340
sg76
(lp352
S':'
asbag69
(g90
g71
NtRp353
(dp354
g74
(dp355
sg83
g340
sg76
(lp356
g69
(g70
g71
NtRp357
(dp358
g74
(dp359
g82
I3
ssg83
g353
sg76
(lp360
S''
asbasbasbag69
(g85
g71
NtRp361
(dp362
g74
(dp363
sg83
g294
sg76
(lp364
g69
(g90
g71
NtRp365
(dp366
g74
(dp367
g94
g95
ssg83
g361
sg76
(lp368
S'httponly'
p369
asbag69
(g90
g71
NtRp370
(dp371
g74
(dp372
g101
g102
ssg83
g361
sg76
(lp373
S':'
asbag69
(g90
g71
NtRp374
(dp375
g74
(dp376
sg83
g361
sg76
(lp377
g69
(g70
g71
NtRp378
(dp379
g74
(dp380
g82
I3
ssg83
g374
sg76
(lp381
S''
asbasbasbag69
(g85
g71
NtRp382
(dp383
g74
(dp384
sg83
g294
sg76
(lp385
g69
(g90
g71
NtRp386
(dp387
g74
(dp388
g94
g95
ssg83
g382
sg76
(lp389
S'max-age'
p390
asbag69
(g90
g71
NtRp391
(dp392
g74
(dp393
g101
g102
ssg83
g382
sg76
(lp394
S':'
asbag69
(g90
g71
NtRp395
(dp396
g74
(dp397
sg83
g382
sg76
(lp398
g69
(g70
g71
NtRp399
(dp400
g74
(dp401
g82
I3
ssg83
g395
sg76
(lp402
S''
asbasbasbag69
(g85
g71
NtRp403
(dp404
g74
(dp405
sg83
g294
sg76
(lp406
g69
(g90
g71
NtRp407
(dp408
g74
(dp409
g94
g95
ssg83
g403
sg76
(lp410
S'path'
p411
asbag69
(g90
g71
NtRp412
(dp413
g74
(dp414
g101
g102
ssg83
g403
sg76
(lp415
S':'
asbag69
(g90
g71
NtRp416
(dp417
g74
(dp418
sg83
g403
sg76
(lp419
g69
(g70
g71
NtRp420
(dp421
g74
(dp422
g82
I3
ssg83
g416
sg76
(lp423
S''
asbasbasbag69
(g85
g71
NtRp424
(dp425
g74
(dp426
sg83
g294
sg76
(lp427
g69
(g90
g71
NtRp428
(dp429
g74
(dp430
g94
g95
ssg83
g424
sg76
(lp431
S'secure'
p432
asbag69
(g90
g71
NtRp433
(dp434
g74
(dp435
g101
g102
ssg83
g424
sg76
(lp436
S':'
asbag69
(g90
g71
NtRp437
(dp438
g74
(dp439
sg83
g424
sg76
(lp440
g69
(g70
g71
NtRp441
(dp442
g74
(dp443
g82
I3
ssg83
g437
sg76
(lp444
S''
asbasbasbag69
(g85
g71
NtRp445
(dp446
g74
(dp447
sg83
g294
sg76
(lp448
g69
(g90
g71
NtRp449
(dp450
g74
(dp451
g94
g95
ssg83
g445
sg76
(lp452
S'version'
p453
asbag69
(g90
g71
NtRp454
(dp455
g74
(dp456
g101
g102
ssg83
g445
sg76
(lp457
S':'
asbag69
(g90
g71
NtRp458
(dp459
g74
(dp460
sg83
g445
sg76
(lp461
g69
(g70
g71
NtRp462
(dp463
g74
(dp464
g82
I3
ssg83
g458
sg76
(lp465
S''
asbasbasbasbasbasbasbag69
(g85
g71
NtRp466
(dp467
g74
(dp468
sg83
g268
sg76
(lp469
g69
(g90
g71
NtRp470
(dp471
g74
(dp472
g94
g95
ssg83
g466
sg76
(lp473
S'session_id_testumgebung'
p474
asbag69
(g90
g71
NtRp475
(dp476
g74
(dp477
g101
g102
ssg83
g466
sg76
(lp478
S':'
asbag69
(g90
g71
NtRp479
(dp480
g74
(dp481
sg83
g466
sg76
(lp482
g69
(g70
g71
NtRp483
(dp484
g74
(dp485
g82
I4
ssg83
g479
sg76
(lp486
S'127.0.0.1-0516a7a8-1a9f-40bf-950c-da43d5cea819'
p487
ag69
(g78
g71
NtRp488
(dp489
g74
(dp490
g82
I3
ssg83
Nsg76
(lp491
g69
(g85
g71
NtRp492
(dp493
g74
(dp494
sg83
g488
sg76
(lp495
g69
(g90
g71
NtRp496
(dp497
g74
(dp498
g94
g95
ssg83
g492
sg76
(lp499
g306
asbag69
(g90
g71
NtRp500
(dp501
g74
(dp502
g101
g102
ssg83
g492
sg76
(lp503
S':'
asbag69
(g90
g71
NtRp504
(dp505
g74
(dp506
sg83
g492
sg76
(lp507
g69
(g70
g71
NtRp508
(dp509
g74
(dp510
g82
I3
ssg83
g504
sg76
(lp511
S''
asbasbasbag69
(g85
g71
NtRp512
(dp513
g74
(dp514
sg83
g488
sg76
(lp515
g69
(g90
g71
NtRp516
(dp517
g74
(dp518
g94
g95
ssg83
g512
sg76
(lp519
g327
asbag69
(g90
g71
NtRp520
(dp521
g74
(dp522
g101
g102
ssg83
g512
sg76
(lp523
S':'
asbag69
(g90
g71
NtRp524
(dp525
g74
(dp526
sg83
g512
sg76
(lp527
g69
(g70
g71
NtRp528
(dp529
g74
(dp530
g82
I3
ssg83
g524
sg76
(lp531
S''
asbasbasbag69
(g85
g71
NtRp532
(dp533
g74
(dp534
sg83
g488
sg76
(lp535
g69
(g90
g71
NtRp536
(dp537
g74
(dp538
g94
g95
ssg83
g532
sg76
(lp539
g348
asbag69
(g90
g71
NtRp540
(dp541
g74
(dp542
g101
g102
ssg83
g532
sg76
(lp543
S':'
asbag69
(g90
g71
NtRp544
(dp545
g74
(dp546
sg83
g532
sg76
(lp547
g69
(g70
g71
NtRp548
(dp549
g74
(dp550
g82
I3
ssg83
g544
sg76
(lp551
S''
asbasbasbag69
(g85
g71
NtRp552
(dp553
g74
(dp554
sg83
g488
sg76
(lp555
g69
(g90
g71
NtRp556
(dp557
g74
(dp558
g94
g95
ssg83
g552
sg76
(lp559
g369
asbag69
(g90
g71
NtRp560
(dp561
g74
(dp562
g101
g102
ssg83
g552
sg76
(lp563
S':'
asbag69
(g90
g71
NtRp564
(dp565
g74
(dp566
sg83
g552
sg76
(lp567
g69
(g70
g71
NtRp568
(dp569
g74
(dp570
g82
I3
ssg83
g564
sg76
(lp571
S''
asbasbasbag69
(g85
g71
NtRp572
(dp573
g74
(dp574
sg83
g488
sg76
(lp575
g69
(g90
g71
NtRp576
(dp577
g74
(dp578
g94
g95
ssg83
g572
sg76
(lp579
g390
asbag69
(g90
g71
NtRp580
(dp581
g74
(dp582
g101
g102
ssg83
g572
sg76
(lp583
S':'
asbag69
(g90
g71
NtRp584
(dp585
g74
(dp586
sg83
g572
sg76
(lp587
g69
(g70
g71
NtRp588
(dp589
g74
(dp590
g82
I3
ssg83
g584
sg76
(lp591
S''
asbasbasbag69
(g85
g71
NtRp592
(dp593
g74
(dp594
sg83
g488
sg76
(lp595
g69
(g90
g71
NtRp596
(dp597
g74
(dp598
g94
g95
ssg83
g592
sg76
(lp599
g411
asbag69
(g90
g71
NtRp600
(dp601
g74
(dp602
g101
g102
ssg83
g592
sg76
(lp603
S':'
asbag69
(g90
g71
NtRp604
(dp605
g74
(dp606
sg83
g592
sg76
(lp607
g69
(g70
g71
NtRp608
(dp609
g74
(dp610
g82
I3
ssg83
g604
sg76
(lp611
S''
asbasbasbag69
(g85
g71
NtRp612
(dp613
g74
(dp614
sg83
g488
sg76
(lp615
g69
(g90
g71
NtRp616
(dp617
g74
(dp618
g94
g95
ssg83
g612
sg76
(lp619
g432
asbag69
(g90
g71
NtRp620
(dp621
g74
(dp622
g101
g102
ssg83
g612
sg76
(lp623
S':'
asbag69
(g90
g71
NtRp624
(dp625
g74
(dp626
sg83
g612
sg76
(lp627
g69
(g70
g71
NtRp628
(dp629
g74
(dp630
g82
I3
ssg83
g624
sg76
(lp631
S''
asbasbasbag69
(g85
g71
NtRp632
(dp633
g74
(dp634
sg83
g488
sg76
(lp635
g69
(g90
g71
NtRp636
(dp637
g74
(dp638
g94
g95
ssg83
g632
sg76
(lp639
g453
asbag69
(g90
g71
NtRp640
(dp641
g74
(dp642
g101
g102
ssg83
g632
sg76
(lp643
S':'
asbag69
(g90
g71
NtRp644
(dp645
g74
(dp646
sg83
g632
sg76
(lp647
g69
(g70
g71
NtRp648
(dp649
g74
(dp650
g82
I3
ssg83
g644
sg76
(lp651
S''
asbasbasbasbasbasbasbag69
(g85
g71
NtRp652
(dp653
g74
(dp654
sg83
g268
sg76
(lp655
g69
(g90
g71
NtRp656
(dp657
g74
(dp658
g94
g95
ssg83
g652
sg76
(lp659
S'session_id_welcome'
p660
asbag69
(g90
g71
NtRp661
(dp662
g74
(dp663
g101
g102
ssg83
g652
sg76
(lp664
S':'
asbag69
(g90
g71
NtRp665
(dp666
g74
(dp667
sg83
g652
sg76
(lp668
g69
(g70
g71
NtRp669
(dp670
g74
(dp671
g82
I4
ssg83
g665
sg76
(lp672
S'127.0.0.1-8951b67b-0375-49c3-abd6-9cc682af46bd'
p673
ag69
(g78
g71
NtRp674
(dp675
g74
(dp676
g82
I3
ssg83
Nsg76
(lp677
g69
(g85
g71
NtRp678
(dp679
g74
(dp680
sg83
g674
sg76
(lp681
g69
(g90
g71
NtRp682
(dp683
g74
(dp684
g94
g95
ssg83
g678
sg76
(lp685
g306
asbag69
(g90
g71
NtRp686
(dp687
g74
(dp688
g101
g102
ssg83
g678
sg76
(lp689
S':'
asbag69
(g90
g71
NtRp690
(dp691
g74
(dp692
sg83
g678
sg76
(lp693
g69
(g70
g71
NtRp694
(dp695
g74
(dp696
g82
I3
ssg83
g690
sg76
(lp697
S''
asbasbasbag69
(g85
g71
NtRp698
(dp699
g74
(dp700
sg83
g674
sg76
(lp701
g69
(g90
g71
NtRp702
(dp703
g74
(dp704
g94
g95
ssg83
g698
sg76
(lp705
g327
asbag69
(g90
g71
NtRp706
(dp707
g74
(dp708
g101
g102
ssg83
g698
sg76
(lp709
S':'
asbag69
(g90
g71
NtRp710
(dp711
g74
(dp712
sg83
g698
sg76
(lp713
g69
(g70
g71
NtRp714
(dp715
g74
(dp716
g82
I3
ssg83
g710
sg76
(lp717
S''
asbasbasbag69
(g85
g71
NtRp718
(dp719
g74
(dp720
sg83
g674
sg76
(lp721
g69
(g90
g71
NtRp722
(dp723
g74
(dp724
g94
g95
ssg83
g718
sg76
(lp725
g348
asbag69
(g90
g71
NtRp726
(dp727
g74
(dp728
g101
g102
ssg83
g718
sg76
(lp729
S':'
asbag69
(g90
g71
NtRp730
(dp731
g74
(dp732
sg83
g718
sg76
(lp733
g69
(g70
g71
NtRp734
(dp735
g74
(dp736
g82
I3
ssg83
g730
sg76
(lp737
S''
asbasbasbag69
(g85
g71
NtRp738
(dp739
g74
(dp740
sg83
g674
sg76
(lp741
g69
(g90
g71
NtRp742
(dp743
g74
(dp744
g94
g95
ssg83
g738
sg76
(lp745
g369
asbag69
(g90
g71
NtRp746
(dp747
g74
(dp748
g101
g102
ssg83
g738
sg76
(lp749
S':'
asbag69
(g90
g71
NtRp750
(dp751
g74
(dp752
sg83
g738
sg76
(lp753
g69
(g70
g71
NtRp754
(dp755
g74
(dp756
g82
I3
ssg83
g750
sg76
(lp757
S''
asbasbasbag69
(g85
g71
NtRp758
(dp759
g74
(dp760
sg83
g674
sg76
(lp761
g69
(g90
g71
NtRp762
(dp763
g74
(dp764
g94
g95
ssg83
g758
sg76
(lp765
g390
asbag69
(g90
g71
NtRp766
(dp767
g74
(dp768
g101
g102
ssg83
g758
sg76
(lp769
S':'
asbag69
(g90
g71
NtRp770
(dp771
g74
(dp772
sg83
g758
sg76
(lp773
g69
(g70
g71
NtRp774
(dp775
g74
(dp776
g82
I3
ssg83
g770
sg76
(lp777
S''
asbasbasbag69
(g85
g71
NtRp778
(dp779
g74
(dp780
sg83
g674
sg76
(lp781
g69
(g90
g71
NtRp782
(dp783
g74
(dp784
g94
g95
ssg83
g778
sg76
(lp785
g411
asbag69
(g90
g71
NtRp786
(dp787
g74
(dp788
g101
g102
ssg83
g778
sg76
(lp789
S':'
asbag69
(g90
g71
NtRp790
(dp791
g74
(dp792
sg83
g778
sg76
(lp793
g69
(g70
g71
NtRp794
(dp795
g74
(dp796
g82
I3
ssg83
g790
sg76
(lp797
S''
asbasbasbag69
(g85
g71
NtRp798
(dp799
g74
(dp800
sg83
g674
sg76
(lp801
g69
(g90
g71
NtRp802
(dp803
g74
(dp804
g94
g95
ssg83
g798
sg76
(lp805
g432
asbag69
(g90
g71
NtRp806
(dp807
g74
(dp808
g101
g102
ssg83
g798
sg76
(lp809
S':'
asbag69
(g90
g71
NtRp810
(dp811
g74
(dp812
sg83
g798
sg76
(lp813
g69
(g70
g71
NtRp814
(dp815
g74
(dp816
g82
I3
ssg83
g810
sg76
(lp817
S''
asbasbasbag69
(g85
g71
NtRp818
(dp819
g74
(dp820
sg83
g674
sg76
(lp821
g69
(g90
g71
NtRp822
(dp823
g74
(dp824
g94
g95
ssg83
g818
sg76
(lp825
g453
asbag69
(g90
g71
NtRp826
(dp827
g74
(dp828
g101
g102
ssg83
g818
sg76
(lp829
S':'
asbag69
(g90
g71
NtRp830
(dp831
g74
(dp832
sg83
g818
sg76
(lp833
g69
(g70
g71
NtRp834
(dp835
g74
(dp836
g82
I3
ssg83
g830
sg76
(lp837
S''
asbasbasbasbasbasbasbasbasbasbasbag69
(g85
g71
NtRp838
(dp839
g74
(dp840
sg83
g79
sg76
(lp841
g69
(g90
g71
NtRp842
(dp843
g74
(dp844
g94
g95
ssg83
g838
sg76
(lp845
S'env'
p846
asbag69
(g90
g71
NtRp847
(dp848
g74
(dp849
g101
g102
ssg83
g838
sg76
(lp850
S':'
asbag69
(g90
g71
NtRp851
(dp852
g74
(dp853
sg83
g838
sg76
(lp854
g69
(g70
g71
NtRp855
(dp856
g74
(dp857
g82
I5
ssg83
g851
sg76
(lp858
g69
(g78
g71
NtRp859
(dp860
g74
(dp861
g82
I4
ssg83
Nsg76
(lp862
g69
(g85
g71
NtRp863
(dp864
g74
(dp865
sg83
g859
sg76
(lp866
g69
(g90
g71
NtRp867
(dp868
g74
(dp869
g94
g95
ssg83
g863
sg76
(lp870
S'app_folders'
p871
asbag69
(g90
g71
NtRp872
(dp873
g74
(dp874
g101
g102
ssg83
g863
sg76
(lp875
S':'
asbag69
(g90
g71
NtRp876
(dp877
g74
(dp878
sg83
g863
sg76
(lp879
g69
(g70
g71
NtRp880
(dp881
g74
(dp882
g82
I4
ssg83
g876
sg76
(lp883
S"set(['C:\\\\xampp\\\\htdocs\\\\web2py\\\\applications\\\\admin\\\\', 'C:\\\\xampp\\\\htdocs\\\\web2py\\\\applications\\\\welcome\\\\', 'C:\\\\xampp\\\\htdocs\\\\web2py\\\\applications\\\\testumgebung\\\\'])"
p884
asbasbasbag69
(g85
g71
NtRp885
(dp886
g74
(dp887
sg83
g859
sg76
(lp888
g69
(g90
g71
NtRp889
(dp890
g74
(dp891
g94
g95
ssg83
g885
sg76
(lp892
S'applications_parent'
p893
asbag69
(g90
g71
NtRp894
(dp895
g74
(dp896
g101
g102
ssg83
g885
sg76
(lp897
S':'
asbag69
(g90
g71
NtRp898
(dp899
g74
(dp900
sg83
g885
sg76
(lp901
g69
(g70
g71
NtRp902
(dp903
g74
(dp904
g82
I4
ssg83
g898
sg76
(lp905
S'C:\\xampp\\htdocs\\web2py'
p906
asbasbasbag69
(g85
g71
NtRp907
(dp908
g74
(dp909
sg83
g859
sg76
(lp910
g69
(g90
g71
NtRp911
(dp912
g74
(dp913
g94
g95
ssg83
g907
sg76
(lp914
S'cmd_args'
p915
asbag69
(g90
g71
NtRp916
(dp917
g74
(dp918
g101
g102
ssg83
g907
sg76
(lp919
S':'
asbag69
(g90
g71
NtRp920
(dp921
g74
(dp922
sg83
g907
sg76
(lp923
g69
(g70
g71
NtRp924
(dp925
g74
(dp926
g82
I4
ssg83
g920
sg76
(lp927
g69
(g78
g71
NtRp928
(dp929
g74
(dp930
g82
I3
ssg83
Nsg76
(lp931
sbasbasbasbag69
(g85
g71
NtRp932
(dp933
g74
(dp934
sg83
g859
sg76
(lp935
g69
(g90
g71
NtRp936
(dp937
g74
(dp938
g94
g95
ssg83
g932
sg76
(lp939
S'cmd_options'
p940
asbag69
(g90
g71
NtRp941
(dp942
g74
(dp943
g101
g102
ssg83
g932
sg76
(lp944
S':'
asbag69
(g90
g71
NtRp945
(dp946
g74
(dp947
sg83
g932
sg76
(lp948
g69
(g70
g71
NtRp949
(dp950
g74
(dp951
g82
I4
ssg83
g945
sg76
(lp952
S"<Values at 0x2c68e18: {'verbose': False, 'ip': '127.0.0.1', 'with_scheduler': False, 'ips': ['10.0.0.109', '192.168.189.1', '192.168.91.1'], 'shutdown_timeout': 5, 'taskbar': False, 'port': 8000, 'maxthreads': None, 'softcron': False, 'server_name': 'swLaptop', 'bpython': False, 'nogui': False, 'nocron': False, 'extcron': False, 'run_system_tests': False, 'test': None, 'folder': 'C:\\\\xampp\\\\htdocs\\\\web2py', 'config': '', 'import_models': False, 'winservice': '', 'shell': None, 'run': '', 'log_filename': 'httpserver.log', 'debuglevel': 30, 'args': [''], 'socket_timeout': 5, 'ssl_ca_certificate': None, 'scheduler': None, 'profiler_filename': None, 'ssl_private_key': '', 'scheduler_groups': None, 'password': '<ask>', 'request_queue_size': 5, 'ssl_certificate': '', 'cronjob': False, 'numthreads': None, 'quiet': False, 'interfaces': None, 'minthreads': None, 'timeout': 10, 'plain': False, 'nobanner': False, 'pid_filename': 'httpserver.pid'}>"
p953
asbasbasbag69
(g85
g71
NtRp954
(dp955
g74
(dp956
sg83
g859
sg76
(lp957
g69
(g90
g71
NtRp958
(dp959
g74
(dp960
g94
g95
ssg83
g954
sg76
(lp961
S'db_sessions'
p962
asbag69
(g90
g71
NtRp963
(dp964
g74
(dp965
g101
g102
ssg83
g954
sg76
(lp966
S':'
asbag69
(g90
g71
NtRp967
(dp968
g74
(dp969
sg83
g954
sg76
(lp970
g69
(g70
g71
NtRp971
(dp972
g74
(dp973
g82
I4
ssg83
g967
sg76
(lp974
S'set([])'
p975
asbasbasbag69
(g85
g71
NtRp976
(dp977
g74
(dp978
sg83
g859
sg76
(lp979
g69
(g90
g71
NtRp980
(dp981
g74
(dp982
g94
g95
ssg83
g976
sg76
(lp983
S'debugging'
p984
asbag69
(g90
g71
NtRp985
(dp986
g74
(dp987
g101
g102
ssg83
g976
sg76
(lp988
S':'
asbag69
(g90
g71
NtRp989
(dp990
g74
(dp991
sg83
g976
sg76
(lp992
g69
(g70
g71
NtRp993
(dp994
g74
(dp995
g82
I4
ssg83
g989
sg76
(lp996
g112
asbasbasbag69
(g85
g71
NtRp997
(dp998
g74
(dp999
sg83
g859
sg76
(lp1000
g69
(g90
g71
NtRp1001
(dp1002
g74
(dp1003
g94
g95
ssg83
g997
sg76
(lp1004
S'gluon_parent'
p1005
asbag69
(g90
g71
NtRp1006
(dp1007
g74
(dp1008
g101
g102
ssg83
g997
sg76
(lp1009
S':'
asbag69
(g90
g71
NtRp1010
(dp1011
g74
(dp1012
sg83
g997
sg76
(lp1013
g69
(g70
g71
NtRp1014
(dp1015
g74
(dp1016
g82
I4
ssg83
g1010
sg76
(lp1017
S'C:\\xampp\\htdocs\\web2py'
p1018
asbasbasbag69
(g85
g71
NtRp1019
(dp1020
g74
(dp1021
sg83
g859
sg76
(lp1022
g69
(g90
g71
NtRp1023
(dp1024
g74
(dp1025
g94
g95
ssg83
g1019
sg76
(lp1026
S'http_accept'
p1027
asbag69
(g90
g71
NtRp1028
(dp1029
g74
(dp1030
g101
g102
ssg83
g1019
sg76
(lp1031
S':'
asbag69
(g90
g71
NtRp1032
(dp1033
g74
(dp1034
sg83
g1019
sg76
(lp1035
g69
(g70
g71
NtRp1036
(dp1037
g74
(dp1038
g82
I4
ssg83
g1032
sg76
(lp1039
S'text/html,application/xhtml+xml,application/xml;q=0.9,*/*;q=0.8'
p1040
asbasbasbag69
(g85
g71
NtRp1041
(dp1042
g74
(dp1043
sg83
g859
sg76
(lp1044
g69
(g90
g71
NtRp1045
(dp1046
g74
(dp1047
g94
g95
ssg83
g1041
sg76
(lp1048
S'http_accept_encoding'
p1049
asbag69
(g90
g71
NtRp1050
(dp1051
g74
(dp1052
g101
g102
ssg83
g1041
sg76
(lp1053
S':'
asbag69
(g90
g71
NtRp1054
(dp1055
g74
(dp1056
sg83
g1041
sg76
(lp1057
g69
(g70
g71
NtRp1058
(dp1059
g74
(dp1060
g82
I4
ssg83
g1054
sg76
(lp1061
S'gzip, deflate'
p1062
asbasbasbag69
(g85
g71
NtRp1063
(dp1064
g74
(dp1065
sg83
g859
sg76
(lp1066
g69
(g90
g71
NtRp1067
(dp1068
g74
(dp1069
g94
g95
ssg83
g1063
sg76
(lp1070
S'http_accept_language'
p1071
asbag69
(g90
g71
NtRp1072
(dp1073
g74
(dp1074
g101
g102
ssg83
g1063
sg76
(lp1075
S':'
asbag69
(g90
g71
NtRp1076
(dp1077
g74
(dp1078
sg83
g1063
sg76
(lp1079
g69
(g70
g71
NtRp1080
(dp1081
g74
(dp1082
g82
I4
ssg83
g1076
sg76
(lp1083
S'de-de,de;q=0.8,en-us;q=0.5,en;q=0.3'
p1084
asbasbasbag69
(g85
g71
NtRp1085
(dp1086
g74
(dp1087
sg83
g859
sg76
(lp1088
g69
(g90
g71
NtRp1089
(dp1090
g74
(dp1091
g94
g95
ssg83
g1085
sg76
(lp1092
S'http_cache_control'
p1093
asbag69
(g90
g71
NtRp1094
(dp1095
g74
(dp1096
g101
g102
ssg83
g1085
sg76
(lp1097
S':'
asbag69
(g90
g71
NtRp1098
(dp1099
g74
(dp1100
sg83
g1085
sg76
(lp1101
g69
(g70
g71
NtRp1102
(dp1103
g74
(dp1104
g82
I4
ssg83
g1098
sg76
(lp1105
S'max-age=0'
p1106
asbasbasbag69
(g85
g71
NtRp1107
(dp1108
g74
(dp1109
sg83
g859
sg76
(lp1110
g69
(g90
g71
NtRp1111
(dp1112
g74
(dp1113
g94
g95
ssg83
g1107
sg76
(lp1114
S'http_connection'
p1115
asbag69
(g90
g71
NtRp1116
(dp1117
g74
(dp1118
g101
g102
ssg83
g1107
sg76
(lp1119
S':'
asbag69
(g90
g71
NtRp1120
(dp1121
g74
(dp1122
sg83
g1107
sg76
(lp1123
g69
(g70
g71
NtRp1124
(dp1125
g74
(dp1126
g82
I4
ssg83
g1120
sg76
(lp1127
S'keep-alive'
p1128
asbasbasbag69
(g85
g71
NtRp1129
(dp1130
g74
(dp1131
sg83
g859
sg76
(lp1132
g69
(g90
g71
NtRp1133
(dp1134
g74
(dp1135
g94
g95
ssg83
g1129
sg76
(lp1136
S'http_cookie'
p1137
asbag69
(g90
g71
NtRp1138
(dp1139
g74
(dp1140
g101
g102
ssg83
g1129
sg76
(lp1141
S':'
asbag69
(g90
g71
NtRp1142
(dp1143
g74
(dp1144
sg83
g1129
sg76
(lp1145
g69
(g70
g71
NtRp1146
(dp1147
g74
(dp1148
g82
I4
ssg83
g1142
sg76
(lp1149
S'session_id_welcome=127.0.0.1-8951b67b-0375-49c3-abd6-9cc682af46bd; session_id_testumgebung=127.0.0.1-0516a7a8-1a9f-40bf-950c-da43d5cea819; session_id_admin=127.0.0.1-68488cad-9e24-4639-ac03-e5ae8e169abe'
p1150
asbasbasbag69
(g85
g71
NtRp1151
(dp1152
g74
(dp1153
sg83
g859
sg76
(lp1154
g69
(g90
g71
NtRp1155
(dp1156
g74
(dp1157
g94
g95
ssg83
g1151
sg76
(lp1158
S'http_dnt'
p1159
asbag69
(g90
g71
NtRp1160
(dp1161
g74
(dp1162
g101
g102
ssg83
g1151
sg76
(lp1163
S':'
asbag69
(g90
g71
NtRp1164
(dp1165
g74
(dp1166
sg83
g1151
sg76
(lp1167
g69
(g70
g71
NtRp1168
(dp1169
g74
(dp1170
g82
I4
ssg83
g1164
sg76
(lp1171
S'1'
asbasbasbag69
(g85
g71
NtRp1172
(dp1173
g74
(dp1174
sg83
g859
sg76
(lp1175
g69
(g90
g71
NtRp1176
(dp1177
g74
(dp1178
g94
g95
ssg83
g1172
sg76
(lp1179
S'http_host'
p1180
asbag69
(g90
g71
NtRp1181
(dp1182
g74
(dp1183
g101
g102
ssg83
g1172
sg76
(lp1184
S':'
asbag69
(g90
g71
NtRp1185
(dp1186
g74
(dp1187
sg83
g1172
sg76
(lp1188
g69
(g70
g71
NtRp1189
(dp1190
g74
(dp1191
g82
I4
ssg83
g1185
sg76
(lp1192
S'127.0.0.1:8000'
p1193
asbasbasbag69
(g85
g71
NtRp1194
(dp1195
g74
(dp1196
sg83
g859
sg76
(lp1197
g69
(g90
g71
NtRp1198
(dp1199
g74
(dp1200
g94
g95
ssg83
g1194
sg76
(lp1201
S'http_user_agent'
p1202
asbag69
(g90
g71
NtRp1203
(dp1204
g74
(dp1205
g101
g102
ssg83
g1194
sg76
(lp1206
S':'
asbag69
(g90
g71
NtRp1207
(dp1208
g74
(dp1209
sg83
g1194
sg76
(lp1210
g69
(g70
g71
NtRp1211
(dp1212
g74
(dp1213
g82
I4
ssg83
g1207
sg76
(lp1214
S'Mozilla/5.0 (Windows NT 6.1; WOW64; rv:17.0) Gecko/20100101 Firefox/17.0'
p1215
asbasbasbag69
(g85
g71
NtRp1216
(dp1217
g74
(dp1218
sg83
g859
sg76
(lp1219
g69
(g90
g71
NtRp1220
(dp1221
g74
(dp1222
g94
g95
ssg83
g1216
sg76
(lp1223
S'http_x_clickoncesupport'
p1224
asbag69
(g90
g71
NtRp1225
(dp1226
g74
(dp1227
g101
g102
ssg83
g1216
sg76
(lp1228
S':'
asbag69
(g90
g71
NtRp1229
(dp1230
g74
(dp1231
sg83
g1216
sg76
(lp1232
g69
(g70
g71
NtRp1233
(dp1234
g74
(dp1235
g82
I4
ssg83
g1229
sg76
(lp1236
S'(.NET CLR 2.0.50727; .NET CLR 3.5.30729; .NET CLR 3.0.30729; .NET4.0C; .NET4.0E)'
p1237
asbasbasbag69
(g85
g71
NtRp1238
(dp1239
g74
(dp1240
sg83
g859
sg76
(lp1241
g69
(g90
g71
NtRp1242
(dp1243
g74
(dp1244
g94
g95
ssg83
g1238
sg76
(lp1245
S'is_jython'
p1246
asbag69
(g90
g71
NtRp1247
(dp1248
g74
(dp1249
g101
g102
ssg83
g1238
sg76
(lp1250
S':'
asbag69
(g90
g71
NtRp1251
(dp1252
g74
(dp1253
sg83
g1238
sg76
(lp1254
g69
(g70
g71
NtRp1255
(dp1256
g74
(dp1257
g82
I4
ssg83
g1251
sg76
(lp1258
g112
asbasbasbag69
(g85
g71
NtRp1259
(dp1260
g74
(dp1261
sg83
g859
sg76
(lp1262
g69
(g90
g71
NtRp1263
(dp1264
g74
(dp1265
g94
g95
ssg83
g1259
sg76
(lp1266
S'is_pypy'
p1267
asbag69
(g90
g71
NtRp1268
(dp1269
g74
(dp1270
g101
g102
ssg83
g1259
sg76
(lp1271
S':'
asbag69
(g90
g71
NtRp1272
(dp1273
g74
(dp1274
sg83
g1259
sg76
(lp1275
g69
(g70
g71
NtRp1276
(dp1277
g74
(dp1278
g82
I4
ssg83
g1272
sg76
(lp1279
g112
asbasbasbag69
(g85
g71
NtRp1280
(dp1281
g74
(dp1282
sg83
g859
sg76
(lp1283
g69
(g90
g71
NtRp1284
(dp1285
g74
(dp1286
g94
g95
ssg83
g1280
sg76
(lp1287
S'path_info'
p1288
asbag69
(g90
g71
NtRp1289
(dp1290
g74
(dp1291
g101
g102
ssg83
g1280
sg76
(lp1292
S':'
asbag69
(g90
g71
NtRp1293
(dp1294
g74
(dp1295
sg83
g1280
sg76
(lp1296
g69
(g70
g71
NtRp1297
(dp1298
g74
(dp1299
g82
I4
ssg83
g1293
sg76
(lp1300
S'/testumgebung'
p1301
asbasbasbag69
(g85
g71
NtRp1302
(dp1303
g74
(dp1304
sg83
g859
sg76
(lp1305
g69
(g90
g71
NtRp1306
(dp1307
g74
(dp1308
g94
g95
ssg83
g1302
sg76
(lp1309
S'query_string'
p1310
asbag69
(g90
g71
NtRp1311
(dp1312
g74
(dp1313
g101
g102
ssg83
g1302
sg76
(lp1314
S':'
asbag69
(g90
g71
NtRp1315
(dp1316
g74
(dp1317
sg83
g1302
sg76
(lp1318
g69
(g70
g71
NtRp1319
(dp1320
g74
(dp1321
g82
I4
ssg83
g1315
sg76
(lp1322
S''
asbasbasbag69
(g85
g71
NtRp1323
(dp1324
g74
(dp1325
sg83
g859
sg76
(lp1326
g69
(g90
g71
NtRp1327
(dp1328
g74
(dp1329
g94
g95
ssg83
g1323
sg76
(lp1330
S'remote_addr'
p1331
asbag69
(g90
g71
NtRp1332
(dp1333
g74
(dp1334
g101
g102
ssg83
g1323
sg76
(lp1335
S':'
asbag69
(g90
g71
NtRp1336
(dp1337
g74
(dp1338
sg83
g1323
sg76
(lp1339
g69
(g70
g71
NtRp1340
(dp1341
g74
(dp1342
g82
I4
ssg83
g1336
sg76
(lp1343
g224
asbasbasbag69
(g85
g71
NtRp1344
(dp1345
g74
(dp1346
sg83
g859
sg76
(lp1347
g69
(g90
g71
NtRp1348
(dp1349
g74
(dp1350
g94
g95
ssg83
g1344
sg76
(lp1351
S'remote_port'
p1352
asbag69
(g90
g71
NtRp1353
(dp1354
g74
(dp1355
g101
g102
ssg83
g1344
sg76
(lp1356
S':'
asbag69
(g90
g71
NtRp1357
(dp1358
g74
(dp1359
sg83
g1344
sg76
(lp1360
g69
(g70
g71
NtRp1361
(dp1362
g74
(dp1363
g82
I4
ssg83
g1357
sg76
(lp1364
S'53234'
p1365
asbasbasbag69
(g85
g71
NtRp1366
(dp1367
g74
(dp1368
sg83
g859
sg76
(lp1369
g69
(g90
g71
NtRp1370
(dp1371
g74
(dp1372
g94
g95
ssg83
g1366
sg76
(lp1373
S'request_method'
p1374
asbag69
(g90
g71
NtRp1375
(dp1376
g74
(dp1377
g101
g102
ssg83
g1366
sg76
(lp1378
S':'
asbag69
(g90
g71
NtRp1379
(dp1380
g74
(dp1381
sg83
g1366
sg76
(lp1382
g69
(g70
g71
NtRp1383
(dp1384
g74
(dp1385
g82
I4
ssg83
g1379
sg76
(lp1386
S'GET'
p1387
asbasbasbag69
(g85
g71
NtRp1388
(dp1389
g74
(dp1390
sg83
g859
sg76
(lp1391
g69
(g90
g71
NtRp1392
(dp1393
g74
(dp1394
g94
g95
ssg83
g1388
sg76
(lp1395
S'request_uri'
p1396
asbag69
(g90
g71
NtRp1397
(dp1398
g74
(dp1399
g101
g102
ssg83
g1388
sg76
(lp1400
S':'
asbag69
(g90
g71
NtRp1401
(dp1402
g74
(dp1403
sg83
g1388
sg76
(lp1404
g69
(g70
g71
NtRp1405
(dp1406
g74
(dp1407
g82
I4
ssg83
g1401
sg76
(lp1408
g1301
asbasbasbag69
(g85
g71
NtRp1409
(dp1410
g74
(dp1411
sg83
g859
sg76
(lp1412
g69
(g90
g71
NtRp1413
(dp1414
g74
(dp1415
g94
g95
ssg83
g1409
sg76
(lp1416
S'script_name'
p1417
asbag69
(g90
g71
NtRp1418
(dp1419
g74
(dp1420
g101
g102
ssg83
g1409
sg76
(lp1421
S':'
asbag69
(g90
g71
NtRp1422
(dp1423
g74
(dp1424
sg83
g1409
sg76
(lp1425
g69
(g70
g71
NtRp1426
(dp1427
g74
(dp1428
g82
I4
ssg83
g1422
sg76
(lp1429
S''
asbasbasbag69
(g85
g71
NtRp1430
(dp1431
g74
(dp1432
sg83
g859
sg76
(lp1433
g69
(g90
g71
NtRp1434
(dp1435
g74
(dp1436
g94
g95
ssg83
g1430
sg76
(lp1437
S'server_name'
p1438
asbag69
(g90
g71
NtRp1439
(dp1440
g74
(dp1441
g101
g102
ssg83
g1430
sg76
(lp1442
S':'
asbag69
(g90
g71
NtRp1443
(dp1444
g74
(dp1445
sg83
g1430
sg76
(lp1446
g69
(g70
g71
NtRp1447
(dp1448
g74
(dp1449
g82
I4
ssg83
g1443
sg76
(lp1450
S'swLaptop'
p1451
asbasbasbag69
(g85
g71
NtRp1452
(dp1453
g74
(dp1454
sg83
g859
sg76
(lp1455
g69
(g90
g71
NtRp1456
(dp1457
g74
(dp1458
g94
g95
ssg83
g1452
sg76
(lp1459
S'server_port'
p1460
asbag69
(g90
g71
NtRp1461
(dp1462
g74
(dp1463
g101
g102
ssg83
g1452
sg76
(lp1464
S':'
asbag69
(g90
g71
NtRp1465
(dp1466
g74
(dp1467
sg83
g1452
sg76
(lp1468
g69
(g70
g71
NtRp1469
(dp1470
g74
(dp1471
g82
I4
ssg83
g1465
sg76
(lp1472
S'8000'
p1473
asbasbasbag69
(g85
g71
NtRp1474
(dp1475
g74
(dp1476
sg83
g859
sg76
(lp1477
g69
(g90
g71
NtRp1478
(dp1479
g74
(dp1480
g94
g95
ssg83
g1474
sg76
(lp1481
S'server_protocol'
p1482
asbag69
(g90
g71
NtRp1483
(dp1484
g74
(dp1485
g101
g102
ssg83
g1474
sg76
(lp1486
S':'
asbag69
(g90
g71
NtRp1487
(dp1488
g74
(dp1489
sg83
g1474
sg76
(lp1490
g69
(g70
g71
NtRp1491
(dp1492
g74
(dp1493
g82
I4
ssg83
g1487
sg76
(lp1494
S'HTTP/1.1'
p1495
asbasbasbag69
(g85
g71
NtRp1496
(dp1497
g74
(dp1498
sg83
g859
sg76
(lp1499
g69
(g90
g71
NtRp1500
(dp1501
g74
(dp1502
g94
g95
ssg83
g1496
sg76
(lp1503
S'server_software'
p1504
asbag69
(g90
g71
NtRp1505
(dp1506
g74
(dp1507
g101
g102
ssg83
g1496
sg76
(lp1508
S':'
asbag69
(g90
g71
NtRp1509
(dp1510
g74
(dp1511
sg83
g1496
sg76
(lp1512
g69
(g70
g71
NtRp1513
(dp1514
g74
(dp1515
g82
I4
ssg83
g1509
sg76
(lp1516
S'Rocket 1.2.4'
p1517
asbasbasbag69
(g85
g71
NtRp1518
(dp1519
g74
(dp1520
sg83
g859
sg76
(lp1521
g69
(g90
g71
NtRp1522
(dp1523
g74
(dp1524
g94
g95
ssg83
g1518
sg76
(lp1525
S'web2py_crontype'
p1526
asbag69
(g90
g71
NtRp1527
(dp1528
g74
(dp1529
g101
g102
ssg83
g1518
sg76
(lp1530
S':'
asbag69
(g90
g71
NtRp1531
(dp1532
g74
(dp1533
sg83
g1518
sg76
(lp1534
g69
(g70
g71
NtRp1535
(dp1536
g74
(dp1537
g82
I4
ssg83
g1531
sg76
(lp1538
S'hard'
p1539
asbasbasbag69
(g85
g71
NtRp1540
(dp1541
g74
(dp1542
sg83
g859
sg76
(lp1543
g69
(g90
g71
NtRp1544
(dp1545
g74
(dp1546
g94
g95
ssg83
g1540
sg76
(lp1547
S'web2py_path'
p1548
asbag69
(g90
g71
NtRp1549
(dp1550
g74
(dp1551
g101
g102
ssg83
g1540
sg76
(lp1552
S':'
asbag69
(g90
g71
NtRp1553
(dp1554
g74
(dp1555
sg83
g1540
sg76
(lp1556
g69
(g70
g71
NtRp1557
(dp1558
g74
(dp1559
g82
I4
ssg83
g1553
sg76
(lp1560
g906
asbasbasbag69
(g85
g71
NtRp1561
(dp1562
g74
(dp1563
sg83
g859
sg76
(lp1564
g69
(g90
g71
NtRp1565
(dp1566
g74
(dp1567
g94
g95
ssg83
g1561
sg76
(lp1568
S'web2py_version'
p1569
asbag69
(g90
g71
NtRp1570
(dp1571
g74
(dp1572
g101
g102
ssg83
g1561
sg76
(lp1573
S':'
asbag69
(g90
g71
NtRp1574
(dp1575
g74
(dp1576
sg83
g1561
sg76
(lp1577
g69
(g70
g71
NtRp1578
(dp1579
g74
(dp1580
g82
I4
ssg83
g1574
sg76
(lp1581
g69
(g78
g71
NtRp1582
(dp1583
g74
(dp1584
g82
I3
ssg83
Nsg76
(lp1585
g69
(g85
g71
NtRp1586
(dp1587
g74
(dp1588
sg83
g1582
sg76
(lp1589
g69
(g90
g71
NtRp1590
(dp1591
g74
(dp1592
sg83
g1586
sg76
(lp1593
g69
(g70
g71
NtRp1594
(dp1595
g74
(dp1596
g82
I3
ssg83
g1590
sg76
(lp1597
S'2'
asbasbasbag69
(g85
g71
NtRp1598
(dp1599
g74
(dp1600
sg83
g1582
sg76
(lp1601
g69
(g90
g71
NtRp1602
(dp1603
g74
(dp1604
sg83
g1598
sg76
(lp1605
g69
(g70
g71
NtRp1606
(dp1607
g74
(dp1608
g82
I3
ssg83
g1602
sg76
(lp1609
S'0'
asbasbasbag69
(g85
g71
NtRp1610
(dp1611
g74
(dp1612
sg83
g1582
sg76
(lp1613
g69
(g90
g71
NtRp1614
(dp1615
g74
(dp1616
sg83
g1610
sg76
(lp1617
g69
(g70
g71
NtRp1618
(dp1619
g74
(dp1620
g82
I3
ssg83
g1614
sg76
(lp1621
S'3'
asbasbasbag69
(g85
g71
NtRp1622
(dp1623
g74
(dp1624
sg83
g1582
sg76
(lp1625
g69
(g90
g71
NtRp1626
(dp1627
g74
(dp1628
sg83
g1622
sg76
(lp1629
g69
(g70
g71
NtRp1630
(dp1631
g74
(dp1632
g82
I3
ssg83
g1626
sg76
(lp1633
S'datetime.datetime(2012, 8, 31, 5, 58, 31)'
p1634
asbasbasbag69
(g85
g71
NtRp1635
(dp1636
g74
(dp1637
sg83
g1582
sg76
(lp1638
g69
(g90
g71
NtRp1639
(dp1640
g74
(dp1641
sg83
g1635
sg76
(lp1642
g69
(g70
g71
NtRp1643
(dp1644
g74
(dp1645
g82
I3
ssg83
g1639
sg76
(lp1646
S'stable'
p1647
asbasbasbasbasbasbasbag69
(g85
g71
NtRp1648
(dp1649
g74
(dp1650
sg83
g859
sg76
(lp1651
g69
(g90
g71
NtRp1652
(dp1653
g74
(dp1654
g94
g95
ssg83
g1648
sg76
(lp1655
S'wsgi_errors'
p1656
asbag69
(g90
g71
NtRp1657
(dp1658
g74
(dp1659
g101
g102
ssg83
g1648
sg76
(lp1660
S':'
asbag69
(g90
g71
NtRp1661
(dp1662
g74
(dp1663
sg83
g1648
sg76
(lp1664
g69
(g70
g71
NtRp1665
(dp1666
g74
(dp1667
g82
I4
ssg83
g1661
sg76
(lp1668
S"<open file '<stderr>', mode 'w' at 0x021D50D0>"
p1669
asbasbasbag69
(g85
g71
NtRp1670
(dp1671
g74
(dp1672
sg83
g859
sg76
(lp1673
g69
(g90
g71
NtRp1674
(dp1675
g74
(dp1676
g94
g95
ssg83
g1670
sg76
(lp1677
S'wsgi_file_wrapper'
p1678
asbag69
(g90
g71
NtRp1679
(dp1680
g74
(dp1681
g101
g102
ssg83
g1670
sg76
(lp1682
S':'
asbag69
(g90
g71
NtRp1683
(dp1684
g74
(dp1685
sg83
g1670
sg76
(lp1686
g69
(g70
g71
NtRp1687
(dp1688
g74
(dp1689
g82
I4
ssg83
g1683
sg76
(lp1690
S'<class wsgiref.util.FileWrapper at 0x02C1D030>'
p1691
asbasbasbag69
(g85
g71
NtRp1692
(dp1693
g74
(dp1694
sg83
g859
sg76
(lp1695
g69
(g90
g71
NtRp1696
(dp1697
g74
(dp1698
g94
g95
ssg83
g1692
sg76
(lp1699
S'wsgi_input'
p1700
asbag69
(g90
g71
NtRp1701
(dp1702
g74
(dp1703
g101
g102
ssg83
g1692
sg76
(lp1704
S':'
asbag69
(g90
g71
NtRp1705
(dp1706
g74
(dp1707
sg83
g1692
sg76
(lp1708
g69
(g70
g71
NtRp1709
(dp1710
g74
(dp1711
g82
I4
ssg83
g1705
sg76
(lp1712
S'<socket._fileobject object at 0x030EF130>'
p1713
asbasbasbag69
(g85
g71
NtRp1714
(dp1715
g74
(dp1716
sg83
g859
sg76
(lp1717
g69
(g90
g71
NtRp1718
(dp1719
g74
(dp1720
g94
g95
ssg83
g1714
sg76
(lp1721
S'wsgi_multiprocess'
p1722
asbag69
(g90
g71
NtRp1723
(dp1724
g74
(dp1725
g101
g102
ssg83
g1714
sg76
(lp1726
S':'
asbag69
(g90
g71
NtRp1727
(dp1728
g74
(dp1729
sg83
g1714
sg76
(lp1730
g69
(g70
g71
NtRp1731
(dp1732
g74
(dp1733
g82
I4
ssg83
g1727
sg76
(lp1734
g112
asbasbasbag69
(g85
g71
NtRp1735
(dp1736
g74
(dp1737
sg83
g859
sg76
(lp1738
g69
(g90
g71
NtRp1739
(dp1740
g74
(dp1741
g94
g95
ssg83
g1735
sg76
(lp1742
S'wsgi_multithread'
p1743
asbag69
(g90
g71
NtRp1744
(dp1745
g74
(dp1746
g101
g102
ssg83
g1735
sg76
(lp1747
S':'
asbag69
(g90
g71
NtRp1748
(dp1749
g74
(dp1750
sg83
g1735
sg76
(lp1751
g69
(g70
g71
NtRp1752
(dp1753
g74
(dp1754
g82
I4
ssg83
g1748
sg76
(lp1755
S'True'
p1756
asbasbasbag69
(g85
g71
NtRp1757
(dp1758
g74
(dp1759
sg83
g859
sg76
(lp1760
g69
(g90
g71
NtRp1761
(dp1762
g74
(dp1763
g94
g95
ssg83
g1757
sg76
(lp1764
S'wsgi_run_once'
p1765
asbag69
(g90
g71
NtRp1766
(dp1767
g74
(dp1768
g101
g102
ssg83
g1757
sg76
(lp1769
S':'
asbag69
(g90
g71
NtRp1770
(dp1771
g74
(dp1772
sg83
g1757
sg76
(lp1773
g69
(g70
g71
NtRp1774
(dp1775
g74
(dp1776
g82
I4
ssg83
g1770
sg76
(lp1777
g112
asbasbasbag69
(g85
g71
NtRp1778
(dp1779
g74
(dp1780
sg83
g859
sg76
(lp1781
g69
(g90
g71
NtRp1782
(dp1783
g74
(dp1784
g94
g95
ssg83
g1778
sg76
(lp1785
S'wsgi_url_scheme'
p1786
asbag69
(g90
g71
NtRp1787
(dp1788
g74
(dp1789
g101
g102
ssg83
g1778
sg76
(lp1790
S':'
asbag69
(g90
g71
NtRp1791
(dp1792
g74
(dp1793
sg83
g1778
sg76
(lp1794
g69
(g70
g71
NtRp1795
(dp1796
g74
(dp1797
g82
I4
ssg83
g1791
sg76
(lp1798
S'http'
p1799
asbasbasbag69
(g85
g71
NtRp1800
(dp1801
g74
(dp1802
sg83
g859
sg76
(lp1803
g69
(g90
g71
NtRp1804
(dp1805
g74
(dp1806
g94
g95
ssg83
g1800
sg76
(lp1807
S'wsgi_version'
p1808
asbag69
(g90
g71
NtRp1809
(dp1810
g74
(dp1811
g101
g102
ssg83
g1800
sg76
(lp1812
S':'
asbag69
(g90
g71
NtRp1813
(dp1814
g74
(dp1815
sg83
g1800
sg76
(lp1816
g69
(g70
g71
NtRp1817
(dp1818
g74
(dp1819
g82
I4
ssg83
g1813
sg76
(lp1820
g69
(g78
g71
NtRp1821
(dp1822
g74
(dp1823
g82
I3
ssg83
Nsg76
(lp1824
g69
(g85
g71
NtRp1825
(dp1826
g74
(dp1827
sg83
g1821
sg76
(lp1828
g69
(g90
g71
NtRp1829
(dp1830
g74
(dp1831
sg83
g1825
sg76
(lp1832
g69
(g70
g71
NtRp1833
(dp1834
g74
(dp1835
g82
I3
ssg83
g1829
sg76
(lp1836
S'1'
asbasbasbag69
(g85
g71
NtRp1837
(dp1838
g74
(dp1839
sg83
g1821
sg76
(lp1840
g69
(g90
g71
NtRp1841
(dp1842
g74
(dp1843
sg83
g1837
sg76
(lp1844
g69
(g70
g71
NtRp1845
(dp1846
g74
(dp1847
g82
I3
ssg83
g1841
sg76
(lp1848
S'0'
asbasbasbasbasbasbasbasbasbasbasbag69
(g85
g71
NtRp1849
(dp1850
g74
(dp1851
sg83
g79
sg76
(lp1852
g69
(g90
g71
NtRp1853
(dp1854
g74
(dp1855
g94
g95
ssg83
g1849
sg76
(lp1856
S'extension'
p1857
asbag69
(g90
g71
NtRp1858
(dp1859
g74
(dp1860
g101
g102
ssg83
g1849
sg76
(lp1861
S':'
asbag69
(g90
g71
NtRp1862
(dp1863
g74
(dp1864
sg83
g1849
sg76
(lp1865
g69
(g70
g71
NtRp1866
(dp1867
g74
(dp1868
g82
I5
ssg83
g1862
sg76
(lp1869
S'html'
p1870
asbasbasbag69
(g85
g71
NtRp1871
(dp1872
g74
(dp1873
sg83
g79
sg76
(lp1874
g69
(g90
g71
NtRp1875
(dp1876
g74
(dp1877
g94
g95
ssg83
g1871
sg76
(lp1878
S'folder'
p1879
asbag69
(g90
g71
NtRp1880
(dp1881
g74
(dp1882
g101
g102
ssg83
g1871
sg76
(lp1883
S':'
asbag69
(g90
g71
NtRp1884
(dp1885
g74
(dp1886
sg83
g1871
sg76
(lp1887
g69
(g70
g71
NtRp1888
(dp1889
g74
(dp1890
g82
I5
ssg83
g1884
sg76
(lp1891
S'C:\\xampp\\htdocs\\web2py\\applications\\testumgebung\\'
p1892
asbasbasbag69
(g85
g71
NtRp1893
(dp1894
g74
(dp1895
sg83
g79
sg76
(lp1896
g69
(g90
g71
NtRp1897
(dp1898
g74
(dp1899
g94
g95
ssg83
g1893
sg76
(lp1900
S'function'
p1901
asbag69
(g90
g71
NtRp1902
(dp1903
g74
(dp1904
g101
g102
ssg83
g1893
sg76
(lp1905
S':'
asbag69
(g90
g71
NtRp1906
(dp1907
g74
(dp1908
sg83
g1893
sg76
(lp1909
g69
(g70
g71
NtRp1910
(dp1911
g74
(dp1912
g82
I5
ssg83
g1906
sg76
(lp1913
S'index'
p1914
asbasbasbag69
(g85
g71
NtRp1915
(dp1916
g74
(dp1917
sg83
g79
sg76
(lp1918
g69
(g90
g71
NtRp1919
(dp1920
g74
(dp1921
g94
g95
ssg83
g1915
sg76
(lp1922
S'get_vars'
p1923
asbag69
(g90
g71
NtRp1924
(dp1925
g74
(dp1926
g101
g102
ssg83
g1915
sg76
(lp1927
S':'
asbag69
(g90
g71
NtRp1928
(dp1929
g74
(dp1930
sg83
g1915
sg76
(lp1931
g69
(g70
g71
NtRp1932
(dp1933
g74
(dp1934
g82
I5
ssg83
g1928
sg76
(lp1935
g69
(g78
g71
NtRp1936
(dp1937
g74
(dp1938
g82
I4
ssg83
Nsg76
(lp1939
sbasbasbasbag69
(g85
g71
NtRp1940
(dp1941
g74
(dp1942
sg83
g79
sg76
(lp1943
g69
(g90
g71
NtRp1944
(dp1945
g74
(dp1946
g94
g95
ssg83
g1940
sg76
(lp1947
S'global_settings'
p1948
asbag69
(g90
g71
NtRp1949
(dp1950
g74
(dp1951
g101
g102
ssg83
g1940
sg76
(lp1952
S':'
asbag69
(g90
g71
NtRp1953
(dp1954
g74
(dp1955
sg83
g1940
sg76
(lp1956
g69
(g70
g71
NtRp1957
(dp1958
g74
(dp1959
g82
I5
ssg83
g1953
sg76
(lp1960
g69
(g78
g71
NtRp1961
(dp1962
g74
(dp1963
g82
I4
ssg83
Nsg76
(lp1964
g69
(g85
g71
NtRp1965
(dp1966
g74
(dp1967
sg83
g1961
sg76
(lp1968
g69
(g90
g71
NtRp1969
(dp1970
g74
(dp1971
g94
g95
ssg83
g1965
sg76
(lp1972
g871
asbag69
(g90
g71
NtRp1973
(dp1974
g74
(dp1975
g101
g102
ssg83
g1965
sg76
(lp1976
S':'
asbag69
(g90
g71
NtRp1977
(dp1978
g74
(dp1979
sg83
g1965
sg76
(lp1980
g69
(g70
g71
NtRp1981
(dp1982
g74
(dp1983
g82
I4
ssg83
g1977
sg76
(lp1984
S"set(['C:\\\\xampp\\\\htdocs\\\\web2py\\\\applications\\\\admin\\\\', 'C:\\\\xampp\\\\htdocs\\\\web2py\\\\applications\\\\welcome\\\\', 'C:\\\\xampp\\\\htdocs\\\\web2py\\\\applications\\\\testumgebung\\\\'])"
p1985
asbasbasbag69
(g85
g71
NtRp1986
(dp1987
g74
(dp1988
sg83
g1961
sg76
(lp1989
g69
(g90
g71
NtRp1990
(dp1991
g74
(dp1992
g94
g95
ssg83
g1986
sg76
(lp1993
g893
asbag69
(g90
g71
NtRp1994
(dp1995
g74
(dp1996
g101
g102
ssg83
g1986
sg76
(lp1997
S':'
asbag69
(g90
g71
NtRp1998
(dp1999
g74
(dp2000
sg83
g1986
sg76
(lp2001
g69
(g70
g71
NtRp2002
(dp2003
g74
(dp2004
g82
I4
ssg83
g1998
sg76
(lp2005
g906
asbasbasbag69
(g85
g71
NtRp2006
(dp2007
g74
(dp2008
sg83
g1961
sg76
(lp2009
g69
(g90
g71
NtRp2010
(dp2011
g74
(dp2012
g94
g95
ssg83
g2006
sg76
(lp2013
g915
asbag69
(g90
g71
NtRp2014
(dp2015
g74
(dp2016
g101
g102
ssg83
g2006
sg76
(lp2017
S':'
asbag69
(g90
g71
NtRp2018
(dp2019
g74
(dp2020
sg83
g2006
sg76
(lp2021
g69
(g70
g71
NtRp2022
(dp2023
g74
(dp2024
g82
I4
ssg83
g2018
sg76
(lp2025
g69
(g78
g71
NtRp2026
(dp2027
g74
(dp2028
g82
I3
ssg83
Nsg76
(lp2029
sbasbasbasbag69
(g85
g71
NtRp2030
(dp2031
g74
(dp2032
sg83
g1961
sg76
(lp2033
g69
(g90
g71
NtRp2034
(dp2035
g74
(dp2036
g94
g95
ssg83
g2030
sg76
(lp2037
g940
asbag69
(g90
g71
NtRp2038
(dp2039
g74
(dp2040
g101
g102
ssg83
g2030
sg76
(lp2041
S':'
asbag69
(g90
g71
NtRp2042
(dp2043
g74
(dp2044
sg83
g2030
sg76
(lp2045
g69
(g70
g71
NtRp2046
(dp2047
g74
(dp2048
g82
I4
ssg83
g2042
sg76
(lp2049
S"<Values at 0x2c68e18: {'verbose': False, 'ip': '127.0.0.1', 'with_scheduler': False, 'ips': ['10.0.0.109', '192.168.189.1', '192.168.91.1'], 'shutdown_timeout': 5, 'taskbar': False, 'port': 8000, 'maxthreads': None, 'softcron': False, 'server_name': 'swLaptop', 'bpython': False, 'nogui': False, 'nocron': False, 'extcron': False, 'run_system_tests': False, 'test': None, 'folder': 'C:\\\\xampp\\\\htdocs\\\\web2py', 'config': '', 'import_models': False, 'winservice': '', 'shell': None, 'run': '', 'log_filename': 'httpserver.log', 'debuglevel': 30, 'args': [''], 'socket_timeout': 5, 'ssl_ca_certificate': None, 'scheduler': None, 'profiler_filename': None, 'ssl_private_key': '', 'scheduler_groups': None, 'password': '<ask>', 'request_queue_size': 5, 'ssl_certificate': '', 'cronjob': False, 'numthreads': None, 'quiet': False, 'interfaces': None, 'minthreads': None, 'timeout': 10, 'plain': False, 'nobanner': False, 'pid_filename': 'httpserver.pid'}>"
p2050
asbasbasbag69
(g85
g71
NtRp2051
(dp2052
g74
(dp2053
sg83
g1961
sg76
(lp2054
g69
(g90
g71
NtRp2055
(dp2056
g74
(dp2057
g94
g95
ssg83
g2051
sg76
(lp2058
g962
asbag69
(g90
g71
NtRp2059
(dp2060
g74
(dp2061
g101
g102
ssg83
g2051
sg76
(lp2062
S':'
asbag69
(g90
g71
NtRp2063
(dp2064
g74
(dp2065
sg83
g2051
sg76
(lp2066
g69
(g70
g71
NtRp2067
(dp2068
g74
(dp2069
g82
I4
ssg83
g2063
sg76
(lp2070
S'set([])'
p2071
asbasbasbag69
(g85
g71
NtRp2072
(dp2073
g74
(dp2074
sg83
g1961
sg76
(lp2075
g69
(g90
g71
NtRp2076
(dp2077
g74
(dp2078
g94
g95
ssg83
g2072
sg76
(lp2079
g984
asbag69
(g90
g71
NtRp2080
(dp2081
g74
(dp2082
g101
g102
ssg83
g2072
sg76
(lp2083
S':'
asbag69
(g90
g71
NtRp2084
(dp2085
g74
(dp2086
sg83
g2072
sg76
(lp2087
g69
(g70
g71
NtRp2088
(dp2089
g74
(dp2090
g82
I4
ssg83
g2084
sg76
(lp2091
g112
asbasbasbag69
(g85
g71
NtRp2092
(dp2093
g74
(dp2094
sg83
g1961
sg76
(lp2095
g69
(g90
g71
NtRp2096
(dp2097
g74
(dp2098
g94
g95
ssg83
g2092
sg76
(lp2099
g1005
asbag69
(g90
g71
NtRp2100
(dp2101
g74
(dp2102
g101
g102
ssg83
g2092
sg76
(lp2103
S':'
asbag69
(g90
g71
NtRp2104
(dp2105
g74
(dp2106
sg83
g2092
sg76
(lp2107
g69
(g70
g71
NtRp2108
(dp2109
g74
(dp2110
g82
I4
ssg83
g2104
sg76
(lp2111
g1018
asbasbasbag69
(g85
g71
NtRp2112
(dp2113
g74
(dp2114
sg83
g1961
sg76
(lp2115
g69
(g90
g71
NtRp2116
(dp2117
g74
(dp2118
g94
g95
ssg83
g2112
sg76
(lp2119
g1246
asbag69
(g90
g71
NtRp2120
(dp2121
g74
(dp2122
g101
g102
ssg83
g2112
sg76
(lp2123
S':'
asbag69
(g90
g71
NtRp2124
(dp2125
g74
(dp2126
sg83
g2112
sg76
(lp2127
g69
(g70
g71
NtRp2128
(dp2129
g74
(dp2130
g82
I4
ssg83
g2124
sg76
(lp2131
g112
asbasbasbag69
(g85
g71
NtRp2132
(dp2133
g74
(dp2134
sg83
g1961
sg76
(lp2135
g69
(g90
g71
NtRp2136
(dp2137
g74
(dp2138
g94
g95
ssg83
g2132
sg76
(lp2139
g1267
asbag69
(g90
g71
NtRp2140
(dp2141
g74
(dp2142
g101
g102
ssg83
g2132
sg76
(lp2143
S':'
asbag69
(g90
g71
NtRp2144
(dp2145
g74
(dp2146
sg83
g2132
sg76
(lp2147
g69
(g70
g71
NtRp2148
(dp2149
g74
(dp2150
g82
I4
ssg83
g2144
sg76
(lp2151
g112
asbasbasbag69
(g85
g71
NtRp2152
(dp2153
g74
(dp2154
sg83
g1961
sg76
(lp2155
g69
(g90
g71
NtRp2156
(dp2157
g74
(dp2158
g94
g95
ssg83
g2152
sg76
(lp2159
g1526
asbag69
(g90
g71
NtRp2160
(dp2161
g74
(dp2162
g101
g102
ssg83
g2152
sg76
(lp2163
S':'
asbag69
(g90
g71
NtRp2164
(dp2165
g74
(dp2166
sg83
g2152
sg76
(lp2167
g69
(g70
g71
NtRp2168
(dp2169
g74
(dp2170
g82
I4
ssg83
g2164
sg76
(lp2171
g1539
asbasbasbag69
(g85
g71
NtRp2172
(dp2173
g74
(dp2174
sg83
g1961
sg76
(lp2175
g69
(g90
g71
NtRp2176
(dp2177
g74
(dp2178
g94
g95
ssg83
g2172
sg76
(lp2179
g1569
asbag69
(g90
g71
NtRp2180
(dp2181
g74
(dp2182
g101
g102
ssg83
g2172
sg76
(lp2183
S':'
asbag69
(g90
g71
NtRp2184
(dp2185
g74
(dp2186
sg83
g2172
sg76
(lp2187
g69
(g70
g71
NtRp2188
(dp2189
g74
(dp2190
g82
I4
ssg83
g2184
sg76
(lp2191
g69
(g78
g71
NtRp2192
(dp2193
g74
(dp2194
g82
I3
ssg83
Nsg76
(lp2195
g69
(g85
g71
NtRp2196
(dp2197
g74
(dp2198
sg83
g2192
sg76
(lp2199
g69
(g90
g71
NtRp2200
(dp2201
g74
(dp2202
sg83
g2196
sg76
(lp2203
g69
(g70
g71
NtRp2204
(dp2205
g74
(dp2206
g82
I3
ssg83
g2200
sg76
(lp2207
S'2'
asbasbasbag69
(g85
g71
NtRp2208
(dp2209
g74
(dp2210
sg83
g2192
sg76
(lp2211
g69
(g90
g71
NtRp2212
(dp2213
g74
(dp2214
sg83
g2208
sg76
(lp2215
g69
(g70
g71
NtRp2216
(dp2217
g74
(dp2218
g82
I3
ssg83
g2212
sg76
(lp2219
S'0'
asbasbasbag69
(g85
g71
NtRp2220
(dp2221
g74
(dp2222
sg83
g2192
sg76
(lp2223
g69
(g90
g71
NtRp2224
(dp2225
g74
(dp2226
sg83
g2220
sg76
(lp2227
g69
(g70
g71
NtRp2228
(dp2229
g74
(dp2230
g82
I3
ssg83
g2224
sg76
(lp2231
S'3'
asbasbasbag69
(g85
g71
NtRp2232
(dp2233
g74
(dp2234
sg83
g2192
sg76
(lp2235
g69
(g90
g71
NtRp2236
(dp2237
g74
(dp2238
sg83
g2232
sg76
(lp2239
g69
(g70
g71
NtRp2240
(dp2241
g74
(dp2242
g82
I3
ssg83
g2236
sg76
(lp2243
S'datetime.datetime(2012, 8, 31, 5, 58, 31)'
p2244
asbasbasbag69
(g85
g71
NtRp2245
(dp2246
g74
(dp2247
sg83
g2192
sg76
(lp2248
g69
(g90
g71
NtRp2249
(dp2250
g74
(dp2251
sg83
g2245
sg76
(lp2252
g69
(g70
g71
NtRp2253
(dp2254
g74
(dp2255
g82
I3
ssg83
g2249
sg76
(lp2256
g1647
asbasbasbasbasbasbasbasbasbasbasbag69
(g85
g71
NtRp2257
(dp2258
g74
(dp2259
sg83
g79
sg76
(lp2260
g69
(g90
g71
NtRp2261
(dp2262
g74
(dp2263
g94
g95
ssg83
g2257
sg76
(lp2264
S'is_https'
p2265
asbag69
(g90
g71
NtRp2266
(dp2267
g74
(dp2268
g101
g102
ssg83
g2257
sg76
(lp2269
S':'
asbag69
(g90
g71
NtRp2270
(dp2271
g74
(dp2272
sg83
g2257
sg76
(lp2273
g69
(g70
g71
NtRp2274
(dp2275
g74
(dp2276
g82
I5
ssg83
g2270
sg76
(lp2277
g112
asbasbasbag69
(g85
g71
NtRp2278
(dp2279
g74
(dp2280
sg83
g79
sg76
(lp2281
g69
(g90
g71
NtRp2282
(dp2283
g74
(dp2284
g94
g95
ssg83
g2278
sg76
(lp2285
S'is_local'
p2286
asbag69
(g90
g71
NtRp2287
(dp2288
g74
(dp2289
g101
g102
ssg83
g2278
sg76
(lp2290
S':'
asbag69
(g90
g71
NtRp2291
(dp2292
g74
(dp2293
sg83
g2278
sg76
(lp2294
g69
(g70
g71
NtRp2295
(dp2296
g74
(dp2297
g82
I5
ssg83
g2291
sg76
(lp2298
g1756
asbasbasbag69
(g85
g71
NtRp2299
(dp2300
g74
(dp2301
sg83
g79
sg76
(lp2302
g69
(g90
g71
NtRp2303
(dp2304
g74
(dp2305
g94
g95
ssg83
g2299
sg76
(lp2306
S'is_restful'
p2307
asbag69
(g90
g71
NtRp2308
(dp2309
g74
(dp2310
g101
g102
ssg83
g2299
sg76
(lp2311
S':'
asbag69
(g90
g71
NtRp2312
(dp2313
g74
(dp2314
sg83
g2299
sg76
(lp2315
g69
(g70
g71
NtRp2316
(dp2317
g74
(dp2318
g82
I5
ssg83
g2312
sg76
(lp2319
g112
asbasbasbag69
(g85
g71
NtRp2320
(dp2321
g74
(dp2322
sg83
g79
sg76
(lp2323
g69
(g90
g71
NtRp2324
(dp2325
g74
(dp2326
g94
g95
ssg83
g2320
sg76
(lp2327
S'now'
p2328
asbag69
(g90
g71
NtRp2329
(dp2330
g74
(dp2331
g101
g102
ssg83
g2320
sg76
(lp2332
S':'
asbag69
(g90
g71
NtRp2333
(dp2334
g74
(dp2335
sg83
g2320
sg76
(lp2336
g69
(g70
g71
NtRp2337
(dp2338
g74
(dp2339
g82
I5
ssg83
g2333
sg76
(lp2340
S'datetime.datetime(2012, 12, 14, 11, 34, 8, 601000)'
p2341
asbasbasbag69
(g85
g71
NtRp2342
(dp2343
g74
(dp2344
sg83
g79
sg76
(lp2345
g69
(g90
g71
NtRp2346
(dp2347
g74
(dp2348
g94
g95
ssg83
g2342
sg76
(lp2349
S'post_vars'
p2350
asbag69
(g90
g71
NtRp2351
(dp2352
g74
(dp2353
g101
g102
ssg83
g2342
sg76
(lp2354
S':'
asbag69
(g90
g71
NtRp2355
(dp2356
g74
(dp2357
sg83
g2342
sg76
(lp2358
g69
(g70
g71
NtRp2359
(dp2360
g74
(dp2361
g82
I5
ssg83
g2355
sg76
(lp2362
g69
(g78
g71
NtRp2363
(dp2364
g74
(dp2365
g82
I4
ssg83
Nsg76
(lp2366
sbasbasbasbag69
(g85
g71
NtRp2367
(dp2368
g74
(dp2369
sg83
g79
sg76
(lp2370
g69
(g90
g71
NtRp2371
(dp2372
g74
(dp2373
g94
g95
ssg83
g2367
sg76
(lp2374
S'raw_args'
p2375
asbag69
(g90
g71
NtRp2376
(dp2377
g74
(dp2378
g101
g102
ssg83
g2367
sg76
(lp2379
S':'
asbag69
(g90
g71
NtRp2380
(dp2381
g74
(dp2382
sg83
g2367
sg76
(lp2383
g69
(g70
g71
NtRp2384
(dp2385
g74
(dp2386
g82
I5
ssg83
g2380
sg76
(lp2387
S'None'
p2388
asbasbasbag69
(g85
g71
NtRp2389
(dp2390
g74
(dp2391
sg83
g79
sg76
(lp2392
g69
(g90
g71
NtRp2393
(dp2394
g74
(dp2395
g94
g95
ssg83
g2389
sg76
(lp2396
S'raw_extension'
p2397
asbag69
(g90
g71
NtRp2398
(dp2399
g74
(dp2400
g101
g102
ssg83
g2389
sg76
(lp2401
S':'
asbag69
(g90
g71
NtRp2402
(dp2403
g74
(dp2404
sg83
g2389
sg76
(lp2405
g69
(g70
g71
NtRp2406
(dp2407
g74
(dp2408
g82
I5
ssg83
g2402
sg76
(lp2409
S'None'
p2410
asbasbasbag69
(g85
g71
NtRp2411
(dp2412
g74
(dp2413
sg83
g79
sg76
(lp2414
g69
(g90
g71
NtRp2415
(dp2416
g74
(dp2417
g94
g95
ssg83
g2411
sg76
(lp2418
S'url'
p2419
asbag69
(g90
g71
NtRp2420
(dp2421
g74
(dp2422
g101
g102
ssg83
g2411
sg76
(lp2423
S':'
asbag69
(g90
g71
NtRp2424
(dp2425
g74
(dp2426
sg83
g2411
sg76
(lp2427
g69
(g70
g71
NtRp2428
(dp2429
g74
(dp2430
g82
I5
ssg83
g2424
sg76
(lp2431
S'/testumgebung/default/index'
p2432
asbasbasbag69
(g85
g71
NtRp2433
(dp2434
g74
(dp2435
sg83
g79
sg76
(lp2436
g69
(g90
g71
NtRp2437
(dp2438
g74
(dp2439
g94
g95
ssg83
g2433
sg76
(lp2440
S'utcnow'
p2441
asbag69
(g90
g71
NtRp2442
(dp2443
g74
(dp2444
g101
g102
ssg83
g2433
sg76
(lp2445
S':'
asbag69
(g90
g71
NtRp2446
(dp2447
g74
(dp2448
sg83
g2433
sg76
(lp2449
g69
(g70
g71
NtRp2450
(dp2451
g74
(dp2452
g82
I5
ssg83
g2446
sg76
(lp2453
S'datetime.datetime(2012, 12, 14, 10, 34, 8, 601000)'
p2454
asbasbasbag69
(g85
g71
NtRp2455
(dp2456
g74
(dp2457
sg83
g79
sg76
(lp2458
g69
(g90
g71
NtRp2459
(dp2460
g74
(dp2461
g94
g95
ssg83
g2455
sg76
(lp2462
S'uuid'
p2463
asbag69
(g90
g71
NtRp2464
(dp2465
g74
(dp2466
g101
g102
ssg83
g2455
sg76
(lp2467
S':'
asbag69
(g90
g71
NtRp2468
(dp2469
g74
(dp2470
sg83
g2455
sg76
(lp2471
g69
(g70
g71
NtRp2472
(dp2473
g74
(dp2474
g82
I5
ssg83
g2468
sg76
(lp2475
S'testumgebung/127.0.0.1.2012-12-14.11-34-08.660d89e7-5e3e-44f1-8fd1-ef1fafba34d0'
p2476
asbasbasbag69
(g85
g71
NtRp2477
(dp2478
g74
(dp2479
sg83
g79
sg76
(lp2480
g69
(g90
g71
NtRp2481
(dp2482
g74
(dp2483
g94
g95
ssg83
g2477
sg76
(lp2484
S'vars'
p2485
asbag69
(g90
g71
NtRp2486
(dp2487
g74
(dp2488
g101
g102
ssg83
g2477
sg76
(lp2489
S':'
asbag69
(g90
g71
NtRp2490
(dp2491
g74
(dp2492
sg83
g2477
sg76
(lp2493
g69
(g70
g71
NtRp2494
(dp2495
g74
(dp2496
g82
I5
ssg83
g2490
sg76
(lp2497
g69
(g78
g71
NtRp2498
(dp2499
g74
(dp2500
g82
I4
ssg83
Nsg76
(lp2501
sbasbasbasbag69
(g85
g71
NtRp2502
(dp2503
g74
(dp2504
sg83
g79
sg76
(lp2505
g69
(g90
g71
NtRp2506
(dp2507
g74
(dp2508
g94
g95
ssg83
g2502
sg76
(lp2509
S'wsgi'
p2510
asbag69
(g90
g71
NtRp2511
(dp2512
g74
(dp2513
g101
g102
ssg83
g2502
sg76
(lp2514
S':'
asbag69
(g90
g71
NtRp2515
(dp2516
g74
(dp2517
sg83
g2502
sg76
(lp2518
g69
(g70
g71
NtRp2519
(dp2520
g74
(dp2521
g82
I5
ssg83
g2515
sg76
(lp2522
g69
(g78
g71
NtRp2523
(dp2524
g74
(dp2525
g82
I4
ssg83
Nsg76
(lp2526
g69
(g85
g71
NtRp2527
(dp2528
g74
(dp2529
sg83
g2523
sg76
(lp2530
g69
(g90
g71
NtRp2531
(dp2532
g74
(dp2533
g94
g95
ssg83
g2527
sg76
(lp2534
S'environ'
p2535
asbag69
(g90
g71
NtRp2536
(dp2537
g74
(dp2538
g101
g102
ssg83
g2527
sg76
(lp2539
S':'
asbag69
(g90
g71
NtRp2540
(dp2541
g74
(dp2542
sg83
g2527
sg76
(lp2543
g69
(g70
g71
NtRp2544
(dp2545
g74
(dp2546
g82
I4
ssg83
g2540
sg76
(lp2547
g69
(g78
g71
NtRp2548
(dp2549
g74
(dp2550
g82
I3
ssg83
Nsg76
(lp2551
g69
(g85
g71
NtRp2552
(dp2553
g74
(dp2554
sg83
g2548
sg76
(lp2555
g69
(g90
g71
NtRp2556
(dp2557
g74
(dp2558
g94
g95
ssg83
g2552
sg76
(lp2559
S'HTTP_ACCEPT'
p2560
asbag69
(g90
g71
NtRp2561
(dp2562
g74
(dp2563
g101
g102
ssg83
g2552
sg76
(lp2564
S':'
asbag69
(g90
g71
NtRp2565
(dp2566
g74
(dp2567
sg83
g2552
sg76
(lp2568
g69
(g70
g71
NtRp2569
(dp2570
g74
(dp2571
g82
I3
ssg83
g2565
sg76
(lp2572
g1040
asbasbasbag69
(g85
g71
NtRp2573
(dp2574
g74
(dp2575
sg83
g2548
sg76
(lp2576
g69
(g90
g71
NtRp2577
(dp2578
g74
(dp2579
g94
g95
ssg83
g2573
sg76
(lp2580
S'HTTP_ACCEPT_ENCODING'
p2581
asbag69
(g90
g71
NtRp2582
(dp2583
g74
(dp2584
g101
g102
ssg83
g2573
sg76
(lp2585
S':'
asbag69
(g90
g71
NtRp2586
(dp2587
g74
(dp2588
sg83
g2573
sg76
(lp2589
g69
(g70
g71
NtRp2590
(dp2591
g74
(dp2592
g82
I3
ssg83
g2586
sg76
(lp2593
g1062
asbasbasbag69
(g85
g71
NtRp2594
(dp2595
g74
(dp2596
sg83
g2548
sg76
(lp2597
g69
(g90
g71
NtRp2598
(dp2599
g74
(dp2600
g94
g95
ssg83
g2594
sg76
(lp2601
S'HTTP_ACCEPT_LANGUAGE'
p2602
asbag69
(g90
g71
NtRp2603
(dp2604
g74
(dp2605
g101
g102
ssg83
g2594
sg76
(lp2606
S':'
asbag69
(g90
g71
NtRp2607
(dp2608
g74
(dp2609
sg83
g2594
sg76
(lp2610
g69
(g70
g71
NtRp2611
(dp2612
g74
(dp2613
g82
I3
ssg83
g2607
sg76
(lp2614
g1084
asbasbasbag69
(g85
g71
NtRp2615
(dp2616
g74
(dp2617
sg83
g2548
sg76
(lp2618
g69
(g90
g71
NtRp2619
(dp2620
g74
(dp2621
g94
g95
ssg83
g2615
sg76
(lp2622
S'HTTP_CACHE_CONTROL'
p2623
asbag69
(g90
g71
NtRp2624
(dp2625
g74
(dp2626
g101
g102
ssg83
g2615
sg76
(lp2627
S':'
asbag69
(g90
g71
NtRp2628
(dp2629
g74
(dp2630
sg83
g2615
sg76
(lp2631
g69
(g70
g71
NtRp2632
(dp2633
g74
(dp2634
g82
I3
ssg83
g2628
sg76
(lp2635
g1106
asbasbasbag69
(g85
g71
NtRp2636
(dp2637
g74
(dp2638
sg83
g2548
sg76
(lp2639
g69
(g90
g71
NtRp2640
(dp2641
g74
(dp2642
g94
g95
ssg83
g2636
sg76
(lp2643
S'HTTP_CONNECTION'
p2644
asbag69
(g90
g71
NtRp2645
(dp2646
g74
(dp2647
g101
g102
ssg83
g2636
sg76
(lp2648
S':'
asbag69
(g90
g71
NtRp2649
(dp2650
g74
(dp2651
sg83
g2636
sg76
(lp2652
g69
(g70
g71
NtRp2653
(dp2654
g74
(dp2655
g82
I3
ssg83
g2649
sg76
(lp2656
g1128
asbasbasbag69
(g85
g71
NtRp2657
(dp2658
g74
(dp2659
sg83
g2548
sg76
(lp2660
g69
(g90
g71
NtRp2661
(dp2662
g74
(dp2663
g94
g95
ssg83
g2657
sg76
(lp2664
S'HTTP_COOKIE'
p2665
asbag69
(g90
g71
NtRp2666
(dp2667
g74
(dp2668
g101
g102
ssg83
g2657
sg76
(lp2669
S':'
asbag69
(g90
g71
NtRp2670
(dp2671
g74
(dp2672
sg83
g2657
sg76
(lp2673
g69
(g70
g71
NtRp2674
(dp2675
g74
(dp2676
g82
I3
ssg83
g2670
sg76
(lp2677
g1150
asbasbasbag69
(g85
g71
NtRp2678
(dp2679
g74
(dp2680
sg83
g2548
sg76
(lp2681
g69
(g90
g71
NtRp2682
(dp2683
g74
(dp2684
g94
g95
ssg83
g2678
sg76
(lp2685
S'HTTP_DNT'
p2686
asbag69
(g90
g71
NtRp2687
(dp2688
g74
(dp2689
g101
g102
ssg83
g2678
sg76
(lp2690
S':'
asbag69
(g90
g71
NtRp2691
(dp2692
g74
(dp2693
sg83
g2678
sg76
(lp2694
g69
(g70
g71
NtRp2695
(dp2696
g74
(dp2697
g82
I3
ssg83
g2691
sg76
(lp2698
S'1'
asbasbasbag69
(g85
g71
NtRp2699
(dp2700
g74
(dp2701
sg83
g2548
sg76
(lp2702
g69
(g90
g71
NtRp2703
(dp2704
g74
(dp2705
g94
g95
ssg83
g2699
sg76
(lp2706
S'HTTP_HOST'
p2707
asbag69
(g90
g71
NtRp2708
(dp2709
g74
(dp2710
g101
g102
ssg83
g2699
sg76
(lp2711
S':'
asbag69
(g90
g71
NtRp2712
(dp2713
g74
(dp2714
sg83
g2699
sg76
(lp2715
g69
(g70
g71
NtRp2716
(dp2717
g74
(dp2718
g82
I3
ssg83
g2712
sg76
(lp2719
g1193
asbasbasbag69
(g85
g71
NtRp2720
(dp2721
g74
(dp2722
sg83
g2548
sg76
(lp2723
g69
(g90
g71
NtRp2724
(dp2725
g74
(dp2726
g94
g95
ssg83
g2720
sg76
(lp2727
S'HTTP_USER_AGENT'
p2728
asbag69
(g90
g71
NtRp2729
(dp2730
g74
(dp2731
g101
g102
ssg83
g2720
sg76
(lp2732
S':'
asbag69
(g90
g71
NtRp2733
(dp2734
g74
(dp2735
sg83
g2720
sg76
(lp2736
g69
(g70
g71
NtRp2737
(dp2738
g74
(dp2739
g82
I3
ssg83
g2733
sg76
(lp2740
g1215
asbasbasbag69
(g85
g71
NtRp2741
(dp2742
g74
(dp2743
sg83
g2548
sg76
(lp2744
g69
(g90
g71
NtRp2745
(dp2746
g74
(dp2747
g94
g95
ssg83
g2741
sg76
(lp2748
S'HTTP_X_CLICKONCESUPPORT'
p2749
asbag69
(g90
g71
NtRp2750
(dp2751
g74
(dp2752
g101
g102
ssg83
g2741
sg76
(lp2753
S':'
asbag69
(g90
g71
NtRp2754
(dp2755
g74
(dp2756
sg83
g2741
sg76
(lp2757
g69
(g70
g71
NtRp2758
(dp2759
g74
(dp2760
g82
I3
ssg83
g2754
sg76
(lp2761
g1237
asbasbasbag69
(g85
g71
NtRp2762
(dp2763
g74
(dp2764
sg83
g2548
sg76
(lp2765
g69
(g90
g71
NtRp2766
(dp2767
g74
(dp2768
g94
g95
ssg83
g2762
sg76
(lp2769
S'PATH_INFO'
p2770
asbag69
(g90
g71
NtRp2771
(dp2772
g74
(dp2773
g101
g102
ssg83
g2762
sg76
(lp2774
S':'
asbag69
(g90
g71
NtRp2775
(dp2776
g74
(dp2777
sg83
g2762
sg76
(lp2778
g69
(g70
g71
NtRp2779
(dp2780
g74
(dp2781
g82
I3
ssg83
g2775
sg76
(lp2782
g1301
asbasbasbag69
(g85
g71
NtRp2783
(dp2784
g74
(dp2785
sg83
g2548
sg76
(lp2786
g69
(g90
g71
NtRp2787
(dp2788
g74
(dp2789
g94
g95
ssg83
g2783
sg76
(lp2790
S'QUERY_STRING'
p2791
asbag69
(g90
g71
NtRp2792
(dp2793
g74
(dp2794
g101
g102
ssg83
g2783
sg76
(lp2795
S':'
asbag69
(g90
g71
NtRp2796
(dp2797
g74
(dp2798
sg83
g2783
sg76
(lp2799
g69
(g70
g71
NtRp2800
(dp2801
g74
(dp2802
g82
I3
ssg83
g2796
sg76
(lp2803
S''
asbasbasbag69
(g85
g71
NtRp2804
(dp2805
g74
(dp2806
sg83
g2548
sg76
(lp2807
g69
(g90
g71
NtRp2808
(dp2809
g74
(dp2810
g94
g95
ssg83
g2804
sg76
(lp2811
S'REMOTE_ADDR'
p2812
asbag69
(g90
g71
NtRp2813
(dp2814
g74
(dp2815
g101
g102
ssg83
g2804
sg76
(lp2816
S':'
asbag69
(g90
g71
NtRp2817
(dp2818
g74
(dp2819
sg83
g2804
sg76
(lp2820
g69
(g70
g71
NtRp2821
(dp2822
g74
(dp2823
g82
I3
ssg83
g2817
sg76
(lp2824
g224
asbasbasbag69
(g85
g71
NtRp2825
(dp2826
g74
(dp2827
sg83
g2548
sg76
(lp2828
g69
(g90
g71
NtRp2829
(dp2830
g74
(dp2831
g94
g95
ssg83
g2825
sg76
(lp2832
S'REMOTE_PORT'
p2833
asbag69
(g90
g71
NtRp2834
(dp2835
g74
(dp2836
g101
g102
ssg83
g2825
sg76
(lp2837
S':'
asbag69
(g90
g71
NtRp2838
(dp2839
g74
(dp2840
sg83
g2825
sg76
(lp2841
g69
(g70
g71
NtRp2842
(dp2843
g74
(dp2844
g82
I3
ssg83
g2838
sg76
(lp2845
g1365
asbasbasbag69
(g85
g71
NtRp2846
(dp2847
g74
(dp2848
sg83
g2548
sg76
(lp2849
g69
(g90
g71
NtRp2850
(dp2851
g74
(dp2852
g94
g95
ssg83
g2846
sg76
(lp2853
S'REQUEST_METHOD'
p2854
asbag69
(g90
g71
NtRp2855
(dp2856
g74
(dp2857
g101
g102
ssg83
g2846
sg76
(lp2858
S':'
asbag69
(g90
g71
NtRp2859
(dp2860
g74
(dp2861
sg83
g2846
sg76
(lp2862
g69
(g70
g71
NtRp2863
(dp2864
g74
(dp2865
g82
I3
ssg83
g2859
sg76
(lp2866
g1387
asbasbasbag69
(g85
g71
NtRp2867
(dp2868
g74
(dp2869
sg83
g2548
sg76
(lp2870
g69
(g90
g71
NtRp2871
(dp2872
g74
(dp2873
g94
g95
ssg83
g2867
sg76
(lp2874
S'REQUEST_URI'
p2875
asbag69
(g90
g71
NtRp2876
(dp2877
g74
(dp2878
g101
g102
ssg83
g2867
sg76
(lp2879
S':'
asbag69
(g90
g71
NtRp2880
(dp2881
g74
(dp2882
sg83
g2867
sg76
(lp2883
g69
(g70
g71
NtRp2884
(dp2885
g74
(dp2886
g82
I3
ssg83
g2880
sg76
(lp2887
g1301
asbasbasbag69
(g85
g71
NtRp2888
(dp2889
g74
(dp2890
sg83
g2548
sg76
(lp2891
g69
(g90
g71
NtRp2892
(dp2893
g74
(dp2894
g94
g95
ssg83
g2888
sg76
(lp2895
S'SCRIPT_NAME'
p2896
asbag69
(g90
g71
NtRp2897
(dp2898
g74
(dp2899
g101
g102
ssg83
g2888
sg76
(lp2900
S':'
asbag69
(g90
g71
NtRp2901
(dp2902
g74
(dp2903
sg83
g2888
sg76
(lp2904
g69
(g70
g71
NtRp2905
(dp2906
g74
(dp2907
g82
I3
ssg83
g2901
sg76
(lp2908
S''
asbasbasbag69
(g85
g71
NtRp2909
(dp2910
g74
(dp2911
sg83
g2548
sg76
(lp2912
g69
(g90
g71
NtRp2913
(dp2914
g74
(dp2915
g94
g95
ssg83
g2909
sg76
(lp2916
S'SERVER_NAME'
p2917
asbag69
(g90
g71
NtRp2918
(dp2919
g74
(dp2920
g101
g102
ssg83
g2909
sg76
(lp2921
S':'
asbag69
(g90
g71
NtRp2922
(dp2923
g74
(dp2924
sg83
g2909
sg76
(lp2925
g69
(g70
g71
NtRp2926
(dp2927
g74
(dp2928
g82
I3
ssg83
g2922
sg76
(lp2929
g1451
asbasbasbag69
(g85
g71
NtRp2930
(dp2931
g74
(dp2932
sg83
g2548
sg76
(lp2933
g69
(g90
g71
NtRp2934
(dp2935
g74
(dp2936
g94
g95
ssg83
g2930
sg76
(lp2937
S'SERVER_PORT'
p2938
asbag69
(g90
g71
NtRp2939
(dp2940
g74
(dp2941
g101
g102
ssg83
g2930
sg76
(lp2942
S':'
asbag69
(g90
g71
NtRp2943
(dp2944
g74
(dp2945
sg83
g2930
sg76
(lp2946
g69
(g70
g71
NtRp2947
(dp2948
g74
(dp2949
g82
I3
ssg83
g2943
sg76
(lp2950
g1473
asbasbasbag69
(g85
g71
NtRp2951
(dp2952
g74
(dp2953
sg83
g2548
sg76
(lp2954
g69
(g90
g71
NtRp2955
(dp2956
g74
(dp2957
g94
g95
ssg83
g2951
sg76
(lp2958
S'SERVER_PROTOCOL'
p2959
asbag69
(g90
g71
NtRp2960
(dp2961
g74
(dp2962
g101
g102
ssg83
g2951
sg76
(lp2963
S':'
asbag69
(g90
g71
NtRp2964
(dp2965
g74
(dp2966
sg83
g2951
sg76
(lp2967
g69
(g70
g71
NtRp2968
(dp2969
g74
(dp2970
g82
I3
ssg83
g2964
sg76
(lp2971
g1495
asbasbasbag69
(g85
g71
NtRp2972
(dp2973
g74
(dp2974
sg83
g2548
sg76
(lp2975
g69
(g90
g71
NtRp2976
(dp2977
g74
(dp2978
g94
g95
ssg83
g2972
sg76
(lp2979
S'SERVER_SOFTWARE'
p2980
asbag69
(g90
g71
NtRp2981
(dp2982
g74
(dp2983
g101
g102
ssg83
g2972
sg76
(lp2984
S':'
asbag69
(g90
g71
NtRp2985
(dp2986
g74
(dp2987
sg83
g2972
sg76
(lp2988
g69
(g70
g71
NtRp2989
(dp2990
g74
(dp2991
g82
I3
ssg83
g2985
sg76
(lp2992
g1517
asbasbasbag69
(g85
g71
NtRp2993
(dp2994
g74
(dp2995
sg83
g2548
sg76
(lp2996
g69
(g90
g71
NtRp2997
(dp2998
g74
(dp2999
g94
g95
ssg83
g2993
sg76
(lp3000
S'wsgi.errors'
p3001
asbag69
(g90
g71
NtRp3002
(dp3003
g74
(dp3004
g101
g102
ssg83
g2993
sg76
(lp3005
S':'
asbag69
(g90
g71
NtRp3006
(dp3007
g74
(dp3008
sg83
g2993
sg76
(lp3009
g69
(g70
g71
NtRp3010
(dp3011
g74
(dp3012
g82
I3
ssg83
g3006
sg76
(lp3013
S"<open file '<stderr>', mode 'w' at 0x021D50D0>"
p3014
asbasbasbag69
(g85
g71
NtRp3015
(dp3016
g74
(dp3017
sg83
g2548
sg76
(lp3018
g69
(g90
g71
NtRp3019
(dp3020
g74
(dp3021
g94
g95
ssg83
g3015
sg76
(lp3022
S'wsgi.file_wrapper'
p3023
asbag69
(g90
g71
NtRp3024
(dp3025
g74
(dp3026
g101
g102
ssg83
g3015
sg76
(lp3027
S':'
asbag69
(g90
g71
NtRp3028
(dp3029
g74
(dp3030
sg83
g3015
sg76
(lp3031
g69
(g70
g71
NtRp3032
(dp3033
g74
(dp3034
g82
I3
ssg83
g3028
sg76
(lp3035
S'<class wsgiref.util.FileWrapper at 0x02C1D030>'
p3036
asbasbasbag69
(g85
g71
NtRp3037
(dp3038
g74
(dp3039
sg83
g2548
sg76
(lp3040
g69
(g90
g71
NtRp3041
(dp3042
g74
(dp3043
g94
g95
ssg83
g3037
sg76
(lp3044
S'wsgi.input'
p3045
asbag69
(g90
g71
NtRp3046
(dp3047
g74
(dp3048
g101
g102
ssg83
g3037
sg76
(lp3049
S':'
asbag69
(g90
g71
NtRp3050
(dp3051
g74
(dp3052
sg83
g3037
sg76
(lp3053
g69
(g70
g71
NtRp3054
(dp3055
g74
(dp3056
g82
I3
ssg83
g3050
sg76
(lp3057
S'<cStringIO.StringO object at 0x0650D380>'
p3058
asbasbasbag69
(g85
g71
NtRp3059
(dp3060
g74
(dp3061
sg83
g2548
sg76
(lp3062
g69
(g90
g71
NtRp3063
(dp3064
g74
(dp3065
g94
g95
ssg83
g3059
sg76
(lp3066
S'wsgi.multiprocess'
p3067
asbag69
(g90
g71
NtRp3068
(dp3069
g74
(dp3070
g101
g102
ssg83
g3059
sg76
(lp3071
S':'
asbag69
(g90
g71
NtRp3072
(dp3073
g74
(dp3074
sg83
g3059
sg76
(lp3075
g69
(g70
g71
NtRp3076
(dp3077
g74
(dp3078
g82
I3
ssg83
g3072
sg76
(lp3079
g112
asbasbasbag69
(g85
g71
NtRp3080
(dp3081
g74
(dp3082
sg83
g2548
sg76
(lp3083
g69
(g90
g71
NtRp3084
(dp3085
g74
(dp3086
g94
g95
ssg83
g3080
sg76
(lp3087
S'wsgi.multithread'
p3088
asbag69
(g90
g71
NtRp3089
(dp3090
g74
(dp3091
g101
g102
ssg83
g3080
sg76
(lp3092
S':'
asbag69
(g90
g71
NtRp3093
(dp3094
g74
(dp3095
sg83
g3080
sg76
(lp3096
g69
(g70
g71
NtRp3097
(dp3098
g74
(dp3099
g82
I3
ssg83
g3093
sg76
(lp3100
g1756
asbasbasbag69
(g85
g71
NtRp3101
(dp3102
g74
(dp3103
sg83
g2548
sg76
(lp3104
g69
(g90
g71
NtRp3105
(dp3106
g74
(dp3107
g94
g95
ssg83
g3101
sg76
(lp3108
S'wsgi.run_once'
p3109
asbag69
(g90
g71
NtRp3110
(dp3111
g74
(dp3112
g101
g102
ssg83
g3101
sg76
(lp3113
S':'
asbag69
(g90
g71
NtRp3114
(dp3115
g74
(dp3116
sg83
g3101
sg76
(lp3117
g69
(g70
g71
NtRp3118
(dp3119
g74
(dp3120
g82
I3
ssg83
g3114
sg76
(lp3121
g112
asbasbasbag69
(g85
g71
NtRp3122
(dp3123
g74
(dp3124
sg83
g2548
sg76
(lp3125
g69
(g90
g71
NtRp3126
(dp3127
g74
(dp3128
g94
g95
ssg83
g3122
sg76
(lp3129
S'wsgi.url_scheme'
p3130
asbag69
(g90
g71
NtRp3131
(dp3132
g74
(dp3133
g101
g102
ssg83
g3122
sg76
(lp3134
S':'
asbag69
(g90
g71
NtRp3135
(dp3136
g74
(dp3137
sg83
g3122
sg76
(lp3138
g69
(g70
g71
NtRp3139
(dp3140
g74
(dp3141
g82
I3
ssg83
g3135
sg76
(lp3142
g1799
asbasbasbag69
(g85
g71
NtRp3143
(dp3144
g74
(dp3145
sg83
g2548
sg76
(lp3146
g69
(g90
g71
NtRp3147
(dp3148
g74
(dp3149
g94
g95
ssg83
g3143
sg76
(lp3150
S'wsgi.version'
p3151
asbag69
(g90
g71
NtRp3152
(dp3153
g74
(dp3154
g101
g102
ssg83
g3143
sg76
(lp3155
S':'
asbag69
(g90
g71
NtRp3156
(dp3157
g74
(dp3158
sg83
g3143
sg76
(lp3159
g69
(g70
g71
NtRp3160
(dp3161
g74
(dp3162
g82
I3
ssg83
g3156
sg76
(lp3163
S'1'
asbasbasbasbasbasbasbasbasbasbasbasbasbsS'frames'
p3164
(lp3165
(dp3166
S'file'
p3167
S'C:\\xampp\\htdocs\\web2py\\gluon\\restricted.py'
p3168
sS'dump'
p3169
(dp3170
sS'lnum'
p3171
I209
sS'lines'
p3172
(dp3173
sS'call'
p3174
S"(code='# -*- coding: utf-8 -*-\\n# this file is released ...=crud())\\n\\nresponse._vars=response._caller(index)\\n', environment={'A': <class 'gluon.html.A'>, 'Auth': <class 'gluon.tools.Auth'>, 'B': <class 'gluon.html.B'>, 'BEAUTIFY': <class 'gluon.html.BEAUTIFY'>, 'BODY': <class 'gluon.html.BODY'>, 'BR': <class 'gluon.html.BR'>, 'BUTTON': <class 'gluon.html.BUTTON'>, 'CAT': <class 'gluon.html.CAT'>, 'CENTER': <class 'gluon.html.CENTER'>, 'CLEANUP': <class 'gluon.validators.CLEANUP'>, ...}, layer=r'C:\\xampp\\htdocs\\web2py\\applications\\testumgebung\\controllers/default.py')"
p3175
sS'func'
p3176
S'restricted'
p3177
sa(dp3178
g3167
S'C:\\xampp\\htdocs\\web2py\\applications\\testumgebung\\controllers\\default.py'
p3179
sg3169
(dp3180
sg3171
I82
sg3172
(dp3181
I71
S'    http://..../[app]/default/data/update/[table]/[id]'
p3182
sI72
S'    http://..../[app]/default/data/delete/[table]/[id]'
p3183
sI73
S'    http://..../[app]/default/data/select/[table]'
p3184
sI74
S'    http://..../[app]/default/data/search/[table]'
p3185
sI75
S'    but URLs must be signed, i.e. linked with'
p3186
sI76
S"      A('table',_href=URL('data/tables',user_signature=True))"
p3187
sI77
S'    or with the signed load operator'
p3188
sI78
S"      LOAD('default','data.load',args='tables',ajax=True,user_signature=True)"
p3189
sI79
S'    """'
p3190
sI80
S'    return dict(form=crud())'
p3191
ssg3174
S'()'
p3192
sg3176
S'<module>'
p3193
sa(dp3194
g3167
S'C:\\xampp\\htdocs\\web2py\\gluon\\globals.py'
p3195
sg3169
(dp3196
sg3171
I185
sg3172
(dp3197
sg3174
S'(f=<function index>)'
p3198
sg3176
S'<lambda>'
p3199
sa(dp3200
g3167
S'C:\\xampp\\htdocs\\web2py\\applications\\testumgebung\\controllers\\default.py'
p3201
sg3169
(dp3202
sg3171
I23
sg3172
(dp3203
I18
S'    """'
p3204
sI19
S''
sI20
S''
sI21
S'    form = SQLFORM(db.answers)'
p3205
sI22
S''
sI23
S'    form2 = SQLFORM(db.answers_smiley)'
p3206
sI24
S''
sI25
S''
sI26
S''
sI27
S''
ssg3174
S'()'
p3207
sg3176
g1914
sa(dp3208
g3167
S'C:\\xampp\\htdocs\\web2py\\gluon\\sqlhtml.py'
p3209
sg3169
(dp3210
sg3171
I1005
sg3172
(dp3211
sg3174
S"(self=<gluon.sqlhtml.SQLFORM object>, table=<Table answers_smiley (id,itemID,scale)>, record=None, deletable=False, linkto=None, upload=None, fields=['id', 'itemID', 'scale'], labels=None, col3={}, submit_button='Submit', delete_label='Check to delete', showid=True, readonly=False, comments=True, keepopts=[], ignore_rw=False, record_id=None, formstyle='table3cols', buttons=['submit'], separator=': ', **attributes={})"
p3212
sg3176
g24
sa(dp3213
g3167
S'C:\\xampp\\htdocs\\web2py\\applications\\testumgebung\\modules\\plugin_kibit_widgets.py'
p3214
sg3169
(dp3215
sg3171
I67
sg3172
(dp3216
I64
S'            _files = self.settings.files'
p3217
sI65
S'        _set_files(_files)'
p3218
sI66
S''
sI67
S"        new_table = TR(*[TD(IMG(URL(APP, 'static', 'plugin_kibit_widgets/smiley_%s.PNG' % i))) for i in range(1,6)])"
p3219
sI68
S''
sI69
S'        return new_table'
p3220
sI60
S'        if self.settings.files is None:'
p3221
sI61
S"            _files = [URL(APP, 'static', 'plugin_kibit_widgets/kibit_widgets.css'),"
p3222
sI62
S"                      URL(APP, 'static', 'plugin_kibit_widgets/jquery.kibit_widgets.js')]"
p3223
sI63
S'        else:'
p3224
ssg3174
S'(self=<applications.testumgebung.modules.plugin_kibit_widgets.SmileyWidget object>, field=<gluon.dal.Field object>, value=None, **attributes={})'
p3225
sg3176
S'__call__'
p3226
sa(dp3227
g3167
S'C:\\xampp\\htdocs\\web2py\\gluon\\html.py'
p3228
sg3169
(dp3229
sg3171
I654
sg3172
(dp3230
sg3174
S"(self=<gluon.html.IMG object>, *components=('/testumgebung/static/plugin_kibit_widgets/smiley_1.PNG',), **attributes={})"
p3231
sg3176
g24
sasS'pyver'
p3232
S'Python 2.7: C:\\xampp\\htdocs\\web2py\\web2py.exe'
p3233
sS'session'
p3234
g69
(g70
g71
NtRp3235
(dp3236
g74
(dp3237
sg76
(lp3238
g69
(g78
g71
NtRp3239
(dp3240
g74
(dp3241
g82
I5
ssg83
Nsg76
(lp3242
g69
(g85
g71
NtRp3243
(dp3244
g74
(dp3245
sg83
g3239
sg76
(lp3246
g69
(g90
g71
NtRp3247
(dp3248
g74
(dp3249
g94
g95
ssg83
g3243
sg76
(lp3250
S'auth'
p3251
asbag69
(g90
g71
NtRp3252
(dp3253
g74
(dp3254
g101
g102
ssg83
g3243
sg76
(lp3255
S':'
asbag69
(g90
g71
NtRp3256
(dp3257
g74
(dp3258
sg83
g3243
sg76
(lp3259
g69
(g70
g71
NtRp3260
(dp3261
g74
(dp3262
g82
I5
ssg83
g3256
sg76
(lp3263
S'None'
p3264
asbasbasbasbasbsS'etype'
p3265
S"<type 'exceptions.SyntaxError'>"
p3266
sS'date'
p3267
S'Fri Dec 14 11:34:08 2012'
p3268
sS'response'
p3269
g69
(g70
g71
NtRp3270
(dp3271
g74
(dp3272
sg76
(lp3273
g69
(g78
g71
NtRp3274
(dp3275
g74
(dp3276
g82
I5
ssg83
Nsg76
(lp3277
g69
(g85
g71
NtRp3278
(dp3279
g74
(dp3280
sg83
g3274
sg76
(lp3281
g69
(g90
g71
NtRp3282
(dp3283
g74
(dp3284
g94
g95
ssg83
g3278
sg76
(lp3285
g167
asbag69
(g90
g71
NtRp3286
(dp3287
g74
(dp3288
g101
g102
ssg83
g3278
sg76
(lp3289
S':'
asbag69
(g90
g71
NtRp3290
(dp3291
g74
(dp3292
sg83
g3278
sg76
(lp3293
g69
(g70
g71
NtRp3294
(dp3295
g74
(dp3296
g82
I5
ssg83
g3290
sg76
(lp3297
S'<cStringIO.StringO object at 0x0698F6A0>'
p3298
asbasbasbag69
(g85
g71
NtRp3299
(dp3300
g74
(dp3301
sg83
g3274
sg76
(lp3302
g69
(g90
g71
NtRp3303
(dp3304
g74
(dp3305
g94
g95
ssg83
g3299
sg76
(lp3306
g255
asbag69
(g90
g71
NtRp3307
(dp3308
g74
(dp3309
g101
g102
ssg83
g3299
sg76
(lp3310
S':'
asbag69
(g90
g71
NtRp3311
(dp3312
g74
(dp3313
sg83
g3299
sg76
(lp3314
g69
(g70
g71
NtRp3315
(dp3316
g74
(dp3317
g82
I5
ssg83
g3311
sg76
(lp3318
g69
(g78
g71
NtRp3319
(dp3320
g74
(dp3321
g82
I4
ssg83
Nsg76
(lp3322
g69
(g85
g71
NtRp3323
(dp3324
g74
(dp3325
sg83
g3319
sg76
(lp3326
g69
(g90
g71
NtRp3327
(dp3328
g74
(dp3329
g94
g95
ssg83
g3323
sg76
(lp3330
S'session_id_testumgebung'
p3331
asbag69
(g90
g71
NtRp3332
(dp3333
g74
(dp3334
g101
g102
ssg83
g3323
sg76
(lp3335
S':'
asbag69
(g90
g71
NtRp3336
(dp3337
g74
(dp3338
sg83
g3323
sg76
(lp3339
g69
(g70
g71
NtRp3340
(dp3341
g74
(dp3342
g82
I4
ssg83
g3336
sg76
(lp3343
g487
ag69
(g78
g71
NtRp3344
(dp3345
g74
(dp3346
g82
I3
ssg83
Nsg76
(lp3347
g69
(g85
g71
NtRp3348
(dp3349
g74
(dp3350
sg83
g3344
sg76
(lp3351
g69
(g90
g71
NtRp3352
(dp3353
g74
(dp3354
g94
g95
ssg83
g3348
sg76
(lp3355
g306
asbag69
(g90
g71
NtRp3356
(dp3357
g74
(dp3358
g101
g102
ssg83
g3348
sg76
(lp3359
S':'
asbag69
(g90
g71
NtRp3360
(dp3361
g74
(dp3362
sg83
g3348
sg76
(lp3363
g69
(g70
g71
NtRp3364
(dp3365
g74
(dp3366
g82
I3
ssg83
g3360
sg76
(lp3367
S''
asbasbasbag69
(g85
g71
NtRp3368
(dp3369
g74
(dp3370
sg83
g3344
sg76
(lp3371
g69
(g90
g71
NtRp3372
(dp3373
g74
(dp3374
g94
g95
ssg83
g3368
sg76
(lp3375
g327
asbag69
(g90
g71
NtRp3376
(dp3377
g74
(dp3378
g101
g102
ssg83
g3368
sg76
(lp3379
S':'
asbag69
(g90
g71
NtRp3380
(dp3381
g74
(dp3382
sg83
g3368
sg76
(lp3383
g69
(g70
g71
NtRp3384
(dp3385
g74
(dp3386
g82
I3
ssg83
g3380
sg76
(lp3387
S''
asbasbasbag69
(g85
g71
NtRp3388
(dp3389
g74
(dp3390
sg83
g3344
sg76
(lp3391
g69
(g90
g71
NtRp3392
(dp3393
g74
(dp3394
g94
g95
ssg83
g3388
sg76
(lp3395
g348
asbag69
(g90
g71
NtRp3396
(dp3397
g74
(dp3398
g101
g102
ssg83
g3388
sg76
(lp3399
S':'
asbag69
(g90
g71
NtRp3400
(dp3401
g74
(dp3402
sg83
g3388
sg76
(lp3403
g69
(g70
g71
NtRp3404
(dp3405
g74
(dp3406
g82
I3
ssg83
g3400
sg76
(lp3407
S''
asbasbasbag69
(g85
g71
NtRp3408
(dp3409
g74
(dp3410
sg83
g3344
sg76
(lp3411
g69
(g90
g71
NtRp3412
(dp3413
g74
(dp3414
g94
g95
ssg83
g3408
sg76
(lp3415
g369
asbag69
(g90
g71
NtRp3416
(dp3417
g74
(dp3418
g101
g102
ssg83
g3408
sg76
(lp3419
S':'
asbag69
(g90
g71
NtRp3420
(dp3421
g74
(dp3422
sg83
g3408
sg76
(lp3423
g69
(g70
g71
NtRp3424
(dp3425
g74
(dp3426
g82
I3
ssg83
g3420
sg76
(lp3427
S''
asbasbasbag69
(g85
g71
NtRp3428
(dp3429
g74
(dp3430
sg83
g3344
sg76
(lp3431
g69
(g90
g71
NtRp3432
(dp3433
g74
(dp3434
g94
g95
ssg83
g3428
sg76
(lp3435
g390
asbag69
(g90
g71
NtRp3436
(dp3437
g74
(dp3438
g101
g102
ssg83
g3428
sg76
(lp3439
S':'
asbag69
(g90
g71
NtRp3440
(dp3441
g74
(dp3442
sg83
g3428
sg76
(lp3443
g69
(g70
g71
NtRp3444
(dp3445
g74
(dp3446
g82
I3
ssg83
g3440
sg76
(lp3447
S''
asbasbasbag69
(g85
g71
NtRp3448
(dp3449
g74
(dp3450
sg83
g3344
sg76
(lp3451
g69
(g90
g71
NtRp3452
(dp3453
g74
(dp3454
g94
g95
ssg83
g3448
sg76
(lp3455
g411
asbag69
(g90
g71
NtRp3456
(dp3457
g74
(dp3458
g101
g102
ssg83
g3448
sg76
(lp3459
S':'
asbag69
(g90
g71
NtRp3460
(dp3461
g74
(dp3462
sg83
g3448
sg76
(lp3463
g69
(g70
g71
NtRp3464
(dp3465
g74
(dp3466
g82
I3
ssg83
g3460
sg76
(lp3467
S'/'
asbasbasbag69
(g85
g71
NtRp3468
(dp3469
g74
(dp3470
sg83
g3344
sg76
(lp3471
g69
(g90
g71
NtRp3472
(dp3473
g74
(dp3474
g94
g95
ssg83
g3468
sg76
(lp3475
g432
asbag69
(g90
g71
NtRp3476
(dp3477
g74
(dp3478
g101
g102
ssg83
g3468
sg76
(lp3479
S':'
asbag69
(g90
g71
NtRp3480
(dp3481
g74
(dp3482
sg83
g3468
sg76
(lp3483
g69
(g70
g71
NtRp3484
(dp3485
g74
(dp3486
g82
I3
ssg83
g3480
sg76
(lp3487
S''
asbasbasbag69
(g85
g71
NtRp3488
(dp3489
g74
(dp3490
sg83
g3344
sg76
(lp3491
g69
(g90
g71
NtRp3492
(dp3493
g74
(dp3494
g94
g95
ssg83
g3488
sg76
(lp3495
g453
asbag69
(g90
g71
NtRp3496
(dp3497
g74
(dp3498
g101
g102
ssg83
g3488
sg76
(lp3499
S':'
asbag69
(g90
g71
NtRp3500
(dp3501
g74
(dp3502
sg83
g3488
sg76
(lp3503
g69
(g70
g71
NtRp3504
(dp3505
g74
(dp3506
g82
I3
ssg83
g3500
sg76
(lp3507
S''
asbasbasbasbasbasbasbasbasbasbasbag69
(g85
g71
NtRp3508
(dp3509
g74
(dp3510
sg83
g3274
sg76
(lp3511
g69
(g90
g71
NtRp3512
(dp3513
g74
(dp3514
g94
g95
ssg83
g3508
sg76
(lp3515
S'delimiters'
p3516
asbag69
(g90
g71
NtRp3517
(dp3518
g74
(dp3519
g101
g102
ssg83
g3508
sg76
(lp3520
S':'
asbag69
(g90
g71
NtRp3521
(dp3522
g74
(dp3523
sg83
g3508
sg76
(lp3524
g69
(g70
g71
NtRp3525
(dp3526
g74
(dp3527
g82
I5
ssg83
g3521
sg76
(lp3528
g69
(g78
g71
NtRp3529
(dp3530
g74
(dp3531
g82
I4
ssg83
Nsg76
(lp3532
g69
(g85
g71
NtRp3533
(dp3534
g74
(dp3535
sg83
g3529
sg76
(lp3536
g69
(g90
g71
NtRp3537
(dp3538
g74
(dp3539
sg83
g3533
sg76
(lp3540
g69
(g70
g71
NtRp3541
(dp3542
g74
(dp3543
g82
I4
ssg83
g3537
sg76
(lp3544
S'{{'
p3545
asbasbasbag69
(g85
g71
NtRp3546
(dp3547
g74
(dp3548
sg83
g3529
sg76
(lp3549
g69
(g90
g71
NtRp3550
(dp3551
g74
(dp3552
sg83
g3546
sg76
(lp3553
g69
(g70
g71
NtRp3554
(dp3555
g74
(dp3556
g82
I4
ssg83
g3550
sg76
(lp3557
S'}}'
p3558
asbasbasbasbasbasbasbag69
(g85
g71
NtRp3559
(dp3560
g74
(dp3561
sg83
g3274
sg76
(lp3562
g69
(g90
g71
NtRp3563
(dp3564
g74
(dp3565
g94
g95
ssg83
g3559
sg76
(lp3566
S'files'
p3567
asbag69
(g90
g71
NtRp3568
(dp3569
g74
(dp3570
g101
g102
ssg83
g3559
sg76
(lp3571
S':'
asbag69
(g90
g71
NtRp3572
(dp3573
g74
(dp3574
sg83
g3559
sg76
(lp3575
g69
(g70
g71
NtRp3576
(dp3577
g74
(dp3578
g82
I5
ssg83
g3572
sg76
(lp3579
g69
(g78
g71
NtRp3580
(dp3581
g74
(dp3582
g82
I4
ssg83
Nsg76
(lp3583
g69
(g85
g71
NtRp3584
(dp3585
g74
(dp3586
sg83
g3580
sg76
(lp3587
g69
(g90
g71
NtRp3588
(dp3589
g74
(dp3590
sg83
g3584
sg76
(lp3591
g69
(g70
g71
NtRp3592
(dp3593
g74
(dp3594
g82
I4
ssg83
g3588
sg76
(lp3595
S'/testumgebung/static/plugin_kibit_widgets/kibit_widgets.css'
p3596
asbasbasbag69
(g85
g71
NtRp3597
(dp3598
g74
(dp3599
sg83
g3580
sg76
(lp3600
g69
(g90
g71
NtRp3601
(dp3602
g74
(dp3603
sg83
g3597
sg76
(lp3604
g69
(g70
g71
NtRp3605
(dp3606
g74
(dp3607
g82
I4
ssg83
g3601
sg76
(lp3608
S'/testumgebung/static/plugin_kibit_widgets/jquery.kibit_widgets.js'
p3609
asbasbasbasbasbasbasbag69
(g85
g71
NtRp3610
(dp3611
g74
(dp3612
sg83
g3274
sg76
(lp3613
g69
(g90
g71
NtRp3614
(dp3615
g74
(dp3616
g94
g95
ssg83
g3610
sg76
(lp3617
S'flash'
p3618
asbag69
(g90
g71
NtRp3619
(dp3620
g74
(dp3621
g101
g102
ssg83
g3610
sg76
(lp3622
S':'
asbag69
(g90
g71
NtRp3623
(dp3624
g74
(dp3625
sg83
g3610
sg76
(lp3626
g69
(g70
g71
NtRp3627
(dp3628
g74
(dp3629
g82
I5
ssg83
g3623
sg76
(lp3630
S''
asbasbasbag69
(g85
g71
NtRp3631
(dp3632
g74
(dp3633
sg83
g3274
sg76
(lp3634
g69
(g90
g71
NtRp3635
(dp3636
g74
(dp3637
g94
g95
ssg83
g3631
sg76
(lp3638
S'generic_patterns'
p3639
asbag69
(g90
g71
NtRp3640
(dp3641
g74
(dp3642
g101
g102
ssg83
g3631
sg76
(lp3643
S':'
asbag69
(g90
g71
NtRp3644
(dp3645
g74
(dp3646
sg83
g3631
sg76
(lp3647
g69
(g70
g71
NtRp3648
(dp3649
g74
(dp3650
g82
I5
ssg83
g3644
sg76
(lp3651
g69
(g78
g71
NtRp3652
(dp3653
g74
(dp3654
g82
I4
ssg83
Nsg76
(lp3655
g69
(g85
g71
NtRp3656
(dp3657
g74
(dp3658
sg83
g3652
sg76
(lp3659
g69
(g90
g71
NtRp3660
(dp3661
g74
(dp3662
sg83
g3656
sg76
(lp3663
g69
(g70
g71
NtRp3664
(dp3665
g74
(dp3666
g82
I4
ssg83
g3660
sg76
(lp3667
S'*'
asbasbasbasbasbasbasbag69
(g85
g71
NtRp3668
(dp3669
g74
(dp3670
sg83
g3274
sg76
(lp3671
g69
(g90
g71
NtRp3672
(dp3673
g74
(dp3674
g94
g95
ssg83
g3668
sg76
(lp3675
S'google_analytics_id'
p3676
asbag69
(g90
g71
NtRp3677
(dp3678
g74
(dp3679
g101
g102
ssg83
g3668
sg76
(lp3680
S':'
asbag69
(g90
g71
NtRp3681
(dp3682
g74
(dp3683
sg83
g3668
sg76
(lp3684
g69
(g70
g71
NtRp3685
(dp3686
g74
(dp3687
g82
I5
ssg83
g3681
sg76
(lp3688
S'None'
p3689
asbasbasbag69
(g85
g71
NtRp3690
(dp3691
g74
(dp3692
sg83
g3274
sg76
(lp3693
g69
(g90
g71
NtRp3694
(dp3695
g74
(dp3696
g94
g95
ssg83
g3690
sg76
(lp3697
S'headers'
p3698
asbag69
(g90
g71
NtRp3699
(dp3700
g74
(dp3701
g101
g102
ssg83
g3690
sg76
(lp3702
S':'
asbag69
(g90
g71
NtRp3703
(dp3704
g74
(dp3705
sg83
g3690
sg76
(lp3706
g69
(g70
g71
NtRp3707
(dp3708
g74
(dp3709
g82
I5
ssg83
g3703
sg76
(lp3710
g69
(g78
g71
NtRp3711
(dp3712
g74
(dp3713
g82
I4
ssg83
Nsg76
(lp3714
g69
(g85
g71
NtRp3715
(dp3716
g74
(dp3717
sg83
g3711
sg76
(lp3718
g69
(g90
g71
NtRp3719
(dp3720
g74
(dp3721
g94
g95
ssg83
g3715
sg76
(lp3722
S'Cache-Control'
p3723
asbag69
(g90
g71
NtRp3724
(dp3725
g74
(dp3726
g101
g102
ssg83
g3715
sg76
(lp3727
S':'
asbag69
(g90
g71
NtRp3728
(dp3729
g74
(dp3730
sg83
g3715
sg76
(lp3731
g69
(g70
g71
NtRp3732
(dp3733
g74
(dp3734
g82
I4
ssg83
g3728
sg76
(lp3735
S'no-store, no-cache, must-revalidate, post-check=0, pre-check=0'
p3736
asbasbasbag69
(g85
g71
NtRp3737
(dp3738
g74
(dp3739
sg83
g3711
sg76
(lp3740
g69
(g90
g71
NtRp3741
(dp3742
g74
(dp3743
g94
g95
ssg83
g3737
sg76
(lp3744
S'Content-Type'
p3745
asbag69
(g90
g71
NtRp3746
(dp3747
g74
(dp3748
g101
g102
ssg83
g3737
sg76
(lp3749
S':'
asbag69
(g90
g71
NtRp3750
(dp3751
g74
(dp3752
sg83
g3737
sg76
(lp3753
g69
(g70
g71
NtRp3754
(dp3755
g74
(dp3756
g82
I4
ssg83
g3750
sg76
(lp3757
S'text/html; charset=utf-8'
p3758
asbasbasbag69
(g85
g71
NtRp3759
(dp3760
g74
(dp3761
sg83
g3711
sg76
(lp3762
g69
(g90
g71
NtRp3763
(dp3764
g74
(dp3765
g94
g95
ssg83
g3759
sg76
(lp3766
S'Expires'
p3767
asbag69
(g90
g71
NtRp3768
(dp3769
g74
(dp3770
g101
g102
ssg83
g3759
sg76
(lp3771
S':'
asbag69
(g90
g71
NtRp3772
(dp3773
g74
(dp3774
sg83
g3759
sg76
(lp3775
g69
(g70
g71
NtRp3776
(dp3777
g74
(dp3778
g82
I4
ssg83
g3772
sg76
(lp3779
S'Fri, 14 Dec 2012 10:34:08 GMT'
p3780
asbasbasbag69
(g85
g71
NtRp3781
(dp3782
g74
(dp3783
sg83
g3711
sg76
(lp3784
g69
(g90
g71
NtRp3785
(dp3786
g74
(dp3787
g94
g95
ssg83
g3781
sg76
(lp3788
S'Pragma'
p3789
asbag69
(g90
g71
NtRp3790
(dp3791
g74
(dp3792
g101
g102
ssg83
g3781
sg76
(lp3793
S':'
asbag69
(g90
g71
NtRp3794
(dp3795
g74
(dp3796
sg83
g3781
sg76
(lp3797
g69
(g70
g71
NtRp3798
(dp3799
g74
(dp3800
g82
I4
ssg83
g3794
sg76
(lp3801
S'no-cache'
p3802
asbasbasbag69
(g85
g71
NtRp3803
(dp3804
g74
(dp3805
sg83
g3711
sg76
(lp3806
g69
(g90
g71
NtRp3807
(dp3808
g74
(dp3809
g94
g95
ssg83
g3803
sg76
(lp3810
S'X-Powered-By'
p3811
asbag69
(g90
g71
NtRp3812
(dp3813
g74
(dp3814
g101
g102
ssg83
g3803
sg76
(lp3815
S':'
asbag69
(g90
g71
NtRp3816
(dp3817
g74
(dp3818
sg83
g3803
sg76
(lp3819
g69
(g70
g71
NtRp3820
(dp3821
g74
(dp3822
g82
I4
ssg83
g3816
sg76
(lp3823
S'web2py'
p3824
asbasbasbasbasbasbasbag69
(g85
g71
NtRp3825
(dp3826
g74
(dp3827
sg83
g3274
sg76
(lp3828
g69
(g90
g71
NtRp3829
(dp3830
g74
(dp3831
g94
g95
ssg83
g3825
sg76
(lp3832
S'menu'
p3833
asbag69
(g90
g71
NtRp3834
(dp3835
g74
(dp3836
g101
g102
ssg83
g3825
sg76
(lp3837
S':'
asbag69
(g90
g71
NtRp3838
(dp3839
g74
(dp3840
sg83
g3825
sg76
(lp3841
g69
(g70
g71
NtRp3842
(dp3843
g74
(dp3844
g82
I5
ssg83
g3838
sg76
(lp3845
g69
(g78
g71
NtRp3846
(dp3847
g74
(dp3848
g82
I4
ssg83
Nsg76
(lp3849
g69
(g85
g71
NtRp3850
(dp3851
g74
(dp3852
sg83
g3846
sg76
(lp3853
g69
(g90
g71
NtRp3854
(dp3855
g74
(dp3856
sg83
g3850
sg76
(lp3857
g69
(g70
g71
NtRp3858
(dp3859
g74
(dp3860
g82
I4
ssg83
g3854
sg76
(lp3861
g69
(g78
g71
NtRp3862
(dp3863
g74
(dp3864
g82
I3
ssg83
Nsg76
(lp3865
g69
(g85
g71
NtRp3866
(dp3867
g74
(dp3868
sg83
g3862
sg76
(lp3869
g69
(g90
g71
NtRp3870
(dp3871
g74
(dp3872
sg83
g3866
sg76
(lp3873
g69
(g70
g71
NtRp3874
(dp3875
g74
(dp3876
g82
I3
ssg83
g3870
sg76
(lp3877
cgluon.languages
lazyT_unpickle
p3878
(S't\x04\x00\x00\x00Home'
tRp3879
asbasbasbag69
(g85
g71
NtRp3880
(dp3881
g74
(dp3882
sg83
g3862
sg76
(lp3883
g69
(g90
g71
NtRp3884
(dp3885
g74
(dp3886
sg83
g3880
sg76
(lp3887
g69
(g70
g71
NtRp3888
(dp3889
g74
(dp3890
g82
I3
ssg83
g3884
sg76
(lp3891
g112
asbasbasbag69
(g85
g71
NtRp3892
(dp3893
g74
(dp3894
sg83
g3862
sg76
(lp3895
g69
(g90
g71
NtRp3896
(dp3897
g74
(dp3898
sg83
g3892
sg76
(lp3899
g69
(g70
g71
NtRp3900
(dp3901
g74
(dp3902
g82
I3
ssg83
g3896
sg76
(lp3903
S'/testumgebung/default/index'
p3904
asbasbasbag69
(g85
g71
NtRp3905
(dp3906
g74
(dp3907
sg83
g3862
sg76
(lp3908
g69
(g90
g71
NtRp3909
(dp3910
g74
(dp3911
sg83
g3905
sg76
(lp3912
g69
(g70
g71
NtRp3913
(dp3914
g74
(dp3915
g82
I3
ssg83
g3909
sg76
(lp3916
g69
(g78
g71
NtRp3917
(dp3918
g74
(dp3919
g82
I2
ssg83
Nsg76
(lp3920
sbasbasbasbasbasbasbasbag69
(g85
g71
NtRp3921
(dp3922
g74
(dp3923
sg83
g3846
sg76
(lp3924
g69
(g90
g71
NtRp3925
(dp3926
g74
(dp3927
sg83
g3921
sg76
(lp3928
g69
(g70
g71
NtRp3929
(dp3930
g74
(dp3931
g82
I4
ssg83
g3925
sg76
(lp3932
g69
(g78
g71
NtRp3933
(dp3934
g74
(dp3935
g82
I3
ssg83
Nsg76
(lp3936
g69
(g85
g71
NtRp3937
(dp3938
g74
(dp3939
sg83
g3933
sg76
(lp3940
g69
(g90
g71
NtRp3941
(dp3942
g74
(dp3943
sg83
g3937
sg76
(lp3944
g69
(g70
g71
NtRp3945
(dp3946
g74
(dp3947
g82
I3
ssg83
g3941
sg76
(lp3948
g69
(cgluon.html
SPAN
p3949
g71
NtRp3950
(dp3951
g74
(dp3952
g94
S'color:yellow'
p3953
ssg83
Nsg76
(lp3954
g3824
asbasbasbasbag69
(g85
g71
NtRp3955
(dp3956
g74
(dp3957
sg83
g3933
sg76
(lp3958
g69
(g90
g71
NtRp3959
(dp3960
g74
(dp3961
sg83
g3955
sg76
(lp3962
g69
(g70
g71
NtRp3963
(dp3964
g74
(dp3965
g82
I3
ssg83
g3959
sg76
(lp3966
g112
asbasbasbag69
(g85
g71
NtRp3967
(dp3968
g74
(dp3969
sg83
g3933
sg76
(lp3970
g69
(g90
g71
NtRp3971
(dp3972
g74
(dp3973
sg83
g3967
sg76
(lp3974
g69
(g70
g71
NtRp3975
(dp3976
g74
(dp3977
g82
I3
ssg83
g3971
sg76
(lp3978
S'http://web2py.com'
p3979
asbasbasbag69
(g85
g71
NtRp3980
(dp3981
g74
(dp3982
sg83
g3933
sg76
(lp3983
g69
(g90
g71
NtRp3984
(dp3985
g74
(dp3986
sg83
g3980
sg76
(lp3987
g69
(g70
g71
NtRp3988
(dp3989
g74
(dp3990
g82
I3
ssg83
g3984
sg76
(lp3991
g69
(g78
g71
NtRp3992
(dp3993
g74
(dp3994
g82
I2
ssg83
Nsg76
(lp3995
g69
(g85
g71
NtRp3996
(dp3997
g74
(dp3998
sg83
g3992
sg76
(lp3999
g69
(g90
g71
NtRp4000
(dp4001
g74
(dp4002
sg83
g3996
sg76
(lp4003
g69
(g70
g71
NtRp4004
(dp4005
g74
(dp4006
g82
I2
ssg83
g4000
sg76
(lp4007
g69
(g78
g71
NtRp4008
(dp4009
g74
(dp4010
g82
I1
ssg83
Nsg76
(lp4011
g69
(g85
g71
NtRp4012
(dp4013
g74
(dp4014
sg83
g4008
sg76
(lp4015
g69
(g90
g71
NtRp4016
(dp4017
g74
(dp4018
sg83
g4012
sg76
(lp4019
g69
(g70
g71
NtRp4020
(dp4021
g74
(dp4022
g82
I1
ssg83
g4016
sg76
(lp4023
g3878
(S's\x08\x00\x00\x00My Sites'
tRp4024
asbasbasbag69
(g85
g71
NtRp4025
(dp4026
g74
(dp4027
sg83
g4008
sg76
(lp4028
g69
(g90
g71
NtRp4029
(dp4030
g74
(dp4031
sg83
g4025
sg76
(lp4032
g69
(g70
g71
NtRp4033
(dp4034
g74
(dp4035
g82
I1
ssg83
g4029
sg76
(lp4036
I00
asbasbasbag69
(g85
g71
NtRp4037
(dp4038
g74
(dp4039
sg83
g4008
sg76
(lp4040
g69
(g90
g71
NtRp4041
(dp4042
g74
(dp4043
sg83
g4037
sg76
(lp4044
g69
(g70
g71
NtRp4045
(dp4046
g74
(dp4047
g82
I1
ssg83
g4041
sg76
(lp4048
S'/admin/default/site'
p4049
asbasbasbasbasbasbasbag69
(g85
g71
NtRp4050
(dp4051
g74
(dp4052
sg83
g3992
sg76
(lp4053
g69
(g90
g71
NtRp4054
(dp4055
g74
(dp4056
sg83
g4050
sg76
(lp4057
g69
(g70
g71
NtRp4058
(dp4059
g74
(dp4060
g82
I2
ssg83
g4054
sg76
(lp4061
g69
(g78
g71
NtRp4062
(dp4063
g74
(dp4064
g82
I1
ssg83
Nsg76
(lp4065
g69
(g85
g71
NtRp4066
(dp4067
g74
(dp4068
sg83
g4062
sg76
(lp4069
g69
(g90
g71
NtRp4070
(dp4071
g74
(dp4072
sg83
g4066
sg76
(lp4073
g69
(g70
g71
NtRp4074
(dp4075
g74
(dp4076
g82
I1
ssg83
g4070
sg76
(lp4077
g3878
(S's\x08\x00\x00\x00This App'
tRp4078
asbasbasbag69
(g85
g71
NtRp4079
(dp4080
g74
(dp4081
sg83
g4062
sg76
(lp4082
g69
(g90
g71
NtRp4083
(dp4084
g74
(dp4085
sg83
g4079
sg76
(lp4086
g69
(g70
g71
NtRp4087
(dp4088
g74
(dp4089
g82
I1
ssg83
g4083
sg76
(lp4090
I00
asbasbasbag69
(g85
g71
NtRp4091
(dp4092
g74
(dp4093
sg83
g4062
sg76
(lp4094
g69
(g90
g71
NtRp4095
(dp4096
g74
(dp4097
sg83
g4091
sg76
(lp4098
g69
(g70
g71
NtRp4099
(dp4100
g74
(dp4101
g82
I1
ssg83
g4095
sg76
(lp4102
S'/admin/default/design/testumgebung'
p4103
asbasbasbag69
(g85
g71
NtRp4104
(dp4105
g74
(dp4106
sg83
g4062
sg76
(lp4107
g69
(g90
g71
NtRp4108
(dp4109
g74
(dp4110
sg83
g4104
sg76
(lp4111
g69
(g70
g71
NtRp4112
(dp4113
g74
(dp4114
g82
I1
ssg83
g4108
sg76
(lp4115
(lp4116
(g3878
(S't\n\x00\x00\x00Controller'
tRp4117
I00
S'/admin/default/edit/testumgebung/controllers/default.py'
tp4118
a(g3878
(S't\x04\x00\x00\x00View'
tRp4119
I00
S'/admin/default/edit/testumgebung/views/default/index.html'
tp4120
a(g3878
(S't\x06\x00\x00\x00Layout'
tRp4121
I00
S'/admin/default/edit/testumgebung/views/layout.html'
tp4122
a(g3878
(S't\n\x00\x00\x00Stylesheet'
tRp4123
I00
S'/admin/default/edit/testumgebung/static/css/web2py.css'
tp4124
a(g3878
(S's\x08\x00\x00\x00DB Model'
tRp4125
I00
S'/admin/default/edit/testumgebung/models/db.py'
tp4126
a(g3878
(S's\n\x00\x00\x00Menu Model'
tRp4127
I00
S'/admin/default/edit/testumgebung/models/menu.py'
tp4128
a(g3878
(S't\x08\x00\x00\x00Database'
tRp4129
I00
S'/testumgebung/appadmin/index'
tp4130
a(g3878
(S't\x06\x00\x00\x00Errors'
tRp4131
I00
S'/admin/default/errors/testumgebung'
tp4132
a(g3878
(S't\x05\x00\x00\x00About'
tRp4133
I00
S'/admin/default/about/testumgebung'
tp4134
aasbasbasbasbasbasbasbag69
(g85
g71
NtRp4135
(dp4136
g74
(dp4137
sg83
g3992
sg76
(lp4138
g69
(g90
g71
NtRp4139
(dp4140
g74
(dp4141
sg83
g4135
sg76
(lp4142
g69
(g70
g71
NtRp4143
(dp4144
g74
(dp4145
g82
I2
ssg83
g4139
sg76
(lp4146
g69
(g78
g71
NtRp4147
(dp4148
g74
(dp4149
g82
I1
ssg83
Nsg76
(lp4150
g69
(g85
g71
NtRp4151
(dp4152
g74
(dp4153
sg83
g4147
sg76
(lp4154
g69
(g90
g71
NtRp4155
(dp4156
g74
(dp4157
sg83
g4151
sg76
(lp4158
g69
(g70
g71
NtRp4159
(dp4160
g74
(dp4161
g82
I1
ssg83
g4155
sg76
(lp4162
S'web2py.com'
p4163
asbasbasbag69
(g85
g71
NtRp4164
(dp4165
g74
(dp4166
sg83
g4147
sg76
(lp4167
g69
(g90
g71
NtRp4168
(dp4169
g74
(dp4170
sg83
g4164
sg76
(lp4171
g69
(g70
g71
NtRp4172
(dp4173
g74
(dp4174
g82
I1
ssg83
g4168
sg76
(lp4175
I00
asbasbasbag69
(g85
g71
NtRp4176
(dp4177
g74
(dp4178
sg83
g4147
sg76
(lp4179
g69
(g90
g71
NtRp4180
(dp4181
g74
(dp4182
sg83
g4176
sg76
(lp4183
g69
(g70
g71
NtRp4184
(dp4185
g74
(dp4186
g82
I1
ssg83
g4180
sg76
(lp4187
S'http://www.web2py.com'
p4188
asbasbasbag69
(g85
g71
NtRp4189
(dp4190
g74
(dp4191
sg83
g4147
sg76
(lp4192
g69
(g90
g71
NtRp4193
(dp4194
g74
(dp4195
sg83
g4189
sg76
(lp4196
g69
(g70
g71
NtRp4197
(dp4198
g74
(dp4199
g82
I1
ssg83
g4193
sg76
(lp4200
(lp4201
(g3878
(S't\x08\x00\x00\x00Download'
tRp4202
I00
S'http://www.web2py.com/examples/default/download'
p4203
tp4204
a(g3878
(S't\x07\x00\x00\x00Support'
tRp4205
I00
S'http://www.web2py.com/examples/default/support'
p4206
tp4207
a(g3878
(S't\x04\x00\x00\x00Demo'
tRp4208
I00
S'http://web2py.com/demo_admin'
p4209
tp4210
a(g3878
(S's\x0e\x00\x00\x00Quick Examples'
tRp4211
I00
S'http://web2py.com/examples/default/examples'
p4212
tp4213
a(g3878
(S't\x03\x00\x00\x00FAQ'
tRp4214
I00
S'http://web2py.com/AlterEgo'
p4215
tp4216
a(g3878
(S't\x06\x00\x00\x00Videos'
tRp4217
I00
S'http://www.web2py.com/examples/default/videos/'
p4218
tp4219
a(g3878
(S's\x11\x00\x00\x00Free Applications'
tRp4220
I00
S'http://web2py.com/appliances'
p4221
tp4222
a(g3878
(S't\x07\x00\x00\x00Plugins'
tRp4223
I00
S'http://web2py.com/plugins'
p4224
tp4225
a(g3878
(S't\x07\x00\x00\x00Layouts'
tRp4226
I00
S'http://web2py.com/layouts'
p4227
tp4228
a(g3878
(S't\x07\x00\x00\x00Recipes'
tRp4229
I00
S'http://web2pyslices.com/'
p4230
tp4231
a(g3878
(S't\x08\x00\x00\x00Semantic'
tRp4232
I00
S'http://web2py.com/semantic'
p4233
tp4234
aasbasbasbasbasbasbasbag69
(g85
g71
NtRp4235
(dp4236
g74
(dp4237
sg83
g3992
sg76
(lp4238
g69
(g90
g71
NtRp4239
(dp4240
g74
(dp4241
sg83
g4235
sg76
(lp4242
g69
(g70
g71
NtRp4243
(dp4244
g74
(dp4245
g82
I2
ssg83
g4239
sg76
(lp4246
g69
(g78
g71
NtRp4247
(dp4248
g74
(dp4249
g82
I1
ssg83
Nsg76
(lp4250
g69
(g85
g71
NtRp4251
(dp4252
g74
(dp4253
sg83
g4247
sg76
(lp4254
g69
(g90
g71
NtRp4255
(dp4256
g74
(dp4257
sg83
g4251
sg76
(lp4258
g69
(g70
g71
NtRp4259
(dp4260
g74
(dp4261
g82
I1
ssg83
g4255
sg76
(lp4262
g3878
(S't\r\x00\x00\x00Documentation'
tRp4263
asbasbasbag69
(g85
g71
NtRp4264
(dp4265
g74
(dp4266
sg83
g4247
sg76
(lp4267
g69
(g90
g71
NtRp4268
(dp4269
g74
(dp4270
sg83
g4264
sg76
(lp4271
g69
(g70
g71
NtRp4272
(dp4273
g74
(dp4274
g82
I1
ssg83
g4268
sg76
(lp4275
I00
asbasbasbag69
(g85
g71
NtRp4276
(dp4277
g74
(dp4278
sg83
g4247
sg76
(lp4279
g69
(g90
g71
NtRp4280
(dp4281
g74
(dp4282
sg83
g4276
sg76
(lp4283
g69
(g70
g71
NtRp4284
(dp4285
g74
(dp4286
g82
I1
ssg83
g4280
sg76
(lp4287
S'http://www.web2py.com/book'
p4288
asbasbasbag69
(g85
g71
NtRp4289
(dp4290
g74
(dp4291
sg83
g4247
sg76
(lp4292
g69
(g90
g71
NtRp4293
(dp4294
g74
(dp4295
sg83
g4289
sg76
(lp4296
g69
(g70
g71
NtRp4297
(dp4298
g74
(dp4299
g82
I1
ssg83
g4293
sg76
(lp4300
(lp4301
(g3878
(S't\x07\x00\x00\x00Preface'
tRp4302
I00
S'http://www.web2py.com/book/default/chapter/00'
p4303
tp4304
a(g3878
(S't\x0c\x00\x00\x00Introduction'
tRp4305
I00
S'http://www.web2py.com/book/default/chapter/01'
p4306
tp4307
a(g3878
(S't\x06\x00\x00\x00Python'
tRp4308
I00
S'http://www.web2py.com/book/default/chapter/02'
p4309
tp4310
a(g3878
(S't\x08\x00\x00\x00Overview'
tRp4311
I00
S'http://www.web2py.com/book/default/chapter/03'
p4312
tp4313
a(g3878
(S's\x08\x00\x00\x00The Core'
tRp4314
I00
S'http://www.web2py.com/book/default/chapter/04'
p4315
tp4316
a(g3878
(S's\t\x00\x00\x00The Views'
tRp4317
I00
S'http://www.web2py.com/book/default/chapter/05'
p4318
tp4319
a(g3878
(S't\x08\x00\x00\x00Database'
tRp4320
I00
S'http://www.web2py.com/book/default/chapter/06'
p4321
tp4322
a(g3878
(S's\x14\x00\x00\x00Forms and Validators'
tRp4323
I00
S'http://www.web2py.com/book/default/chapter/07'
p4324
tp4325
a(g3878
(S's\r\x00\x00\x00Email and SMS'
tRp4326
I00
S'http://www.web2py.com/book/default/chapter/08'
p4327
tp4328
a(g3878
(S's\x0e\x00\x00\x00Access Control'
tRp4329
I00
S'http://www.web2py.com/book/default/chapter/09'
p4330
tp4331
a(g3878
(S't\x08\x00\x00\x00Services'
tRp4332
I00
S'http://www.web2py.com/book/default/chapter/10'
p4333
tp4334
a(g3878
(S's\x0c\x00\x00\x00Ajax Recipes'
tRp4335
I00
S'http://www.web2py.com/book/default/chapter/11'
p4336
tp4337
a(g3878
(S's\x16\x00\x00\x00Components and Plugins'
tRp4338
I00
S'http://www.web2py.com/book/default/chapter/12'
p4339
tp4340
a(g3878
(S's\x12\x00\x00\x00Deployment Recipes'
tRp4341
I00
S'http://www.web2py.com/book/default/chapter/13'
p4342
tp4343
a(g3878
(S's\r\x00\x00\x00Other Recipes'
tRp4344
I00
S'http://www.web2py.com/book/default/chapter/14'
p4345
tp4346
a(g3878
(S's\r\x00\x00\x00Buy this book'
tRp4347
I00
S'http://stores.lulu.com/web2py'
p4348
tp4349
aasbasbasbasbasbasbasbag69
(g85
g71
NtRp4350
(dp4351
g74
(dp4352
sg83
g3992
sg76
(lp4353
g69
(g90
g71
NtRp4354
(dp4355
g74
(dp4356
sg83
g4350
sg76
(lp4357
g69
(g70
g71
NtRp4358
(dp4359
g74
(dp4360
g82
I2
ssg83
g4354
sg76
(lp4361
g69
(g78
g71
NtRp4362
(dp4363
g74
(dp4364
g82
I1
ssg83
Nsg76
(lp4365
g69
(g85
g71
NtRp4366
(dp4367
g74
(dp4368
sg83
g4362
sg76
(lp4369
g69
(g90
g71
NtRp4370
(dp4371
g74
(dp4372
sg83
g4366
sg76
(lp4373
g69
(g70
g71
NtRp4374
(dp4375
g74
(dp4376
g82
I1
ssg83
g4370
sg76
(lp4377
g3878
(S't\t\x00\x00\x00Community'
tRp4378
asbasbasbag69
(g85
g71
NtRp4379
(dp4380
g74
(dp4381
sg83
g4362
sg76
(lp4382
g69
(g90
g71
NtRp4383
(dp4384
g74
(dp4385
sg83
g4379
sg76
(lp4386
g69
(g70
g71
NtRp4387
(dp4388
g74
(dp4389
g82
I1
ssg83
g4383
sg76
(lp4390
I00
asbasbasbag69
(g85
g71
NtRp4391
(dp4392
g74
(dp4393
sg83
g4362
sg76
(lp4394
g69
(g90
g71
NtRp4395
(dp4396
g74
(dp4397
sg83
g4391
sg76
(lp4398
g69
(g70
g71
NtRp4399
(dp4400
g74
(dp4401
g82
I1
ssg83
g4395
sg76
(lp4402
Nasbasbasbag69
(g85
g71
NtRp4403
(dp4404
g74
(dp4405
sg83
g4362
sg76
(lp4406
g69
(g90
g71
NtRp4407
(dp4408
g74
(dp4409
sg83
g4403
sg76
(lp4410
g69
(g70
g71
NtRp4411
(dp4412
g74
(dp4413
g82
I1
ssg83
g4407
sg76
(lp4414
(lp4415
(g3878
(S't\x06\x00\x00\x00Groups'
tRp4416
I00
S'http://www.web2py.com/examples/default/usergroups'
p4417
tp4418
a(g3878
(S't\x07\x00\x00\x00Twitter'
tRp4419
I00
S'http://twitter.com/web2py'
p4420
tp4421
a(g3878
(S's\t\x00\x00\x00Live Chat'
tRp4422
I00
S'http://webchat.freenode.net/?channels=web2py'
p4423
tp4424
aasbasbasbasbasbasbasbag69
(g85
g71
NtRp4425
(dp4426
g74
(dp4427
sg83
g3992
sg76
(lp4428
g69
(g90
g71
NtRp4429
(dp4430
g74
(dp4431
sg83
g4425
sg76
(lp4432
g69
(g70
g71
NtRp4433
(dp4434
g74
(dp4435
g82
I2
ssg83
g4429
sg76
(lp4436
g69
(g78
g71
NtRp4437
(dp4438
g74
(dp4439
g82
I1
ssg83
Nsg76
(lp4440
g69
(g85
g71
NtRp4441
(dp4442
g74
(dp4443
sg83
g4437
sg76
(lp4444
g69
(g90
g71
NtRp4445
(dp4446
g74
(dp4447
sg83
g4441
sg76
(lp4448
g69
(g70
g71
NtRp4449
(dp4450
g74
(dp4451
g82
I1
ssg83
g4445
sg76
(lp4452
g3878
(S't\x07\x00\x00\x00Plugins'
tRp4453
asbasbasbag69
(g85
g71
NtRp4454
(dp4455
g74
(dp4456
sg83
g4437
sg76
(lp4457
g69
(g90
g71
NtRp4458
(dp4459
g74
(dp4460
sg83
g4454
sg76
(lp4461
g69
(g70
g71
NtRp4462
(dp4463
g74
(dp4464
g82
I1
ssg83
g4458
sg76
(lp4465
I00
asbasbasbag69
(g85
g71
NtRp4466
(dp4467
g74
(dp4468
sg83
g4437
sg76
(lp4469
g69
(g90
g71
NtRp4470
(dp4471
g74
(dp4472
sg83
g4466
sg76
(lp4473
g69
(g70
g71
NtRp4474
(dp4475
g74
(dp4476
g82
I1
ssg83
g4470
sg76
(lp4477
Nasbasbasbag69
(g85
g71
NtRp4478
(dp4479
g74
(dp4480
sg83
g4437
sg76
(lp4481
g69
(g90
g71
NtRp4482
(dp4483
g74
(dp4484
sg83
g4478
sg76
(lp4485
g69
(g70
g71
NtRp4486
(dp4487
g74
(dp4488
g82
I1
ssg83
g4482
sg76
(lp4489
(lp4490
(S'plugin_wiki'
p4491
I00
S'http://web2py.com/examples/default/download'
p4492
tp4493
a(g3878
(S's\r\x00\x00\x00Other Plugins'
tRp4494
I00
g4224
tp4495
a(g3878
(S's\x0e\x00\x00\x00Layout Plugins'
tRp4496
I00
g4227
tp4497
aasbasbasbasbasbasbasbasbasbasbasbasbasbasbasbasbasbasbasbag69
(g85
g71
NtRp4498
(dp4499
g74
(dp4500
sg83
g3274
sg76
(lp4501
g69
(g90
g71
NtRp4502
(dp4503
g74
(dp4504
g94
g95
ssg83
g4498
sg76
(lp4505
S'meta'
p4506
asbag69
(g90
g71
NtRp4507
(dp4508
g74
(dp4509
g101
g102
ssg83
g4498
sg76
(lp4510
S':'
asbag69
(g90
g71
NtRp4511
(dp4512
g74
(dp4513
sg83
g4498
sg76
(lp4514
g69
(g70
g71
NtRp4515
(dp4516
g74
(dp4517
g82
I5
ssg83
g4511
sg76
(lp4518
g69
(g78
g71
NtRp4519
(dp4520
g74
(dp4521
g82
I4
ssg83
Nsg76
(lp4522
g69
(g85
g71
NtRp4523
(dp4524
g74
(dp4525
sg83
g4519
sg76
(lp4526
g69
(g90
g71
NtRp4527
(dp4528
g74
(dp4529
g94
g95
ssg83
g4523
sg76
(lp4530
S'author'
p4531
asbag69
(g90
g71
NtRp4532
(dp4533
g74
(dp4534
g101
g102
ssg83
g4523
sg76
(lp4535
S':'
asbag69
(g90
g71
NtRp4536
(dp4537
g74
(dp4538
sg83
g4523
sg76
(lp4539
g69
(g70
g71
NtRp4540
(dp4541
g74
(dp4542
g82
I4
ssg83
g4536
sg76
(lp4543
S'Your Name <you@example.com>'
p4544
asbasbasbag69
(g85
g71
NtRp4545
(dp4546
g74
(dp4547
sg83
g4519
sg76
(lp4548
g69
(g90
g71
NtRp4549
(dp4550
g74
(dp4551
g94
g95
ssg83
g4545
sg76
(lp4552
S'description'
p4553
asbag69
(g90
g71
NtRp4554
(dp4555
g74
(dp4556
g101
g102
ssg83
g4545
sg76
(lp4557
S':'
asbag69
(g90
g71
NtRp4558
(dp4559
g74
(dp4560
sg83
g4545
sg76
(lp4561
g69
(g70
g71
NtRp4562
(dp4563
g74
(dp4564
g82
I4
ssg83
g4558
sg76
(lp4565
S'a cool new app'
p4566
asbasbasbag69
(g85
g71
NtRp4567
(dp4568
g74
(dp4569
sg83
g4519
sg76
(lp4570
g69
(g90
g71
NtRp4571
(dp4572
g74
(dp4573
g94
g95
ssg83
g4567
sg76
(lp4574
S'generator'
p4575
asbag69
(g90
g71
NtRp4576
(dp4577
g74
(dp4578
g101
g102
ssg83
g4567
sg76
(lp4579
S':'
asbag69
(g90
g71
NtRp4580
(dp4581
g74
(dp4582
sg83
g4567
sg76
(lp4583
g69
(g70
g71
NtRp4584
(dp4585
g74
(dp4586
g82
I4
ssg83
g4580
sg76
(lp4587
S'Web2py Web Framework'
p4588
asbasbasbag69
(g85
g71
NtRp4589
(dp4590
g74
(dp4591
sg83
g4519
sg76
(lp4592
g69
(g90
g71
NtRp4593
(dp4594
g74
(dp4595
g94
g95
ssg83
g4589
sg76
(lp4596
S'keywords'
p4597
asbag69
(g90
g71
NtRp4598
(dp4599
g74
(dp4600
g101
g102
ssg83
g4589
sg76
(lp4601
S':'
asbag69
(g90
g71
NtRp4602
(dp4603
g74
(dp4604
sg83
g4589
sg76
(lp4605
g69
(g70
g71
NtRp4606
(dp4607
g74
(dp4608
g82
I4
ssg83
g4602
sg76
(lp4609
S'web2py, python, framework'
p4610
asbasbasbasbasbasbasbag69
(g85
g71
NtRp4611
(dp4612
g74
(dp4613
sg83
g3274
sg76
(lp4614
g69
(g90
g71
NtRp4615
(dp4616
g74
(dp4617
g94
g95
ssg83
g4611
sg76
(lp4618
S'postprocessing'
p4619
asbag69
(g90
g71
NtRp4620
(dp4621
g74
(dp4622
g101
g102
ssg83
g4611
sg76
(lp4623
S':'
asbag69
(g90
g71
NtRp4624
(dp4625
g74
(dp4626
sg83
g4611
sg76
(lp4627
g69
(g70
g71
NtRp4628
(dp4629
g74
(dp4630
g82
I5
ssg83
g4624
sg76
(lp4631
g69
(g78
g71
NtRp4632
(dp4633
g74
(dp4634
g82
I4
ssg83
Nsg76
(lp4635
sbasbasbasbag69
(g85
g71
NtRp4636
(dp4637
g74
(dp4638
sg83
g3274
sg76
(lp4639
g69
(g90
g71
NtRp4640
(dp4641
g74
(dp4642
g94
g95
ssg83
g4636
sg76
(lp4643
S'session_file'
p4644
asbag69
(g90
g71
NtRp4645
(dp4646
g74
(dp4647
g101
g102
ssg83
g4636
sg76
(lp4648
S':'
asbag69
(g90
g71
NtRp4649
(dp4650
g74
(dp4651
sg83
g4636
sg76
(lp4652
g69
(g70
g71
NtRp4653
(dp4654
g74
(dp4655
g82
I5
ssg83
g4649
sg76
(lp4656
S"<open file 'C:\\xampp\\htdocs\\web2py\\applications\\testumgebung\\sessions\\127.0.0.1-0516a7a8-1a9f-40bf-950c-da43d5cea819', mode 'rb+' at 0x03100860>"
p4657
asbasbasbag69
(g85
g71
NtRp4658
(dp4659
g74
(dp4660
sg83
g3274
sg76
(lp4661
g69
(g90
g71
NtRp4662
(dp4663
g74
(dp4664
g94
g95
ssg83
g4658
sg76
(lp4665
S'session_filename'
p4666
asbag69
(g90
g71
NtRp4667
(dp4668
g74
(dp4669
g101
g102
ssg83
g4658
sg76
(lp4670
S':'
asbag69
(g90
g71
NtRp4671
(dp4672
g74
(dp4673
sg83
g4658
sg76
(lp4674
g69
(g70
g71
NtRp4675
(dp4676
g74
(dp4677
g82
I5
ssg83
g4671
sg76
(lp4678
S'C:\\xampp\\htdocs\\web2py\\applications\\testumgebung\\sessions\\127.0.0.1-0516a7a8-1a9f-40bf-950c-da43d5cea819'
p4679
asbasbasbag69
(g85
g71
NtRp4680
(dp4681
g74
(dp4682
sg83
g3274
sg76
(lp4683
g69
(g90
g71
NtRp4684
(dp4685
g74
(dp4686
g94
g95
ssg83
g4680
sg76
(lp4687
S'session_id'
p4688
asbag69
(g90
g71
NtRp4689
(dp4690
g74
(dp4691
g101
g102
ssg83
g4680
sg76
(lp4692
S':'
asbag69
(g90
g71
NtRp4693
(dp4694
g74
(dp4695
sg83
g4680
sg76
(lp4696
g69
(g70
g71
NtRp4697
(dp4698
g74
(dp4699
g82
I5
ssg83
g4693
sg76
(lp4700
g487
asbasbasbag69
(g85
g71
NtRp4701
(dp4702
g74
(dp4703
sg83
g3274
sg76
(lp4704
g69
(g90
g71
NtRp4705
(dp4706
g74
(dp4707
g94
g95
ssg83
g4701
sg76
(lp4708
S'session_id_name'
p4709
asbag69
(g90
g71
NtRp4710
(dp4711
g74
(dp4712
g101
g102
ssg83
g4701
sg76
(lp4713
S':'
asbag69
(g90
g71
NtRp4714
(dp4715
g74
(dp4716
sg83
g4701
sg76
(lp4717
g69
(g70
g71
NtRp4718
(dp4719
g74
(dp4720
g82
I5
ssg83
g4714
sg76
(lp4721
g3331
asbasbasbag69
(g85
g71
NtRp4722
(dp4723
g74
(dp4724
sg83
g3274
sg76
(lp4725
g69
(g90
g71
NtRp4726
(dp4727
g74
(dp4728
g94
g95
ssg83
g4722
sg76
(lp4729
S'session_locked'
p4730
asbag69
(g90
g71
NtRp4731
(dp4732
g74
(dp4733
g101
g102
ssg83
g4722
sg76
(lp4734
S':'
asbag69
(g90
g71
NtRp4735
(dp4736
g74
(dp4737
sg83
g4722
sg76
(lp4738
g69
(g70
g71
NtRp4739
(dp4740
g74
(dp4741
g82
I5
ssg83
g4735
sg76
(lp4742
g1756
asbasbasbag69
(g85
g71
NtRp4743
(dp4744
g74
(dp4745
sg83
g3274
sg76
(lp4746
g69
(g90
g71
NtRp4747
(dp4748
g74
(dp4749
g94
g95
ssg83
g4743
sg76
(lp4750
S'session_new'
p4751
asbag69
(g90
g71
NtRp4752
(dp4753
g74
(dp4754
g101
g102
ssg83
g4743
sg76
(lp4755
S':'
asbag69
(g90
g71
NtRp4756
(dp4757
g74
(dp4758
sg83
g4743
sg76
(lp4759
g69
(g70
g71
NtRp4760
(dp4761
g74
(dp4762
g82
I5
ssg83
g4756
sg76
(lp4763
g112
asbasbasbag69
(g85
g71
NtRp4764
(dp4765
g74
(dp4766
sg83
g3274
sg76
(lp4767
g69
(g90
g71
NtRp4768
(dp4769
g74
(dp4770
g94
g95
ssg83
g4764
sg76
(lp4771
S'status'
p4772
asbag69
(g90
g71
NtRp4773
(dp4774
g74
(dp4775
g101
g102
ssg83
g4764
sg76
(lp4776
S':'
asbag69
(g90
g71
NtRp4777
(dp4778
g74
(dp4779
sg83
g4764
sg76
(lp4780
g69
(g70
g71
NtRp4781
(dp4782
g74
(dp4783
g82
I5
ssg83
g4777
sg76
(lp4784
S'200'
p4785
asbasbasbag69
(g85
g71
NtRp4786
(dp4787
g74
(dp4788
sg83
g3274
sg76
(lp4789
g69
(g90
g71
NtRp4790
(dp4791
g74
(dp4792
g94
g95
ssg83
g4786
sg76
(lp4793
S'subtitle'
p4794
asbag69
(g90
g71
NtRp4795
(dp4796
g74
(dp4797
g101
g102
ssg83
g4786
sg76
(lp4798
S':'
asbag69
(g90
g71
NtRp4799
(dp4800
g74
(dp4801
sg83
g4786
sg76
(lp4802
g69
(g70
g71
NtRp4803
(dp4804
g74
(dp4805
g82
I5
ssg83
g4799
sg76
(lp4806
g3878
(S's\r\x00\x00\x00customize me!'
tRp4807
asbasbasbag69
(g85
g71
NtRp4808
(dp4809
g74
(dp4810
sg83
g3274
sg76
(lp4811
g69
(g90
g71
NtRp4812
(dp4813
g74
(dp4814
g94
g95
ssg83
g4808
sg76
(lp4815
S'title'
p4816
asbag69
(g90
g71
NtRp4817
(dp4818
g74
(dp4819
g101
g102
ssg83
g4808
sg76
(lp4820
S':'
asbag69
(g90
g71
NtRp4821
(dp4822
g74
(dp4823
sg83
g4808
sg76
(lp4824
g69
(g70
g71
NtRp4825
(dp4826
g74
(dp4827
g82
I5
ssg83
g4821
sg76
(lp4828
S'Testumgebung'
p4829
asbasbasbag69
(g85
g71
NtRp4830
(dp4831
g74
(dp4832
sg83
g3274
sg76
(lp4833
g69
(g90
g71
NtRp4834
(dp4835
g74
(dp4836
g94
g95
ssg83
g4830
sg76
(lp4837
S'view'
p4838
asbag69
(g90
g71
NtRp4839
(dp4840
g74
(dp4841
g101
g102
ssg83
g4830
sg76
(lp4842
S':'
asbag69
(g90
g71
NtRp4843
(dp4844
g74
(dp4845
sg83
g4830
sg76
(lp4846
g69
(g70
g71
NtRp4847
(dp4848
g74
(dp4849
g82
I5
ssg83
g4843
sg76
(lp4850
S'default/index.html'
p4851
asbasbasbasbasbsS'locals'
p4852
(dp4853
g74
g21
sS'self'
p4854
S'<gluon.html.IMG object>'
p4855
sg76
S"('/testumgebung/static/plugin_kibit_widgets/smiley_1.PNG',)"
p4856
sssS'traceback'
p4857
S'Traceback (most recent call last):\n  File "gluon/restricted.py", line 209, in restricted\n  File "C:\\xampp\\htdocs\\web2py\\applications\\testumgebung\\controllers/default.py", line 82, in <module>\n  File "gluon/globals.py", line 185, in <lambda>\n  File "C:\\xampp\\htdocs\\web2py\\applications\\testumgebung\\controllers/default.py", line 23, in index\n  File "gluon/sqlhtml.py", line 1005, in __init__\n  File "applications\\testumgebung\\modules\\plugin_kibit_widgets.py", line 67, in __call__\n  File "gluon/html.py", line 654, in __init__\nSyntaxError: <img/> tags cannot have components\n'
p4858
s.