(dp1
S'output'
p2
S"<type 'exceptions.SyntaxError'> invalid syntax (plugin_kibit_widgets.py, line 49)"
p3
sS'layer'
p4
S'C:\\xampp\\htdocs\\web2py\\applications\\testumgebung\\controllers/default.py'
p5
sS'code'
p6
S'# -*- coding: utf-8 -*-\n# this file is released under public domain and you can use without limitations\nfrom plugin_kibit_widgets import LikertWidget\n\ndb.answers.scale.widget = LikertWidget()\n#########################################################################\n## This is a samples controller\n## - index is the default action of any application\n## - user is required for authentication and authorization\n## - download is for downloading files uploaded in the db (does streaming)\n## - call exposes all registered services (none by default)\n#########################################################################\n\ndef index():\n    """\n    """\n\n\n    form = SQLFORM(db.answers)\n\n\n\n\n    return dict(message=T(\'Hello World\'), form=form)\n\ndef user():\n    """\n    exposes:\n    http://..../[app]/default/user/login\n    http://..../[app]/default/user/logout\n    http://..../[app]/default/user/register\n    http://..../[app]/default/user/profile\n    http://..../[app]/default/user/retrieve_password\n    http://..../[app]/default/user/change_password\n    use @auth.requires_login()\n        @auth.requires_membership(\'group name\')\n        @auth.requires_permission(\'read\',\'table name\',record_id)\n    to decorate functions that need access control\n    """\n    return dict(form=auth())\n\n\ndef download():\n    """\n    allows downloading of uploaded files\n    http://..../[app]/default/download/[filename]\n    """\n    return response.download(request,db)\n\n\ndef call():\n    """\n    exposes services. for example:\n    http://..../[app]/default/call/jsonrpc\n    decorate with @services.jsonrpc the functions to expose\n    supports xml, json, xmlrpc, jsonrpc, amfrpc, rss, csv\n    """\n    return service()\n\n\n@auth.requires_signature()\ndef data():\n    """\n    http://..../[app]/default/data/tables\n    http://..../[app]/default/data/create/[table]\n    http://..../[app]/default/data/read/[table]/[id]\n    http://..../[app]/default/data/update/[table]/[id]\n    http://..../[app]/default/data/delete/[table]/[id]\n    http://..../[app]/default/data/select/[table]\n    http://..../[app]/default/data/search/[table]\n    but URLs must be signed, i.e. linked with\n      A(\'table\',_href=URL(\'data/tables\',user_signature=True))\n    or with the signed load operator\n      LOAD(\'default\',\'data.load\',args=\'tables\',ajax=True,user_signature=True)\n    """\n    return dict(form=crud())\n\nresponse._vars=response._caller(index)\n'
p7
sS'snapshot'
p8
(dp9
S'exception'
p10
(dp11
S'__getslice__'
p12
S"<method-wrapper '__getslice__' of exceptions.SyntaxError object>"
p13
sS'text'
p14
S'"        new_table = DIV(TABLE(labels, options_fi...1px\'}, **table.attributes), _class=\'likert_box\')\\n"'
p15
sS'__str__'
p16
S"<method-wrapper '__str__' of exceptions.SyntaxError object>"
p17
sS'__reduce__'
p18
S'<built-in method __reduce__ of exceptions.SyntaxError object>'
p19
sS'__dict__'
p20
S'{}'
p21
sS'__sizeof__'
p22
S'<built-in method __sizeof__ of exceptions.SyntaxError object>'
p23
sS'__init__'
p24
S"<method-wrapper '__init__' of exceptions.SyntaxError object>"
p25
sS'__setattr__'
p26
S"<method-wrapper '__setattr__' of exceptions.SyntaxError object>"
p27
sS'__reduce_ex__'
p28
S'<built-in method __reduce_ex__ of exceptions.SyntaxError object>'
p29
sS'__new__'
p30
S'<built-in method __new__ of type object>'
p31
sS'__format__'
p32
S'<built-in method __format__ of exceptions.SyntaxError object>'
p33
sS'__class__'
p34
S"<type 'exceptions.SyntaxError'>"
p35
sS'filename'
p36
S"r'applications\\testumgebung\\modules\\plugin_kibit_widgets.py'"
p37
sS'lineno'
p38
S'49'
p39
sS'msg'
p40
S"'invalid syntax'"
p41
sS'__doc__'
p42
S"'Invalid syntax.'"
p43
sS'__getitem__'
p44
S"<method-wrapper '__getitem__' of exceptions.SyntaxError object>"
p45
sS'__setstate__'
p46
S'<built-in method __setstate__ of exceptions.SyntaxError object>'
p47
sS'__getattribute__'
p48
S"<method-wrapper '__getattribute__' of exceptions.SyntaxError object>"
p49
sS'print_file_and_line'
p50
S'None'
p51
sS'args'
p52
S'(\'invalid syntax\', (r\'applications\\testumgebung\\modules\\plugin_kibit_widgets.py\', 49, 82, "        new_table = DIV(TABLE(labels, options_fi...1px\'}, **table.attributes), _class=\'likert_box\')\\n"))'
p53
sS'__subclasshook__'
p54
S'<built-in method __subclasshook__ of type object>'
p55
sS'offset'
p56
S'82'
p57
sS'__unicode__'
p58
S'<built-in method __unicode__ of exceptions.SyntaxError object>'
p59
sS'__delattr__'
p60
S"<method-wrapper '__delattr__' of exceptions.SyntaxError object>"
p61
sS'__repr__'
p62
S"<method-wrapper '__repr__' of exceptions.SyntaxError object>"
p63
sS'__hash__'
p64
S"<method-wrapper '__hash__' of exceptions.SyntaxError object>"
p65
ssS'evalue'
p66
S'invalid syntax (plugin_kibit_widgets.py, line 49)'
p67
sS'request'
p68
ccopy_reg
_reconstructor
p69
(cgluon.html
BEAUTIFY
p70
c__builtin__
object
p71
NtRp72
(dp73
S'attributes'
p74
(dp75
sS'components'
p76
(lp77
g69
(cgluon.html
TABLE
p78
g71
NtRp79
(dp80
g74
(dp81
S'level'
p82
I5
ssS'parent'
p83
Nsg76
(lp84
g69
(cgluon.html
TR
p85
g71
NtRp86
(dp87
g74
(dp88
sg83
g79
sg76
(lp89
g69
(cgluon.html
TD
p90
g71
NtRp91
(dp92
g74
(dp93
S'_style'
p94
S'font-weight:bold;vertical-align:top'
p95
ssg83
g86
sg76
(lp96
S'ajax'
p97
asbag69
(g90
g71
NtRp98
(dp99
g74
(dp100
S'_valign'
p101
S'top'
p102
ssg83
g86
sg76
(lp103
S':'
asbag69
(g90
g71
NtRp104
(dp105
g74
(dp106
sg83
g86
sg76
(lp107
g69
(g70
g71
NtRp108
(dp109
g74
(dp110
g82
I5
ssg83
g104
sg76
(lp111
S'False'
p112
asbasbasbag69
(g85
g71
NtRp113
(dp114
g74
(dp115
sg83
g79
sg76
(lp116
g69
(g90
g71
NtRp117
(dp118
g74
(dp119
g94
g95
ssg83
g113
sg76
(lp120
S'application'
p121
asbag69
(g90
g71
NtRp122
(dp123
g74
(dp124
g101
g102
ssg83
g113
sg76
(lp125
S':'
asbag69
(g90
g71
NtRp126
(dp127
g74
(dp128
sg83
g113
sg76
(lp129
g69
(g70
g71
NtRp130
(dp131
g74
(dp132
g82
I5
ssg83
g126
sg76
(lp133
S'testumgebung'
p134
asbasbasbag69
(g85
g71
NtRp135
(dp136
g74
(dp137
sg83
g79
sg76
(lp138
g69
(g90
g71
NtRp139
(dp140
g74
(dp141
g94
g95
ssg83
g135
sg76
(lp142
g52
asbag69
(g90
g71
NtRp143
(dp144
g74
(dp145
g101
g102
ssg83
g135
sg76
(lp146
S':'
asbag69
(g90
g71
NtRp147
(dp148
g74
(dp149
sg83
g135
sg76
(lp150
g69
(g70
g71
NtRp151
(dp152
g74
(dp153
g82
I5
ssg83
g147
sg76
(lp154
g69
(g78
g71
NtRp155
(dp156
g74
(dp157
g82
I4
ssg83
Nsg76
(lp158
sbasbasbasbag69
(g85
g71
NtRp159
(dp160
g74
(dp161
sg83
g79
sg76
(lp162
g69
(g90
g71
NtRp163
(dp164
g74
(dp165
g94
g95
ssg83
g159
sg76
(lp166
S'body'
p167
asbag69
(g90
g71
NtRp168
(dp169
g74
(dp170
g101
g102
ssg83
g159
sg76
(lp171
S':'
asbag69
(g90
g71
NtRp172
(dp173
g74
(dp174
sg83
g159
sg76
(lp175
g69
(g70
g71
NtRp176
(dp177
g74
(dp178
g82
I5
ssg83
g172
sg76
(lp179
S'<cStringIO.StringO object at 0x06901E20>'
p180
asbasbasbag69
(g85
g71
NtRp181
(dp182
g74
(dp183
sg83
g79
sg76
(lp184
g69
(g90
g71
NtRp185
(dp186
g74
(dp187
g94
g95
ssg83
g181
sg76
(lp188
S'cid'
p189
asbag69
(g90
g71
NtRp190
(dp191
g74
(dp192
g101
g102
ssg83
g181
sg76
(lp193
S':'
asbag69
(g90
g71
NtRp194
(dp195
g74
(dp196
sg83
g181
sg76
(lp197
g69
(g70
g71
NtRp198
(dp199
g74
(dp200
g82
I5
ssg83
g194
sg76
(lp201
S'None'
p202
asbasbasbag69
(g85
g71
NtRp203
(dp204
g74
(dp205
sg83
g79
sg76
(lp206
g69
(g90
g71
NtRp207
(dp208
g74
(dp209
g94
g95
ssg83
g203
sg76
(lp210
S'client'
p211
asbag69
(g90
g71
NtRp212
(dp213
g74
(dp214
g101
g102
ssg83
g203
sg76
(lp215
S':'
asbag69
(g90
g71
NtRp216
(dp217
g74
(dp218
sg83
g203
sg76
(lp219
g69
(g70
g71
NtRp220
(dp221
g74
(dp222
g82
I5
ssg83
g216
sg76
(lp223
S'127.0.0.1'
p224
asbasbasbag69
(g85
g71
NtRp225
(dp226
g74
(dp227
sg83
g79
sg76
(lp228
g69
(g90
g71
NtRp229
(dp230
g74
(dp231
g94
g95
ssg83
g225
sg76
(lp232
S'controller'
p233
asbag69
(g90
g71
NtRp234
(dp235
g74
(dp236
g101
g102
ssg83
g225
sg76
(lp237
S':'
asbag69
(g90
g71
NtRp238
(dp239
g74
(dp240
sg83
g225
sg76
(lp241
g69
(g70
g71
NtRp242
(dp243
g74
(dp244
g82
I5
ssg83
g238
sg76
(lp245
S'default'
p246
asbasbasbag69
(g85
g71
NtRp247
(dp248
g74
(dp249
sg83
g79
sg76
(lp250
g69
(g90
g71
NtRp251
(dp252
g74
(dp253
g94
g95
ssg83
g247
sg76
(lp254
S'cookies'
p255
asbag69
(g90
g71
NtRp256
(dp257
g74
(dp258
g101
g102
ssg83
g247
sg76
(lp259
S':'
asbag69
(g90
g71
NtRp260
(dp261
g74
(dp262
sg83
g247
sg76
(lp263
g69
(g70
g71
NtRp264
(dp265
g74
(dp266
g82
I5
ssg83
g260
sg76
(lp267
g69
(g78
g71
NtRp268
(dp269
g74
(dp270
g82
I4
ssg83
Nsg76
(lp271
g69
(g85
g71
NtRp272
(dp273
g74
(dp274
sg83
g268
sg76
(lp275
g69
(g90
g71
NtRp276
(dp277
g74
(dp278
g94
g95
ssg83
g272
sg76
(lp279
S'session_id_admin'
p280
asbag69
(g90
g71
NtRp281
(dp282
g74
(dp283
g101
g102
ssg83
g272
sg76
(lp284
S':'
asbag69
(g90
g71
NtRp285
(dp286
g74
(dp287
sg83
g272
sg76
(lp288
g69
(g70
g71
NtRp289
(dp290
g74
(dp291
g82
I4
ssg83
g285
sg76
(lp292
S'127.0.0.1-68488cad-9e24-4639-ac03-e5ae8e169abe'
p293
ag69
(g78
g71
NtRp294
(dp295
g74
(dp296
g82
I3
ssg83
Nsg76
(lp297
g69
(g85
g71
NtRp298
(dp299
g74
(dp300
sg83
g294
sg76
(lp301
g69
(g90
g71
NtRp302
(dp303
g74
(dp304
g94
g95
ssg83
g298
sg76
(lp305
S'comment'
p306
asbag69
(g90
g71
NtRp307
(dp308
g74
(dp309
g101
g102
ssg83
g298
sg76
(lp310
S':'
asbag69
(g90
g71
NtRp311
(dp312
g74
(dp313
sg83
g298
sg76
(lp314
g69
(g70
g71
NtRp315
(dp316
g74
(dp317
g82
I3
ssg83
g311
sg76
(lp318
S''
asbasbasbag69
(g85
g71
NtRp319
(dp320
g74
(dp321
sg83
g294
sg76
(lp322
g69
(g90
g71
NtRp323
(dp324
g74
(dp325
g94
g95
ssg83
g319
sg76
(lp326
S'domain'
p327
asbag69
(g90
g71
NtRp328
(dp329
g74
(dp330
g101
g102
ssg83
g319
sg76
(lp331
S':'
asbag69
(g90
g71
NtRp332
(dp333
g74
(dp334
sg83
g319
sg76
(lp335
g69
(g70
g71
NtRp336
(dp337
g74
(dp338
g82
I3
ssg83
g332
sg76
(lp339
S''
asbasbasbag69
(g85
g71
NtRp340
(dp341
g74
(dp342
sg83
g294
sg76
(lp343
g69
(g90
g71
NtRp344
(dp345
g74
(dp346
g94
g95
ssg83
g340
sg76
(lp347
S'expires'
p348
asbag69
(g90
g71
NtRp349
(dp350
g74
(dp351
g101
g102
ssg83
g340
sg76
(lp352
S':'
asbag69
(g90
g71
NtRp353
(dp354
g74
(dp355
sg83
g340
sg76
(lp356
g69
(g70
g71
NtRp357
(dp358
g74
(dp359
g82
I3
ssg83
g353
sg76
(lp360
S''
asbasbasbag69
(g85
g71
NtRp361
(dp362
g74
(dp363
sg83
g294
sg76
(lp364
g69
(g90
g71
NtRp365
(dp366
g74
(dp367
g94
g95
ssg83
g361
sg76
(lp368
S'httponly'
p369
asbag69
(g90
g71
NtRp370
(dp371
g74
(dp372
g101
g102
ssg83
g361
sg76
(lp373
S':'
asbag69
(g90
g71
NtRp374
(dp375
g74
(dp376
sg83
g361
sg76
(lp377
g69
(g70
g71
NtRp378
(dp379
g74
(dp380
g82
I3
ssg83
g374
sg76
(lp381
S''
asbasbasbag69
(g85
g71
NtRp382
(dp383
g74
(dp384
sg83
g294
sg76
(lp385
g69
(g90
g71
NtRp386
(dp387
g74
(dp388
g94
g95
ssg83
g382
sg76
(lp389
S'max-age'
p390
asbag69
(g90
g71
NtRp391
(dp392
g74
(dp393
g101
g102
ssg83
g382
sg76
(lp394
S':'
asbag69
(g90
g71
NtRp395
(dp396
g74
(dp397
sg83
g382
sg76
(lp398
g69
(g70
g71
NtRp399
(dp400
g74
(dp401
g82
I3
ssg83
g395
sg76
(lp402
S''
asbasbasbag69
(g85
g71
NtRp403
(dp404
g74
(dp405
sg83
g294
sg76
(lp406
g69
(g90
g71
NtRp407
(dp408
g74
(dp409
g94
g95
ssg83
g403
sg76
(lp410
S'path'
p411
asbag69
(g90
g71
NtRp412
(dp413
g74
(dp414
g101
g102
ssg83
g403
sg76
(lp415
S':'
asbag69
(g90
g71
NtRp416
(dp417
g74
(dp418
sg83
g403
sg76
(lp419
g69
(g70
g71
NtRp420
(dp421
g74
(dp422
g82
I3
ssg83
g416
sg76
(lp423
S''
asbasbasbag69
(g85
g71
NtRp424
(dp425
g74
(dp426
sg83
g294
sg76
(lp427
g69
(g90
g71
NtRp428
(dp429
g74
(dp430
g94
g95
ssg83
g424
sg76
(lp431
S'secure'
p432
asbag69
(g90
g71
NtRp433
(dp434
g74
(dp435
g101
g102
ssg83
g424
sg76
(lp436
S':'
asbag69
(g90
g71
NtRp437
(dp438
g74
(dp439
sg83
g424
sg76
(lp440
g69
(g70
g71
NtRp441
(dp442
g74
(dp443
g82
I3
ssg83
g437
sg76
(lp444
S''
asbasbasbag69
(g85
g71
NtRp445
(dp446
g74
(dp447
sg83
g294
sg76
(lp448
g69
(g90
g71
NtRp449
(dp450
g74
(dp451
g94
g95
ssg83
g445
sg76
(lp452
S'version'
p453
asbag69
(g90
g71
NtRp454
(dp455
g74
(dp456
g101
g102
ssg83
g445
sg76
(lp457
S':'
asbag69
(g90
g71
NtRp458
(dp459
g74
(dp460
sg83
g445
sg76
(lp461
g69
(g70
g71
NtRp462
(dp463
g74
(dp464
g82
I3
ssg83
g458
sg76
(lp465
S''
asbasbasbasbasbasbasbag69
(g85
g71
NtRp466
(dp467
g74
(dp468
sg83
g268
sg76
(lp469
g69
(g90
g71
NtRp470
(dp471
g74
(dp472
g94
g95
ssg83
g466
sg76
(lp473
S'session_id_testumgebung'
p474
asbag69
(g90
g71
NtRp475
(dp476
g74
(dp477
g101
g102
ssg83
g466
sg76
(lp478
S':'
asbag69
(g90
g71
NtRp479
(dp480
g74
(dp481
sg83
g466
sg76
(lp482
g69
(g70
g71
NtRp483
(dp484
g74
(dp485
g82
I4
ssg83
g479
sg76
(lp486
S'127.0.0.1-0516a7a8-1a9f-40bf-950c-da43d5cea819'
p487
ag69
(g78
g71
NtRp488
(dp489
g74
(dp490
g82
I3
ssg83
Nsg76
(lp491
g69
(g85
g71
NtRp492
(dp493
g74
(dp494
sg83
g488
sg76
(lp495
g69
(g90
g71
NtRp496
(dp497
g74
(dp498
g94
g95
ssg83
g492
sg76
(lp499
g306
asbag69
(g90
g71
NtRp500
(dp501
g74
(dp502
g101
g102
ssg83
g492
sg76
(lp503
S':'
asbag69
(g90
g71
NtRp504
(dp505
g74
(dp506
sg83
g492
sg76
(lp507
g69
(g70
g71
NtRp508
(dp509
g74
(dp510
g82
I3
ssg83
g504
sg76
(lp511
S''
asbasbasbag69
(g85
g71
NtRp512
(dp513
g74
(dp514
sg83
g488
sg76
(lp515
g69
(g90
g71
NtRp516
(dp517
g74
(dp518
g94
g95
ssg83
g512
sg76
(lp519
g327
asbag69
(g90
g71
NtRp520
(dp521
g74
(dp522
g101
g102
ssg83
g512
sg76
(lp523
S':'
asbag69
(g90
g71
NtRp524
(dp525
g74
(dp526
sg83
g512
sg76
(lp527
g69
(g70
g71
NtRp528
(dp529
g74
(dp530
g82
I3
ssg83
g524
sg76
(lp531
S''
asbasbasbag69
(g85
g71
NtRp532
(dp533
g74
(dp534
sg83
g488
sg76
(lp535
g69
(g90
g71
NtRp536
(dp537
g74
(dp538
g94
g95
ssg83
g532
sg76
(lp539
g348
asbag69
(g90
g71
NtRp540
(dp541
g74
(dp542
g101
g102
ssg83
g532
sg76
(lp543
S':'
asbag69
(g90
g71
NtRp544
(dp545
g74
(dp546
sg83
g532
sg76
(lp547
g69
(g70
g71
NtRp548
(dp549
g74
(dp550
g82
I3
ssg83
g544
sg76
(lp551
S''
asbasbasbag69
(g85
g71
NtRp552
(dp553
g74
(dp554
sg83
g488
sg76
(lp555
g69
(g90
g71
NtRp556
(dp557
g74
(dp558
g94
g95
ssg83
g552
sg76
(lp559
g369
asbag69
(g90
g71
NtRp560
(dp561
g74
(dp562
g101
g102
ssg83
g552
sg76
(lp563
S':'
asbag69
(g90
g71
NtRp564
(dp565
g74
(dp566
sg83
g552
sg76
(lp567
g69
(g70
g71
NtRp568
(dp569
g74
(dp570
g82
I3
ssg83
g564
sg76
(lp571
S''
asbasbasbag69
(g85
g71
NtRp572
(dp573
g74
(dp574
sg83
g488
sg76
(lp575
g69
(g90
g71
NtRp576
(dp577
g74
(dp578
g94
g95
ssg83
g572
sg76
(lp579
g390
asbag69
(g90
g71
NtRp580
(dp581
g74
(dp582
g101
g102
ssg83
g572
sg76
(lp583
S':'
asbag69
(g90
g71
NtRp584
(dp585
g74
(dp586
sg83
g572
sg76
(lp587
g69
(g70
g71
NtRp588
(dp589
g74
(dp590
g82
I3
ssg83
g584
sg76
(lp591
S''
asbasbasbag69
(g85
g71
NtRp592
(dp593
g74
(dp594
sg83
g488
sg76
(lp595
g69
(g90
g71
NtRp596
(dp597
g74
(dp598
g94
g95
ssg83
g592
sg76
(lp599
g411
asbag69
(g90
g71
NtRp600
(dp601
g74
(dp602
g101
g102
ssg83
g592
sg76
(lp603
S':'
asbag69
(g90
g71
NtRp604
(dp605
g74
(dp606
sg83
g592
sg76
(lp607
g69
(g70
g71
NtRp608
(dp609
g74
(dp610
g82
I3
ssg83
g604
sg76
(lp611
S''
asbasbasbag69
(g85
g71
NtRp612
(dp613
g74
(dp614
sg83
g488
sg76
(lp615
g69
(g90
g71
NtRp616
(dp617
g74
(dp618
g94
g95
ssg83
g612
sg76
(lp619
g432
asbag69
(g90
g71
NtRp620
(dp621
g74
(dp622
g101
g102
ssg83
g612
sg76
(lp623
S':'
asbag69
(g90
g71
NtRp624
(dp625
g74
(dp626
sg83
g612
sg76
(lp627
g69
(g70
g71
NtRp628
(dp629
g74
(dp630
g82
I3
ssg83
g624
sg76
(lp631
S''
asbasbasbag69
(g85
g71
NtRp632
(dp633
g74
(dp634
sg83
g488
sg76
(lp635
g69
(g90
g71
NtRp636
(dp637
g74
(dp638
g94
g95
ssg83
g632
sg76
(lp639
g453
asbag69
(g90
g71
NtRp640
(dp641
g74
(dp642
g101
g102
ssg83
g632
sg76
(lp643
S':'
asbag69
(g90
g71
NtRp644
(dp645
g74
(dp646
sg83
g632
sg76
(lp647
g69
(g70
g71
NtRp648
(dp649
g74
(dp650
g82
I3
ssg83
g644
sg76
(lp651
S''
asbasbasbasbasbasbasbag69
(g85
g71
NtRp652
(dp653
g74
(dp654
sg83
g268
sg76
(lp655
g69
(g90
g71
NtRp656
(dp657
g74
(dp658
g94
g95
ssg83
g652
sg76
(lp659
S'session_id_welcome'
p660
asbag69
(g90
g71
NtRp661
(dp662
g74
(dp663
g101
g102
ssg83
g652
sg76
(lp664
S':'
asbag69
(g90
g71
NtRp665
(dp666
g74
(dp667
sg83
g652
sg76
(lp668
g69
(g70
g71
NtRp669
(dp670
g74
(dp671
g82
I4
ssg83
g665
sg76
(lp672
S'127.0.0.1-8951b67b-0375-49c3-abd6-9cc682af46bd'
p673
ag69
(g78
g71
NtRp674
(dp675
g74
(dp676
g82
I3
ssg83
Nsg76
(lp677
g69
(g85
g71
NtRp678
(dp679
g74
(dp680
sg83
g674
sg76
(lp681
g69
(g90
g71
NtRp682
(dp683
g74
(dp684
g94
g95
ssg83
g678
sg76
(lp685
g306
asbag69
(g90
g71
NtRp686
(dp687
g74
(dp688
g101
g102
ssg83
g678
sg76
(lp689
S':'
asbag69
(g90
g71
NtRp690
(dp691
g74
(dp692
sg83
g678
sg76
(lp693
g69
(g70
g71
NtRp694
(dp695
g74
(dp696
g82
I3
ssg83
g690
sg76
(lp697
S''
asbasbasbag69
(g85
g71
NtRp698
(dp699
g74
(dp700
sg83
g674
sg76
(lp701
g69
(g90
g71
NtRp702
(dp703
g74
(dp704
g94
g95
ssg83
g698
sg76
(lp705
g327
asbag69
(g90
g71
NtRp706
(dp707
g74
(dp708
g101
g102
ssg83
g698
sg76
(lp709
S':'
asbag69
(g90
g71
NtRp710
(dp711
g74
(dp712
sg83
g698
sg76
(lp713
g69
(g70
g71
NtRp714
(dp715
g74
(dp716
g82
I3
ssg83
g710
sg76
(lp717
S''
asbasbasbag69
(g85
g71
NtRp718
(dp719
g74
(dp720
sg83
g674
sg76
(lp721
g69
(g90
g71
NtRp722
(dp723
g74
(dp724
g94
g95
ssg83
g718
sg76
(lp725
g348
asbag69
(g90
g71
NtRp726
(dp727
g74
(dp728
g101
g102
ssg83
g718
sg76
(lp729
S':'
asbag69
(g90
g71
NtRp730
(dp731
g74
(dp732
sg83
g718
sg76
(lp733
g69
(g70
g71
NtRp734
(dp735
g74
(dp736
g82
I3
ssg83
g730
sg76
(lp737
S''
asbasbasbag69
(g85
g71
NtRp738
(dp739
g74
(dp740
sg83
g674
sg76
(lp741
g69
(g90
g71
NtRp742
(dp743
g74
(dp744
g94
g95
ssg83
g738
sg76
(lp745
g369
asbag69
(g90
g71
NtRp746
(dp747
g74
(dp748
g101
g102
ssg83
g738
sg76
(lp749
S':'
asbag69
(g90
g71
NtRp750
(dp751
g74
(dp752
sg83
g738
sg76
(lp753
g69
(g70
g71
NtRp754
(dp755
g74
(dp756
g82
I3
ssg83
g750
sg76
(lp757
S''
asbasbasbag69
(g85
g71
NtRp758
(dp759
g74
(dp760
sg83
g674
sg76
(lp761
g69
(g90
g71
NtRp762
(dp763
g74
(dp764
g94
g95
ssg83
g758
sg76
(lp765
g390
asbag69
(g90
g71
NtRp766
(dp767
g74
(dp768
g101
g102
ssg83
g758
sg76
(lp769
S':'
asbag69
(g90
g71
NtRp770
(dp771
g74
(dp772
sg83
g758
sg76
(lp773
g69
(g70
g71
NtRp774
(dp775
g74
(dp776
g82
I3
ssg83
g770
sg76
(lp777
S''
asbasbasbag69
(g85
g71
NtRp778
(dp779
g74
(dp780
sg83
g674
sg76
(lp781
g69
(g90
g71
NtRp782
(dp783
g74
(dp784
g94
g95
ssg83
g778
sg76
(lp785
g411
asbag69
(g90
g71
NtRp786
(dp787
g74
(dp788
g101
g102
ssg83
g778
sg76
(lp789
S':'
asbag69
(g90
g71
NtRp790
(dp791
g74
(dp792
sg83
g778
sg76
(lp793
g69
(g70
g71
NtRp794
(dp795
g74
(dp796
g82
I3
ssg83
g790
sg76
(lp797
S''
asbasbasbag69
(g85
g71
NtRp798
(dp799
g74
(dp800
sg83
g674
sg76
(lp801
g69
(g90
g71
NtRp802
(dp803
g74
(dp804
g94
g95
ssg83
g798
sg76
(lp805
g432
asbag69
(g90
g71
NtRp806
(dp807
g74
(dp808
g101
g102
ssg83
g798
sg76
(lp809
S':'
asbag69
(g90
g71
NtRp810
(dp811
g74
(dp812
sg83
g798
sg76
(lp813
g69
(g70
g71
NtRp814
(dp815
g74
(dp816
g82
I3
ssg83
g810
sg76
(lp817
S''
asbasbasbag69
(g85
g71
NtRp818
(dp819
g74
(dp820
sg83
g674
sg76
(lp821
g69
(g90
g71
NtRp822
(dp823
g74
(dp824
g94
g95
ssg83
g818
sg76
(lp825
g453
asbag69
(g90
g71
NtRp826
(dp827
g74
(dp828
g101
g102
ssg83
g818
sg76
(lp829
S':'
asbag69
(g90
g71
NtRp830
(dp831
g74
(dp832
sg83
g818
sg76
(lp833
g69
(g70
g71
NtRp834
(dp835
g74
(dp836
g82
I3
ssg83
g830
sg76
(lp837
S''
asbasbasbasbasbasbasbasbasbasbasbag69
(g85
g71
NtRp838
(dp839
g74
(dp840
sg83
g79
sg76
(lp841
g69
(g90
g71
NtRp842
(dp843
g74
(dp844
g94
g95
ssg83
g838
sg76
(lp845
S'env'
p846
asbag69
(g90
g71
NtRp847
(dp848
g74
(dp849
g101
g102
ssg83
g838
sg76
(lp850
S':'
asbag69
(g90
g71
NtRp851
(dp852
g74
(dp853
sg83
g838
sg76
(lp854
g69
(g70
g71
NtRp855
(dp856
g74
(dp857
g82
I5
ssg83
g851
sg76
(lp858
g69
(g78
g71
NtRp859
(dp860
g74
(dp861
g82
I4
ssg83
Nsg76
(lp862
g69
(g85
g71
NtRp863
(dp864
g74
(dp865
sg83
g859
sg76
(lp866
g69
(g90
g71
NtRp867
(dp868
g74
(dp869
g94
g95
ssg83
g863
sg76
(lp870
S'app_folders'
p871
asbag69
(g90
g71
NtRp872
(dp873
g74
(dp874
g101
g102
ssg83
g863
sg76
(lp875
S':'
asbag69
(g90
g71
NtRp876
(dp877
g74
(dp878
sg83
g863
sg76
(lp879
g69
(g70
g71
NtRp880
(dp881
g74
(dp882
g82
I4
ssg83
g876
sg76
(lp883
S"set(['C:\\\\xampp\\\\htdocs\\\\web2py\\\\applications\\\\admin\\\\', 'C:\\\\xampp\\\\htdocs\\\\web2py\\\\applications\\\\welcome\\\\', 'C:\\\\xampp\\\\htdocs\\\\web2py\\\\applications\\\\testumgebung\\\\'])"
p884
asbasbasbag69
(g85
g71
NtRp885
(dp886
g74
(dp887
sg83
g859
sg76
(lp888
g69
(g90
g71
NtRp889
(dp890
g74
(dp891
g94
g95
ssg83
g885
sg76
(lp892
S'applications_parent'
p893
asbag69
(g90
g71
NtRp894
(dp895
g74
(dp896
g101
g102
ssg83
g885
sg76
(lp897
S':'
asbag69
(g90
g71
NtRp898
(dp899
g74
(dp900
sg83
g885
sg76
(lp901
g69
(g70
g71
NtRp902
(dp903
g74
(dp904
g82
I4
ssg83
g898
sg76
(lp905
S'C:\\xampp\\htdocs\\web2py'
p906
asbasbasbag69
(g85
g71
NtRp907
(dp908
g74
(dp909
sg83
g859
sg76
(lp910
g69
(g90
g71
NtRp911
(dp912
g74
(dp913
g94
g95
ssg83
g907
sg76
(lp914
S'cmd_args'
p915
asbag69
(g90
g71
NtRp916
(dp917
g74
(dp918
g101
g102
ssg83
g907
sg76
(lp919
S':'
asbag69
(g90
g71
NtRp920
(dp921
g74
(dp922
sg83
g907
sg76
(lp923
g69
(g70
g71
NtRp924
(dp925
g74
(dp926
g82
I4
ssg83
g920
sg76
(lp927
g69
(g78
g71
NtRp928
(dp929
g74
(dp930
g82
I3
ssg83
Nsg76
(lp931
sbasbasbasbag69
(g85
g71
NtRp932
(dp933
g74
(dp934
sg83
g859
sg76
(lp935
g69
(g90
g71
NtRp936
(dp937
g74
(dp938
g94
g95
ssg83
g932
sg76
(lp939
S'cmd_options'
p940
asbag69
(g90
g71
NtRp941
(dp942
g74
(dp943
g101
g102
ssg83
g932
sg76
(lp944
S':'
asbag69
(g90
g71
NtRp945
(dp946
g74
(dp947
sg83
g932
sg76
(lp948
g69
(g70
g71
NtRp949
(dp950
g74
(dp951
g82
I4
ssg83
g945
sg76
(lp952
S"<Values at 0x2c68e18: {'verbose': False, 'ip': '127.0.0.1', 'with_scheduler': False, 'ips': ['10.0.0.109', '192.168.189.1', '192.168.91.1'], 'shutdown_timeout': 5, 'taskbar': False, 'port': 8000, 'maxthreads': None, 'softcron': False, 'server_name': 'swLaptop', 'bpython': False, 'nogui': False, 'nocron': False, 'extcron': False, 'run_system_tests': False, 'test': None, 'folder': 'C:\\\\xampp\\\\htdocs\\\\web2py', 'config': '', 'import_models': False, 'winservice': '', 'shell': None, 'run': '', 'log_filename': 'httpserver.log', 'debuglevel': 30, 'args': [''], 'socket_timeout': 5, 'ssl_ca_certificate': None, 'scheduler': None, 'profiler_filename': None, 'ssl_private_key': '', 'scheduler_groups': None, 'password': '<ask>', 'request_queue_size': 5, 'ssl_certificate': '', 'cronjob': False, 'numthreads': None, 'quiet': False, 'interfaces': None, 'minthreads': None, 'timeout': 10, 'plain': False, 'nobanner': False, 'pid_filename': 'httpserver.pid'}>"
p953
asbasbasbag69
(g85
g71
NtRp954
(dp955
g74
(dp956
sg83
g859
sg76
(lp957
g69
(g90
g71
NtRp958
(dp959
g74
(dp960
g94
g95
ssg83
g954
sg76
(lp961
S'db_sessions'
p962
asbag69
(g90
g71
NtRp963
(dp964
g74
(dp965
g101
g102
ssg83
g954
sg76
(lp966
S':'
asbag69
(g90
g71
NtRp967
(dp968
g74
(dp969
sg83
g954
sg76
(lp970
g69
(g70
g71
NtRp971
(dp972
g74
(dp973
g82
I4
ssg83
g967
sg76
(lp974
S'set([])'
p975
asbasbasbag69
(g85
g71
NtRp976
(dp977
g74
(dp978
sg83
g859
sg76
(lp979
g69
(g90
g71
NtRp980
(dp981
g74
(dp982
g94
g95
ssg83
g976
sg76
(lp983
S'debugging'
p984
asbag69
(g90
g71
NtRp985
(dp986
g74
(dp987
g101
g102
ssg83
g976
sg76
(lp988
S':'
asbag69
(g90
g71
NtRp989
(dp990
g74
(dp991
sg83
g976
sg76
(lp992
g69
(g70
g71
NtRp993
(dp994
g74
(dp995
g82
I4
ssg83
g989
sg76
(lp996
g112
asbasbasbag69
(g85
g71
NtRp997
(dp998
g74
(dp999
sg83
g859
sg76
(lp1000
g69
(g90
g71
NtRp1001
(dp1002
g74
(dp1003
g94
g95
ssg83
g997
sg76
(lp1004
S'gluon_parent'
p1005
asbag69
(g90
g71
NtRp1006
(dp1007
g74
(dp1008
g101
g102
ssg83
g997
sg76
(lp1009
S':'
asbag69
(g90
g71
NtRp1010
(dp1011
g74
(dp1012
sg83
g997
sg76
(lp1013
g69
(g70
g71
NtRp1014
(dp1015
g74
(dp1016
g82
I4
ssg83
g1010
sg76
(lp1017
S'C:\\xampp\\htdocs\\web2py'
p1018
asbasbasbag69
(g85
g71
NtRp1019
(dp1020
g74
(dp1021
sg83
g859
sg76
(lp1022
g69
(g90
g71
NtRp1023
(dp1024
g74
(dp1025
g94
g95
ssg83
g1019
sg76
(lp1026
S'http_accept'
p1027
asbag69
(g90
g71
NtRp1028
(dp1029
g74
(dp1030
g101
g102
ssg83
g1019
sg76
(lp1031
S':'
asbag69
(g90
g71
NtRp1032
(dp1033
g74
(dp1034
sg83
g1019
sg76
(lp1035
g69
(g70
g71
NtRp1036
(dp1037
g74
(dp1038
g82
I4
ssg83
g1032
sg76
(lp1039
S'text/html,application/xhtml+xml,application/xml;q=0.9,*/*;q=0.8'
p1040
asbasbasbag69
(g85
g71
NtRp1041
(dp1042
g74
(dp1043
sg83
g859
sg76
(lp1044
g69
(g90
g71
NtRp1045
(dp1046
g74
(dp1047
g94
g95
ssg83
g1041
sg76
(lp1048
S'http_accept_encoding'
p1049
asbag69
(g90
g71
NtRp1050
(dp1051
g74
(dp1052
g101
g102
ssg83
g1041
sg76
(lp1053
S':'
asbag69
(g90
g71
NtRp1054
(dp1055
g74
(dp1056
sg83
g1041
sg76
(lp1057
g69
(g70
g71
NtRp1058
(dp1059
g74
(dp1060
g82
I4
ssg83
g1054
sg76
(lp1061
S'gzip, deflate'
p1062
asbasbasbag69
(g85
g71
NtRp1063
(dp1064
g74
(dp1065
sg83
g859
sg76
(lp1066
g69
(g90
g71
NtRp1067
(dp1068
g74
(dp1069
g94
g95
ssg83
g1063
sg76
(lp1070
S'http_accept_language'
p1071
asbag69
(g90
g71
NtRp1072
(dp1073
g74
(dp1074
g101
g102
ssg83
g1063
sg76
(lp1075
S':'
asbag69
(g90
g71
NtRp1076
(dp1077
g74
(dp1078
sg83
g1063
sg76
(lp1079
g69
(g70
g71
NtRp1080
(dp1081
g74
(dp1082
g82
I4
ssg83
g1076
sg76
(lp1083
S'de-de,de;q=0.8,en-us;q=0.5,en;q=0.3'
p1084
asbasbasbag69
(g85
g71
NtRp1085
(dp1086
g74
(dp1087
sg83
g859
sg76
(lp1088
g69
(g90
g71
NtRp1089
(dp1090
g74
(dp1091
g94
g95
ssg83
g1085
sg76
(lp1092
S'http_cache_control'
p1093
asbag69
(g90
g71
NtRp1094
(dp1095
g74
(dp1096
g101
g102
ssg83
g1085
sg76
(lp1097
S':'
asbag69
(g90
g71
NtRp1098
(dp1099
g74
(dp1100
sg83
g1085
sg76
(lp1101
g69
(g70
g71
NtRp1102
(dp1103
g74
(dp1104
g82
I4
ssg83
g1098
sg76
(lp1105
S'max-age=0'
p1106
asbasbasbag69
(g85
g71
NtRp1107
(dp1108
g74
(dp1109
sg83
g859
sg76
(lp1110
g69
(g90
g71
NtRp1111
(dp1112
g74
(dp1113
g94
g95
ssg83
g1107
sg76
(lp1114
S'http_connection'
p1115
asbag69
(g90
g71
NtRp1116
(dp1117
g74
(dp1118
g101
g102
ssg83
g1107
sg76
(lp1119
S':'
asbag69
(g90
g71
NtRp1120
(dp1121
g74
(dp1122
sg83
g1107
sg76
(lp1123
g69
(g70
g71
NtRp1124
(dp1125
g74
(dp1126
g82
I4
ssg83
g1120
sg76
(lp1127
S'keep-alive'
p1128
asbasbasbag69
(g85
g71
NtRp1129
(dp1130
g74
(dp1131
sg83
g859
sg76
(lp1132
g69
(g90
g71
NtRp1133
(dp1134
g74
(dp1135
g94
g95
ssg83
g1129
sg76
(lp1136
S'http_cookie'
p1137
asbag69
(g90
g71
NtRp1138
(dp1139
g74
(dp1140
g101
g102
ssg83
g1129
sg76
(lp1141
S':'
asbag69
(g90
g71
NtRp1142
(dp1143
g74
(dp1144
sg83
g1129
sg76
(lp1145
g69
(g70
g71
NtRp1146
(dp1147
g74
(dp1148
g82
I4
ssg83
g1142
sg76
(lp1149
S'session_id_welcome=127.0.0.1-8951b67b-0375-49c3-abd6-9cc682af46bd; session_id_testumgebung=127.0.0.1-0516a7a8-1a9f-40bf-950c-da43d5cea819; session_id_admin=127.0.0.1-68488cad-9e24-4639-ac03-e5ae8e169abe'
p1150
asbasbasbag69
(g85
g71
NtRp1151
(dp1152
g74
(dp1153
sg83
g859
sg76
(lp1154
g69
(g90
g71
NtRp1155
(dp1156
g74
(dp1157
g94
g95
ssg83
g1151
sg76
(lp1158
S'http_dnt'
p1159
asbag69
(g90
g71
NtRp1160
(dp1161
g74
(dp1162
g101
g102
ssg83
g1151
sg76
(lp1163
S':'
asbag69
(g90
g71
NtRp1164
(dp1165
g74
(dp1166
sg83
g1151
sg76
(lp1167
g69
(g70
g71
NtRp1168
(dp1169
g74
(dp1170
g82
I4
ssg83
g1164
sg76
(lp1171
S'1'
asbasbasbag69
(g85
g71
NtRp1172
(dp1173
g74
(dp1174
sg83
g859
sg76
(lp1175
g69
(g90
g71
NtRp1176
(dp1177
g74
(dp1178
g94
g95
ssg83
g1172
sg76
(lp1179
S'http_host'
p1180
asbag69
(g90
g71
NtRp1181
(dp1182
g74
(dp1183
g101
g102
ssg83
g1172
sg76
(lp1184
S':'
asbag69
(g90
g71
NtRp1185
(dp1186
g74
(dp1187
sg83
g1172
sg76
(lp1188
g69
(g70
g71
NtRp1189
(dp1190
g74
(dp1191
g82
I4
ssg83
g1185
sg76
(lp1192
S'127.0.0.1:8000'
p1193
asbasbasbag69
(g85
g71
NtRp1194
(dp1195
g74
(dp1196
sg83
g859
sg76
(lp1197
g69
(g90
g71
NtRp1198
(dp1199
g74
(dp1200
g94
g95
ssg83
g1194
sg76
(lp1201
S'http_user_agent'
p1202
asbag69
(g90
g71
NtRp1203
(dp1204
g74
(dp1205
g101
g102
ssg83
g1194
sg76
(lp1206
S':'
asbag69
(g90
g71
NtRp1207
(dp1208
g74
(dp1209
sg83
g1194
sg76
(lp1210
g69
(g70
g71
NtRp1211
(dp1212
g74
(dp1213
g82
I4
ssg83
g1207
sg76
(lp1214
S'Mozilla/5.0 (Windows NT 6.1; WOW64; rv:17.0) Gecko/20100101 Firefox/17.0'
p1215
asbasbasbag69
(g85
g71
NtRp1216
(dp1217
g74
(dp1218
sg83
g859
sg76
(lp1219
g69
(g90
g71
NtRp1220
(dp1221
g74
(dp1222
g94
g95
ssg83
g1216
sg76
(lp1223
S'http_x_clickoncesupport'
p1224
asbag69
(g90
g71
NtRp1225
(dp1226
g74
(dp1227
g101
g102
ssg83
g1216
sg76
(lp1228
S':'
asbag69
(g90
g71
NtRp1229
(dp1230
g74
(dp1231
sg83
g1216
sg76
(lp1232
g69
(g70
g71
NtRp1233
(dp1234
g74
(dp1235
g82
I4
ssg83
g1229
sg76
(lp1236
S'(.NET CLR 2.0.50727; .NET CLR 3.5.30729; .NET CLR 3.0.30729; .NET4.0C; .NET4.0E)'
p1237
asbasbasbag69
(g85
g71
NtRp1238
(dp1239
g74
(dp1240
sg83
g859
sg76
(lp1241
g69
(g90
g71
NtRp1242
(dp1243
g74
(dp1244
g94
g95
ssg83
g1238
sg76
(lp1245
S'is_jython'
p1246
asbag69
(g90
g71
NtRp1247
(dp1248
g74
(dp1249
g101
g102
ssg83
g1238
sg76
(lp1250
S':'
asbag69
(g90
g71
NtRp1251
(dp1252
g74
(dp1253
sg83
g1238
sg76
(lp1254
g69
(g70
g71
NtRp1255
(dp1256
g74
(dp1257
g82
I4
ssg83
g1251
sg76
(lp1258
g112
asbasbasbag69
(g85
g71
NtRp1259
(dp1260
g74
(dp1261
sg83
g859
sg76
(lp1262
g69
(g90
g71
NtRp1263
(dp1264
g74
(dp1265
g94
g95
ssg83
g1259
sg76
(lp1266
S'is_pypy'
p1267
asbag69
(g90
g71
NtRp1268
(dp1269
g74
(dp1270
g101
g102
ssg83
g1259
sg76
(lp1271
S':'
asbag69
(g90
g71
NtRp1272
(dp1273
g74
(dp1274
sg83
g1259
sg76
(lp1275
g69
(g70
g71
NtRp1276
(dp1277
g74
(dp1278
g82
I4
ssg83
g1272
sg76
(lp1279
g112
asbasbasbag69
(g85
g71
NtRp1280
(dp1281
g74
(dp1282
sg83
g859
sg76
(lp1283
g69
(g90
g71
NtRp1284
(dp1285
g74
(dp1286
g94
g95
ssg83
g1280
sg76
(lp1287
S'path_info'
p1288
asbag69
(g90
g71
NtRp1289
(dp1290
g74
(dp1291
g101
g102
ssg83
g1280
sg76
(lp1292
S':'
asbag69
(g90
g71
NtRp1293
(dp1294
g74
(dp1295
sg83
g1280
sg76
(lp1296
g69
(g70
g71
NtRp1297
(dp1298
g74
(dp1299
g82
I4
ssg83
g1293
sg76
(lp1300
S'/testumgebung'
p1301
asbasbasbag69
(g85
g71
NtRp1302
(dp1303
g74
(dp1304
sg83
g859
sg76
(lp1305
g69
(g90
g71
NtRp1306
(dp1307
g74
(dp1308
g94
g95
ssg83
g1302
sg76
(lp1309
S'query_string'
p1310
asbag69
(g90
g71
NtRp1311
(dp1312
g74
(dp1313
g101
g102
ssg83
g1302
sg76
(lp1314
S':'
asbag69
(g90
g71
NtRp1315
(dp1316
g74
(dp1317
sg83
g1302
sg76
(lp1318
g69
(g70
g71
NtRp1319
(dp1320
g74
(dp1321
g82
I4
ssg83
g1315
sg76
(lp1322
S''
asbasbasbag69
(g85
g71
NtRp1323
(dp1324
g74
(dp1325
sg83
g859
sg76
(lp1326
g69
(g90
g71
NtRp1327
(dp1328
g74
(dp1329
g94
g95
ssg83
g1323
sg76
(lp1330
S'remote_addr'
p1331
asbag69
(g90
g71
NtRp1332
(dp1333
g74
(dp1334
g101
g102
ssg83
g1323
sg76
(lp1335
S':'
asbag69
(g90
g71
NtRp1336
(dp1337
g74
(dp1338
sg83
g1323
sg76
(lp1339
g69
(g70
g71
NtRp1340
(dp1341
g74
(dp1342
g82
I4
ssg83
g1336
sg76
(lp1343
g224
asbasbasbag69
(g85
g71
NtRp1344
(dp1345
g74
(dp1346
sg83
g859
sg76
(lp1347
g69
(g90
g71
NtRp1348
(dp1349
g74
(dp1350
g94
g95
ssg83
g1344
sg76
(lp1351
S'remote_port'
p1352
asbag69
(g90
g71
NtRp1353
(dp1354
g74
(dp1355
g101
g102
ssg83
g1344
sg76
(lp1356
S':'
asbag69
(g90
g71
NtRp1357
(dp1358
g74
(dp1359
sg83
g1344
sg76
(lp1360
g69
(g70
g71
NtRp1361
(dp1362
g74
(dp1363
g82
I4
ssg83
g1357
sg76
(lp1364
S'50323'
p1365
asbasbasbag69
(g85
g71
NtRp1366
(dp1367
g74
(dp1368
sg83
g859
sg76
(lp1369
g69
(g90
g71
NtRp1370
(dp1371
g74
(dp1372
g94
g95
ssg83
g1366
sg76
(lp1373
S'request_method'
p1374
asbag69
(g90
g71
NtRp1375
(dp1376
g74
(dp1377
g101
g102
ssg83
g1366
sg76
(lp1378
S':'
asbag69
(g90
g71
NtRp1379
(dp1380
g74
(dp1381
sg83
g1366
sg76
(lp1382
g69
(g70
g71
NtRp1383
(dp1384
g74
(dp1385
g82
I4
ssg83
g1379
sg76
(lp1386
S'GET'
p1387
asbasbasbag69
(g85
g71
NtRp1388
(dp1389
g74
(dp1390
sg83
g859
sg76
(lp1391
g69
(g90
g71
NtRp1392
(dp1393
g74
(dp1394
g94
g95
ssg83
g1388
sg76
(lp1395
S'request_uri'
p1396
asbag69
(g90
g71
NtRp1397
(dp1398
g74
(dp1399
g101
g102
ssg83
g1388
sg76
(lp1400
S':'
asbag69
(g90
g71
NtRp1401
(dp1402
g74
(dp1403
sg83
g1388
sg76
(lp1404
g69
(g70
g71
NtRp1405
(dp1406
g74
(dp1407
g82
I4
ssg83
g1401
sg76
(lp1408
g1301
asbasbasbag69
(g85
g71
NtRp1409
(dp1410
g74
(dp1411
sg83
g859
sg76
(lp1412
g69
(g90
g71
NtRp1413
(dp1414
g74
(dp1415
g94
g95
ssg83
g1409
sg76
(lp1416
S'script_name'
p1417
asbag69
(g90
g71
NtRp1418
(dp1419
g74
(dp1420
g101
g102
ssg83
g1409
sg76
(lp1421
S':'
asbag69
(g90
g71
NtRp1422
(dp1423
g74
(dp1424
sg83
g1409
sg76
(lp1425
g69
(g70
g71
NtRp1426
(dp1427
g74
(dp1428
g82
I4
ssg83
g1422
sg76
(lp1429
S''
asbasbasbag69
(g85
g71
NtRp1430
(dp1431
g74
(dp1432
sg83
g859
sg76
(lp1433
g69
(g90
g71
NtRp1434
(dp1435
g74
(dp1436
g94
g95
ssg83
g1430
sg76
(lp1437
S'server_name'
p1438
asbag69
(g90
g71
NtRp1439
(dp1440
g74
(dp1441
g101
g102
ssg83
g1430
sg76
(lp1442
S':'
asbag69
(g90
g71
NtRp1443
(dp1444
g74
(dp1445
sg83
g1430
sg76
(lp1446
g69
(g70
g71
NtRp1447
(dp1448
g74
(dp1449
g82
I4
ssg83
g1443
sg76
(lp1450
S'swLaptop'
p1451
asbasbasbag69
(g85
g71
NtRp1452
(dp1453
g74
(dp1454
sg83
g859
sg76
(lp1455
g69
(g90
g71
NtRp1456
(dp1457
g74
(dp1458
g94
g95
ssg83
g1452
sg76
(lp1459
S'server_port'
p1460
asbag69
(g90
g71
NtRp1461
(dp1462
g74
(dp1463
g101
g102
ssg83
g1452
sg76
(lp1464
S':'
asbag69
(g90
g71
NtRp1465
(dp1466
g74
(dp1467
sg83
g1452
sg76
(lp1468
g69
(g70
g71
NtRp1469
(dp1470
g74
(dp1471
g82
I4
ssg83
g1465
sg76
(lp1472
S'8000'
p1473
asbasbasbag69
(g85
g71
NtRp1474
(dp1475
g74
(dp1476
sg83
g859
sg76
(lp1477
g69
(g90
g71
NtRp1478
(dp1479
g74
(dp1480
g94
g95
ssg83
g1474
sg76
(lp1481
S'server_protocol'
p1482
asbag69
(g90
g71
NtRp1483
(dp1484
g74
(dp1485
g101
g102
ssg83
g1474
sg76
(lp1486
S':'
asbag69
(g90
g71
NtRp1487
(dp1488
g74
(dp1489
sg83
g1474
sg76
(lp1490
g69
(g70
g71
NtRp1491
(dp1492
g74
(dp1493
g82
I4
ssg83
g1487
sg76
(lp1494
S'HTTP/1.1'
p1495
asbasbasbag69
(g85
g71
NtRp1496
(dp1497
g74
(dp1498
sg83
g859
sg76
(lp1499
g69
(g90
g71
NtRp1500
(dp1501
g74
(dp1502
g94
g95
ssg83
g1496
sg76
(lp1503
S'server_software'
p1504
asbag69
(g90
g71
NtRp1505
(dp1506
g74
(dp1507
g101
g102
ssg83
g1496
sg76
(lp1508
S':'
asbag69
(g90
g71
NtRp1509
(dp1510
g74
(dp1511
sg83
g1496
sg76
(lp1512
g69
(g70
g71
NtRp1513
(dp1514
g74
(dp1515
g82
I4
ssg83
g1509
sg76
(lp1516
S'Rocket 1.2.4'
p1517
asbasbasbag69
(g85
g71
NtRp1518
(dp1519
g74
(dp1520
sg83
g859
sg76
(lp1521
g69
(g90
g71
NtRp1522
(dp1523
g74
(dp1524
g94
g95
ssg83
g1518
sg76
(lp1525
S'web2py_crontype'
p1526
asbag69
(g90
g71
NtRp1527
(dp1528
g74
(dp1529
g101
g102
ssg83
g1518
sg76
(lp1530
S':'
asbag69
(g90
g71
NtRp1531
(dp1532
g74
(dp1533
sg83
g1518
sg76
(lp1534
g69
(g70
g71
NtRp1535
(dp1536
g74
(dp1537
g82
I4
ssg83
g1531
sg76
(lp1538
S'hard'
p1539
asbasbasbag69
(g85
g71
NtRp1540
(dp1541
g74
(dp1542
sg83
g859
sg76
(lp1543
g69
(g90
g71
NtRp1544
(dp1545
g74
(dp1546
g94
g95
ssg83
g1540
sg76
(lp1547
S'web2py_path'
p1548
asbag69
(g90
g71
NtRp1549
(dp1550
g74
(dp1551
g101
g102
ssg83
g1540
sg76
(lp1552
S':'
asbag69
(g90
g71
NtRp1553
(dp1554
g74
(dp1555
sg83
g1540
sg76
(lp1556
g69
(g70
g71
NtRp1557
(dp1558
g74
(dp1559
g82
I4
ssg83
g1553
sg76
(lp1560
g906
asbasbasbag69
(g85
g71
NtRp1561
(dp1562
g74
(dp1563
sg83
g859
sg76
(lp1564
g69
(g90
g71
NtRp1565
(dp1566
g74
(dp1567
g94
g95
ssg83
g1561
sg76
(lp1568
S'web2py_version'
p1569
asbag69
(g90
g71
NtRp1570
(dp1571
g74
(dp1572
g101
g102
ssg83
g1561
sg76
(lp1573
S':'
asbag69
(g90
g71
NtRp1574
(dp1575
g74
(dp1576
sg83
g1561
sg76
(lp1577
g69
(g70
g71
NtRp1578
(dp1579
g74
(dp1580
g82
I4
ssg83
g1574
sg76
(lp1581
g69
(g78
g71
NtRp1582
(dp1583
g74
(dp1584
g82
I3
ssg83
Nsg76
(lp1585
g69
(g85
g71
NtRp1586
(dp1587
g74
(dp1588
sg83
g1582
sg76
(lp1589
g69
(g90
g71
NtRp1590
(dp1591
g74
(dp1592
sg83
g1586
sg76
(lp1593
g69
(g70
g71
NtRp1594
(dp1595
g74
(dp1596
g82
I3
ssg83
g1590
sg76
(lp1597
S'2'
asbasbasbag69
(g85
g71
NtRp1598
(dp1599
g74
(dp1600
sg83
g1582
sg76
(lp1601
g69
(g90
g71
NtRp1602
(dp1603
g74
(dp1604
sg83
g1598
sg76
(lp1605
g69
(g70
g71
NtRp1606
(dp1607
g74
(dp1608
g82
I3
ssg83
g1602
sg76
(lp1609
S'0'
asbasbasbag69
(g85
g71
NtRp1610
(dp1611
g74
(dp1612
sg83
g1582
sg76
(lp1613
g69
(g90
g71
NtRp1614
(dp1615
g74
(dp1616
sg83
g1610
sg76
(lp1617
g69
(g70
g71
NtRp1618
(dp1619
g74
(dp1620
g82
I3
ssg83
g1614
sg76
(lp1621
S'3'
asbasbasbag69
(g85
g71
NtRp1622
(dp1623
g74
(dp1624
sg83
g1582
sg76
(lp1625
g69
(g90
g71
NtRp1626
(dp1627
g74
(dp1628
sg83
g1622
sg76
(lp1629
g69
(g70
g71
NtRp1630
(dp1631
g74
(dp1632
g82
I3
ssg83
g1626
sg76
(lp1633
S'datetime.datetime(2012, 8, 31, 5, 58, 31)'
p1634
asbasbasbag69
(g85
g71
NtRp1635
(dp1636
g74
(dp1637
sg83
g1582
sg76
(lp1638
g69
(g90
g71
NtRp1639
(dp1640
g74
(dp1641
sg83
g1635
sg76
(lp1642
g69
(g70
g71
NtRp1643
(dp1644
g74
(dp1645
g82
I3
ssg83
g1639
sg76
(lp1646
S'stable'
p1647
asbasbasbasbasbasbasbag69
(g85
g71
NtRp1648
(dp1649
g74
(dp1650
sg83
g859
sg76
(lp1651
g69
(g90
g71
NtRp1652
(dp1653
g74
(dp1654
g94
g95
ssg83
g1648
sg76
(lp1655
S'wsgi_errors'
p1656
asbag69
(g90
g71
NtRp1657
(dp1658
g74
(dp1659
g101
g102
ssg83
g1648
sg76
(lp1660
S':'
asbag69
(g90
g71
NtRp1661
(dp1662
g74
(dp1663
sg83
g1648
sg76
(lp1664
g69
(g70
g71
NtRp1665
(dp1666
g74
(dp1667
g82
I4
ssg83
g1661
sg76
(lp1668
S"<open file '<stderr>', mode 'w' at 0x021D50D0>"
p1669
asbasbasbag69
(g85
g71
NtRp1670
(dp1671
g74
(dp1672
sg83
g859
sg76
(lp1673
g69
(g90
g71
NtRp1674
(dp1675
g74
(dp1676
g94
g95
ssg83
g1670
sg76
(lp1677
S'wsgi_file_wrapper'
p1678
asbag69
(g90
g71
NtRp1679
(dp1680
g74
(dp1681
g101
g102
ssg83
g1670
sg76
(lp1682
S':'
asbag69
(g90
g71
NtRp1683
(dp1684
g74
(dp1685
sg83
g1670
sg76
(lp1686
g69
(g70
g71
NtRp1687
(dp1688
g74
(dp1689
g82
I4
ssg83
g1683
sg76
(lp1690
S'<class wsgiref.util.FileWrapper at 0x02C1D030>'
p1691
asbasbasbag69
(g85
g71
NtRp1692
(dp1693
g74
(dp1694
sg83
g859
sg76
(lp1695
g69
(g90
g71
NtRp1696
(dp1697
g74
(dp1698
g94
g95
ssg83
g1692
sg76
(lp1699
S'wsgi_input'
p1700
asbag69
(g90
g71
NtRp1701
(dp1702
g74
(dp1703
g101
g102
ssg83
g1692
sg76
(lp1704
S':'
asbag69
(g90
g71
NtRp1705
(dp1706
g74
(dp1707
sg83
g1692
sg76
(lp1708
g69
(g70
g71
NtRp1709
(dp1710
g74
(dp1711
g82
I4
ssg83
g1705
sg76
(lp1712
S'<socket._fileobject object at 0x06736130>'
p1713
asbasbasbag69
(g85
g71
NtRp1714
(dp1715
g74
(dp1716
sg83
g859
sg76
(lp1717
g69
(g90
g71
NtRp1718
(dp1719
g74
(dp1720
g94
g95
ssg83
g1714
sg76
(lp1721
S'wsgi_multiprocess'
p1722
asbag69
(g90
g71
NtRp1723
(dp1724
g74
(dp1725
g101
g102
ssg83
g1714
sg76
(lp1726
S':'
asbag69
(g90
g71
NtRp1727
(dp1728
g74
(dp1729
sg83
g1714
sg76
(lp1730
g69
(g70
g71
NtRp1731
(dp1732
g74
(dp1733
g82
I4
ssg83
g1727
sg76
(lp1734
g112
asbasbasbag69
(g85
g71
NtRp1735
(dp1736
g74
(dp1737
sg83
g859
sg76
(lp1738
g69
(g90
g71
NtRp1739
(dp1740
g74
(dp1741
g94
g95
ssg83
g1735
sg76
(lp1742
S'wsgi_multithread'
p1743
asbag69
(g90
g71
NtRp1744
(dp1745
g74
(dp1746
g101
g102
ssg83
g1735
sg76
(lp1747
S':'
asbag69
(g90
g71
NtRp1748
(dp1749
g74
(dp1750
sg83
g1735
sg76
(lp1751
g69
(g70
g71
NtRp1752
(dp1753
g74
(dp1754
g82
I4
ssg83
g1748
sg76
(lp1755
S'True'
p1756
asbasbasbag69
(g85
g71
NtRp1757
(dp1758
g74
(dp1759
sg83
g859
sg76
(lp1760
g69
(g90
g71
NtRp1761
(dp1762
g74
(dp1763
g94
g95
ssg83
g1757
sg76
(lp1764
S'wsgi_run_once'
p1765
asbag69
(g90
g71
NtRp1766
(dp1767
g74
(dp1768
g101
g102
ssg83
g1757
sg76
(lp1769
S':'
asbag69
(g90
g71
NtRp1770
(dp1771
g74
(dp1772
sg83
g1757
sg76
(lp1773
g69
(g70
g71
NtRp1774
(dp1775
g74
(dp1776
g82
I4
ssg83
g1770
sg76
(lp1777
g112
asbasbasbag69
(g85
g71
NtRp1778
(dp1779
g74
(dp1780
sg83
g859
sg76
(lp1781
g69
(g90
g71
NtRp1782
(dp1783
g74
(dp1784
g94
g95
ssg83
g1778
sg76
(lp1785
S'wsgi_url_scheme'
p1786
asbag69
(g90
g71
NtRp1787
(dp1788
g74
(dp1789
g101
g102
ssg83
g1778
sg76
(lp1790
S':'
asbag69
(g90
g71
NtRp1791
(dp1792
g74
(dp1793
sg83
g1778
sg76
(lp1794
g69
(g70
g71
NtRp1795
(dp1796
g74
(dp1797
g82
I4
ssg83
g1791
sg76
(lp1798
S'http'
p1799
asbasbasbag69
(g85
g71
NtRp1800
(dp1801
g74
(dp1802
sg83
g859
sg76
(lp1803
g69
(g90
g71
NtRp1804
(dp1805
g74
(dp1806
g94
g95
ssg83
g1800
sg76
(lp1807
S'wsgi_version'
p1808
asbag69
(g90
g71
NtRp1809
(dp1810
g74
(dp1811
g101
g102
ssg83
g1800
sg76
(lp1812
S':'
asbag69
(g90
g71
NtRp1813
(dp1814
g74
(dp1815
sg83
g1800
sg76
(lp1816
g69
(g70
g71
NtRp1817
(dp1818
g74
(dp1819
g82
I4
ssg83
g1813
sg76
(lp1820
g69
(g78
g71
NtRp1821
(dp1822
g74
(dp1823
g82
I3
ssg83
Nsg76
(lp1824
g69
(g85
g71
NtRp1825
(dp1826
g74
(dp1827
sg83
g1821
sg76
(lp1828
g69
(g90
g71
NtRp1829
(dp1830
g74
(dp1831
sg83
g1825
sg76
(lp1832
g69
(g70
g71
NtRp1833
(dp1834
g74
(dp1835
g82
I3
ssg83
g1829
sg76
(lp1836
S'1'
asbasbasbag69
(g85
g71
NtRp1837
(dp1838
g74
(dp1839
sg83
g1821
sg76
(lp1840
g69
(g90
g71
NtRp1841
(dp1842
g74
(dp1843
sg83
g1837
sg76
(lp1844
g69
(g70
g71
NtRp1845
(dp1846
g74
(dp1847
g82
I3
ssg83
g1841
sg76
(lp1848
S'0'
asbasbasbasbasbasbasbasbasbasbasbag69
(g85
g71
NtRp1849
(dp1850
g74
(dp1851
sg83
g79
sg76
(lp1852
g69
(g90
g71
NtRp1853
(dp1854
g74
(dp1855
g94
g95
ssg83
g1849
sg76
(lp1856
S'extension'
p1857
asbag69
(g90
g71
NtRp1858
(dp1859
g74
(dp1860
g101
g102
ssg83
g1849
sg76
(lp1861
S':'
asbag69
(g90
g71
NtRp1862
(dp1863
g74
(dp1864
sg83
g1849
sg76
(lp1865
g69
(g70
g71
NtRp1866
(dp1867
g74
(dp1868
g82
I5
ssg83
g1862
sg76
(lp1869
S'html'
p1870
asbasbasbag69
(g85
g71
NtRp1871
(dp1872
g74
(dp1873
sg83
g79
sg76
(lp1874
g69
(g90
g71
NtRp1875
(dp1876
g74
(dp1877
g94
g95
ssg83
g1871
sg76
(lp1878
S'folder'
p1879
asbag69
(g90
g71
NtRp1880
(dp1881
g74
(dp1882
g101
g102
ssg83
g1871
sg76
(lp1883
S':'
asbag69
(g90
g71
NtRp1884
(dp1885
g74
(dp1886
sg83
g1871
sg76
(lp1887
g69
(g70
g71
NtRp1888
(dp1889
g74
(dp1890
g82
I5
ssg83
g1884
sg76
(lp1891
S'C:\\xampp\\htdocs\\web2py\\applications\\testumgebung\\'
p1892
asbasbasbag69
(g85
g71
NtRp1893
(dp1894
g74
(dp1895
sg83
g79
sg76
(lp1896
g69
(g90
g71
NtRp1897
(dp1898
g74
(dp1899
g94
g95
ssg83
g1893
sg76
(lp1900
S'function'
p1901
asbag69
(g90
g71
NtRp1902
(dp1903
g74
(dp1904
g101
g102
ssg83
g1893
sg76
(lp1905
S':'
asbag69
(g90
g71
NtRp1906
(dp1907
g74
(dp1908
sg83
g1893
sg76
(lp1909
g69
(g70
g71
NtRp1910
(dp1911
g74
(dp1912
g82
I5
ssg83
g1906
sg76
(lp1913
S'index'
p1914
asbasbasbag69
(g85
g71
NtRp1915
(dp1916
g74
(dp1917
sg83
g79
sg76
(lp1918
g69
(g90
g71
NtRp1919
(dp1920
g74
(dp1921
g94
g95
ssg83
g1915
sg76
(lp1922
S'get_vars'
p1923
asbag69
(g90
g71
NtRp1924
(dp1925
g74
(dp1926
g101
g102
ssg83
g1915
sg76
(lp1927
S':'
asbag69
(g90
g71
NtRp1928
(dp1929
g74
(dp1930
sg83
g1915
sg76
(lp1931
g69
(g70
g71
NtRp1932
(dp1933
g74
(dp1934
g82
I5
ssg83
g1928
sg76
(lp1935
g69
(g78
g71
NtRp1936
(dp1937
g74
(dp1938
g82
I4
ssg83
Nsg76
(lp1939
sbasbasbasbag69
(g85
g71
NtRp1940
(dp1941
g74
(dp1942
sg83
g79
sg76
(lp1943
g69
(g90
g71
NtRp1944
(dp1945
g74
(dp1946
g94
g95
ssg83
g1940
sg76
(lp1947
S'global_settings'
p1948
asbag69
(g90
g71
NtRp1949
(dp1950
g74
(dp1951
g101
g102
ssg83
g1940
sg76
(lp1952
S':'
asbag69
(g90
g71
NtRp1953
(dp1954
g74
(dp1955
sg83
g1940
sg76
(lp1956
g69
(g70
g71
NtRp1957
(dp1958
g74
(dp1959
g82
I5
ssg83
g1953
sg76
(lp1960
g69
(g78
g71
NtRp1961
(dp1962
g74
(dp1963
g82
I4
ssg83
Nsg76
(lp1964
g69
(g85
g71
NtRp1965
(dp1966
g74
(dp1967
sg83
g1961
sg76
(lp1968
g69
(g90
g71
NtRp1969
(dp1970
g74
(dp1971
g94
g95
ssg83
g1965
sg76
(lp1972
g871
asbag69
(g90
g71
NtRp1973
(dp1974
g74
(dp1975
g101
g102
ssg83
g1965
sg76
(lp1976
S':'
asbag69
(g90
g71
NtRp1977
(dp1978
g74
(dp1979
sg83
g1965
sg76
(lp1980
g69
(g70
g71
NtRp1981
(dp1982
g74
(dp1983
g82
I4
ssg83
g1977
sg76
(lp1984
S"set(['C:\\\\xampp\\\\htdocs\\\\web2py\\\\applications\\\\admin\\\\', 'C:\\\\xampp\\\\htdocs\\\\web2py\\\\applications\\\\welcome\\\\', 'C:\\\\xampp\\\\htdocs\\\\web2py\\\\applications\\\\testumgebung\\\\'])"
p1985
asbasbasbag69
(g85
g71
NtRp1986
(dp1987
g74
(dp1988
sg83
g1961
sg76
(lp1989
g69
(g90
g71
NtRp1990
(dp1991
g74
(dp1992
g94
g95
ssg83
g1986
sg76
(lp1993
g893
asbag69
(g90
g71
NtRp1994
(dp1995
g74
(dp1996
g101
g102
ssg83
g1986
sg76
(lp1997
S':'
asbag69
(g90
g71
NtRp1998
(dp1999
g74
(dp2000
sg83
g1986
sg76
(lp2001
g69
(g70
g71
NtRp2002
(dp2003
g74
(dp2004
g82
I4
ssg83
g1998
sg76
(lp2005
g906
asbasbasbag69
(g85
g71
NtRp2006
(dp2007
g74
(dp2008
sg83
g1961
sg76
(lp2009
g69
(g90
g71
NtRp2010
(dp2011
g74
(dp2012
g94
g95
ssg83
g2006
sg76
(lp2013
g915
asbag69
(g90
g71
NtRp2014
(dp2015
g74
(dp2016
g101
g102
ssg83
g2006
sg76
(lp2017
S':'
asbag69
(g90
g71
NtRp2018
(dp2019
g74
(dp2020
sg83
g2006
sg76
(lp2021
g69
(g70
g71
NtRp2022
(dp2023
g74
(dp2024
g82
I4
ssg83
g2018
sg76
(lp2025
g69
(g78
g71
NtRp2026
(dp2027
g74
(dp2028
g82
I3
ssg83
Nsg76
(lp2029
sbasbasbasbag69
(g85
g71
NtRp2030
(dp2031
g74
(dp2032
sg83
g1961
sg76
(lp2033
g69
(g90
g71
NtRp2034
(dp2035
g74
(dp2036
g94
g95
ssg83
g2030
sg76
(lp2037
g940
asbag69
(g90
g71
NtRp2038
(dp2039
g74
(dp2040
g101
g102
ssg83
g2030
sg76
(lp2041
S':'
asbag69
(g90
g71
NtRp2042
(dp2043
g74
(dp2044
sg83
g2030
sg76
(lp2045
g69
(g70
g71
NtRp2046
(dp2047
g74
(dp2048
g82
I4
ssg83
g2042
sg76
(lp2049
S"<Values at 0x2c68e18: {'verbose': False, 'ip': '127.0.0.1', 'with_scheduler': False, 'ips': ['10.0.0.109', '192.168.189.1', '192.168.91.1'], 'shutdown_timeout': 5, 'taskbar': False, 'port': 8000, 'maxthreads': None, 'softcron': False, 'server_name': 'swLaptop', 'bpython': False, 'nogui': False, 'nocron': False, 'extcron': False, 'run_system_tests': False, 'test': None, 'folder': 'C:\\\\xampp\\\\htdocs\\\\web2py', 'config': '', 'import_models': False, 'winservice': '', 'shell': None, 'run': '', 'log_filename': 'httpserver.log', 'debuglevel': 30, 'args': [''], 'socket_timeout': 5, 'ssl_ca_certificate': None, 'scheduler': None, 'profiler_filename': None, 'ssl_private_key': '', 'scheduler_groups': None, 'password': '<ask>', 'request_queue_size': 5, 'ssl_certificate': '', 'cronjob': False, 'numthreads': None, 'quiet': False, 'interfaces': None, 'minthreads': None, 'timeout': 10, 'plain': False, 'nobanner': False, 'pid_filename': 'httpserver.pid'}>"
p2050
asbasbasbag69
(g85
g71
NtRp2051
(dp2052
g74
(dp2053
sg83
g1961
sg76
(lp2054
g69
(g90
g71
NtRp2055
(dp2056
g74
(dp2057
g94
g95
ssg83
g2051
sg76
(lp2058
g962
asbag69
(g90
g71
NtRp2059
(dp2060
g74
(dp2061
g101
g102
ssg83
g2051
sg76
(lp2062
S':'
asbag69
(g90
g71
NtRp2063
(dp2064
g74
(dp2065
sg83
g2051
sg76
(lp2066
g69
(g70
g71
NtRp2067
(dp2068
g74
(dp2069
g82
I4
ssg83
g2063
sg76
(lp2070
S'set([])'
p2071
asbasbasbag69
(g85
g71
NtRp2072
(dp2073
g74
(dp2074
sg83
g1961
sg76
(lp2075
g69
(g90
g71
NtRp2076
(dp2077
g74
(dp2078
g94
g95
ssg83
g2072
sg76
(lp2079
g984
asbag69
(g90
g71
NtRp2080
(dp2081
g74
(dp2082
g101
g102
ssg83
g2072
sg76
(lp2083
S':'
asbag69
(g90
g71
NtRp2084
(dp2085
g74
(dp2086
sg83
g2072
sg76
(lp2087
g69
(g70
g71
NtRp2088
(dp2089
g74
(dp2090
g82
I4
ssg83
g2084
sg76
(lp2091
g112
asbasbasbag69
(g85
g71
NtRp2092
(dp2093
g74
(dp2094
sg83
g1961
sg76
(lp2095
g69
(g90
g71
NtRp2096
(dp2097
g74
(dp2098
g94
g95
ssg83
g2092
sg76
(lp2099
g1005
asbag69
(g90
g71
NtRp2100
(dp2101
g74
(dp2102
g101
g102
ssg83
g2092
sg76
(lp2103
S':'
asbag69
(g90
g71
NtRp2104
(dp2105
g74
(dp2106
sg83
g2092
sg76
(lp2107
g69
(g70
g71
NtRp2108
(dp2109
g74
(dp2110
g82
I4
ssg83
g2104
sg76
(lp2111
g1018
asbasbasbag69
(g85
g71
NtRp2112
(dp2113
g74
(dp2114
sg83
g1961
sg76
(lp2115
g69
(g90
g71
NtRp2116
(dp2117
g74
(dp2118
g94
g95
ssg83
g2112
sg76
(lp2119
g1246
asbag69
(g90
g71
NtRp2120
(dp2121
g74
(dp2122
g101
g102
ssg83
g2112
sg76
(lp2123
S':'
asbag69
(g90
g71
NtRp2124
(dp2125
g74
(dp2126
sg83
g2112
sg76
(lp2127
g69
(g70
g71
NtRp2128
(dp2129
g74
(dp2130
g82
I4
ssg83
g2124
sg76
(lp2131
g112
asbasbasbag69
(g85
g71
NtRp2132
(dp2133
g74
(dp2134
sg83
g1961
sg76
(lp2135
g69
(g90
g71
NtRp2136
(dp2137
g74
(dp2138
g94
g95
ssg83
g2132
sg76
(lp2139
g1267
asbag69
(g90
g71
NtRp2140
(dp2141
g74
(dp2142
g101
g102
ssg83
g2132
sg76
(lp2143
S':'
asbag69
(g90
g71
NtRp2144
(dp2145
g74
(dp2146
sg83
g2132
sg76
(lp2147
g69
(g70
g71
NtRp2148
(dp2149
g74
(dp2150
g82
I4
ssg83
g2144
sg76
(lp2151
g112
asbasbasbag69
(g85
g71
NtRp2152
(dp2153
g74
(dp2154
sg83
g1961
sg76
(lp2155
g69
(g90
g71
NtRp2156
(dp2157
g74
(dp2158
g94
g95
ssg83
g2152
sg76
(lp2159
g1526
asbag69
(g90
g71
NtRp2160
(dp2161
g74
(dp2162
g101
g102
ssg83
g2152
sg76
(lp2163
S':'
asbag69
(g90
g71
NtRp2164
(dp2165
g74
(dp2166
sg83
g2152
sg76
(lp2167
g69
(g70
g71
NtRp2168
(dp2169
g74
(dp2170
g82
I4
ssg83
g2164
sg76
(lp2171
g1539
asbasbasbag69
(g85
g71
NtRp2172
(dp2173
g74
(dp2174
sg83
g1961
sg76
(lp2175
g69
(g90
g71
NtRp2176
(dp2177
g74
(dp2178
g94
g95
ssg83
g2172
sg76
(lp2179
g1569
asbag69
(g90
g71
NtRp2180
(dp2181
g74
(dp2182
g101
g102
ssg83
g2172
sg76
(lp2183
S':'
asbag69
(g90
g71
NtRp2184
(dp2185
g74
(dp2186
sg83
g2172
sg76
(lp2187
g69
(g70
g71
NtRp2188
(dp2189
g74
(dp2190
g82
I4
ssg83
g2184
sg76
(lp2191
g69
(g78
g71
NtRp2192
(dp2193
g74
(dp2194
g82
I3
ssg83
Nsg76
(lp2195
g69
(g85
g71
NtRp2196
(dp2197
g74
(dp2198
sg83
g2192
sg76
(lp2199
g69
(g90
g71
NtRp2200
(dp2201
g74
(dp2202
sg83
g2196
sg76
(lp2203
g69
(g70
g71
NtRp2204
(dp2205
g74
(dp2206
g82
I3
ssg83
g2200
sg76
(lp2207
S'2'
asbasbasbag69
(g85
g71
NtRp2208
(dp2209
g74
(dp2210
sg83
g2192
sg76
(lp2211
g69
(g90
g71
NtRp2212
(dp2213
g74
(dp2214
sg83
g2208
sg76
(lp2215
g69
(g70
g71
NtRp2216
(dp2217
g74
(dp2218
g82
I3
ssg83
g2212
sg76
(lp2219
S'0'
asbasbasbag69
(g85
g71
NtRp2220
(dp2221
g74
(dp2222
sg83
g2192
sg76
(lp2223
g69
(g90
g71
NtRp2224
(dp2225
g74
(dp2226
sg83
g2220
sg76
(lp2227
g69
(g70
g71
NtRp2228
(dp2229
g74
(dp2230
g82
I3
ssg83
g2224
sg76
(lp2231
S'3'
asbasbasbag69
(g85
g71
NtRp2232
(dp2233
g74
(dp2234
sg83
g2192
sg76
(lp2235
g69
(g90
g71
NtRp2236
(dp2237
g74
(dp2238
sg83
g2232
sg76
(lp2239
g69
(g70
g71
NtRp2240
(dp2241
g74
(dp2242
g82
I3
ssg83
g2236
sg76
(lp2243
S'datetime.datetime(2012, 8, 31, 5, 58, 31)'
p2244
asbasbasbag69
(g85
g71
NtRp2245
(dp2246
g74
(dp2247
sg83
g2192
sg76
(lp2248
g69
(g90
g71
NtRp2249
(dp2250
g74
(dp2251
sg83
g2245
sg76
(lp2252
g69
(g70
g71
NtRp2253
(dp2254
g74
(dp2255
g82
I3
ssg83
g2249
sg76
(lp2256
g1647
asbasbasbasbasbasbasbasbasbasbasbag69
(g85
g71
NtRp2257
(dp2258
g74
(dp2259
sg83
g79
sg76
(lp2260
g69
(g90
g71
NtRp2261
(dp2262
g74
(dp2263
g94
g95
ssg83
g2257
sg76
(lp2264
S'is_https'
p2265
asbag69
(g90
g71
NtRp2266
(dp2267
g74
(dp2268
g101
g102
ssg83
g2257
sg76
(lp2269
S':'
asbag69
(g90
g71
NtRp2270
(dp2271
g74
(dp2272
sg83
g2257
sg76
(lp2273
g69
(g70
g71
NtRp2274
(dp2275
g74
(dp2276
g82
I5
ssg83
g2270
sg76
(lp2277
g112
asbasbasbag69
(g85
g71
NtRp2278
(dp2279
g74
(dp2280
sg83
g79
sg76
(lp2281
g69
(g90
g71
NtRp2282
(dp2283
g74
(dp2284
g94
g95
ssg83
g2278
sg76
(lp2285
S'is_local'
p2286
asbag69
(g90
g71
NtRp2287
(dp2288
g74
(dp2289
g101
g102
ssg83
g2278
sg76
(lp2290
S':'
asbag69
(g90
g71
NtRp2291
(dp2292
g74
(dp2293
sg83
g2278
sg76
(lp2294
g69
(g70
g71
NtRp2295
(dp2296
g74
(dp2297
g82
I5
ssg83
g2291
sg76
(lp2298
g1756
asbasbasbag69
(g85
g71
NtRp2299
(dp2300
g74
(dp2301
sg83
g79
sg76
(lp2302
g69
(g90
g71
NtRp2303
(dp2304
g74
(dp2305
g94
g95
ssg83
g2299
sg76
(lp2306
S'is_restful'
p2307
asbag69
(g90
g71
NtRp2308
(dp2309
g74
(dp2310
g101
g102
ssg83
g2299
sg76
(lp2311
S':'
asbag69
(g90
g71
NtRp2312
(dp2313
g74
(dp2314
sg83
g2299
sg76
(lp2315
g69
(g70
g71
NtRp2316
(dp2317
g74
(dp2318
g82
I5
ssg83
g2312
sg76
(lp2319
g112
asbasbasbag69
(g85
g71
NtRp2320
(dp2321
g74
(dp2322
sg83
g79
sg76
(lp2323
g69
(g90
g71
NtRp2324
(dp2325
g74
(dp2326
g94
g95
ssg83
g2320
sg76
(lp2327
S'now'
p2328
asbag69
(g90
g71
NtRp2329
(dp2330
g74
(dp2331
g101
g102
ssg83
g2320
sg76
(lp2332
S':'
asbag69
(g90
g71
NtRp2333
(dp2334
g74
(dp2335
sg83
g2320
sg76
(lp2336
g69
(g70
g71
NtRp2337
(dp2338
g74
(dp2339
g82
I5
ssg83
g2333
sg76
(lp2340
S'datetime.datetime(2012, 12, 14, 10, 8, 19, 190000)'
p2341
asbasbasbag69
(g85
g71
NtRp2342
(dp2343
g74
(dp2344
sg83
g79
sg76
(lp2345
g69
(g90
g71
NtRp2346
(dp2347
g74
(dp2348
g94
g95
ssg83
g2342
sg76
(lp2349
S'post_vars'
p2350
asbag69
(g90
g71
NtRp2351
(dp2352
g74
(dp2353
g101
g102
ssg83
g2342
sg76
(lp2354
S':'
asbag69
(g90
g71
NtRp2355
(dp2356
g74
(dp2357
sg83
g2342
sg76
(lp2358
g69
(g70
g71
NtRp2359
(dp2360
g74
(dp2361
g82
I5
ssg83
g2355
sg76
(lp2362
g69
(g78
g71
NtRp2363
(dp2364
g74
(dp2365
g82
I4
ssg83
Nsg76
(lp2366
sbasbasbasbag69
(g85
g71
NtRp2367
(dp2368
g74
(dp2369
sg83
g79
sg76
(lp2370
g69
(g90
g71
NtRp2371
(dp2372
g74
(dp2373
g94
g95
ssg83
g2367
sg76
(lp2374
S'raw_args'
p2375
asbag69
(g90
g71
NtRp2376
(dp2377
g74
(dp2378
g101
g102
ssg83
g2367
sg76
(lp2379
S':'
asbag69
(g90
g71
NtRp2380
(dp2381
g74
(dp2382
sg83
g2367
sg76
(lp2383
g69
(g70
g71
NtRp2384
(dp2385
g74
(dp2386
g82
I5
ssg83
g2380
sg76
(lp2387
S'None'
p2388
asbasbasbag69
(g85
g71
NtRp2389
(dp2390
g74
(dp2391
sg83
g79
sg76
(lp2392
g69
(g90
g71
NtRp2393
(dp2394
g74
(dp2395
g94
g95
ssg83
g2389
sg76
(lp2396
S'raw_extension'
p2397
asbag69
(g90
g71
NtRp2398
(dp2399
g74
(dp2400
g101
g102
ssg83
g2389
sg76
(lp2401
S':'
asbag69
(g90
g71
NtRp2402
(dp2403
g74
(dp2404
sg83
g2389
sg76
(lp2405
g69
(g70
g71
NtRp2406
(dp2407
g74
(dp2408
g82
I5
ssg83
g2402
sg76
(lp2409
S'None'
p2410
asbasbasbag69
(g85
g71
NtRp2411
(dp2412
g74
(dp2413
sg83
g79
sg76
(lp2414
g69
(g90
g71
NtRp2415
(dp2416
g74
(dp2417
g94
g95
ssg83
g2411
sg76
(lp2418
S'url'
p2419
asbag69
(g90
g71
NtRp2420
(dp2421
g74
(dp2422
g101
g102
ssg83
g2411
sg76
(lp2423
S':'
asbag69
(g90
g71
NtRp2424
(dp2425
g74
(dp2426
sg83
g2411
sg76
(lp2427
g69
(g70
g71
NtRp2428
(dp2429
g74
(dp2430
g82
I5
ssg83
g2424
sg76
(lp2431
S'/testumgebung/default/index'
p2432
asbasbasbag69
(g85
g71
NtRp2433
(dp2434
g74
(dp2435
sg83
g79
sg76
(lp2436
g69
(g90
g71
NtRp2437
(dp2438
g74
(dp2439
g94
g95
ssg83
g2433
sg76
(lp2440
S'utcnow'
p2441
asbag69
(g90
g71
NtRp2442
(dp2443
g74
(dp2444
g101
g102
ssg83
g2433
sg76
(lp2445
S':'
asbag69
(g90
g71
NtRp2446
(dp2447
g74
(dp2448
sg83
g2433
sg76
(lp2449
g69
(g70
g71
NtRp2450
(dp2451
g74
(dp2452
g82
I5
ssg83
g2446
sg76
(lp2453
S'datetime.datetime(2012, 12, 14, 9, 8, 19, 190000)'
p2454
asbasbasbag69
(g85
g71
NtRp2455
(dp2456
g74
(dp2457
sg83
g79
sg76
(lp2458
g69
(g90
g71
NtRp2459
(dp2460
g74
(dp2461
g94
g95
ssg83
g2455
sg76
(lp2462
S'uuid'
p2463
asbag69
(g90
g71
NtRp2464
(dp2465
g74
(dp2466
g101
g102
ssg83
g2455
sg76
(lp2467
S':'
asbag69
(g90
g71
NtRp2468
(dp2469
g74
(dp2470
sg83
g2455
sg76
(lp2471
g69
(g70
g71
NtRp2472
(dp2473
g74
(dp2474
g82
I5
ssg83
g2468
sg76
(lp2475
S'testumgebung/127.0.0.1.2012-12-14.10-08-19.275e93b3-c551-471c-9f77-0c32da95a0eb'
p2476
asbasbasbag69
(g85
g71
NtRp2477
(dp2478
g74
(dp2479
sg83
g79
sg76
(lp2480
g69
(g90
g71
NtRp2481
(dp2482
g74
(dp2483
g94
g95
ssg83
g2477
sg76
(lp2484
S'vars'
p2485
asbag69
(g90
g71
NtRp2486
(dp2487
g74
(dp2488
g101
g102
ssg83
g2477
sg76
(lp2489
S':'
asbag69
(g90
g71
NtRp2490
(dp2491
g74
(dp2492
sg83
g2477
sg76
(lp2493
g69
(g70
g71
NtRp2494
(dp2495
g74
(dp2496
g82
I5
ssg83
g2490
sg76
(lp2497
g69
(g78
g71
NtRp2498
(dp2499
g74
(dp2500
g82
I4
ssg83
Nsg76
(lp2501
sbasbasbasbag69
(g85
g71
NtRp2502
(dp2503
g74
(dp2504
sg83
g79
sg76
(lp2505
g69
(g90
g71
NtRp2506
(dp2507
g74
(dp2508
g94
g95
ssg83
g2502
sg76
(lp2509
S'wsgi'
p2510
asbag69
(g90
g71
NtRp2511
(dp2512
g74
(dp2513
g101
g102
ssg83
g2502
sg76
(lp2514
S':'
asbag69
(g90
g71
NtRp2515
(dp2516
g74
(dp2517
sg83
g2502
sg76
(lp2518
g69
(g70
g71
NtRp2519
(dp2520
g74
(dp2521
g82
I5
ssg83
g2515
sg76
(lp2522
g69
(g78
g71
NtRp2523
(dp2524
g74
(dp2525
g82
I4
ssg83
Nsg76
(lp2526
g69
(g85
g71
NtRp2527
(dp2528
g74
(dp2529
sg83
g2523
sg76
(lp2530
g69
(g90
g71
NtRp2531
(dp2532
g74
(dp2533
g94
g95
ssg83
g2527
sg76
(lp2534
S'environ'
p2535
asbag69
(g90
g71
NtRp2536
(dp2537
g74
(dp2538
g101
g102
ssg83
g2527
sg76
(lp2539
S':'
asbag69
(g90
g71
NtRp2540
(dp2541
g74
(dp2542
sg83
g2527
sg76
(lp2543
g69
(g70
g71
NtRp2544
(dp2545
g74
(dp2546
g82
I4
ssg83
g2540
sg76
(lp2547
g69
(g78
g71
NtRp2548
(dp2549
g74
(dp2550
g82
I3
ssg83
Nsg76
(lp2551
g69
(g85
g71
NtRp2552
(dp2553
g74
(dp2554
sg83
g2548
sg76
(lp2555
g69
(g90
g71
NtRp2556
(dp2557
g74
(dp2558
g94
g95
ssg83
g2552
sg76
(lp2559
S'HTTP_ACCEPT'
p2560
asbag69
(g90
g71
NtRp2561
(dp2562
g74
(dp2563
g101
g102
ssg83
g2552
sg76
(lp2564
S':'
asbag69
(g90
g71
NtRp2565
(dp2566
g74
(dp2567
sg83
g2552
sg76
(lp2568
g69
(g70
g71
NtRp2569
(dp2570
g74
(dp2571
g82
I3
ssg83
g2565
sg76
(lp2572
g1040
asbasbasbag69
(g85
g71
NtRp2573
(dp2574
g74
(dp2575
sg83
g2548
sg76
(lp2576
g69
(g90
g71
NtRp2577
(dp2578
g74
(dp2579
g94
g95
ssg83
g2573
sg76
(lp2580
S'HTTP_ACCEPT_ENCODING'
p2581
asbag69
(g90
g71
NtRp2582
(dp2583
g74
(dp2584
g101
g102
ssg83
g2573
sg76
(lp2585
S':'
asbag69
(g90
g71
NtRp2586
(dp2587
g74
(dp2588
sg83
g2573
sg76
(lp2589
g69
(g70
g71
NtRp2590
(dp2591
g74
(dp2592
g82
I3
ssg83
g2586
sg76
(lp2593
g1062
asbasbasbag69
(g85
g71
NtRp2594
(dp2595
g74
(dp2596
sg83
g2548
sg76
(lp2597
g69
(g90
g71
NtRp2598
(dp2599
g74
(dp2600
g94
g95
ssg83
g2594
sg76
(lp2601
S'HTTP_ACCEPT_LANGUAGE'
p2602
asbag69
(g90
g71
NtRp2603
(dp2604
g74
(dp2605
g101
g102
ssg83
g2594
sg76
(lp2606
S':'
asbag69
(g90
g71
NtRp2607
(dp2608
g74
(dp2609
sg83
g2594
sg76
(lp2610
g69
(g70
g71
NtRp2611
(dp2612
g74
(dp2613
g82
I3
ssg83
g2607
sg76
(lp2614
g1084
asbasbasbag69
(g85
g71
NtRp2615
(dp2616
g74
(dp2617
sg83
g2548
sg76
(lp2618
g69
(g90
g71
NtRp2619
(dp2620
g74
(dp2621
g94
g95
ssg83
g2615
sg76
(lp2622
S'HTTP_CACHE_CONTROL'
p2623
asbag69
(g90
g71
NtRp2624
(dp2625
g74
(dp2626
g101
g102
ssg83
g2615
sg76
(lp2627
S':'
asbag69
(g90
g71
NtRp2628
(dp2629
g74
(dp2630
sg83
g2615
sg76
(lp2631
g69
(g70
g71
NtRp2632
(dp2633
g74
(dp2634
g82
I3
ssg83
g2628
sg76
(lp2635
g1106
asbasbasbag69
(g85
g71
NtRp2636
(dp2637
g74
(dp2638
sg83
g2548
sg76
(lp2639
g69
(g90
g71
NtRp2640
(dp2641
g74
(dp2642
g94
g95
ssg83
g2636
sg76
(lp2643
S'HTTP_CONNECTION'
p2644
asbag69
(g90
g71
NtRp2645
(dp2646
g74
(dp2647
g101
g102
ssg83
g2636
sg76
(lp2648
S':'
asbag69
(g90
g71
NtRp2649
(dp2650
g74
(dp2651
sg83
g2636
sg76
(lp2652
g69
(g70
g71
NtRp2653
(dp2654
g74
(dp2655
g82
I3
ssg83
g2649
sg76
(lp2656
g1128
asbasbasbag69
(g85
g71
NtRp2657
(dp2658
g74
(dp2659
sg83
g2548
sg76
(lp2660
g69
(g90
g71
NtRp2661
(dp2662
g74
(dp2663
g94
g95
ssg83
g2657
sg76
(lp2664
S'HTTP_COOKIE'
p2665
asbag69
(g90
g71
NtRp2666
(dp2667
g74
(dp2668
g101
g102
ssg83
g2657
sg76
(lp2669
S':'
asbag69
(g90
g71
NtRp2670
(dp2671
g74
(dp2672
sg83
g2657
sg76
(lp2673
g69
(g70
g71
NtRp2674
(dp2675
g74
(dp2676
g82
I3
ssg83
g2670
sg76
(lp2677
g1150
asbasbasbag69
(g85
g71
NtRp2678
(dp2679
g74
(dp2680
sg83
g2548
sg76
(lp2681
g69
(g90
g71
NtRp2682
(dp2683
g74
(dp2684
g94
g95
ssg83
g2678
sg76
(lp2685
S'HTTP_DNT'
p2686
asbag69
(g90
g71
NtRp2687
(dp2688
g74
(dp2689
g101
g102
ssg83
g2678
sg76
(lp2690
S':'
asbag69
(g90
g71
NtRp2691
(dp2692
g74
(dp2693
sg83
g2678
sg76
(lp2694
g69
(g70
g71
NtRp2695
(dp2696
g74
(dp2697
g82
I3
ssg83
g2691
sg76
(lp2698
S'1'
asbasbasbag69
(g85
g71
NtRp2699
(dp2700
g74
(dp2701
sg83
g2548
sg76
(lp2702
g69
(g90
g71
NtRp2703
(dp2704
g74
(dp2705
g94
g95
ssg83
g2699
sg76
(lp2706
S'HTTP_HOST'
p2707
asbag69
(g90
g71
NtRp2708
(dp2709
g74
(dp2710
g101
g102
ssg83
g2699
sg76
(lp2711
S':'
asbag69
(g90
g71
NtRp2712
(dp2713
g74
(dp2714
sg83
g2699
sg76
(lp2715
g69
(g70
g71
NtRp2716
(dp2717
g74
(dp2718
g82
I3
ssg83
g2712
sg76
(lp2719
g1193
asbasbasbag69
(g85
g71
NtRp2720
(dp2721
g74
(dp2722
sg83
g2548
sg76
(lp2723
g69
(g90
g71
NtRp2724
(dp2725
g74
(dp2726
g94
g95
ssg83
g2720
sg76
(lp2727
S'HTTP_USER_AGENT'
p2728
asbag69
(g90
g71
NtRp2729
(dp2730
g74
(dp2731
g101
g102
ssg83
g2720
sg76
(lp2732
S':'
asbag69
(g90
g71
NtRp2733
(dp2734
g74
(dp2735
sg83
g2720
sg76
(lp2736
g69
(g70
g71
NtRp2737
(dp2738
g74
(dp2739
g82
I3
ssg83
g2733
sg76
(lp2740
g1215
asbasbasbag69
(g85
g71
NtRp2741
(dp2742
g74
(dp2743
sg83
g2548
sg76
(lp2744
g69
(g90
g71
NtRp2745
(dp2746
g74
(dp2747
g94
g95
ssg83
g2741
sg76
(lp2748
S'HTTP_X_CLICKONCESUPPORT'
p2749
asbag69
(g90
g71
NtRp2750
(dp2751
g74
(dp2752
g101
g102
ssg83
g2741
sg76
(lp2753
S':'
asbag69
(g90
g71
NtRp2754
(dp2755
g74
(dp2756
sg83
g2741
sg76
(lp2757
g69
(g70
g71
NtRp2758
(dp2759
g74
(dp2760
g82
I3
ssg83
g2754
sg76
(lp2761
g1237
asbasbasbag69
(g85
g71
NtRp2762
(dp2763
g74
(dp2764
sg83
g2548
sg76
(lp2765
g69
(g90
g71
NtRp2766
(dp2767
g74
(dp2768
g94
g95
ssg83
g2762
sg76
(lp2769
S'PATH_INFO'
p2770
asbag69
(g90
g71
NtRp2771
(dp2772
g74
(dp2773
g101
g102
ssg83
g2762
sg76
(lp2774
S':'
asbag69
(g90
g71
NtRp2775
(dp2776
g74
(dp2777
sg83
g2762
sg76
(lp2778
g69
(g70
g71
NtRp2779
(dp2780
g74
(dp2781
g82
I3
ssg83
g2775
sg76
(lp2782
g1301
asbasbasbag69
(g85
g71
NtRp2783
(dp2784
g74
(dp2785
sg83
g2548
sg76
(lp2786
g69
(g90
g71
NtRp2787
(dp2788
g74
(dp2789
g94
g95
ssg83
g2783
sg76
(lp2790
S'QUERY_STRING'
p2791
asbag69
(g90
g71
NtRp2792
(dp2793
g74
(dp2794
g101
g102
ssg83
g2783
sg76
(lp2795
S':'
asbag69
(g90
g71
NtRp2796
(dp2797
g74
(dp2798
sg83
g2783
sg76
(lp2799
g69
(g70
g71
NtRp2800
(dp2801
g74
(dp2802
g82
I3
ssg83
g2796
sg76
(lp2803
S''
asbasbasbag69
(g85
g71
NtRp2804
(dp2805
g74
(dp2806
sg83
g2548
sg76
(lp2807
g69
(g90
g71
NtRp2808
(dp2809
g74
(dp2810
g94
g95
ssg83
g2804
sg76
(lp2811
S'REMOTE_ADDR'
p2812
asbag69
(g90
g71
NtRp2813
(dp2814
g74
(dp2815
g101
g102
ssg83
g2804
sg76
(lp2816
S':'
asbag69
(g90
g71
NtRp2817
(dp2818
g74
(dp2819
sg83
g2804
sg76
(lp2820
g69
(g70
g71
NtRp2821
(dp2822
g74
(dp2823
g82
I3
ssg83
g2817
sg76
(lp2824
g224
asbasbasbag69
(g85
g71
NtRp2825
(dp2826
g74
(dp2827
sg83
g2548
sg76
(lp2828
g69
(g90
g71
NtRp2829
(dp2830
g74
(dp2831
g94
g95
ssg83
g2825
sg76
(lp2832
S'REMOTE_PORT'
p2833
asbag69
(g90
g71
NtRp2834
(dp2835
g74
(dp2836
g101
g102
ssg83
g2825
sg76
(lp2837
S':'
asbag69
(g90
g71
NtRp2838
(dp2839
g74
(dp2840
sg83
g2825
sg76
(lp2841
g69
(g70
g71
NtRp2842
(dp2843
g74
(dp2844
g82
I3
ssg83
g2838
sg76
(lp2845
g1365
asbasbasbag69
(g85
g71
NtRp2846
(dp2847
g74
(dp2848
sg83
g2548
sg76
(lp2849
g69
(g90
g71
NtRp2850
(dp2851
g74
(dp2852
g94
g95
ssg83
g2846
sg76
(lp2853
S'REQUEST_METHOD'
p2854
asbag69
(g90
g71
NtRp2855
(dp2856
g74
(dp2857
g101
g102
ssg83
g2846
sg76
(lp2858
S':'
asbag69
(g90
g71
NtRp2859
(dp2860
g74
(dp2861
sg83
g2846
sg76
(lp2862
g69
(g70
g71
NtRp2863
(dp2864
g74
(dp2865
g82
I3
ssg83
g2859
sg76
(lp2866
g1387
asbasbasbag69
(g85
g71
NtRp2867
(dp2868
g74
(dp2869
sg83
g2548
sg76
(lp2870
g69
(g90
g71
NtRp2871
(dp2872
g74
(dp2873
g94
g95
ssg83
g2867
sg76
(lp2874
S'REQUEST_URI'
p2875
asbag69
(g90
g71
NtRp2876
(dp2877
g74
(dp2878
g101
g102
ssg83
g2867
sg76
(lp2879
S':'
asbag69
(g90
g71
NtRp2880
(dp2881
g74
(dp2882
sg83
g2867
sg76
(lp2883
g69
(g70
g71
NtRp2884
(dp2885
g74
(dp2886
g82
I3
ssg83
g2880
sg76
(lp2887
g1301
asbasbasbag69
(g85
g71
NtRp2888
(dp2889
g74
(dp2890
sg83
g2548
sg76
(lp2891
g69
(g90
g71
NtRp2892
(dp2893
g74
(dp2894
g94
g95
ssg83
g2888
sg76
(lp2895
S'SCRIPT_NAME'
p2896
asbag69
(g90
g71
NtRp2897
(dp2898
g74
(dp2899
g101
g102
ssg83
g2888
sg76
(lp2900
S':'
asbag69
(g90
g71
NtRp2901
(dp2902
g74
(dp2903
sg83
g2888
sg76
(lp2904
g69
(g70
g71
NtRp2905
(dp2906
g74
(dp2907
g82
I3
ssg83
g2901
sg76
(lp2908
S''
asbasbasbag69
(g85
g71
NtRp2909
(dp2910
g74
(dp2911
sg83
g2548
sg76
(lp2912
g69
(g90
g71
NtRp2913
(dp2914
g74
(dp2915
g94
g95
ssg83
g2909
sg76
(lp2916
S'SERVER_NAME'
p2917
asbag69
(g90
g71
NtRp2918
(dp2919
g74
(dp2920
g101
g102
ssg83
g2909
sg76
(lp2921
S':'
asbag69
(g90
g71
NtRp2922
(dp2923
g74
(dp2924
sg83
g2909
sg76
(lp2925
g69
(g70
g71
NtRp2926
(dp2927
g74
(dp2928
g82
I3
ssg83
g2922
sg76
(lp2929
g1451
asbasbasbag69
(g85
g71
NtRp2930
(dp2931
g74
(dp2932
sg83
g2548
sg76
(lp2933
g69
(g90
g71
NtRp2934
(dp2935
g74
(dp2936
g94
g95
ssg83
g2930
sg76
(lp2937
S'SERVER_PORT'
p2938
asbag69
(g90
g71
NtRp2939
(dp2940
g74
(dp2941
g101
g102
ssg83
g2930
sg76
(lp2942
S':'
asbag69
(g90
g71
NtRp2943
(dp2944
g74
(dp2945
sg83
g2930
sg76
(lp2946
g69
(g70
g71
NtRp2947
(dp2948
g74
(dp2949
g82
I3
ssg83
g2943
sg76
(lp2950
g1473
asbasbasbag69
(g85
g71
NtRp2951
(dp2952
g74
(dp2953
sg83
g2548
sg76
(lp2954
g69
(g90
g71
NtRp2955
(dp2956
g74
(dp2957
g94
g95
ssg83
g2951
sg76
(lp2958
S'SERVER_PROTOCOL'
p2959
asbag69
(g90
g71
NtRp2960
(dp2961
g74
(dp2962
g101
g102
ssg83
g2951
sg76
(lp2963
S':'
asbag69
(g90
g71
NtRp2964
(dp2965
g74
(dp2966
sg83
g2951
sg76
(lp2967
g69
(g70
g71
NtRp2968
(dp2969
g74
(dp2970
g82
I3
ssg83
g2964
sg76
(lp2971
g1495
asbasbasbag69
(g85
g71
NtRp2972
(dp2973
g74
(dp2974
sg83
g2548
sg76
(lp2975
g69
(g90
g71
NtRp2976
(dp2977
g74
(dp2978
g94
g95
ssg83
g2972
sg76
(lp2979
S'SERVER_SOFTWARE'
p2980
asbag69
(g90
g71
NtRp2981
(dp2982
g74
(dp2983
g101
g102
ssg83
g2972
sg76
(lp2984
S':'
asbag69
(g90
g71
NtRp2985
(dp2986
g74
(dp2987
sg83
g2972
sg76
(lp2988
g69
(g70
g71
NtRp2989
(dp2990
g74
(dp2991
g82
I3
ssg83
g2985
sg76
(lp2992
g1517
asbasbasbag69
(g85
g71
NtRp2993
(dp2994
g74
(dp2995
sg83
g2548
sg76
(lp2996
g69
(g90
g71
NtRp2997
(dp2998
g74
(dp2999
g94
g95
ssg83
g2993
sg76
(lp3000
S'wsgi.errors'
p3001
asbag69
(g90
g71
NtRp3002
(dp3003
g74
(dp3004
g101
g102
ssg83
g2993
sg76
(lp3005
S':'
asbag69
(g90
g71
NtRp3006
(dp3007
g74
(dp3008
sg83
g2993
sg76
(lp3009
g69
(g70
g71
NtRp3010
(dp3011
g74
(dp3012
g82
I3
ssg83
g3006
sg76
(lp3013
S"<open file '<stderr>', mode 'w' at 0x021D50D0>"
p3014
asbasbasbag69
(g85
g71
NtRp3015
(dp3016
g74
(dp3017
sg83
g2548
sg76
(lp3018
g69
(g90
g71
NtRp3019
(dp3020
g74
(dp3021
g94
g95
ssg83
g3015
sg76
(lp3022
S'wsgi.file_wrapper'
p3023
asbag69
(g90
g71
NtRp3024
(dp3025
g74
(dp3026
g101
g102
ssg83
g3015
sg76
(lp3027
S':'
asbag69
(g90
g71
NtRp3028
(dp3029
g74
(dp3030
sg83
g3015
sg76
(lp3031
g69
(g70
g71
NtRp3032
(dp3033
g74
(dp3034
g82
I3
ssg83
g3028
sg76
(lp3035
S'<class wsgiref.util.FileWrapper at 0x02C1D030>'
p3036
asbasbasbag69
(g85
g71
NtRp3037
(dp3038
g74
(dp3039
sg83
g2548
sg76
(lp3040
g69
(g90
g71
NtRp3041
(dp3042
g74
(dp3043
g94
g95
ssg83
g3037
sg76
(lp3044
S'wsgi.input'
p3045
asbag69
(g90
g71
NtRp3046
(dp3047
g74
(dp3048
g101
g102
ssg83
g3037
sg76
(lp3049
S':'
asbag69
(g90
g71
NtRp3050
(dp3051
g74
(dp3052
sg83
g3037
sg76
(lp3053
g69
(g70
g71
NtRp3054
(dp3055
g74
(dp3056
g82
I3
ssg83
g3050
sg76
(lp3057
S'<cStringIO.StringO object at 0x06901E20>'
p3058
asbasbasbag69
(g85
g71
NtRp3059
(dp3060
g74
(dp3061
sg83
g2548
sg76
(lp3062
g69
(g90
g71
NtRp3063
(dp3064
g74
(dp3065
g94
g95
ssg83
g3059
sg76
(lp3066
S'wsgi.multiprocess'
p3067
asbag69
(g90
g71
NtRp3068
(dp3069
g74
(dp3070
g101
g102
ssg83
g3059
sg76
(lp3071
S':'
asbag69
(g90
g71
NtRp3072
(dp3073
g74
(dp3074
sg83
g3059
sg76
(lp3075
g69
(g70
g71
NtRp3076
(dp3077
g74
(dp3078
g82
I3
ssg83
g3072
sg76
(lp3079
g112
asbasbasbag69
(g85
g71
NtRp3080
(dp3081
g74
(dp3082
sg83
g2548
sg76
(lp3083
g69
(g90
g71
NtRp3084
(dp3085
g74
(dp3086
g94
g95
ssg83
g3080
sg76
(lp3087
S'wsgi.multithread'
p3088
asbag69
(g90
g71
NtRp3089
(dp3090
g74
(dp3091
g101
g102
ssg83
g3080
sg76
(lp3092
S':'
asbag69
(g90
g71
NtRp3093
(dp3094
g74
(dp3095
sg83
g3080
sg76
(lp3096
g69
(g70
g71
NtRp3097
(dp3098
g74
(dp3099
g82
I3
ssg83
g3093
sg76
(lp3100
g1756
asbasbasbag69
(g85
g71
NtRp3101
(dp3102
g74
(dp3103
sg83
g2548
sg76
(lp3104
g69
(g90
g71
NtRp3105
(dp3106
g74
(dp3107
g94
g95
ssg83
g3101
sg76
(lp3108
S'wsgi.run_once'
p3109
asbag69
(g90
g71
NtRp3110
(dp3111
g74
(dp3112
g101
g102
ssg83
g3101
sg76
(lp3113
S':'
asbag69
(g90
g71
NtRp3114
(dp3115
g74
(dp3116
sg83
g3101
sg76
(lp3117
g69
(g70
g71
NtRp3118
(dp3119
g74
(dp3120
g82
I3
ssg83
g3114
sg76
(lp3121
g112
asbasbasbag69
(g85
g71
NtRp3122
(dp3123
g74
(dp3124
sg83
g2548
sg76
(lp3125
g69
(g90
g71
NtRp3126
(dp3127
g74
(dp3128
g94
g95
ssg83
g3122
sg76
(lp3129
S'wsgi.url_scheme'
p3130
asbag69
(g90
g71
NtRp3131
(dp3132
g74
(dp3133
g101
g102
ssg83
g3122
sg76
(lp3134
S':'
asbag69
(g90
g71
NtRp3135
(dp3136
g74
(dp3137
sg83
g3122
sg76
(lp3138
g69
(g70
g71
NtRp3139
(dp3140
g74
(dp3141
g82
I3
ssg83
g3135
sg76
(lp3142
g1799
asbasbasbag69
(g85
g71
NtRp3143
(dp3144
g74
(dp3145
sg83
g2548
sg76
(lp3146
g69
(g90
g71
NtRp3147
(dp3148
g74
(dp3149
g94
g95
ssg83
g3143
sg76
(lp3150
S'wsgi.version'
p3151
asbag69
(g90
g71
NtRp3152
(dp3153
g74
(dp3154
g101
g102
ssg83
g3143
sg76
(lp3155
S':'
asbag69
(g90
g71
NtRp3156
(dp3157
g74
(dp3158
sg83
g3143
sg76
(lp3159
g69
(g70
g71
NtRp3160
(dp3161
g74
(dp3162
g82
I3
ssg83
g3156
sg76
(lp3163
S'1'
asbasbasbasbasbasbasbasbasbasbasbasbasbsS'frames'
p3164
(lp3165
(dp3166
S'file'
p3167
S'C:\\xampp\\htdocs\\web2py\\gluon\\restricted.py'
p3168
sS'dump'
p3169
(dp3170
sS'lnum'
p3171
I209
sS'lines'
p3172
(dp3173
sS'call'
p3174
S"(code='# -*- coding: utf-8 -*-\\n# this file is released ...=crud())\\n\\nresponse._vars=response._caller(index)\\n', environment={'A': <class 'gluon.html.A'>, 'Auth': <class 'gluon.tools.Auth'>, 'B': <class 'gluon.html.B'>, 'BEAUTIFY': <class 'gluon.html.BEAUTIFY'>, 'BODY': <class 'gluon.html.BODY'>, 'BR': <class 'gluon.html.BR'>, 'BUTTON': <class 'gluon.html.BUTTON'>, 'CAT': <class 'gluon.html.CAT'>, 'CENTER': <class 'gluon.html.CENTER'>, 'CLEANUP': <class 'gluon.validators.CLEANUP'>, ...}, layer=r'C:\\xampp\\htdocs\\web2py\\applications\\testumgebung\\controllers/default.py')"
p3175
sS'func'
p3176
S'restricted'
p3177
sa(dp3178
g3167
S'C:\\xampp\\htdocs\\web2py\\applications\\testumgebung\\controllers\\default.py'
p3179
sg3169
(dp3180
sg3171
I3
sg3172
(dp3181
I2
S'# this file is released under public domain and you can use without limitations'
p3182
sI3
S'from plugin_kibit_widgets import LikertWidget'
p3183
sI4
S''
sI5
S'db.answers.scale.widget = LikertWidget()'
p3184
sI6
S'#########################################################################'
p3185
sI7
S'## This is a samples controller'
p3186
sI8
S'## - index is the default action of any application'
p3187
sI9
S'## - user is required for authentication and authorization'
p3188
sI10
S'## - download is for downloading files uploaded in the db (does streaming)'
p3189
sI11
S'## - call exposes all registered services (none by default)'
p3190
ssg3174
S'()'
p3191
sg3176
S'<module>'
p3192
sa(dp3193
g3167
S'C:\\xampp\\htdocs\\web2py\\gluon\\custom_import.py'
p3194
sg3169
(dp3195
sg3171
I289
sg3172
(dp3196
sg3174
S"(self=<gluon.custom_import._Web2pyDateTrackerImporter object>, name='plugin_kibit_widgets', globals={'A': <class 'gluon.html.A'>, 'Auth': <class 'gluon.tools.Auth'>, 'B': <class 'gluon.html.B'>, 'BEAUTIFY': <class 'gluon.html.BEAUTIFY'>, 'BODY': <class 'gluon.html.BODY'>, 'BR': <class 'gluon.html.BR'>, 'BUTTON': <class 'gluon.html.BUTTON'>, 'CAT': <class 'gluon.html.CAT'>, 'CENTER': <class 'gluon.html.CENTER'>, 'CLEANUP': <class 'gluon.validators.CLEANUP'>, ...}, locals={'A': <class 'gluon.html.A'>, 'Auth': <class 'gluon.tools.Auth'>, 'B': <class 'gluon.html.B'>, 'BEAUTIFY': <class 'gluon.html.BEAUTIFY'>, 'BODY': <class 'gluon.html.BODY'>, 'BR': <class 'gluon.html.BR'>, 'BUTTON': <class 'gluon.html.BUTTON'>, 'CAT': <class 'gluon.html.CAT'>, 'CENTER': <class 'gluon.html.CENTER'>, 'CLEANUP': <class 'gluon.validators.CLEANUP'>, ...}, fromlist=('LikertWidget',), level=-1)"
p3197
sg3176
S'__call__'
p3198
sa(dp3199
g3167
S'C:\\xampp\\htdocs\\web2py\\gluon\\custom_import.py'
p3200
sg3169
(dp3201
sg3171
I123
sg3172
(dp3202
sg3174
S"(self=<gluon.custom_import._Web2pyDateTrackerImporter object>, name='applications.testumgebung.modules.plugin_kibit_widgets', globals={'A': <class 'gluon.html.A'>, 'Auth': <class 'gluon.tools.Auth'>, 'B': <class 'gluon.html.B'>, 'BEAUTIFY': <class 'gluon.html.BEAUTIFY'>, 'BODY': <class 'gluon.html.BODY'>, 'BR': <class 'gluon.html.BR'>, 'BUTTON': <class 'gluon.html.BUTTON'>, 'CAT': <class 'gluon.html.CAT'>, 'CENTER': <class 'gluon.html.CENTER'>, 'CLEANUP': <class 'gluon.validators.CLEANUP'>, ...}, locals={'A': <class 'gluon.html.A'>, 'Auth': <class 'gluon.tools.Auth'>, 'B': <class 'gluon.html.B'>, 'BEAUTIFY': <class 'gluon.html.BEAUTIFY'>, 'BODY': <class 'gluon.html.BODY'>, 'BR': <class 'gluon.html.BR'>, 'BUTTON': <class 'gluon.html.BUTTON'>, 'CAT': <class 'gluon.html.CAT'>, 'CENTER': <class 'gluon.html.CENTER'>, 'CLEANUP': <class 'gluon.validators.CLEANUP'>, ...}, fromlist=('LikertWidget',), level=-1)"
p3203
sg3176
g3198
sa(dp3204
g3167
S'C:\\xampp\\htdocs\\web2py\\gluon\\custom_import.py'
p3205
sg3169
(dp3206
sg3171
I143
sg3172
(dp3207
sg3174
S"(self=<gluon.custom_import._Web2pyDateTrackerImporter object>, name='applications.testumgebung.modules.plugin_kibit_widgets', fromlist=('LikertWidget',))"
p3208
sg3176
S'_update_dates'
p3209
sa(dp3210
g3167
S'C:\\xampp\\htdocs\\web2py\\gluon\\custom_import.py'
p3211
sg3169
(dp3212
sg3171
I191
sg3172
(dp3213
sg3174
S"(self=<gluon.custom_import._Web2pyDateTrackerImporter object>, name='applications.testumgebung.modules.plugin_kibit_widgets')"
p3214
sg3176
S'_reload_check'
p3215
sasS'pyver'
p3216
S'Python 2.7: C:\\xampp\\htdocs\\web2py\\web2py.exe'
p3217
sS'session'
p3218
g69
(g70
g71
NtRp3219
(dp3220
g74
(dp3221
sg76
(lp3222
g69
(g78
g71
NtRp3223
(dp3224
g74
(dp3225
g82
I5
ssg83
Nsg76
(lp3226
g69
(g85
g71
NtRp3227
(dp3228
g74
(dp3229
sg83
g3223
sg76
(lp3230
g69
(g90
g71
NtRp3231
(dp3232
g74
(dp3233
g94
g95
ssg83
g3227
sg76
(lp3234
S'auth'
p3235
asbag69
(g90
g71
NtRp3236
(dp3237
g74
(dp3238
g101
g102
ssg83
g3227
sg76
(lp3239
S':'
asbag69
(g90
g71
NtRp3240
(dp3241
g74
(dp3242
sg83
g3227
sg76
(lp3243
g69
(g70
g71
NtRp3244
(dp3245
g74
(dp3246
g82
I5
ssg83
g3240
sg76
(lp3247
S'None'
p3248
asbasbasbasbasbsS'etype'
p3249
S"<type 'exceptions.SyntaxError'>"
p3250
sS'date'
p3251
S'Fri Dec 14 10:08:19 2012'
p3252
sS'response'
p3253
g69
(g70
g71
NtRp3254
(dp3255
g74
(dp3256
sg76
(lp3257
g69
(g78
g71
NtRp3258
(dp3259
g74
(dp3260
g82
I5
ssg83
Nsg76
(lp3261
g69
(g85
g71
NtRp3262
(dp3263
g74
(dp3264
sg83
g3258
sg76
(lp3265
g69
(g90
g71
NtRp3266
(dp3267
g74
(dp3268
g94
g95
ssg83
g3262
sg76
(lp3269
g167
asbag69
(g90
g71
NtRp3270
(dp3271
g74
(dp3272
g101
g102
ssg83
g3262
sg76
(lp3273
S':'
asbag69
(g90
g71
NtRp3274
(dp3275
g74
(dp3276
sg83
g3262
sg76
(lp3277
g69
(g70
g71
NtRp3278
(dp3279
g74
(dp3280
g82
I5
ssg83
g3274
sg76
(lp3281
S'<cStringIO.StringO object at 0x06E7D0C0>'
p3282
asbasbasbag69
(g85
g71
NtRp3283
(dp3284
g74
(dp3285
sg83
g3258
sg76
(lp3286
g69
(g90
g71
NtRp3287
(dp3288
g74
(dp3289
g94
g95
ssg83
g3283
sg76
(lp3290
g255
asbag69
(g90
g71
NtRp3291
(dp3292
g74
(dp3293
g101
g102
ssg83
g3283
sg76
(lp3294
S':'
asbag69
(g90
g71
NtRp3295
(dp3296
g74
(dp3297
sg83
g3283
sg76
(lp3298
g69
(g70
g71
NtRp3299
(dp3300
g74
(dp3301
g82
I5
ssg83
g3295
sg76
(lp3302
g69
(g78
g71
NtRp3303
(dp3304
g74
(dp3305
g82
I4
ssg83
Nsg76
(lp3306
g69
(g85
g71
NtRp3307
(dp3308
g74
(dp3309
sg83
g3303
sg76
(lp3310
g69
(g90
g71
NtRp3311
(dp3312
g74
(dp3313
g94
g95
ssg83
g3307
sg76
(lp3314
S'session_id_testumgebung'
p3315
asbag69
(g90
g71
NtRp3316
(dp3317
g74
(dp3318
g101
g102
ssg83
g3307
sg76
(lp3319
S':'
asbag69
(g90
g71
NtRp3320
(dp3321
g74
(dp3322
sg83
g3307
sg76
(lp3323
g69
(g70
g71
NtRp3324
(dp3325
g74
(dp3326
g82
I4
ssg83
g3320
sg76
(lp3327
g487
ag69
(g78
g71
NtRp3328
(dp3329
g74
(dp3330
g82
I3
ssg83
Nsg76
(lp3331
g69
(g85
g71
NtRp3332
(dp3333
g74
(dp3334
sg83
g3328
sg76
(lp3335
g69
(g90
g71
NtRp3336
(dp3337
g74
(dp3338
g94
g95
ssg83
g3332
sg76
(lp3339
g306
asbag69
(g90
g71
NtRp3340
(dp3341
g74
(dp3342
g101
g102
ssg83
g3332
sg76
(lp3343
S':'
asbag69
(g90
g71
NtRp3344
(dp3345
g74
(dp3346
sg83
g3332
sg76
(lp3347
g69
(g70
g71
NtRp3348
(dp3349
g74
(dp3350
g82
I3
ssg83
g3344
sg76
(lp3351
S''
asbasbasbag69
(g85
g71
NtRp3352
(dp3353
g74
(dp3354
sg83
g3328
sg76
(lp3355
g69
(g90
g71
NtRp3356
(dp3357
g74
(dp3358
g94
g95
ssg83
g3352
sg76
(lp3359
g327
asbag69
(g90
g71
NtRp3360
(dp3361
g74
(dp3362
g101
g102
ssg83
g3352
sg76
(lp3363
S':'
asbag69
(g90
g71
NtRp3364
(dp3365
g74
(dp3366
sg83
g3352
sg76
(lp3367
g69
(g70
g71
NtRp3368
(dp3369
g74
(dp3370
g82
I3
ssg83
g3364
sg76
(lp3371
S''
asbasbasbag69
(g85
g71
NtRp3372
(dp3373
g74
(dp3374
sg83
g3328
sg76
(lp3375
g69
(g90
g71
NtRp3376
(dp3377
g74
(dp3378
g94
g95
ssg83
g3372
sg76
(lp3379
g348
asbag69
(g90
g71
NtRp3380
(dp3381
g74
(dp3382
g101
g102
ssg83
g3372
sg76
(lp3383
S':'
asbag69
(g90
g71
NtRp3384
(dp3385
g74
(dp3386
sg83
g3372
sg76
(lp3387
g69
(g70
g71
NtRp3388
(dp3389
g74
(dp3390
g82
I3
ssg83
g3384
sg76
(lp3391
S''
asbasbasbag69
(g85
g71
NtRp3392
(dp3393
g74
(dp3394
sg83
g3328
sg76
(lp3395
g69
(g90
g71
NtRp3396
(dp3397
g74
(dp3398
g94
g95
ssg83
g3392
sg76
(lp3399
g369
asbag69
(g90
g71
NtRp3400
(dp3401
g74
(dp3402
g101
g102
ssg83
g3392
sg76
(lp3403
S':'
asbag69
(g90
g71
NtRp3404
(dp3405
g74
(dp3406
sg83
g3392
sg76
(lp3407
g69
(g70
g71
NtRp3408
(dp3409
g74
(dp3410
g82
I3
ssg83
g3404
sg76
(lp3411
S''
asbasbasbag69
(g85
g71
NtRp3412
(dp3413
g74
(dp3414
sg83
g3328
sg76
(lp3415
g69
(g90
g71
NtRp3416
(dp3417
g74
(dp3418
g94
g95
ssg83
g3412
sg76
(lp3419
g390
asbag69
(g90
g71
NtRp3420
(dp3421
g74
(dp3422
g101
g102
ssg83
g3412
sg76
(lp3423
S':'
asbag69
(g90
g71
NtRp3424
(dp3425
g74
(dp3426
sg83
g3412
sg76
(lp3427
g69
(g70
g71
NtRp3428
(dp3429
g74
(dp3430
g82
I3
ssg83
g3424
sg76
(lp3431
S''
asbasbasbag69
(g85
g71
NtRp3432
(dp3433
g74
(dp3434
sg83
g3328
sg76
(lp3435
g69
(g90
g71
NtRp3436
(dp3437
g74
(dp3438
g94
g95
ssg83
g3432
sg76
(lp3439
g411
asbag69
(g90
g71
NtRp3440
(dp3441
g74
(dp3442
g101
g102
ssg83
g3432
sg76
(lp3443
S':'
asbag69
(g90
g71
NtRp3444
(dp3445
g74
(dp3446
sg83
g3432
sg76
(lp3447
g69
(g70
g71
NtRp3448
(dp3449
g74
(dp3450
g82
I3
ssg83
g3444
sg76
(lp3451
S'/'
asbasbasbag69
(g85
g71
NtRp3452
(dp3453
g74
(dp3454
sg83
g3328
sg76
(lp3455
g69
(g90
g71
NtRp3456
(dp3457
g74
(dp3458
g94
g95
ssg83
g3452
sg76
(lp3459
g432
asbag69
(g90
g71
NtRp3460
(dp3461
g74
(dp3462
g101
g102
ssg83
g3452
sg76
(lp3463
S':'
asbag69
(g90
g71
NtRp3464
(dp3465
g74
(dp3466
sg83
g3452
sg76
(lp3467
g69
(g70
g71
NtRp3468
(dp3469
g74
(dp3470
g82
I3
ssg83
g3464
sg76
(lp3471
S''
asbasbasbag69
(g85
g71
NtRp3472
(dp3473
g74
(dp3474
sg83
g3328
sg76
(lp3475
g69
(g90
g71
NtRp3476
(dp3477
g74
(dp3478
g94
g95
ssg83
g3472
sg76
(lp3479
g453
asbag69
(g90
g71
NtRp3480
(dp3481
g74
(dp3482
g101
g102
ssg83
g3472
sg76
(lp3483
S':'
asbag69
(g90
g71
NtRp3484
(dp3485
g74
(dp3486
sg83
g3472
sg76
(lp3487
g69
(g70
g71
NtRp3488
(dp3489
g74
(dp3490
g82
I3
ssg83
g3484
sg76
(lp3491
S''
asbasbasbasbasbasbasbasbasbasbasbag69
(g85
g71
NtRp3492
(dp3493
g74
(dp3494
sg83
g3258
sg76
(lp3495
g69
(g90
g71
NtRp3496
(dp3497
g74
(dp3498
g94
g95
ssg83
g3492
sg76
(lp3499
S'delimiters'
p3500
asbag69
(g90
g71
NtRp3501
(dp3502
g74
(dp3503
g101
g102
ssg83
g3492
sg76
(lp3504
S':'
asbag69
(g90
g71
NtRp3505
(dp3506
g74
(dp3507
sg83
g3492
sg76
(lp3508
g69
(g70
g71
NtRp3509
(dp3510
g74
(dp3511
g82
I5
ssg83
g3505
sg76
(lp3512
g69
(g78
g71
NtRp3513
(dp3514
g74
(dp3515
g82
I4
ssg83
Nsg76
(lp3516
g69
(g85
g71
NtRp3517
(dp3518
g74
(dp3519
sg83
g3513
sg76
(lp3520
g69
(g90
g71
NtRp3521
(dp3522
g74
(dp3523
sg83
g3517
sg76
(lp3524
g69
(g70
g71
NtRp3525
(dp3526
g74
(dp3527
g82
I4
ssg83
g3521
sg76
(lp3528
S'{{'
p3529
asbasbasbag69
(g85
g71
NtRp3530
(dp3531
g74
(dp3532
sg83
g3513
sg76
(lp3533
g69
(g90
g71
NtRp3534
(dp3535
g74
(dp3536
sg83
g3530
sg76
(lp3537
g69
(g70
g71
NtRp3538
(dp3539
g74
(dp3540
g82
I4
ssg83
g3534
sg76
(lp3541
S'}}'
p3542
asbasbasbasbasbasbasbag69
(g85
g71
NtRp3543
(dp3544
g74
(dp3545
sg83
g3258
sg76
(lp3546
g69
(g90
g71
NtRp3547
(dp3548
g74
(dp3549
g94
g95
ssg83
g3543
sg76
(lp3550
S'files'
p3551
asbag69
(g90
g71
NtRp3552
(dp3553
g74
(dp3554
g101
g102
ssg83
g3543
sg76
(lp3555
S':'
asbag69
(g90
g71
NtRp3556
(dp3557
g74
(dp3558
sg83
g3543
sg76
(lp3559
g69
(g70
g71
NtRp3560
(dp3561
g74
(dp3562
g82
I5
ssg83
g3556
sg76
(lp3563
g69
(g78
g71
NtRp3564
(dp3565
g74
(dp3566
g82
I4
ssg83
Nsg76
(lp3567
sbasbasbasbag69
(g85
g71
NtRp3568
(dp3569
g74
(dp3570
sg83
g3258
sg76
(lp3571
g69
(g90
g71
NtRp3572
(dp3573
g74
(dp3574
g94
g95
ssg83
g3568
sg76
(lp3575
S'flash'
p3576
asbag69
(g90
g71
NtRp3577
(dp3578
g74
(dp3579
g101
g102
ssg83
g3568
sg76
(lp3580
S':'
asbag69
(g90
g71
NtRp3581
(dp3582
g74
(dp3583
sg83
g3568
sg76
(lp3584
g69
(g70
g71
NtRp3585
(dp3586
g74
(dp3587
g82
I5
ssg83
g3581
sg76
(lp3588
S''
asbasbasbag69
(g85
g71
NtRp3589
(dp3590
g74
(dp3591
sg83
g3258
sg76
(lp3592
g69
(g90
g71
NtRp3593
(dp3594
g74
(dp3595
g94
g95
ssg83
g3589
sg76
(lp3596
S'generic_patterns'
p3597
asbag69
(g90
g71
NtRp3598
(dp3599
g74
(dp3600
g101
g102
ssg83
g3589
sg76
(lp3601
S':'
asbag69
(g90
g71
NtRp3602
(dp3603
g74
(dp3604
sg83
g3589
sg76
(lp3605
g69
(g70
g71
NtRp3606
(dp3607
g74
(dp3608
g82
I5
ssg83
g3602
sg76
(lp3609
g69
(g78
g71
NtRp3610
(dp3611
g74
(dp3612
g82
I4
ssg83
Nsg76
(lp3613
g69
(g85
g71
NtRp3614
(dp3615
g74
(dp3616
sg83
g3610
sg76
(lp3617
g69
(g90
g71
NtRp3618
(dp3619
g74
(dp3620
sg83
g3614
sg76
(lp3621
g69
(g70
g71
NtRp3622
(dp3623
g74
(dp3624
g82
I4
ssg83
g3618
sg76
(lp3625
S'*'
asbasbasbasbasbasbasbag69
(g85
g71
NtRp3626
(dp3627
g74
(dp3628
sg83
g3258
sg76
(lp3629
g69
(g90
g71
NtRp3630
(dp3631
g74
(dp3632
g94
g95
ssg83
g3626
sg76
(lp3633
S'google_analytics_id'
p3634
asbag69
(g90
g71
NtRp3635
(dp3636
g74
(dp3637
g101
g102
ssg83
g3626
sg76
(lp3638
S':'
asbag69
(g90
g71
NtRp3639
(dp3640
g74
(dp3641
sg83
g3626
sg76
(lp3642
g69
(g70
g71
NtRp3643
(dp3644
g74
(dp3645
g82
I5
ssg83
g3639
sg76
(lp3646
S'None'
p3647
asbasbasbag69
(g85
g71
NtRp3648
(dp3649
g74
(dp3650
sg83
g3258
sg76
(lp3651
g69
(g90
g71
NtRp3652
(dp3653
g74
(dp3654
g94
g95
ssg83
g3648
sg76
(lp3655
S'headers'
p3656
asbag69
(g90
g71
NtRp3657
(dp3658
g74
(dp3659
g101
g102
ssg83
g3648
sg76
(lp3660
S':'
asbag69
(g90
g71
NtRp3661
(dp3662
g74
(dp3663
sg83
g3648
sg76
(lp3664
g69
(g70
g71
NtRp3665
(dp3666
g74
(dp3667
g82
I5
ssg83
g3661
sg76
(lp3668
g69
(g78
g71
NtRp3669
(dp3670
g74
(dp3671
g82
I4
ssg83
Nsg76
(lp3672
g69
(g85
g71
NtRp3673
(dp3674
g74
(dp3675
sg83
g3669
sg76
(lp3676
g69
(g90
g71
NtRp3677
(dp3678
g74
(dp3679
g94
g95
ssg83
g3673
sg76
(lp3680
S'Cache-Control'
p3681
asbag69
(g90
g71
NtRp3682
(dp3683
g74
(dp3684
g101
g102
ssg83
g3673
sg76
(lp3685
S':'
asbag69
(g90
g71
NtRp3686
(dp3687
g74
(dp3688
sg83
g3673
sg76
(lp3689
g69
(g70
g71
NtRp3690
(dp3691
g74
(dp3692
g82
I4
ssg83
g3686
sg76
(lp3693
S'no-store, no-cache, must-revalidate, post-check=0, pre-check=0'
p3694
asbasbasbag69
(g85
g71
NtRp3695
(dp3696
g74
(dp3697
sg83
g3669
sg76
(lp3698
g69
(g90
g71
NtRp3699
(dp3700
g74
(dp3701
g94
g95
ssg83
g3695
sg76
(lp3702
S'Content-Type'
p3703
asbag69
(g90
g71
NtRp3704
(dp3705
g74
(dp3706
g101
g102
ssg83
g3695
sg76
(lp3707
S':'
asbag69
(g90
g71
NtRp3708
(dp3709
g74
(dp3710
sg83
g3695
sg76
(lp3711
g69
(g70
g71
NtRp3712
(dp3713
g74
(dp3714
g82
I4
ssg83
g3708
sg76
(lp3715
S'text/html; charset=utf-8'
p3716
asbasbasbag69
(g85
g71
NtRp3717
(dp3718
g74
(dp3719
sg83
g3669
sg76
(lp3720
g69
(g90
g71
NtRp3721
(dp3722
g74
(dp3723
g94
g95
ssg83
g3717
sg76
(lp3724
S'Expires'
p3725
asbag69
(g90
g71
NtRp3726
(dp3727
g74
(dp3728
g101
g102
ssg83
g3717
sg76
(lp3729
S':'
asbag69
(g90
g71
NtRp3730
(dp3731
g74
(dp3732
sg83
g3717
sg76
(lp3733
g69
(g70
g71
NtRp3734
(dp3735
g74
(dp3736
g82
I4
ssg83
g3730
sg76
(lp3737
S'Fri, 14 Dec 2012 09:08:19 GMT'
p3738
asbasbasbag69
(g85
g71
NtRp3739
(dp3740
g74
(dp3741
sg83
g3669
sg76
(lp3742
g69
(g90
g71
NtRp3743
(dp3744
g74
(dp3745
g94
g95
ssg83
g3739
sg76
(lp3746
S'Pragma'
p3747
asbag69
(g90
g71
NtRp3748
(dp3749
g74
(dp3750
g101
g102
ssg83
g3739
sg76
(lp3751
S':'
asbag69
(g90
g71
NtRp3752
(dp3753
g74
(dp3754
sg83
g3739
sg76
(lp3755
g69
(g70
g71
NtRp3756
(dp3757
g74
(dp3758
g82
I4
ssg83
g3752
sg76
(lp3759
S'no-cache'
p3760
asbasbasbag69
(g85
g71
NtRp3761
(dp3762
g74
(dp3763
sg83
g3669
sg76
(lp3764
g69
(g90
g71
NtRp3765
(dp3766
g74
(dp3767
g94
g95
ssg83
g3761
sg76
(lp3768
S'X-Powered-By'
p3769
asbag69
(g90
g71
NtRp3770
(dp3771
g74
(dp3772
g101
g102
ssg83
g3761
sg76
(lp3773
S':'
asbag69
(g90
g71
NtRp3774
(dp3775
g74
(dp3776
sg83
g3761
sg76
(lp3777
g69
(g70
g71
NtRp3778
(dp3779
g74
(dp3780
g82
I4
ssg83
g3774
sg76
(lp3781
S'web2py'
p3782
asbasbasbasbasbasbasbag69
(g85
g71
NtRp3783
(dp3784
g74
(dp3785
sg83
g3258
sg76
(lp3786
g69
(g90
g71
NtRp3787
(dp3788
g74
(dp3789
g94
g95
ssg83
g3783
sg76
(lp3790
S'menu'
p3791
asbag69
(g90
g71
NtRp3792
(dp3793
g74
(dp3794
g101
g102
ssg83
g3783
sg76
(lp3795
S':'
asbag69
(g90
g71
NtRp3796
(dp3797
g74
(dp3798
sg83
g3783
sg76
(lp3799
g69
(g70
g71
NtRp3800
(dp3801
g74
(dp3802
g82
I5
ssg83
g3796
sg76
(lp3803
g69
(g78
g71
NtRp3804
(dp3805
g74
(dp3806
g82
I4
ssg83
Nsg76
(lp3807
g69
(g85
g71
NtRp3808
(dp3809
g74
(dp3810
sg83
g3804
sg76
(lp3811
g69
(g90
g71
NtRp3812
(dp3813
g74
(dp3814
sg83
g3808
sg76
(lp3815
g69
(g70
g71
NtRp3816
(dp3817
g74
(dp3818
g82
I4
ssg83
g3812
sg76
(lp3819
g69
(g78
g71
NtRp3820
(dp3821
g74
(dp3822
g82
I3
ssg83
Nsg76
(lp3823
g69
(g85
g71
NtRp3824
(dp3825
g74
(dp3826
sg83
g3820
sg76
(lp3827
g69
(g90
g71
NtRp3828
(dp3829
g74
(dp3830
sg83
g3824
sg76
(lp3831
g69
(g70
g71
NtRp3832
(dp3833
g74
(dp3834
g82
I3
ssg83
g3828
sg76
(lp3835
cgluon.languages
lazyT_unpickle
p3836
(S't\x04\x00\x00\x00Home'
tRp3837
asbasbasbag69
(g85
g71
NtRp3838
(dp3839
g74
(dp3840
sg83
g3820
sg76
(lp3841
g69
(g90
g71
NtRp3842
(dp3843
g74
(dp3844
sg83
g3838
sg76
(lp3845
g69
(g70
g71
NtRp3846
(dp3847
g74
(dp3848
g82
I3
ssg83
g3842
sg76
(lp3849
g112
asbasbasbag69
(g85
g71
NtRp3850
(dp3851
g74
(dp3852
sg83
g3820
sg76
(lp3853
g69
(g90
g71
NtRp3854
(dp3855
g74
(dp3856
sg83
g3850
sg76
(lp3857
g69
(g70
g71
NtRp3858
(dp3859
g74
(dp3860
g82
I3
ssg83
g3854
sg76
(lp3861
S'/testumgebung/default/index'
p3862
asbasbasbag69
(g85
g71
NtRp3863
(dp3864
g74
(dp3865
sg83
g3820
sg76
(lp3866
g69
(g90
g71
NtRp3867
(dp3868
g74
(dp3869
sg83
g3863
sg76
(lp3870
g69
(g70
g71
NtRp3871
(dp3872
g74
(dp3873
g82
I3
ssg83
g3867
sg76
(lp3874
g69
(g78
g71
NtRp3875
(dp3876
g74
(dp3877
g82
I2
ssg83
Nsg76
(lp3878
sbasbasbasbasbasbasbasbag69
(g85
g71
NtRp3879
(dp3880
g74
(dp3881
sg83
g3804
sg76
(lp3882
g69
(g90
g71
NtRp3883
(dp3884
g74
(dp3885
sg83
g3879
sg76
(lp3886
g69
(g70
g71
NtRp3887
(dp3888
g74
(dp3889
g82
I4
ssg83
g3883
sg76
(lp3890
g69
(g78
g71
NtRp3891
(dp3892
g74
(dp3893
g82
I3
ssg83
Nsg76
(lp3894
g69
(g85
g71
NtRp3895
(dp3896
g74
(dp3897
sg83
g3891
sg76
(lp3898
g69
(g90
g71
NtRp3899
(dp3900
g74
(dp3901
sg83
g3895
sg76
(lp3902
g69
(g70
g71
NtRp3903
(dp3904
g74
(dp3905
g82
I3
ssg83
g3899
sg76
(lp3906
g69
(cgluon.html
SPAN
p3907
g71
NtRp3908
(dp3909
g74
(dp3910
g94
S'color:yellow'
p3911
ssg83
Nsg76
(lp3912
g3782
asbasbasbasbag69
(g85
g71
NtRp3913
(dp3914
g74
(dp3915
sg83
g3891
sg76
(lp3916
g69
(g90
g71
NtRp3917
(dp3918
g74
(dp3919
sg83
g3913
sg76
(lp3920
g69
(g70
g71
NtRp3921
(dp3922
g74
(dp3923
g82
I3
ssg83
g3917
sg76
(lp3924
g112
asbasbasbag69
(g85
g71
NtRp3925
(dp3926
g74
(dp3927
sg83
g3891
sg76
(lp3928
g69
(g90
g71
NtRp3929
(dp3930
g74
(dp3931
sg83
g3925
sg76
(lp3932
g69
(g70
g71
NtRp3933
(dp3934
g74
(dp3935
g82
I3
ssg83
g3929
sg76
(lp3936
S'http://web2py.com'
p3937
asbasbasbag69
(g85
g71
NtRp3938
(dp3939
g74
(dp3940
sg83
g3891
sg76
(lp3941
g69
(g90
g71
NtRp3942
(dp3943
g74
(dp3944
sg83
g3938
sg76
(lp3945
g69
(g70
g71
NtRp3946
(dp3947
g74
(dp3948
g82
I3
ssg83
g3942
sg76
(lp3949
g69
(g78
g71
NtRp3950
(dp3951
g74
(dp3952
g82
I2
ssg83
Nsg76
(lp3953
g69
(g85
g71
NtRp3954
(dp3955
g74
(dp3956
sg83
g3950
sg76
(lp3957
g69
(g90
g71
NtRp3958
(dp3959
g74
(dp3960
sg83
g3954
sg76
(lp3961
g69
(g70
g71
NtRp3962
(dp3963
g74
(dp3964
g82
I2
ssg83
g3958
sg76
(lp3965
g69
(g78
g71
NtRp3966
(dp3967
g74
(dp3968
g82
I1
ssg83
Nsg76
(lp3969
g69
(g85
g71
NtRp3970
(dp3971
g74
(dp3972
sg83
g3966
sg76
(lp3973
g69
(g90
g71
NtRp3974
(dp3975
g74
(dp3976
sg83
g3970
sg76
(lp3977
g69
(g70
g71
NtRp3978
(dp3979
g74
(dp3980
g82
I1
ssg83
g3974
sg76
(lp3981
g3836
(S's\x08\x00\x00\x00My Sites'
tRp3982
asbasbasbag69
(g85
g71
NtRp3983
(dp3984
g74
(dp3985
sg83
g3966
sg76
(lp3986
g69
(g90
g71
NtRp3987
(dp3988
g74
(dp3989
sg83
g3983
sg76
(lp3990
g69
(g70
g71
NtRp3991
(dp3992
g74
(dp3993
g82
I1
ssg83
g3987
sg76
(lp3994
I00
asbasbasbag69
(g85
g71
NtRp3995
(dp3996
g74
(dp3997
sg83
g3966
sg76
(lp3998
g69
(g90
g71
NtRp3999
(dp4000
g74
(dp4001
sg83
g3995
sg76
(lp4002
g69
(g70
g71
NtRp4003
(dp4004
g74
(dp4005
g82
I1
ssg83
g3999
sg76
(lp4006
S'/admin/default/site'
p4007
asbasbasbasbasbasbasbag69
(g85
g71
NtRp4008
(dp4009
g74
(dp4010
sg83
g3950
sg76
(lp4011
g69
(g90
g71
NtRp4012
(dp4013
g74
(dp4014
sg83
g4008
sg76
(lp4015
g69
(g70
g71
NtRp4016
(dp4017
g74
(dp4018
g82
I2
ssg83
g4012
sg76
(lp4019
g69
(g78
g71
NtRp4020
(dp4021
g74
(dp4022
g82
I1
ssg83
Nsg76
(lp4023
g69
(g85
g71
NtRp4024
(dp4025
g74
(dp4026
sg83
g4020
sg76
(lp4027
g69
(g90
g71
NtRp4028
(dp4029
g74
(dp4030
sg83
g4024
sg76
(lp4031
g69
(g70
g71
NtRp4032
(dp4033
g74
(dp4034
g82
I1
ssg83
g4028
sg76
(lp4035
g3836
(S's\x08\x00\x00\x00This App'
tRp4036
asbasbasbag69
(g85
g71
NtRp4037
(dp4038
g74
(dp4039
sg83
g4020
sg76
(lp4040
g69
(g90
g71
NtRp4041
(dp4042
g74
(dp4043
sg83
g4037
sg76
(lp4044
g69
(g70
g71
NtRp4045
(dp4046
g74
(dp4047
g82
I1
ssg83
g4041
sg76
(lp4048
I00
asbasbasbag69
(g85
g71
NtRp4049
(dp4050
g74
(dp4051
sg83
g4020
sg76
(lp4052
g69
(g90
g71
NtRp4053
(dp4054
g74
(dp4055
sg83
g4049
sg76
(lp4056
g69
(g70
g71
NtRp4057
(dp4058
g74
(dp4059
g82
I1
ssg83
g4053
sg76
(lp4060
S'/admin/default/design/testumgebung'
p4061
asbasbasbag69
(g85
g71
NtRp4062
(dp4063
g74
(dp4064
sg83
g4020
sg76
(lp4065
g69
(g90
g71
NtRp4066
(dp4067
g74
(dp4068
sg83
g4062
sg76
(lp4069
g69
(g70
g71
NtRp4070
(dp4071
g74
(dp4072
g82
I1
ssg83
g4066
sg76
(lp4073
(lp4074
(g3836
(S't\n\x00\x00\x00Controller'
tRp4075
I00
S'/admin/default/edit/testumgebung/controllers/default.py'
tp4076
a(g3836
(S't\x04\x00\x00\x00View'
tRp4077
I00
S'/admin/default/edit/testumgebung/views/default/index.html'
tp4078
a(g3836
(S't\x06\x00\x00\x00Layout'
tRp4079
I00
S'/admin/default/edit/testumgebung/views/layout.html'
tp4080
a(g3836
(S't\n\x00\x00\x00Stylesheet'
tRp4081
I00
S'/admin/default/edit/testumgebung/static/css/web2py.css'
tp4082
a(g3836
(S's\x08\x00\x00\x00DB Model'
tRp4083
I00
S'/admin/default/edit/testumgebung/models/db.py'
tp4084
a(g3836
(S's\n\x00\x00\x00Menu Model'
tRp4085
I00
S'/admin/default/edit/testumgebung/models/menu.py'
tp4086
a(g3836
(S't\x08\x00\x00\x00Database'
tRp4087
I00
S'/testumgebung/appadmin/index'
tp4088
a(g3836
(S't\x06\x00\x00\x00Errors'
tRp4089
I00
S'/admin/default/errors/testumgebung'
tp4090
a(g3836
(S't\x05\x00\x00\x00About'
tRp4091
I00
S'/admin/default/about/testumgebung'
tp4092
aasbasbasbasbasbasbasbag69
(g85
g71
NtRp4093
(dp4094
g74
(dp4095
sg83
g3950
sg76
(lp4096
g69
(g90
g71
NtRp4097
(dp4098
g74
(dp4099
sg83
g4093
sg76
(lp4100
g69
(g70
g71
NtRp4101
(dp4102
g74
(dp4103
g82
I2
ssg83
g4097
sg76
(lp4104
g69
(g78
g71
NtRp4105
(dp4106
g74
(dp4107
g82
I1
ssg83
Nsg76
(lp4108
g69
(g85
g71
NtRp4109
(dp4110
g74
(dp4111
sg83
g4105
sg76
(lp4112
g69
(g90
g71
NtRp4113
(dp4114
g74
(dp4115
sg83
g4109
sg76
(lp4116
g69
(g70
g71
NtRp4117
(dp4118
g74
(dp4119
g82
I1
ssg83
g4113
sg76
(lp4120
S'web2py.com'
p4121
asbasbasbag69
(g85
g71
NtRp4122
(dp4123
g74
(dp4124
sg83
g4105
sg76
(lp4125
g69
(g90
g71
NtRp4126
(dp4127
g74
(dp4128
sg83
g4122
sg76
(lp4129
g69
(g70
g71
NtRp4130
(dp4131
g74
(dp4132
g82
I1
ssg83
g4126
sg76
(lp4133
I00
asbasbasbag69
(g85
g71
NtRp4134
(dp4135
g74
(dp4136
sg83
g4105
sg76
(lp4137
g69
(g90
g71
NtRp4138
(dp4139
g74
(dp4140
sg83
g4134
sg76
(lp4141
g69
(g70
g71
NtRp4142
(dp4143
g74
(dp4144
g82
I1
ssg83
g4138
sg76
(lp4145
S'http://www.web2py.com'
p4146
asbasbasbag69
(g85
g71
NtRp4147
(dp4148
g74
(dp4149
sg83
g4105
sg76
(lp4150
g69
(g90
g71
NtRp4151
(dp4152
g74
(dp4153
sg83
g4147
sg76
(lp4154
g69
(g70
g71
NtRp4155
(dp4156
g74
(dp4157
g82
I1
ssg83
g4151
sg76
(lp4158
(lp4159
(g3836
(S't\x08\x00\x00\x00Download'
tRp4160
I00
S'http://www.web2py.com/examples/default/download'
p4161
tp4162
a(g3836
(S't\x07\x00\x00\x00Support'
tRp4163
I00
S'http://www.web2py.com/examples/default/support'
p4164
tp4165
a(g3836
(S't\x04\x00\x00\x00Demo'
tRp4166
I00
S'http://web2py.com/demo_admin'
p4167
tp4168
a(g3836
(S's\x0e\x00\x00\x00Quick Examples'
tRp4169
I00
S'http://web2py.com/examples/default/examples'
p4170
tp4171
a(g3836
(S't\x03\x00\x00\x00FAQ'
tRp4172
I00
S'http://web2py.com/AlterEgo'
p4173
tp4174
a(g3836
(S't\x06\x00\x00\x00Videos'
tRp4175
I00
S'http://www.web2py.com/examples/default/videos/'
p4176
tp4177
a(g3836
(S's\x11\x00\x00\x00Free Applications'
tRp4178
I00
S'http://web2py.com/appliances'
p4179
tp4180
a(g3836
(S't\x07\x00\x00\x00Plugins'
tRp4181
I00
S'http://web2py.com/plugins'
p4182
tp4183
a(g3836
(S't\x07\x00\x00\x00Layouts'
tRp4184
I00
S'http://web2py.com/layouts'
p4185
tp4186
a(g3836
(S't\x07\x00\x00\x00Recipes'
tRp4187
I00
S'http://web2pyslices.com/'
p4188
tp4189
a(g3836
(S't\x08\x00\x00\x00Semantic'
tRp4190
I00
S'http://web2py.com/semantic'
p4191
tp4192
aasbasbasbasbasbasbasbag69
(g85
g71
NtRp4193
(dp4194
g74
(dp4195
sg83
g3950
sg76
(lp4196
g69
(g90
g71
NtRp4197
(dp4198
g74
(dp4199
sg83
g4193
sg76
(lp4200
g69
(g70
g71
NtRp4201
(dp4202
g74
(dp4203
g82
I2
ssg83
g4197
sg76
(lp4204
g69
(g78
g71
NtRp4205
(dp4206
g74
(dp4207
g82
I1
ssg83
Nsg76
(lp4208
g69
(g85
g71
NtRp4209
(dp4210
g74
(dp4211
sg83
g4205
sg76
(lp4212
g69
(g90
g71
NtRp4213
(dp4214
g74
(dp4215
sg83
g4209
sg76
(lp4216
g69
(g70
g71
NtRp4217
(dp4218
g74
(dp4219
g82
I1
ssg83
g4213
sg76
(lp4220
g3836
(S't\r\x00\x00\x00Documentation'
tRp4221
asbasbasbag69
(g85
g71
NtRp4222
(dp4223
g74
(dp4224
sg83
g4205
sg76
(lp4225
g69
(g90
g71
NtRp4226
(dp4227
g74
(dp4228
sg83
g4222
sg76
(lp4229
g69
(g70
g71
NtRp4230
(dp4231
g74
(dp4232
g82
I1
ssg83
g4226
sg76
(lp4233
I00
asbasbasbag69
(g85
g71
NtRp4234
(dp4235
g74
(dp4236
sg83
g4205
sg76
(lp4237
g69
(g90
g71
NtRp4238
(dp4239
g74
(dp4240
sg83
g4234
sg76
(lp4241
g69
(g70
g71
NtRp4242
(dp4243
g74
(dp4244
g82
I1
ssg83
g4238
sg76
(lp4245
S'http://www.web2py.com/book'
p4246
asbasbasbag69
(g85
g71
NtRp4247
(dp4248
g74
(dp4249
sg83
g4205
sg76
(lp4250
g69
(g90
g71
NtRp4251
(dp4252
g74
(dp4253
sg83
g4247
sg76
(lp4254
g69
(g70
g71
NtRp4255
(dp4256
g74
(dp4257
g82
I1
ssg83
g4251
sg76
(lp4258
(lp4259
(g3836
(S't\x07\x00\x00\x00Preface'
tRp4260
I00
S'http://www.web2py.com/book/default/chapter/00'
p4261
tp4262
a(g3836
(S't\x0c\x00\x00\x00Introduction'
tRp4263
I00
S'http://www.web2py.com/book/default/chapter/01'
p4264
tp4265
a(g3836
(S't\x06\x00\x00\x00Python'
tRp4266
I00
S'http://www.web2py.com/book/default/chapter/02'
p4267
tp4268
a(g3836
(S't\x08\x00\x00\x00Overview'
tRp4269
I00
S'http://www.web2py.com/book/default/chapter/03'
p4270
tp4271
a(g3836
(S's\x08\x00\x00\x00The Core'
tRp4272
I00
S'http://www.web2py.com/book/default/chapter/04'
p4273
tp4274
a(g3836
(S's\t\x00\x00\x00The Views'
tRp4275
I00
S'http://www.web2py.com/book/default/chapter/05'
p4276
tp4277
a(g3836
(S't\x08\x00\x00\x00Database'
tRp4278
I00
S'http://www.web2py.com/book/default/chapter/06'
p4279
tp4280
a(g3836
(S's\x14\x00\x00\x00Forms and Validators'
tRp4281
I00
S'http://www.web2py.com/book/default/chapter/07'
p4282
tp4283
a(g3836
(S's\r\x00\x00\x00Email and SMS'
tRp4284
I00
S'http://www.web2py.com/book/default/chapter/08'
p4285
tp4286
a(g3836
(S's\x0e\x00\x00\x00Access Control'
tRp4287
I00
S'http://www.web2py.com/book/default/chapter/09'
p4288
tp4289
a(g3836
(S't\x08\x00\x00\x00Services'
tRp4290
I00
S'http://www.web2py.com/book/default/chapter/10'
p4291
tp4292
a(g3836
(S's\x0c\x00\x00\x00Ajax Recipes'
tRp4293
I00
S'http://www.web2py.com/book/default/chapter/11'
p4294
tp4295
a(g3836
(S's\x16\x00\x00\x00Components and Plugins'
tRp4296
I00
S'http://www.web2py.com/book/default/chapter/12'
p4297
tp4298
a(g3836
(S's\x12\x00\x00\x00Deployment Recipes'
tRp4299
I00
S'http://www.web2py.com/book/default/chapter/13'
p4300
tp4301
a(g3836
(S's\r\x00\x00\x00Other Recipes'
tRp4302
I00
S'http://www.web2py.com/book/default/chapter/14'
p4303
tp4304
a(g3836
(S's\r\x00\x00\x00Buy this book'
tRp4305
I00
S'http://stores.lulu.com/web2py'
p4306
tp4307
aasbasbasbasbasbasbasbag69
(g85
g71
NtRp4308
(dp4309
g74
(dp4310
sg83
g3950
sg76
(lp4311
g69
(g90
g71
NtRp4312
(dp4313
g74
(dp4314
sg83
g4308
sg76
(lp4315
g69
(g70
g71
NtRp4316
(dp4317
g74
(dp4318
g82
I2
ssg83
g4312
sg76
(lp4319
g69
(g78
g71
NtRp4320
(dp4321
g74
(dp4322
g82
I1
ssg83
Nsg76
(lp4323
g69
(g85
g71
NtRp4324
(dp4325
g74
(dp4326
sg83
g4320
sg76
(lp4327
g69
(g90
g71
NtRp4328
(dp4329
g74
(dp4330
sg83
g4324
sg76
(lp4331
g69
(g70
g71
NtRp4332
(dp4333
g74
(dp4334
g82
I1
ssg83
g4328
sg76
(lp4335
g3836
(S't\t\x00\x00\x00Community'
tRp4336
asbasbasbag69
(g85
g71
NtRp4337
(dp4338
g74
(dp4339
sg83
g4320
sg76
(lp4340
g69
(g90
g71
NtRp4341
(dp4342
g74
(dp4343
sg83
g4337
sg76
(lp4344
g69
(g70
g71
NtRp4345
(dp4346
g74
(dp4347
g82
I1
ssg83
g4341
sg76
(lp4348
I00
asbasbasbag69
(g85
g71
NtRp4349
(dp4350
g74
(dp4351
sg83
g4320
sg76
(lp4352
g69
(g90
g71
NtRp4353
(dp4354
g74
(dp4355
sg83
g4349
sg76
(lp4356
g69
(g70
g71
NtRp4357
(dp4358
g74
(dp4359
g82
I1
ssg83
g4353
sg76
(lp4360
Nasbasbasbag69
(g85
g71
NtRp4361
(dp4362
g74
(dp4363
sg83
g4320
sg76
(lp4364
g69
(g90
g71
NtRp4365
(dp4366
g74
(dp4367
sg83
g4361
sg76
(lp4368
g69
(g70
g71
NtRp4369
(dp4370
g74
(dp4371
g82
I1
ssg83
g4365
sg76
(lp4372
(lp4373
(g3836
(S't\x06\x00\x00\x00Groups'
tRp4374
I00
S'http://www.web2py.com/examples/default/usergroups'
p4375
tp4376
a(g3836
(S't\x07\x00\x00\x00Twitter'
tRp4377
I00
S'http://twitter.com/web2py'
p4378
tp4379
a(g3836
(S's\t\x00\x00\x00Live Chat'
tRp4380
I00
S'http://webchat.freenode.net/?channels=web2py'
p4381
tp4382
aasbasbasbasbasbasbasbag69
(g85
g71
NtRp4383
(dp4384
g74
(dp4385
sg83
g3950
sg76
(lp4386
g69
(g90
g71
NtRp4387
(dp4388
g74
(dp4389
sg83
g4383
sg76
(lp4390
g69
(g70
g71
NtRp4391
(dp4392
g74
(dp4393
g82
I2
ssg83
g4387
sg76
(lp4394
g69
(g78
g71
NtRp4395
(dp4396
g74
(dp4397
g82
I1
ssg83
Nsg76
(lp4398
g69
(g85
g71
NtRp4399
(dp4400
g74
(dp4401
sg83
g4395
sg76
(lp4402
g69
(g90
g71
NtRp4403
(dp4404
g74
(dp4405
sg83
g4399
sg76
(lp4406
g69
(g70
g71
NtRp4407
(dp4408
g74
(dp4409
g82
I1
ssg83
g4403
sg76
(lp4410
g3836
(S't\x07\x00\x00\x00Plugins'
tRp4411
asbasbasbag69
(g85
g71
NtRp4412
(dp4413
g74
(dp4414
sg83
g4395
sg76
(lp4415
g69
(g90
g71
NtRp4416
(dp4417
g74
(dp4418
sg83
g4412
sg76
(lp4419
g69
(g70
g71
NtRp4420
(dp4421
g74
(dp4422
g82
I1
ssg83
g4416
sg76
(lp4423
I00
asbasbasbag69
(g85
g71
NtRp4424
(dp4425
g74
(dp4426
sg83
g4395
sg76
(lp4427
g69
(g90
g71
NtRp4428
(dp4429
g74
(dp4430
sg83
g4424
sg76
(lp4431
g69
(g70
g71
NtRp4432
(dp4433
g74
(dp4434
g82
I1
ssg83
g4428
sg76
(lp4435
Nasbasbasbag69
(g85
g71
NtRp4436
(dp4437
g74
(dp4438
sg83
g4395
sg76
(lp4439
g69
(g90
g71
NtRp4440
(dp4441
g74
(dp4442
sg83
g4436
sg76
(lp4443
g69
(g70
g71
NtRp4444
(dp4445
g74
(dp4446
g82
I1
ssg83
g4440
sg76
(lp4447
(lp4448
(S'plugin_wiki'
p4449
I00
S'http://web2py.com/examples/default/download'
p4450
tp4451
a(g3836
(S's\r\x00\x00\x00Other Plugins'
tRp4452
I00
g4182
tp4453
a(g3836
(S's\x0e\x00\x00\x00Layout Plugins'
tRp4454
I00
g4185
tp4455
aasbasbasbasbasbasbasbasbasbasbasbasbasbasbasbasbasbasbasbag69
(g85
g71
NtRp4456
(dp4457
g74
(dp4458
sg83
g3258
sg76
(lp4459
g69
(g90
g71
NtRp4460
(dp4461
g74
(dp4462
g94
g95
ssg83
g4456
sg76
(lp4463
S'meta'
p4464
asbag69
(g90
g71
NtRp4465
(dp4466
g74
(dp4467
g101
g102
ssg83
g4456
sg76
(lp4468
S':'
asbag69
(g90
g71
NtRp4469
(dp4470
g74
(dp4471
sg83
g4456
sg76
(lp4472
g69
(g70
g71
NtRp4473
(dp4474
g74
(dp4475
g82
I5
ssg83
g4469
sg76
(lp4476
g69
(g78
g71
NtRp4477
(dp4478
g74
(dp4479
g82
I4
ssg83
Nsg76
(lp4480
g69
(g85
g71
NtRp4481
(dp4482
g74
(dp4483
sg83
g4477
sg76
(lp4484
g69
(g90
g71
NtRp4485
(dp4486
g74
(dp4487
g94
g95
ssg83
g4481
sg76
(lp4488
S'author'
p4489
asbag69
(g90
g71
NtRp4490
(dp4491
g74
(dp4492
g101
g102
ssg83
g4481
sg76
(lp4493
S':'
asbag69
(g90
g71
NtRp4494
(dp4495
g74
(dp4496
sg83
g4481
sg76
(lp4497
g69
(g70
g71
NtRp4498
(dp4499
g74
(dp4500
g82
I4
ssg83
g4494
sg76
(lp4501
S'Your Name <you@example.com>'
p4502
asbasbasbag69
(g85
g71
NtRp4503
(dp4504
g74
(dp4505
sg83
g4477
sg76
(lp4506
g69
(g90
g71
NtRp4507
(dp4508
g74
(dp4509
g94
g95
ssg83
g4503
sg76
(lp4510
S'description'
p4511
asbag69
(g90
g71
NtRp4512
(dp4513
g74
(dp4514
g101
g102
ssg83
g4503
sg76
(lp4515
S':'
asbag69
(g90
g71
NtRp4516
(dp4517
g74
(dp4518
sg83
g4503
sg76
(lp4519
g69
(g70
g71
NtRp4520
(dp4521
g74
(dp4522
g82
I4
ssg83
g4516
sg76
(lp4523
S'a cool new app'
p4524
asbasbasbag69
(g85
g71
NtRp4525
(dp4526
g74
(dp4527
sg83
g4477
sg76
(lp4528
g69
(g90
g71
NtRp4529
(dp4530
g74
(dp4531
g94
g95
ssg83
g4525
sg76
(lp4532
S'generator'
p4533
asbag69
(g90
g71
NtRp4534
(dp4535
g74
(dp4536
g101
g102
ssg83
g4525
sg76
(lp4537
S':'
asbag69
(g90
g71
NtRp4538
(dp4539
g74
(dp4540
sg83
g4525
sg76
(lp4541
g69
(g70
g71
NtRp4542
(dp4543
g74
(dp4544
g82
I4
ssg83
g4538
sg76
(lp4545
S'Web2py Web Framework'
p4546
asbasbasbag69
(g85
g71
NtRp4547
(dp4548
g74
(dp4549
sg83
g4477
sg76
(lp4550
g69
(g90
g71
NtRp4551
(dp4552
g74
(dp4553
g94
g95
ssg83
g4547
sg76
(lp4554
S'keywords'
p4555
asbag69
(g90
g71
NtRp4556
(dp4557
g74
(dp4558
g101
g102
ssg83
g4547
sg76
(lp4559
S':'
asbag69
(g90
g71
NtRp4560
(dp4561
g74
(dp4562
sg83
g4547
sg76
(lp4563
g69
(g70
g71
NtRp4564
(dp4565
g74
(dp4566
g82
I4
ssg83
g4560
sg76
(lp4567
S'web2py, python, framework'
p4568
asbasbasbasbasbasbasbag69
(g85
g71
NtRp4569
(dp4570
g74
(dp4571
sg83
g3258
sg76
(lp4572
g69
(g90
g71
NtRp4573
(dp4574
g74
(dp4575
g94
g95
ssg83
g4569
sg76
(lp4576
S'postprocessing'
p4577
asbag69
(g90
g71
NtRp4578
(dp4579
g74
(dp4580
g101
g102
ssg83
g4569
sg76
(lp4581
S':'
asbag69
(g90
g71
NtRp4582
(dp4583
g74
(dp4584
sg83
g4569
sg76
(lp4585
g69
(g70
g71
NtRp4586
(dp4587
g74
(dp4588
g82
I5
ssg83
g4582
sg76
(lp4589
g69
(g78
g71
NtRp4590
(dp4591
g74
(dp4592
g82
I4
ssg83
Nsg76
(lp4593
sbasbasbasbag69
(g85
g71
NtRp4594
(dp4595
g74
(dp4596
sg83
g3258
sg76
(lp4597
g69
(g90
g71
NtRp4598
(dp4599
g74
(dp4600
g94
g95
ssg83
g4594
sg76
(lp4601
S'session_file'
p4602
asbag69
(g90
g71
NtRp4603
(dp4604
g74
(dp4605
g101
g102
ssg83
g4594
sg76
(lp4606
S':'
asbag69
(g90
g71
NtRp4607
(dp4608
g74
(dp4609
sg83
g4594
sg76
(lp4610
g69
(g70
g71
NtRp4611
(dp4612
g74
(dp4613
g82
I5
ssg83
g4607
sg76
(lp4614
S"<open file 'C:\\xampp\\htdocs\\web2py\\applications\\testumgebung\\sessions\\127.0.0.1-0516a7a8-1a9f-40bf-950c-da43d5cea819', mode 'rb+' at 0x06B5BA18>"
p4615
asbasbasbag69
(g85
g71
NtRp4616
(dp4617
g74
(dp4618
sg83
g3258
sg76
(lp4619
g69
(g90
g71
NtRp4620
(dp4621
g74
(dp4622
g94
g95
ssg83
g4616
sg76
(lp4623
S'session_filename'
p4624
asbag69
(g90
g71
NtRp4625
(dp4626
g74
(dp4627
g101
g102
ssg83
g4616
sg76
(lp4628
S':'
asbag69
(g90
g71
NtRp4629
(dp4630
g74
(dp4631
sg83
g4616
sg76
(lp4632
g69
(g70
g71
NtRp4633
(dp4634
g74
(dp4635
g82
I5
ssg83
g4629
sg76
(lp4636
S'C:\\xampp\\htdocs\\web2py\\applications\\testumgebung\\sessions\\127.0.0.1-0516a7a8-1a9f-40bf-950c-da43d5cea819'
p4637
asbasbasbag69
(g85
g71
NtRp4638
(dp4639
g74
(dp4640
sg83
g3258
sg76
(lp4641
g69
(g90
g71
NtRp4642
(dp4643
g74
(dp4644
g94
g95
ssg83
g4638
sg76
(lp4645
S'session_id'
p4646
asbag69
(g90
g71
NtRp4647
(dp4648
g74
(dp4649
g101
g102
ssg83
g4638
sg76
(lp4650
S':'
asbag69
(g90
g71
NtRp4651
(dp4652
g74
(dp4653
sg83
g4638
sg76
(lp4654
g69
(g70
g71
NtRp4655
(dp4656
g74
(dp4657
g82
I5
ssg83
g4651
sg76
(lp4658
g487
asbasbasbag69
(g85
g71
NtRp4659
(dp4660
g74
(dp4661
sg83
g3258
sg76
(lp4662
g69
(g90
g71
NtRp4663
(dp4664
g74
(dp4665
g94
g95
ssg83
g4659
sg76
(lp4666
S'session_id_name'
p4667
asbag69
(g90
g71
NtRp4668
(dp4669
g74
(dp4670
g101
g102
ssg83
g4659
sg76
(lp4671
S':'
asbag69
(g90
g71
NtRp4672
(dp4673
g74
(dp4674
sg83
g4659
sg76
(lp4675
g69
(g70
g71
NtRp4676
(dp4677
g74
(dp4678
g82
I5
ssg83
g4672
sg76
(lp4679
g3315
asbasbasbag69
(g85
g71
NtRp4680
(dp4681
g74
(dp4682
sg83
g3258
sg76
(lp4683
g69
(g90
g71
NtRp4684
(dp4685
g74
(dp4686
g94
g95
ssg83
g4680
sg76
(lp4687
S'session_locked'
p4688
asbag69
(g90
g71
NtRp4689
(dp4690
g74
(dp4691
g101
g102
ssg83
g4680
sg76
(lp4692
S':'
asbag69
(g90
g71
NtRp4693
(dp4694
g74
(dp4695
sg83
g4680
sg76
(lp4696
g69
(g70
g71
NtRp4697
(dp4698
g74
(dp4699
g82
I5
ssg83
g4693
sg76
(lp4700
g1756
asbasbasbag69
(g85
g71
NtRp4701
(dp4702
g74
(dp4703
sg83
g3258
sg76
(lp4704
g69
(g90
g71
NtRp4705
(dp4706
g74
(dp4707
g94
g95
ssg83
g4701
sg76
(lp4708
S'session_new'
p4709
asbag69
(g90
g71
NtRp4710
(dp4711
g74
(dp4712
g101
g102
ssg83
g4701
sg76
(lp4713
S':'
asbag69
(g90
g71
NtRp4714
(dp4715
g74
(dp4716
sg83
g4701
sg76
(lp4717
g69
(g70
g71
NtRp4718
(dp4719
g74
(dp4720
g82
I5
ssg83
g4714
sg76
(lp4721
g112
asbasbasbag69
(g85
g71
NtRp4722
(dp4723
g74
(dp4724
sg83
g3258
sg76
(lp4725
g69
(g90
g71
NtRp4726
(dp4727
g74
(dp4728
g94
g95
ssg83
g4722
sg76
(lp4729
S'status'
p4730
asbag69
(g90
g71
NtRp4731
(dp4732
g74
(dp4733
g101
g102
ssg83
g4722
sg76
(lp4734
S':'
asbag69
(g90
g71
NtRp4735
(dp4736
g74
(dp4737
sg83
g4722
sg76
(lp4738
g69
(g70
g71
NtRp4739
(dp4740
g74
(dp4741
g82
I5
ssg83
g4735
sg76
(lp4742
S'200'
p4743
asbasbasbag69
(g85
g71
NtRp4744
(dp4745
g74
(dp4746
sg83
g3258
sg76
(lp4747
g69
(g90
g71
NtRp4748
(dp4749
g74
(dp4750
g94
g95
ssg83
g4744
sg76
(lp4751
S'subtitle'
p4752
asbag69
(g90
g71
NtRp4753
(dp4754
g74
(dp4755
g101
g102
ssg83
g4744
sg76
(lp4756
S':'
asbag69
(g90
g71
NtRp4757
(dp4758
g74
(dp4759
sg83
g4744
sg76
(lp4760
g69
(g70
g71
NtRp4761
(dp4762
g74
(dp4763
g82
I5
ssg83
g4757
sg76
(lp4764
g3836
(S's\r\x00\x00\x00customize me!'
tRp4765
asbasbasbag69
(g85
g71
NtRp4766
(dp4767
g74
(dp4768
sg83
g3258
sg76
(lp4769
g69
(g90
g71
NtRp4770
(dp4771
g74
(dp4772
g94
g95
ssg83
g4766
sg76
(lp4773
S'title'
p4774
asbag69
(g90
g71
NtRp4775
(dp4776
g74
(dp4777
g101
g102
ssg83
g4766
sg76
(lp4778
S':'
asbag69
(g90
g71
NtRp4779
(dp4780
g74
(dp4781
sg83
g4766
sg76
(lp4782
g69
(g70
g71
NtRp4783
(dp4784
g74
(dp4785
g82
I5
ssg83
g4779
sg76
(lp4786
S'Testumgebung'
p4787
asbasbasbag69
(g85
g71
NtRp4788
(dp4789
g74
(dp4790
sg83
g3258
sg76
(lp4791
g69
(g90
g71
NtRp4792
(dp4793
g74
(dp4794
g94
g95
ssg83
g4788
sg76
(lp4795
S'view'
p4796
asbag69
(g90
g71
NtRp4797
(dp4798
g74
(dp4799
g101
g102
ssg83
g4788
sg76
(lp4800
S':'
asbag69
(g90
g71
NtRp4801
(dp4802
g74
(dp4803
sg83
g4788
sg76
(lp4804
g69
(g70
g71
NtRp4805
(dp4806
g74
(dp4807
g82
I5
ssg83
g4801
sg76
(lp4808
S'default/index.html'
p4809
asbasbasbasbasbsS'locals'
p4810
(dp4811
S'mod_to_pack'
p4812
g112
sS'new_date'
p4813
S'1355476096.1790226'
p4814
sS'self'
p4815
S'<gluon.custom_import._Web2pyDateTrackerImporter object>'
p4816
sS'module'
p4817
S"<module 'applications.testumgebung.modules.plugi...ns\\testumgebung\\modules\\plugin_kibit_widgets.py'>"
p4818
sg3167
S"r'applications\\testumgebung\\modules\\plugin_kibit_widgets.py'"
p4819
sg3251
S'1355475883.1968408'
p4820
sS'reload_mod'
p4821
g112
sS'name'
p4822
S"'applications.testumgebung.modules.plugin_kibit_widgets'"
p4823
sssS'traceback'
p4824
S'Traceback (most recent call last):\n  File "gluon/restricted.py", line 209, in restricted\n  File "C:\\xampp\\htdocs\\web2py\\applications\\testumgebung\\controllers/default.py", line 3, in <module>\n  File "gluon/custom_import.py", line 289, in __call__\n  File "gluon/custom_import.py", line 123, in __call__\n  File "gluon/custom_import.py", line 143, in _update_dates\n  File "gluon/custom_import.py", line 191, in _reload_check\n  File "applications\\testumgebung\\modules\\plugin_kibit_widgets.py", line 49\n    new_table = DIV(TABLE(labels, options_fields, **{\'_cell-spacing\' : \'1px\'}, **table.attributes), _class=\'likert_box\')\n                                                                             ^\nSyntaxError: invalid syntax\n'
p4825
s.