(dp1
S'output'
p2
S"<type 'exceptions.SyntaxError'> EOL while scanning string literal (plugin_feedbacks/feedback.load, line 4)"
p3
sS'layer'
p4
S'C:\\xampp\\htdocs\\web2py\\applications\\testumgebung\\views\\plugin_feedbacks/feedback.load'
p5
sS'code'
p6
S'response.write(\'<div id="plugin_feedbacks_container">\\r\\n\\r\\n\\t\', escape=False)\nresponse.write(session)\nresponse.write(\'\\r\\n\\t\\r\\n\\t\', escape=False)\nresponse.write(session.plugin_feedbacks["sentFeedback)\nresponse.write(\'\\r\\n\\r\\n    <ul class="nav nav-pills" id="plugin_feedbacks_tab">\\r\\n\\t    <li class="active">\\r\\n\\t    \\t<a href="#feedback" data-toggle="tab"><i class="icon-comment"></i> \', escape=False)\nresponse.write(T(\'Wir lieben Feedback\'))\nresponse.write(\'</a>\\r\\n\\t    </li>\\r\\n\\t    <li><a href="#like" data-toggle="tab"><i class="icon-thumbs-up"></i> \', escape=False)\nresponse.write(T(\'anderen gef\xc3\xa4llt\'))\nresponse.write(\'</a></li>\\r\\n\\t    <li><a href="#dislike" data-toggle="tab"><i class="icon-thumbs-down"></i> \', escape=False)\nresponse.write(T(\'anderen gef\xc3\xa4llt nicht\'))\nresponse.write(\'</a></li>\\r\\n    </ul>\\r\\n    \\r\\n    <div class="tab-content">\\r\\n\\t\\t<div class="tab-pane active" id="feedback">\\r\\n\\t\\t\\t\', escape=False)\nresponse.write(form.custom.begin)\nresponse.write(\'\\r\\n\\t\\t\\t\\r\\n\\t\\t\\t\\t<p><i>\\r\\n\\t\\t\\t\\t\\t\', escape=False)\nresponse.write(T("Wir freuen uns \xc3\xbcber Ihr pers\xc3\xb6nliches Feedback. Gef\xc3\xa4llt Ihnen die Seite? Was k\xc3\xb6nnen wir verbessern? Liegt Ihnen etwas anderes zu dieser Seite auf dem Herzen?"))\nresponse.write(\'\\r\\n\\t\\t\\t\\t\\t<br />\\r\\n\\t\\t\\t\\t\\t\', escape=False)\nresponse.write(T("Wir freuen uns auf Ihre Meinung!"))\nresponse.write(\'\\r\\n\\t\\t\\t\\t</i></p>\\r\\n\\t\\r\\n\\t\\t\\t\\t<div id="plugin_feedbacks_messagebox">\\r\\n\\t\\t\\t\\t\\t\', escape=False)\nresponse.write(T("Diese Seite"))\nresponse.write(\' \\r\\n\\t\\t\\t\\t\\t\\r\\n\\t\\t\\t\\t\\t<div id="plugin_feedbacks_boxes">\\r\\n\\t\\t\\t\\t\\t\\t<input id="feelinghappy" type="radio" value="happy" name="feeling">\\r\\n\\t\\t\\t\\t\\t\\t<label class="btn" for="feelinghappy"><i class="icon-thumbs-up"></i> \', escape=False)\nresponse.write(T(\'gef\xc3\xa4llt mir\'))\nresponse.write(\'</label> / \\r\\n\\t\\t\\t\\t\\t\\t\\r\\n\\t\\t\\t\\t\\t\\t<input id="feelingunhappy" type="radio" value="unhappy" name="feeling">\\r\\n\\t\\t\\t\\t\\t\\t<label class="btn" for="feelingunhappy"><i class="icon-thumbs-down"></i> \', escape=False)\nresponse.write(T(\'gef\xc3\xa4llt mir nicht\'))\nresponse.write(\'</label>\\r\\n\\t\\t\\t\\t\\t</div>, \\r\\n\\t\\t\\t\\t\\r\\n\\t\\t\\t\\t\\t\', escape=False)\nresponse.write(T("weil"))\nresponse.write(\' ...\\r\\n\\t\\t\\t\\t\\t\\r\\n\\t\\t\\t\\t\\t<br /><br />\\r\\n\\t\\t\\t\\t\\t\\r\\n\\t\\t\\t\\t\\t\', escape=False)\nresponse.write(form.custom.widget.message)\nresponse.write(\'\\r\\n\\t\\t\\t\\t\\t\\r\\n\\t\\t\\t\\t\\t<small><b><div class="pull-left" id="left_signs">140</div></b></small>\\r\\n\\t\\t\\t\\t\\t<div id="plugin_feedbacks_submit" class="pull-right">\\r\\n\\t\\t\\t\\t\\t\\t<a class="btn btn-small" data-content="\', escape=False)\nresponse.write(T(\'Wir speichern keine pers\xc3\xb6nlichen Daten von Ihnen.\'))\nresponse.write(\'" data-placement="top" rel="popover" href="#" data-original-title="\', escape=False)\nresponse.write(T(\'Information\'))\nresponse.write(\'"><i class="icon-info-sign"></i></a> \\r\\n\\t\\t\\t\\t\\t\\t<input type="submit" value="\', escape=False)\nresponse.write(T(\'Ver\xc3\xb6ffentlichen\'))\nresponse.write(\'" class="btn btn-success" />\\r\\n\\t\\t\\t\\t\\t</div>\\r\\n\\t\\t\\t\\t\\t<div class="clearfix"></div>\\r\\n\\t\\t\\t\\t</div>\\r\\n\\t\\t\\t\\t\\r\\n\\t\\t\\t\\r\\n\\t\\t\\t\', escape=False)\nresponse.write(form.custom.end)\nresponse.write(\'\\r\\n\\t\\t</div>\\r\\n\\t\\t<div class="tab-pane" id="like">\\r\\n\\t\\t\\r\\n\\t\\t\\t<h4>\', escape=False)\nresponse.write(T("Anderen gef\xc3\xa4llt diese Seite, weil ..."))\nresponse.write(\'</h4>\\r\\n\\t\\t\\r\\n\\t\\t\\t\', escape=False)\nfor row in likes:\n    response.write(\'\\r\\n\\t\\t\\t\\t<blockquote>\\r\\n\\t\\t\\t\\t\\t<span>\\r\\n\\t\\t\\t\\t\\t\\t\', escape=False)\n    response.write(T("User sagt:"))\n    response.write(\'<br />\\r\\n\\t\\t\\t\\t\\t\\t<small>\', escape=False)\n    response.write(row.commentdate)\n    response.write(\'</small>\\r\\n\\t\\t\\t\\t\\t</span>\\r\\n\\t\\t\\t\\t\\t<p>\', escape=False)\n    response.write(row.message)\n    response.write(\'</p>\\r\\n\\t\\t\\t\\t\\t<div class="clearfix"></div>\\r\\n\\t\\t\\t\\t</blockquote>\\r\\n\\t\\t\\t\', escape=False)\n    pass\nresponse.write(\'\\r\\n\\t\\t</div>\\r\\n\\t\\t<div class="tab-pane" id="dislike">\\r\\n\\t\\t\\r\\n\\t\\t\\t<h4>\', escape=False)\nresponse.write(T("Anderen gef\xc3\xa4llt diese Seite nicht, weil ..."))\nresponse.write(\'</h4>\\r\\n\\t\\t\\r\\n\\t\\t\\t\', escape=False)\nfor row in dislikes:\n    response.write(\'\\r\\n\\t\\t\\t\\t<blockquote>\\r\\n\\t\\t\\t\\t\\t<span>\\r\\n\\t\\t\\t\\t\\t\\t\', escape=False)\n    response.write(T("User sagt:"))\n    response.write(\'<br />\\r\\n\\t\\t\\t\\t\\t\\t<small>\', escape=False)\n    response.write(row.commentdate)\n    response.write(\'</small>\\r\\n\\t\\t\\t\\t\\t</span>\\r\\n\\t\\t\\t\\t\\t<p>\', escape=False)\n    response.write(row.message)\n    response.write(\'</p>\\r\\n\\t\\t\\t\\t\\t<div class="clearfix"></div>\\r\\n\\t\\t\\t\\t</blockquote>\\r\\n\\t\\t\\t\', escape=False)\n    pass\nresponse.write(\'\\r\\n\\t\\t\\t\\r\\n\\t\\t</div>\\r\\n\\t</div>\\r\\n\\r\\n\\r\\n<script type="text/javascript">\\r\\n\\r\\n\\t$(function() {\\r\\n\\t\\treloadActions();\\r\\n\\t\\t\\r\\n\\t\\t\', escape=False)\nif show_tab == "happy":\n    response.write("\\r\\n\\t\\t$(\'#plugin_feedbacks_tab li:eq(1) a\').tab(\'show\');\\r\\n\\t", escape=False)\nelif show_tab == "unhappy":\n    response.write("\\r\\n\\t\\t$(\'#plugin_feedbacks_tab li:eq(2) a\').tab(\'show\');\\r\\n\\t", escape=False)\n    pass\nresponse.write(\'\\r\\n\\t\\t\\r\\n\\t\\t\\r\\n\\t});\\r\\n\\t\\r\\n\\t\\r\\n</script>\\r\\n\\r\\n</div>\', escape=False)'
p7
sS'snapshot'
p8
(dp9
S'exception'
p10
(dp11
S'__getslice__'
p12
S"<method-wrapper '__getslice__' of exceptions.SyntaxError object>"
p13
sS'text'
p14
S'\'response.write(session.plugin_feedbacks["sentFeedback)\\n\''
p15
sS'__str__'
p16
S"<method-wrapper '__str__' of exceptions.SyntaxError object>"
p17
sS'__reduce__'
p18
S'<built-in method __reduce__ of exceptions.SyntaxError object>'
p19
sS'__dict__'
p20
S'{}'
p21
sS'__sizeof__'
p22
S'<built-in method __sizeof__ of exceptions.SyntaxError object>'
p23
sS'__init__'
p24
S"<method-wrapper '__init__' of exceptions.SyntaxError object>"
p25
sS'__setattr__'
p26
S"<method-wrapper '__setattr__' of exceptions.SyntaxError object>"
p27
sS'__reduce_ex__'
p28
S'<built-in method __reduce_ex__ of exceptions.SyntaxError object>'
p29
sS'__new__'
p30
S'<built-in method __new__ of type object>'
p31
sS'__format__'
p32
S'<built-in method __format__ of exceptions.SyntaxError object>'
p33
sS'__class__'
p34
S"<type 'exceptions.SyntaxError'>"
p35
sS'filename'
p36
S"r'C:\\xampp\\htdocs\\web2py\\applications\\testumgebung\\views\\plugin_feedbacks/feedback.load'"
p37
sS'lineno'
p38
S'4'
sS'msg'
p39
S"'EOL while scanning string literal'"
p40
sS'__doc__'
p41
S"'Invalid syntax.'"
p42
sS'__getitem__'
p43
S"<method-wrapper '__getitem__' of exceptions.SyntaxError object>"
p44
sS'__setstate__'
p45
S'<built-in method __setstate__ of exceptions.SyntaxError object>'
p46
sS'__getattribute__'
p47
S"<method-wrapper '__getattribute__' of exceptions.SyntaxError object>"
p48
sS'print_file_and_line'
p49
S'None'
p50
sS'args'
p51
S'(\'EOL while scanning string literal\', (r\'C:\\xampp\\htdocs\\web2py\\applications\\testumgebung\\views\\plugin_feedbacks/feedback.load\', 4, 54, \'response.write(session.plugin_feedbacks["sentFeedback)\\n\'))'
p52
sS'__subclasshook__'
p53
S'<built-in method __subclasshook__ of type object>'
p54
sS'offset'
p55
S'54'
p56
sS'__unicode__'
p57
S'<built-in method __unicode__ of exceptions.SyntaxError object>'
p58
sS'__delattr__'
p59
S"<method-wrapper '__delattr__' of exceptions.SyntaxError object>"
p60
sS'__repr__'
p61
S"<method-wrapper '__repr__' of exceptions.SyntaxError object>"
p62
sS'__hash__'
p63
S"<method-wrapper '__hash__' of exceptions.SyntaxError object>"
p64
ssS'evalue'
p65
S'EOL while scanning string literal (plugin_feedbacks/feedback.load, line 4)'
p66
sS'request'
p67
ccopy_reg
_reconstructor
p68
(cgluon.html
BEAUTIFY
p69
c__builtin__
object
p70
NtRp71
(dp72
S'attributes'
p73
(dp74
sS'components'
p75
(lp76
g68
(cgluon.html
TABLE
p77
g70
NtRp78
(dp79
g73
(dp80
S'level'
p81
I5
ssS'parent'
p82
Nsg75
(lp83
g68
(cgluon.html
TR
p84
g70
NtRp85
(dp86
g73
(dp87
sg82
g78
sg75
(lp88
g68
(cgluon.html
TD
p89
g70
NtRp90
(dp91
g73
(dp92
S'_style'
p93
S'font-weight:bold;vertical-align:top'
p94
ssg82
g85
sg75
(lp95
S'ajax'
p96
asbag68
(g89
g70
NtRp97
(dp98
g73
(dp99
S'_valign'
p100
S'top'
p101
ssg82
g85
sg75
(lp102
S':'
asbag68
(g89
g70
NtRp103
(dp104
g73
(dp105
sg82
g85
sg75
(lp106
g68
(g69
g70
NtRp107
(dp108
g73
(dp109
g81
I5
ssg82
g103
sg75
(lp110
S'True'
p111
asbasbasbag68
(g84
g70
NtRp112
(dp113
g73
(dp114
sg82
g78
sg75
(lp115
g68
(g89
g70
NtRp116
(dp117
g73
(dp118
g93
g94
ssg82
g112
sg75
(lp119
S'application'
p120
asbag68
(g89
g70
NtRp121
(dp122
g73
(dp123
g100
g101
ssg82
g112
sg75
(lp124
S':'
asbag68
(g89
g70
NtRp125
(dp126
g73
(dp127
sg82
g112
sg75
(lp128
g68
(g69
g70
NtRp129
(dp130
g73
(dp131
g81
I5
ssg82
g125
sg75
(lp132
S'testumgebung'
p133
asbasbasbag68
(g84
g70
NtRp134
(dp135
g73
(dp136
sg82
g78
sg75
(lp137
g68
(g89
g70
NtRp138
(dp139
g73
(dp140
g93
g94
ssg82
g134
sg75
(lp141
g51
asbag68
(g89
g70
NtRp142
(dp143
g73
(dp144
g100
g101
ssg82
g134
sg75
(lp145
S':'
asbag68
(g89
g70
NtRp146
(dp147
g73
(dp148
sg82
g134
sg75
(lp149
g68
(g69
g70
NtRp150
(dp151
g73
(dp152
g81
I5
ssg82
g146
sg75
(lp153
g68
(g77
g70
NtRp154
(dp155
g73
(dp156
g81
I4
ssg82
Nsg75
(lp157
sbasbasbasbag68
(g84
g70
NtRp158
(dp159
g73
(dp160
sg82
g78
sg75
(lp161
g68
(g89
g70
NtRp162
(dp163
g73
(dp164
g93
g94
ssg82
g158
sg75
(lp165
S'body'
p166
asbag68
(g89
g70
NtRp167
(dp168
g73
(dp169
g100
g101
ssg82
g158
sg75
(lp170
S':'
asbag68
(g89
g70
NtRp171
(dp172
g73
(dp173
sg82
g158
sg75
(lp174
g68
(g69
g70
NtRp175
(dp176
g73
(dp177
g81
I5
ssg82
g171
sg75
(lp178
S'<cStringIO.StringO object at 0x082CFA60>'
p179
asbasbasbag68
(g84
g70
NtRp180
(dp181
g73
(dp182
sg82
g78
sg75
(lp183
g68
(g89
g70
NtRp184
(dp185
g73
(dp186
g93
g94
ssg82
g180
sg75
(lp187
S'cid'
p188
asbag68
(g89
g70
NtRp189
(dp190
g73
(dp191
g100
g101
ssg82
g180
sg75
(lp192
S':'
asbag68
(g89
g70
NtRp193
(dp194
g73
(dp195
sg82
g180
sg75
(lp196
g68
(g69
g70
NtRp197
(dp198
g73
(dp199
g81
I5
ssg82
g193
sg75
(lp200
S'c559403738247'
p201
asbasbasbag68
(g84
g70
NtRp202
(dp203
g73
(dp204
sg82
g78
sg75
(lp205
g68
(g89
g70
NtRp206
(dp207
g73
(dp208
g93
g94
ssg82
g202
sg75
(lp209
S'client'
p210
asbag68
(g89
g70
NtRp211
(dp212
g73
(dp213
g100
g101
ssg82
g202
sg75
(lp214
S':'
asbag68
(g89
g70
NtRp215
(dp216
g73
(dp217
sg82
g202
sg75
(lp218
g68
(g69
g70
NtRp219
(dp220
g73
(dp221
g81
I5
ssg82
g215
sg75
(lp222
S'127.0.0.1'
p223
asbasbasbag68
(g84
g70
NtRp224
(dp225
g73
(dp226
sg82
g78
sg75
(lp227
g68
(g89
g70
NtRp228
(dp229
g73
(dp230
g93
g94
ssg82
g224
sg75
(lp231
S'controller'
p232
asbag68
(g89
g70
NtRp233
(dp234
g73
(dp235
g100
g101
ssg82
g224
sg75
(lp236
S':'
asbag68
(g89
g70
NtRp237
(dp238
g73
(dp239
sg82
g224
sg75
(lp240
g68
(g69
g70
NtRp241
(dp242
g73
(dp243
g81
I5
ssg82
g237
sg75
(lp244
S'plugin_feedbacks'
p245
asbasbasbag68
(g84
g70
NtRp246
(dp247
g73
(dp248
sg82
g78
sg75
(lp249
g68
(g89
g70
NtRp250
(dp251
g73
(dp252
g93
g94
ssg82
g246
sg75
(lp253
S'cookies'
p254
asbag68
(g89
g70
NtRp255
(dp256
g73
(dp257
g100
g101
ssg82
g246
sg75
(lp258
S':'
asbag68
(g89
g70
NtRp259
(dp260
g73
(dp261
sg82
g246
sg75
(lp262
g68
(g69
g70
NtRp263
(dp264
g73
(dp265
g81
I5
ssg82
g259
sg75
(lp266
g68
(g77
g70
NtRp267
(dp268
g73
(dp269
g81
I4
ssg82
Nsg75
(lp270
g68
(g84
g70
NtRp271
(dp272
g73
(dp273
sg82
g267
sg75
(lp274
g68
(g89
g70
NtRp275
(dp276
g73
(dp277
g93
g94
ssg82
g271
sg75
(lp278
S'session_id_testumgebung'
p279
asbag68
(g89
g70
NtRp280
(dp281
g73
(dp282
g100
g101
ssg82
g271
sg75
(lp283
S':'
asbag68
(g89
g70
NtRp284
(dp285
g73
(dp286
sg82
g271
sg75
(lp287
g68
(g69
g70
NtRp288
(dp289
g73
(dp290
g81
I4
ssg82
g284
sg75
(lp291
S'127.0.0.1-90677836-87e3-4573-bd9a-704b577fb384'
p292
ag68
(g77
g70
NtRp293
(dp294
g73
(dp295
g81
I3
ssg82
Nsg75
(lp296
g68
(g84
g70
NtRp297
(dp298
g73
(dp299
sg82
g293
sg75
(lp300
g68
(g89
g70
NtRp301
(dp302
g73
(dp303
g93
g94
ssg82
g297
sg75
(lp304
S'comment'
p305
asbag68
(g89
g70
NtRp306
(dp307
g73
(dp308
g100
g101
ssg82
g297
sg75
(lp309
S':'
asbag68
(g89
g70
NtRp310
(dp311
g73
(dp312
sg82
g297
sg75
(lp313
g68
(g69
g70
NtRp314
(dp315
g73
(dp316
g81
I3
ssg82
g310
sg75
(lp317
S''
asbasbasbag68
(g84
g70
NtRp318
(dp319
g73
(dp320
sg82
g293
sg75
(lp321
g68
(g89
g70
NtRp322
(dp323
g73
(dp324
g93
g94
ssg82
g318
sg75
(lp325
S'domain'
p326
asbag68
(g89
g70
NtRp327
(dp328
g73
(dp329
g100
g101
ssg82
g318
sg75
(lp330
S':'
asbag68
(g89
g70
NtRp331
(dp332
g73
(dp333
sg82
g318
sg75
(lp334
g68
(g69
g70
NtRp335
(dp336
g73
(dp337
g81
I3
ssg82
g331
sg75
(lp338
S''
asbasbasbag68
(g84
g70
NtRp339
(dp340
g73
(dp341
sg82
g293
sg75
(lp342
g68
(g89
g70
NtRp343
(dp344
g73
(dp345
g93
g94
ssg82
g339
sg75
(lp346
S'expires'
p347
asbag68
(g89
g70
NtRp348
(dp349
g73
(dp350
g100
g101
ssg82
g339
sg75
(lp351
S':'
asbag68
(g89
g70
NtRp352
(dp353
g73
(dp354
sg82
g339
sg75
(lp355
g68
(g69
g70
NtRp356
(dp357
g73
(dp358
g81
I3
ssg82
g352
sg75
(lp359
S''
asbasbasbag68
(g84
g70
NtRp360
(dp361
g73
(dp362
sg82
g293
sg75
(lp363
g68
(g89
g70
NtRp364
(dp365
g73
(dp366
g93
g94
ssg82
g360
sg75
(lp367
S'httponly'
p368
asbag68
(g89
g70
NtRp369
(dp370
g73
(dp371
g100
g101
ssg82
g360
sg75
(lp372
S':'
asbag68
(g89
g70
NtRp373
(dp374
g73
(dp375
sg82
g360
sg75
(lp376
g68
(g69
g70
NtRp377
(dp378
g73
(dp379
g81
I3
ssg82
g373
sg75
(lp380
S''
asbasbasbag68
(g84
g70
NtRp381
(dp382
g73
(dp383
sg82
g293
sg75
(lp384
g68
(g89
g70
NtRp385
(dp386
g73
(dp387
g93
g94
ssg82
g381
sg75
(lp388
S'max-age'
p389
asbag68
(g89
g70
NtRp390
(dp391
g73
(dp392
g100
g101
ssg82
g381
sg75
(lp393
S':'
asbag68
(g89
g70
NtRp394
(dp395
g73
(dp396
sg82
g381
sg75
(lp397
g68
(g69
g70
NtRp398
(dp399
g73
(dp400
g81
I3
ssg82
g394
sg75
(lp401
S''
asbasbasbag68
(g84
g70
NtRp402
(dp403
g73
(dp404
sg82
g293
sg75
(lp405
g68
(g89
g70
NtRp406
(dp407
g73
(dp408
g93
g94
ssg82
g402
sg75
(lp409
S'path'
p410
asbag68
(g89
g70
NtRp411
(dp412
g73
(dp413
g100
g101
ssg82
g402
sg75
(lp414
S':'
asbag68
(g89
g70
NtRp415
(dp416
g73
(dp417
sg82
g402
sg75
(lp418
g68
(g69
g70
NtRp419
(dp420
g73
(dp421
g81
I3
ssg82
g415
sg75
(lp422
S''
asbasbasbag68
(g84
g70
NtRp423
(dp424
g73
(dp425
sg82
g293
sg75
(lp426
g68
(g89
g70
NtRp427
(dp428
g73
(dp429
g93
g94
ssg82
g423
sg75
(lp430
S'secure'
p431
asbag68
(g89
g70
NtRp432
(dp433
g73
(dp434
g100
g101
ssg82
g423
sg75
(lp435
S':'
asbag68
(g89
g70
NtRp436
(dp437
g73
(dp438
sg82
g423
sg75
(lp439
g68
(g69
g70
NtRp440
(dp441
g73
(dp442
g81
I3
ssg82
g436
sg75
(lp443
S''
asbasbasbag68
(g84
g70
NtRp444
(dp445
g73
(dp446
sg82
g293
sg75
(lp447
g68
(g89
g70
NtRp448
(dp449
g73
(dp450
g93
g94
ssg82
g444
sg75
(lp451
S'version'
p452
asbag68
(g89
g70
NtRp453
(dp454
g73
(dp455
g100
g101
ssg82
g444
sg75
(lp456
S':'
asbag68
(g89
g70
NtRp457
(dp458
g73
(dp459
sg82
g444
sg75
(lp460
g68
(g69
g70
NtRp461
(dp462
g73
(dp463
g81
I3
ssg82
g457
sg75
(lp464
S''
asbasbasbasbasbasbasbag68
(g84
g70
NtRp465
(dp466
g73
(dp467
sg82
g267
sg75
(lp468
g68
(g89
g70
NtRp469
(dp470
g73
(dp471
g93
g94
ssg82
g465
sg75
(lp472
S'session_id_welcome'
p473
asbag68
(g89
g70
NtRp474
(dp475
g73
(dp476
g100
g101
ssg82
g465
sg75
(lp477
S':'
asbag68
(g89
g70
NtRp478
(dp479
g73
(dp480
sg82
g465
sg75
(lp481
g68
(g69
g70
NtRp482
(dp483
g73
(dp484
g81
I4
ssg82
g478
sg75
(lp485
S'127.0.0.1-0257bf03-f9f4-4cfd-a327-b5a596d499ec'
p486
ag68
(g77
g70
NtRp487
(dp488
g73
(dp489
g81
I3
ssg82
Nsg75
(lp490
g68
(g84
g70
NtRp491
(dp492
g73
(dp493
sg82
g487
sg75
(lp494
g68
(g89
g70
NtRp495
(dp496
g73
(dp497
g93
g94
ssg82
g491
sg75
(lp498
g305
asbag68
(g89
g70
NtRp499
(dp500
g73
(dp501
g100
g101
ssg82
g491
sg75
(lp502
S':'
asbag68
(g89
g70
NtRp503
(dp504
g73
(dp505
sg82
g491
sg75
(lp506
g68
(g69
g70
NtRp507
(dp508
g73
(dp509
g81
I3
ssg82
g503
sg75
(lp510
S''
asbasbasbag68
(g84
g70
NtRp511
(dp512
g73
(dp513
sg82
g487
sg75
(lp514
g68
(g89
g70
NtRp515
(dp516
g73
(dp517
g93
g94
ssg82
g511
sg75
(lp518
g326
asbag68
(g89
g70
NtRp519
(dp520
g73
(dp521
g100
g101
ssg82
g511
sg75
(lp522
S':'
asbag68
(g89
g70
NtRp523
(dp524
g73
(dp525
sg82
g511
sg75
(lp526
g68
(g69
g70
NtRp527
(dp528
g73
(dp529
g81
I3
ssg82
g523
sg75
(lp530
S''
asbasbasbag68
(g84
g70
NtRp531
(dp532
g73
(dp533
sg82
g487
sg75
(lp534
g68
(g89
g70
NtRp535
(dp536
g73
(dp537
g93
g94
ssg82
g531
sg75
(lp538
g347
asbag68
(g89
g70
NtRp539
(dp540
g73
(dp541
g100
g101
ssg82
g531
sg75
(lp542
S':'
asbag68
(g89
g70
NtRp543
(dp544
g73
(dp545
sg82
g531
sg75
(lp546
g68
(g69
g70
NtRp547
(dp548
g73
(dp549
g81
I3
ssg82
g543
sg75
(lp550
S''
asbasbasbag68
(g84
g70
NtRp551
(dp552
g73
(dp553
sg82
g487
sg75
(lp554
g68
(g89
g70
NtRp555
(dp556
g73
(dp557
g93
g94
ssg82
g551
sg75
(lp558
g368
asbag68
(g89
g70
NtRp559
(dp560
g73
(dp561
g100
g101
ssg82
g551
sg75
(lp562
S':'
asbag68
(g89
g70
NtRp563
(dp564
g73
(dp565
sg82
g551
sg75
(lp566
g68
(g69
g70
NtRp567
(dp568
g73
(dp569
g81
I3
ssg82
g563
sg75
(lp570
S''
asbasbasbag68
(g84
g70
NtRp571
(dp572
g73
(dp573
sg82
g487
sg75
(lp574
g68
(g89
g70
NtRp575
(dp576
g73
(dp577
g93
g94
ssg82
g571
sg75
(lp578
g389
asbag68
(g89
g70
NtRp579
(dp580
g73
(dp581
g100
g101
ssg82
g571
sg75
(lp582
S':'
asbag68
(g89
g70
NtRp583
(dp584
g73
(dp585
sg82
g571
sg75
(lp586
g68
(g69
g70
NtRp587
(dp588
g73
(dp589
g81
I3
ssg82
g583
sg75
(lp590
S''
asbasbasbag68
(g84
g70
NtRp591
(dp592
g73
(dp593
sg82
g487
sg75
(lp594
g68
(g89
g70
NtRp595
(dp596
g73
(dp597
g93
g94
ssg82
g591
sg75
(lp598
g410
asbag68
(g89
g70
NtRp599
(dp600
g73
(dp601
g100
g101
ssg82
g591
sg75
(lp602
S':'
asbag68
(g89
g70
NtRp603
(dp604
g73
(dp605
sg82
g591
sg75
(lp606
g68
(g69
g70
NtRp607
(dp608
g73
(dp609
g81
I3
ssg82
g603
sg75
(lp610
S''
asbasbasbag68
(g84
g70
NtRp611
(dp612
g73
(dp613
sg82
g487
sg75
(lp614
g68
(g89
g70
NtRp615
(dp616
g73
(dp617
g93
g94
ssg82
g611
sg75
(lp618
g431
asbag68
(g89
g70
NtRp619
(dp620
g73
(dp621
g100
g101
ssg82
g611
sg75
(lp622
S':'
asbag68
(g89
g70
NtRp623
(dp624
g73
(dp625
sg82
g611
sg75
(lp626
g68
(g69
g70
NtRp627
(dp628
g73
(dp629
g81
I3
ssg82
g623
sg75
(lp630
S''
asbasbasbag68
(g84
g70
NtRp631
(dp632
g73
(dp633
sg82
g487
sg75
(lp634
g68
(g89
g70
NtRp635
(dp636
g73
(dp637
g93
g94
ssg82
g631
sg75
(lp638
g452
asbag68
(g89
g70
NtRp639
(dp640
g73
(dp641
g100
g101
ssg82
g631
sg75
(lp642
S':'
asbag68
(g89
g70
NtRp643
(dp644
g73
(dp645
sg82
g631
sg75
(lp646
g68
(g69
g70
NtRp647
(dp648
g73
(dp649
g81
I3
ssg82
g643
sg75
(lp650
S''
asbasbasbasbasbasbasbasbasbasbasbag68
(g84
g70
NtRp651
(dp652
g73
(dp653
sg82
g78
sg75
(lp654
g68
(g89
g70
NtRp655
(dp656
g73
(dp657
g93
g94
ssg82
g651
sg75
(lp658
S'env'
p659
asbag68
(g89
g70
NtRp660
(dp661
g73
(dp662
g100
g101
ssg82
g651
sg75
(lp663
S':'
asbag68
(g89
g70
NtRp664
(dp665
g73
(dp666
sg82
g651
sg75
(lp667
g68
(g69
g70
NtRp668
(dp669
g73
(dp670
g81
I5
ssg82
g664
sg75
(lp671
g68
(g77
g70
NtRp672
(dp673
g73
(dp674
g81
I4
ssg82
Nsg75
(lp675
g68
(g84
g70
NtRp676
(dp677
g73
(dp678
sg82
g672
sg75
(lp679
g68
(g89
g70
NtRp680
(dp681
g73
(dp682
g93
g94
ssg82
g676
sg75
(lp683
S'app_folders'
p684
asbag68
(g89
g70
NtRp685
(dp686
g73
(dp687
g100
g101
ssg82
g676
sg75
(lp688
S':'
asbag68
(g89
g70
NtRp689
(dp690
g73
(dp691
sg82
g676
sg75
(lp692
g68
(g69
g70
NtRp693
(dp694
g73
(dp695
g81
I4
ssg82
g689
sg75
(lp696
S"set(['C:\\\\xampp\\\\htdocs\\\\web2py\\\\applications\\\\kieva\\\\', 'C:\\\\xampp\\\\htdocs\\\\web2py\\\\applications\\\\admin\\\\', 'C:\\\\xampp\\\\htdocs\\\\web2py\\\\applications\\\\welcome\\\\', 'C:\\\\xampp\\\\htdocs\\\\web2py\\\\applications\\\\testumgebung\\\\'])"
p697
asbasbasbag68
(g84
g70
NtRp698
(dp699
g73
(dp700
sg82
g672
sg75
(lp701
g68
(g89
g70
NtRp702
(dp703
g73
(dp704
g93
g94
ssg82
g698
sg75
(lp705
S'applications_parent'
p706
asbag68
(g89
g70
NtRp707
(dp708
g73
(dp709
g100
g101
ssg82
g698
sg75
(lp710
S':'
asbag68
(g89
g70
NtRp711
(dp712
g73
(dp713
sg82
g698
sg75
(lp714
g68
(g69
g70
NtRp715
(dp716
g73
(dp717
g81
I4
ssg82
g711
sg75
(lp718
S'C:\\xampp\\htdocs\\web2py'
p719
asbasbasbag68
(g84
g70
NtRp720
(dp721
g73
(dp722
sg82
g672
sg75
(lp723
g68
(g89
g70
NtRp724
(dp725
g73
(dp726
g93
g94
ssg82
g720
sg75
(lp727
S'cmd_args'
p728
asbag68
(g89
g70
NtRp729
(dp730
g73
(dp731
g100
g101
ssg82
g720
sg75
(lp732
S':'
asbag68
(g89
g70
NtRp733
(dp734
g73
(dp735
sg82
g720
sg75
(lp736
g68
(g69
g70
NtRp737
(dp738
g73
(dp739
g81
I4
ssg82
g733
sg75
(lp740
g68
(g77
g70
NtRp741
(dp742
g73
(dp743
g81
I3
ssg82
Nsg75
(lp744
sbasbasbasbag68
(g84
g70
NtRp745
(dp746
g73
(dp747
sg82
g672
sg75
(lp748
g68
(g89
g70
NtRp749
(dp750
g73
(dp751
g93
g94
ssg82
g745
sg75
(lp752
S'cmd_options'
p753
asbag68
(g89
g70
NtRp754
(dp755
g73
(dp756
g100
g101
ssg82
g745
sg75
(lp757
S':'
asbag68
(g89
g70
NtRp758
(dp759
g73
(dp760
sg82
g745
sg75
(lp761
g68
(g69
g70
NtRp762
(dp763
g73
(dp764
g81
I4
ssg82
g758
sg75
(lp765
S"<Values at 0x31dee18: {'verbose': False, 'ip': '127.0.0.1', 'with_scheduler': False, 'ips': ['10.0.0.109', '192.168.189.1', '192.168.91.1'], 'shutdown_timeout': 5, 'taskbar': False, 'port': 8000, 'maxthreads': None, 'softcron': False, 'server_name': 'swLaptop', 'bpython': False, 'nogui': False, 'nocron': False, 'extcron': False, 'run_system_tests': False, 'test': None, 'folder': 'C:\\\\xampp\\\\htdocs\\\\web2py', 'config': '', 'import_models': False, 'winservice': '', 'shell': None, 'run': '', 'log_filename': 'httpserver.log', 'debuglevel': 30, 'args': [''], 'socket_timeout': 5, 'ssl_ca_certificate': None, 'scheduler': None, 'profiler_filename': None, 'ssl_private_key': '', 'scheduler_groups': None, 'password': '<ask>', 'request_queue_size': 5, 'ssl_certificate': '', 'cronjob': False, 'numthreads': None, 'quiet': False, 'interfaces': None, 'minthreads': None, 'timeout': 10, 'plain': False, 'nobanner': False, 'pid_filename': 'httpserver.pid'}>"
p766
asbasbasbag68
(g84
g70
NtRp767
(dp768
g73
(dp769
sg82
g672
sg75
(lp770
g68
(g89
g70
NtRp771
(dp772
g73
(dp773
g93
g94
ssg82
g767
sg75
(lp774
S'db_sessions'
p775
asbag68
(g89
g70
NtRp776
(dp777
g73
(dp778
g100
g101
ssg82
g767
sg75
(lp779
S':'
asbag68
(g89
g70
NtRp780
(dp781
g73
(dp782
sg82
g767
sg75
(lp783
g68
(g69
g70
NtRp784
(dp785
g73
(dp786
g81
I4
ssg82
g780
sg75
(lp787
S'set([])'
p788
asbasbasbag68
(g84
g70
NtRp789
(dp790
g73
(dp791
sg82
g672
sg75
(lp792
g68
(g89
g70
NtRp793
(dp794
g73
(dp795
g93
g94
ssg82
g789
sg75
(lp796
S'debugging'
p797
asbag68
(g89
g70
NtRp798
(dp799
g73
(dp800
g100
g101
ssg82
g789
sg75
(lp801
S':'
asbag68
(g89
g70
NtRp802
(dp803
g73
(dp804
sg82
g789
sg75
(lp805
g68
(g69
g70
NtRp806
(dp807
g73
(dp808
g81
I4
ssg82
g802
sg75
(lp809
S'False'
p810
asbasbasbag68
(g84
g70
NtRp811
(dp812
g73
(dp813
sg82
g672
sg75
(lp814
g68
(g89
g70
NtRp815
(dp816
g73
(dp817
g93
g94
ssg82
g811
sg75
(lp818
S'gluon_parent'
p819
asbag68
(g89
g70
NtRp820
(dp821
g73
(dp822
g100
g101
ssg82
g811
sg75
(lp823
S':'
asbag68
(g89
g70
NtRp824
(dp825
g73
(dp826
sg82
g811
sg75
(lp827
g68
(g69
g70
NtRp828
(dp829
g73
(dp830
g81
I4
ssg82
g824
sg75
(lp831
S'C:\\xampp\\htdocs\\web2py'
p832
asbasbasbag68
(g84
g70
NtRp833
(dp834
g73
(dp835
sg82
g672
sg75
(lp836
g68
(g89
g70
NtRp837
(dp838
g73
(dp839
g93
g94
ssg82
g833
sg75
(lp840
S'http_accept'
p841
asbag68
(g89
g70
NtRp842
(dp843
g73
(dp844
g100
g101
ssg82
g833
sg75
(lp845
S':'
asbag68
(g89
g70
NtRp846
(dp847
g73
(dp848
sg82
g833
sg75
(lp849
g68
(g69
g70
NtRp850
(dp851
g73
(dp852
g81
I4
ssg82
g846
sg75
(lp853
S'*/*'
p854
asbasbasbag68
(g84
g70
NtRp855
(dp856
g73
(dp857
sg82
g672
sg75
(lp858
g68
(g89
g70
NtRp859
(dp860
g73
(dp861
g93
g94
ssg82
g855
sg75
(lp862
S'http_accept_encoding'
p863
asbag68
(g89
g70
NtRp864
(dp865
g73
(dp866
g100
g101
ssg82
g855
sg75
(lp867
S':'
asbag68
(g89
g70
NtRp868
(dp869
g73
(dp870
sg82
g855
sg75
(lp871
g68
(g69
g70
NtRp872
(dp873
g73
(dp874
g81
I4
ssg82
g868
sg75
(lp875
S'gzip, deflate'
p876
asbasbasbag68
(g84
g70
NtRp877
(dp878
g73
(dp879
sg82
g672
sg75
(lp880
g68
(g89
g70
NtRp881
(dp882
g73
(dp883
g93
g94
ssg82
g877
sg75
(lp884
S'http_accept_language'
p885
asbag68
(g89
g70
NtRp886
(dp887
g73
(dp888
g100
g101
ssg82
g877
sg75
(lp889
S':'
asbag68
(g89
g70
NtRp890
(dp891
g73
(dp892
sg82
g877
sg75
(lp893
g68
(g69
g70
NtRp894
(dp895
g73
(dp896
g81
I4
ssg82
g890
sg75
(lp897
S'de-de,de;q=0.8,en-us;q=0.5,en;q=0.3'
p898
asbasbasbag68
(g84
g70
NtRp899
(dp900
g73
(dp901
sg82
g672
sg75
(lp902
g68
(g89
g70
NtRp903
(dp904
g73
(dp905
g93
g94
ssg82
g899
sg75
(lp906
S'http_cache_control'
p907
asbag68
(g89
g70
NtRp908
(dp909
g73
(dp910
g100
g101
ssg82
g899
sg75
(lp911
S':'
asbag68
(g89
g70
NtRp912
(dp913
g73
(dp914
sg82
g899
sg75
(lp915
g68
(g69
g70
NtRp916
(dp917
g73
(dp918
g81
I4
ssg82
g912
sg75
(lp919
S'max-age=0'
p920
asbasbasbag68
(g84
g70
NtRp921
(dp922
g73
(dp923
sg82
g672
sg75
(lp924
g68
(g89
g70
NtRp925
(dp926
g73
(dp927
g93
g94
ssg82
g921
sg75
(lp928
S'http_connection'
p929
asbag68
(g89
g70
NtRp930
(dp931
g73
(dp932
g100
g101
ssg82
g921
sg75
(lp933
S':'
asbag68
(g89
g70
NtRp934
(dp935
g73
(dp936
sg82
g921
sg75
(lp937
g68
(g69
g70
NtRp938
(dp939
g73
(dp940
g81
I4
ssg82
g934
sg75
(lp941
S'keep-alive'
p942
asbasbasbag68
(g84
g70
NtRp943
(dp944
g73
(dp945
sg82
g672
sg75
(lp946
g68
(g89
g70
NtRp947
(dp948
g73
(dp949
g93
g94
ssg82
g943
sg75
(lp950
S'http_cookie'
p951
asbag68
(g89
g70
NtRp952
(dp953
g73
(dp954
g100
g101
ssg82
g943
sg75
(lp955
S':'
asbag68
(g89
g70
NtRp956
(dp957
g73
(dp958
sg82
g943
sg75
(lp959
g68
(g69
g70
NtRp960
(dp961
g73
(dp962
g81
I4
ssg82
g956
sg75
(lp963
S'session_id_welcome=127.0.0.1-0257bf03-f9f4-4cfd-a327-b5a596d499ec; session_id_testumgebung=127.0.0.1-90677836-87e3-4573-bd9a-704b577fb384'
p964
asbasbasbag68
(g84
g70
NtRp965
(dp966
g73
(dp967
sg82
g672
sg75
(lp968
g68
(g89
g70
NtRp969
(dp970
g73
(dp971
g93
g94
ssg82
g965
sg75
(lp972
S'http_dnt'
p973
asbag68
(g89
g70
NtRp974
(dp975
g73
(dp976
g100
g101
ssg82
g965
sg75
(lp977
S':'
asbag68
(g89
g70
NtRp978
(dp979
g73
(dp980
sg82
g965
sg75
(lp981
g68
(g69
g70
NtRp982
(dp983
g73
(dp984
g81
I4
ssg82
g978
sg75
(lp985
S'1'
asbasbasbag68
(g84
g70
NtRp986
(dp987
g73
(dp988
sg82
g672
sg75
(lp989
g68
(g89
g70
NtRp990
(dp991
g73
(dp992
g93
g94
ssg82
g986
sg75
(lp993
S'http_host'
p994
asbag68
(g89
g70
NtRp995
(dp996
g73
(dp997
g100
g101
ssg82
g986
sg75
(lp998
S':'
asbag68
(g89
g70
NtRp999
(dp1000
g73
(dp1001
sg82
g986
sg75
(lp1002
g68
(g69
g70
NtRp1003
(dp1004
g73
(dp1005
g81
I4
ssg82
g999
sg75
(lp1006
S'127.0.0.1:8000'
p1007
asbasbasbag68
(g84
g70
NtRp1008
(dp1009
g73
(dp1010
sg82
g672
sg75
(lp1011
g68
(g89
g70
NtRp1012
(dp1013
g73
(dp1014
g93
g94
ssg82
g1008
sg75
(lp1015
S'http_referer'
p1016
asbag68
(g89
g70
NtRp1017
(dp1018
g73
(dp1019
g100
g101
ssg82
g1008
sg75
(lp1020
S':'
asbag68
(g89
g70
NtRp1021
(dp1022
g73
(dp1023
sg82
g1008
sg75
(lp1024
g68
(g69
g70
NtRp1025
(dp1026
g73
(dp1027
g81
I4
ssg82
g1021
sg75
(lp1028
S'http://127.0.0.1:8000/testumgebung'
p1029
asbasbasbag68
(g84
g70
NtRp1030
(dp1031
g73
(dp1032
sg82
g672
sg75
(lp1033
g68
(g89
g70
NtRp1034
(dp1035
g73
(dp1036
g93
g94
ssg82
g1030
sg75
(lp1037
S'http_user_agent'
p1038
asbag68
(g89
g70
NtRp1039
(dp1040
g73
(dp1041
g100
g101
ssg82
g1030
sg75
(lp1042
S':'
asbag68
(g89
g70
NtRp1043
(dp1044
g73
(dp1045
sg82
g1030
sg75
(lp1046
g68
(g69
g70
NtRp1047
(dp1048
g73
(dp1049
g81
I4
ssg82
g1043
sg75
(lp1050
S'Mozilla/5.0 (Windows NT 6.1; WOW64; rv:17.0) Gecko/20100101 Firefox/17.0'
p1051
asbasbasbag68
(g84
g70
NtRp1052
(dp1053
g73
(dp1054
sg82
g672
sg75
(lp1055
g68
(g89
g70
NtRp1056
(dp1057
g73
(dp1058
g93
g94
ssg82
g1052
sg75
(lp1059
S'http_web2py_component_element'
p1060
asbag68
(g89
g70
NtRp1061
(dp1062
g73
(dp1063
g100
g101
ssg82
g1052
sg75
(lp1064
S':'
asbag68
(g89
g70
NtRp1065
(dp1066
g73
(dp1067
sg82
g1052
sg75
(lp1068
g68
(g69
g70
NtRp1069
(dp1070
g73
(dp1071
g81
I4
ssg82
g1065
sg75
(lp1072
g201
asbasbasbag68
(g84
g70
NtRp1073
(dp1074
g73
(dp1075
sg82
g672
sg75
(lp1076
g68
(g89
g70
NtRp1077
(dp1078
g73
(dp1079
g93
g94
ssg82
g1073
sg75
(lp1080
S'http_web2py_component_location'
p1081
asbag68
(g89
g70
NtRp1082
(dp1083
g73
(dp1084
g100
g101
ssg82
g1073
sg75
(lp1085
S':'
asbag68
(g89
g70
NtRp1086
(dp1087
g73
(dp1088
sg82
g1073
sg75
(lp1089
g68
(g69
g70
NtRp1090
(dp1091
g73
(dp1092
g81
I4
ssg82
g1086
sg75
(lp1093
S'http://127.0.0.1:8000/testumgebung'
p1094
asbasbasbag68
(g84
g70
NtRp1095
(dp1096
g73
(dp1097
sg82
g672
sg75
(lp1098
g68
(g89
g70
NtRp1099
(dp1100
g73
(dp1101
g93
g94
ssg82
g1095
sg75
(lp1102
S'http_x_clickoncesupport'
p1103
asbag68
(g89
g70
NtRp1104
(dp1105
g73
(dp1106
g100
g101
ssg82
g1095
sg75
(lp1107
S':'
asbag68
(g89
g70
NtRp1108
(dp1109
g73
(dp1110
sg82
g1095
sg75
(lp1111
g68
(g69
g70
NtRp1112
(dp1113
g73
(dp1114
g81
I4
ssg82
g1108
sg75
(lp1115
S'(.NET CLR 2.0.50727; .NET CLR 3.5.30729; .NET CLR 3.0.30729; .NET4.0C; .NET4.0E)'
p1116
asbasbasbag68
(g84
g70
NtRp1117
(dp1118
g73
(dp1119
sg82
g672
sg75
(lp1120
g68
(g89
g70
NtRp1121
(dp1122
g73
(dp1123
g93
g94
ssg82
g1117
sg75
(lp1124
S'http_x_requested_with'
p1125
asbag68
(g89
g70
NtRp1126
(dp1127
g73
(dp1128
g100
g101
ssg82
g1117
sg75
(lp1129
S':'
asbag68
(g89
g70
NtRp1130
(dp1131
g73
(dp1132
sg82
g1117
sg75
(lp1133
g68
(g69
g70
NtRp1134
(dp1135
g73
(dp1136
g81
I4
ssg82
g1130
sg75
(lp1137
S'XMLHttpRequest'
p1138
asbasbasbag68
(g84
g70
NtRp1139
(dp1140
g73
(dp1141
sg82
g672
sg75
(lp1142
g68
(g89
g70
NtRp1143
(dp1144
g73
(dp1145
g93
g94
ssg82
g1139
sg75
(lp1146
S'is_jython'
p1147
asbag68
(g89
g70
NtRp1148
(dp1149
g73
(dp1150
g100
g101
ssg82
g1139
sg75
(lp1151
S':'
asbag68
(g89
g70
NtRp1152
(dp1153
g73
(dp1154
sg82
g1139
sg75
(lp1155
g68
(g69
g70
NtRp1156
(dp1157
g73
(dp1158
g81
I4
ssg82
g1152
sg75
(lp1159
g810
asbasbasbag68
(g84
g70
NtRp1160
(dp1161
g73
(dp1162
sg82
g672
sg75
(lp1163
g68
(g89
g70
NtRp1164
(dp1165
g73
(dp1166
g93
g94
ssg82
g1160
sg75
(lp1167
S'is_pypy'
p1168
asbag68
(g89
g70
NtRp1169
(dp1170
g73
(dp1171
g100
g101
ssg82
g1160
sg75
(lp1172
S':'
asbag68
(g89
g70
NtRp1173
(dp1174
g73
(dp1175
sg82
g1160
sg75
(lp1176
g68
(g69
g70
NtRp1177
(dp1178
g73
(dp1179
g81
I4
ssg82
g1173
sg75
(lp1180
g810
asbasbasbag68
(g84
g70
NtRp1181
(dp1182
g73
(dp1183
sg82
g672
sg75
(lp1184
g68
(g89
g70
NtRp1185
(dp1186
g73
(dp1187
g93
g94
ssg82
g1181
sg75
(lp1188
S'path_info'
p1189
asbag68
(g89
g70
NtRp1190
(dp1191
g73
(dp1192
g100
g101
ssg82
g1181
sg75
(lp1193
S':'
asbag68
(g89
g70
NtRp1194
(dp1195
g73
(dp1196
sg82
g1181
sg75
(lp1197
g68
(g69
g70
NtRp1198
(dp1199
g73
(dp1200
g81
I4
ssg82
g1194
sg75
(lp1201
S'/testumgebung/plugin_feedbacks/feedback.load'
p1202
asbasbasbag68
(g84
g70
NtRp1203
(dp1204
g73
(dp1205
sg82
g672
sg75
(lp1206
g68
(g89
g70
NtRp1207
(dp1208
g73
(dp1209
g93
g94
ssg82
g1203
sg75
(lp1210
S'query_string'
p1211
asbag68
(g89
g70
NtRp1212
(dp1213
g73
(dp1214
g100
g101
ssg82
g1203
sg75
(lp1215
S':'
asbag68
(g89
g70
NtRp1216
(dp1217
g73
(dp1218
sg82
g1203
sg75
(lp1219
g68
(g69
g70
NtRp1220
(dp1221
g73
(dp1222
g81
I4
ssg82
g1216
sg75
(lp1223
S''
asbasbasbag68
(g84
g70
NtRp1224
(dp1225
g73
(dp1226
sg82
g672
sg75
(lp1227
g68
(g89
g70
NtRp1228
(dp1229
g73
(dp1230
g93
g94
ssg82
g1224
sg75
(lp1231
S'remote_addr'
p1232
asbag68
(g89
g70
NtRp1233
(dp1234
g73
(dp1235
g100
g101
ssg82
g1224
sg75
(lp1236
S':'
asbag68
(g89
g70
NtRp1237
(dp1238
g73
(dp1239
sg82
g1224
sg75
(lp1240
g68
(g69
g70
NtRp1241
(dp1242
g73
(dp1243
g81
I4
ssg82
g1237
sg75
(lp1244
g223
asbasbasbag68
(g84
g70
NtRp1245
(dp1246
g73
(dp1247
sg82
g672
sg75
(lp1248
g68
(g89
g70
NtRp1249
(dp1250
g73
(dp1251
g93
g94
ssg82
g1245
sg75
(lp1252
S'remote_port'
p1253
asbag68
(g89
g70
NtRp1254
(dp1255
g73
(dp1256
g100
g101
ssg82
g1245
sg75
(lp1257
S':'
asbag68
(g89
g70
NtRp1258
(dp1259
g73
(dp1260
sg82
g1245
sg75
(lp1261
g68
(g69
g70
NtRp1262
(dp1263
g73
(dp1264
g81
I4
ssg82
g1258
sg75
(lp1265
S'63134'
p1266
asbasbasbag68
(g84
g70
NtRp1267
(dp1268
g73
(dp1269
sg82
g672
sg75
(lp1270
g68
(g89
g70
NtRp1271
(dp1272
g73
(dp1273
g93
g94
ssg82
g1267
sg75
(lp1274
S'request_method'
p1275
asbag68
(g89
g70
NtRp1276
(dp1277
g73
(dp1278
g100
g101
ssg82
g1267
sg75
(lp1279
S':'
asbag68
(g89
g70
NtRp1280
(dp1281
g73
(dp1282
sg82
g1267
sg75
(lp1283
g68
(g69
g70
NtRp1284
(dp1285
g73
(dp1286
g81
I4
ssg82
g1280
sg75
(lp1287
S'GET'
p1288
asbasbasbag68
(g84
g70
NtRp1289
(dp1290
g73
(dp1291
sg82
g672
sg75
(lp1292
g68
(g89
g70
NtRp1293
(dp1294
g73
(dp1295
g93
g94
ssg82
g1289
sg75
(lp1296
S'request_uri'
p1297
asbag68
(g89
g70
NtRp1298
(dp1299
g73
(dp1300
g100
g101
ssg82
g1289
sg75
(lp1301
S':'
asbag68
(g89
g70
NtRp1302
(dp1303
g73
(dp1304
sg82
g1289
sg75
(lp1305
g68
(g69
g70
NtRp1306
(dp1307
g73
(dp1308
g81
I4
ssg82
g1302
sg75
(lp1309
g1202
asbasbasbag68
(g84
g70
NtRp1310
(dp1311
g73
(dp1312
sg82
g672
sg75
(lp1313
g68
(g89
g70
NtRp1314
(dp1315
g73
(dp1316
g93
g94
ssg82
g1310
sg75
(lp1317
S'script_name'
p1318
asbag68
(g89
g70
NtRp1319
(dp1320
g73
(dp1321
g100
g101
ssg82
g1310
sg75
(lp1322
S':'
asbag68
(g89
g70
NtRp1323
(dp1324
g73
(dp1325
sg82
g1310
sg75
(lp1326
g68
(g69
g70
NtRp1327
(dp1328
g73
(dp1329
g81
I4
ssg82
g1323
sg75
(lp1330
S''
asbasbasbag68
(g84
g70
NtRp1331
(dp1332
g73
(dp1333
sg82
g672
sg75
(lp1334
g68
(g89
g70
NtRp1335
(dp1336
g73
(dp1337
g93
g94
ssg82
g1331
sg75
(lp1338
S'server_name'
p1339
asbag68
(g89
g70
NtRp1340
(dp1341
g73
(dp1342
g100
g101
ssg82
g1331
sg75
(lp1343
S':'
asbag68
(g89
g70
NtRp1344
(dp1345
g73
(dp1346
sg82
g1331
sg75
(lp1347
g68
(g69
g70
NtRp1348
(dp1349
g73
(dp1350
g81
I4
ssg82
g1344
sg75
(lp1351
S'swLaptop'
p1352
asbasbasbag68
(g84
g70
NtRp1353
(dp1354
g73
(dp1355
sg82
g672
sg75
(lp1356
g68
(g89
g70
NtRp1357
(dp1358
g73
(dp1359
g93
g94
ssg82
g1353
sg75
(lp1360
S'server_port'
p1361
asbag68
(g89
g70
NtRp1362
(dp1363
g73
(dp1364
g100
g101
ssg82
g1353
sg75
(lp1365
S':'
asbag68
(g89
g70
NtRp1366
(dp1367
g73
(dp1368
sg82
g1353
sg75
(lp1369
g68
(g69
g70
NtRp1370
(dp1371
g73
(dp1372
g81
I4
ssg82
g1366
sg75
(lp1373
S'8000'
p1374
asbasbasbag68
(g84
g70
NtRp1375
(dp1376
g73
(dp1377
sg82
g672
sg75
(lp1378
g68
(g89
g70
NtRp1379
(dp1380
g73
(dp1381
g93
g94
ssg82
g1375
sg75
(lp1382
S'server_protocol'
p1383
asbag68
(g89
g70
NtRp1384
(dp1385
g73
(dp1386
g100
g101
ssg82
g1375
sg75
(lp1387
S':'
asbag68
(g89
g70
NtRp1388
(dp1389
g73
(dp1390
sg82
g1375
sg75
(lp1391
g68
(g69
g70
NtRp1392
(dp1393
g73
(dp1394
g81
I4
ssg82
g1388
sg75
(lp1395
S'HTTP/1.1'
p1396
asbasbasbag68
(g84
g70
NtRp1397
(dp1398
g73
(dp1399
sg82
g672
sg75
(lp1400
g68
(g89
g70
NtRp1401
(dp1402
g73
(dp1403
g93
g94
ssg82
g1397
sg75
(lp1404
S'server_software'
p1405
asbag68
(g89
g70
NtRp1406
(dp1407
g73
(dp1408
g100
g101
ssg82
g1397
sg75
(lp1409
S':'
asbag68
(g89
g70
NtRp1410
(dp1411
g73
(dp1412
sg82
g1397
sg75
(lp1413
g68
(g69
g70
NtRp1414
(dp1415
g73
(dp1416
g81
I4
ssg82
g1410
sg75
(lp1417
S'Rocket 1.2.4'
p1418
asbasbasbag68
(g84
g70
NtRp1419
(dp1420
g73
(dp1421
sg82
g672
sg75
(lp1422
g68
(g89
g70
NtRp1423
(dp1424
g73
(dp1425
g93
g94
ssg82
g1419
sg75
(lp1426
S'web2py_crontype'
p1427
asbag68
(g89
g70
NtRp1428
(dp1429
g73
(dp1430
g100
g101
ssg82
g1419
sg75
(lp1431
S':'
asbag68
(g89
g70
NtRp1432
(dp1433
g73
(dp1434
sg82
g1419
sg75
(lp1435
g68
(g69
g70
NtRp1436
(dp1437
g73
(dp1438
g81
I4
ssg82
g1432
sg75
(lp1439
S'hard'
p1440
asbasbasbag68
(g84
g70
NtRp1441
(dp1442
g73
(dp1443
sg82
g672
sg75
(lp1444
g68
(g89
g70
NtRp1445
(dp1446
g73
(dp1447
g93
g94
ssg82
g1441
sg75
(lp1448
S'web2py_path'
p1449
asbag68
(g89
g70
NtRp1450
(dp1451
g73
(dp1452
g100
g101
ssg82
g1441
sg75
(lp1453
S':'
asbag68
(g89
g70
NtRp1454
(dp1455
g73
(dp1456
sg82
g1441
sg75
(lp1457
g68
(g69
g70
NtRp1458
(dp1459
g73
(dp1460
g81
I4
ssg82
g1454
sg75
(lp1461
g719
asbasbasbag68
(g84
g70
NtRp1462
(dp1463
g73
(dp1464
sg82
g672
sg75
(lp1465
g68
(g89
g70
NtRp1466
(dp1467
g73
(dp1468
g93
g94
ssg82
g1462
sg75
(lp1469
S'web2py_version'
p1470
asbag68
(g89
g70
NtRp1471
(dp1472
g73
(dp1473
g100
g101
ssg82
g1462
sg75
(lp1474
S':'
asbag68
(g89
g70
NtRp1475
(dp1476
g73
(dp1477
sg82
g1462
sg75
(lp1478
g68
(g69
g70
NtRp1479
(dp1480
g73
(dp1481
g81
I4
ssg82
g1475
sg75
(lp1482
g68
(g77
g70
NtRp1483
(dp1484
g73
(dp1485
g81
I3
ssg82
Nsg75
(lp1486
g68
(g84
g70
NtRp1487
(dp1488
g73
(dp1489
sg82
g1483
sg75
(lp1490
g68
(g89
g70
NtRp1491
(dp1492
g73
(dp1493
sg82
g1487
sg75
(lp1494
g68
(g69
g70
NtRp1495
(dp1496
g73
(dp1497
g81
I3
ssg82
g1491
sg75
(lp1498
S'2'
asbasbasbag68
(g84
g70
NtRp1499
(dp1500
g73
(dp1501
sg82
g1483
sg75
(lp1502
g68
(g89
g70
NtRp1503
(dp1504
g73
(dp1505
sg82
g1499
sg75
(lp1506
g68
(g69
g70
NtRp1507
(dp1508
g73
(dp1509
g81
I3
ssg82
g1503
sg75
(lp1510
S'0'
asbasbasbag68
(g84
g70
NtRp1511
(dp1512
g73
(dp1513
sg82
g1483
sg75
(lp1514
g68
(g89
g70
NtRp1515
(dp1516
g73
(dp1517
sg82
g1511
sg75
(lp1518
g68
(g69
g70
NtRp1519
(dp1520
g73
(dp1521
g81
I3
ssg82
g1515
sg75
(lp1522
S'3'
asbasbasbag68
(g84
g70
NtRp1523
(dp1524
g73
(dp1525
sg82
g1483
sg75
(lp1526
g68
(g89
g70
NtRp1527
(dp1528
g73
(dp1529
sg82
g1523
sg75
(lp1530
g68
(g69
g70
NtRp1531
(dp1532
g73
(dp1533
g81
I3
ssg82
g1527
sg75
(lp1534
S'datetime.datetime(2012, 8, 31, 5, 58, 31)'
p1535
asbasbasbag68
(g84
g70
NtRp1536
(dp1537
g73
(dp1538
sg82
g1483
sg75
(lp1539
g68
(g89
g70
NtRp1540
(dp1541
g73
(dp1542
sg82
g1536
sg75
(lp1543
g68
(g69
g70
NtRp1544
(dp1545
g73
(dp1546
g81
I3
ssg82
g1540
sg75
(lp1547
S'stable'
p1548
asbasbasbasbasbasbasbag68
(g84
g70
NtRp1549
(dp1550
g73
(dp1551
sg82
g672
sg75
(lp1552
g68
(g89
g70
NtRp1553
(dp1554
g73
(dp1555
g93
g94
ssg82
g1549
sg75
(lp1556
S'wsgi_errors'
p1557
asbag68
(g89
g70
NtRp1558
(dp1559
g73
(dp1560
g100
g101
ssg82
g1549
sg75
(lp1561
S':'
asbag68
(g89
g70
NtRp1562
(dp1563
g73
(dp1564
sg82
g1549
sg75
(lp1565
g68
(g69
g70
NtRp1566
(dp1567
g73
(dp1568
g81
I4
ssg82
g1562
sg75
(lp1569
S"<open file '<stderr>', mode 'w' at 0x021750D0>"
p1570
asbasbasbag68
(g84
g70
NtRp1571
(dp1572
g73
(dp1573
sg82
g672
sg75
(lp1574
g68
(g89
g70
NtRp1575
(dp1576
g73
(dp1577
g93
g94
ssg82
g1571
sg75
(lp1578
S'wsgi_file_wrapper'
p1579
asbag68
(g89
g70
NtRp1580
(dp1581
g73
(dp1582
g100
g101
ssg82
g1571
sg75
(lp1583
S':'
asbag68
(g89
g70
NtRp1584
(dp1585
g73
(dp1586
sg82
g1571
sg75
(lp1587
g68
(g69
g70
NtRp1588
(dp1589
g73
(dp1590
g81
I4
ssg82
g1584
sg75
(lp1591
S'<class wsgiref.util.FileWrapper at 0x0310D030>'
p1592
asbasbasbag68
(g84
g70
NtRp1593
(dp1594
g73
(dp1595
sg82
g672
sg75
(lp1596
g68
(g89
g70
NtRp1597
(dp1598
g73
(dp1599
g93
g94
ssg82
g1593
sg75
(lp1600
S'wsgi_input'
p1601
asbag68
(g89
g70
NtRp1602
(dp1603
g73
(dp1604
g100
g101
ssg82
g1593
sg75
(lp1605
S':'
asbag68
(g89
g70
NtRp1606
(dp1607
g73
(dp1608
sg82
g1593
sg75
(lp1609
g68
(g69
g70
NtRp1610
(dp1611
g73
(dp1612
g81
I4
ssg82
g1606
sg75
(lp1613
S'<socket._fileobject object at 0x08AC8730>'
p1614
asbasbasbag68
(g84
g70
NtRp1615
(dp1616
g73
(dp1617
sg82
g672
sg75
(lp1618
g68
(g89
g70
NtRp1619
(dp1620
g73
(dp1621
g93
g94
ssg82
g1615
sg75
(lp1622
S'wsgi_multiprocess'
p1623
asbag68
(g89
g70
NtRp1624
(dp1625
g73
(dp1626
g100
g101
ssg82
g1615
sg75
(lp1627
S':'
asbag68
(g89
g70
NtRp1628
(dp1629
g73
(dp1630
sg82
g1615
sg75
(lp1631
g68
(g69
g70
NtRp1632
(dp1633
g73
(dp1634
g81
I4
ssg82
g1628
sg75
(lp1635
g810
asbasbasbag68
(g84
g70
NtRp1636
(dp1637
g73
(dp1638
sg82
g672
sg75
(lp1639
g68
(g89
g70
NtRp1640
(dp1641
g73
(dp1642
g93
g94
ssg82
g1636
sg75
(lp1643
S'wsgi_multithread'
p1644
asbag68
(g89
g70
NtRp1645
(dp1646
g73
(dp1647
g100
g101
ssg82
g1636
sg75
(lp1648
S':'
asbag68
(g89
g70
NtRp1649
(dp1650
g73
(dp1651
sg82
g1636
sg75
(lp1652
g68
(g69
g70
NtRp1653
(dp1654
g73
(dp1655
g81
I4
ssg82
g1649
sg75
(lp1656
g111
asbasbasbag68
(g84
g70
NtRp1657
(dp1658
g73
(dp1659
sg82
g672
sg75
(lp1660
g68
(g89
g70
NtRp1661
(dp1662
g73
(dp1663
g93
g94
ssg82
g1657
sg75
(lp1664
S'wsgi_run_once'
p1665
asbag68
(g89
g70
NtRp1666
(dp1667
g73
(dp1668
g100
g101
ssg82
g1657
sg75
(lp1669
S':'
asbag68
(g89
g70
NtRp1670
(dp1671
g73
(dp1672
sg82
g1657
sg75
(lp1673
g68
(g69
g70
NtRp1674
(dp1675
g73
(dp1676
g81
I4
ssg82
g1670
sg75
(lp1677
g810
asbasbasbag68
(g84
g70
NtRp1678
(dp1679
g73
(dp1680
sg82
g672
sg75
(lp1681
g68
(g89
g70
NtRp1682
(dp1683
g73
(dp1684
g93
g94
ssg82
g1678
sg75
(lp1685
S'wsgi_url_scheme'
p1686
asbag68
(g89
g70
NtRp1687
(dp1688
g73
(dp1689
g100
g101
ssg82
g1678
sg75
(lp1690
S':'
asbag68
(g89
g70
NtRp1691
(dp1692
g73
(dp1693
sg82
g1678
sg75
(lp1694
g68
(g69
g70
NtRp1695
(dp1696
g73
(dp1697
g81
I4
ssg82
g1691
sg75
(lp1698
S'http'
p1699
asbasbasbag68
(g84
g70
NtRp1700
(dp1701
g73
(dp1702
sg82
g672
sg75
(lp1703
g68
(g89
g70
NtRp1704
(dp1705
g73
(dp1706
g93
g94
ssg82
g1700
sg75
(lp1707
S'wsgi_version'
p1708
asbag68
(g89
g70
NtRp1709
(dp1710
g73
(dp1711
g100
g101
ssg82
g1700
sg75
(lp1712
S':'
asbag68
(g89
g70
NtRp1713
(dp1714
g73
(dp1715
sg82
g1700
sg75
(lp1716
g68
(g69
g70
NtRp1717
(dp1718
g73
(dp1719
g81
I4
ssg82
g1713
sg75
(lp1720
g68
(g77
g70
NtRp1721
(dp1722
g73
(dp1723
g81
I3
ssg82
Nsg75
(lp1724
g68
(g84
g70
NtRp1725
(dp1726
g73
(dp1727
sg82
g1721
sg75
(lp1728
g68
(g89
g70
NtRp1729
(dp1730
g73
(dp1731
sg82
g1725
sg75
(lp1732
g68
(g69
g70
NtRp1733
(dp1734
g73
(dp1735
g81
I3
ssg82
g1729
sg75
(lp1736
S'1'
asbasbasbag68
(g84
g70
NtRp1737
(dp1738
g73
(dp1739
sg82
g1721
sg75
(lp1740
g68
(g89
g70
NtRp1741
(dp1742
g73
(dp1743
sg82
g1737
sg75
(lp1744
g68
(g69
g70
NtRp1745
(dp1746
g73
(dp1747
g81
I3
ssg82
g1741
sg75
(lp1748
S'0'
asbasbasbasbasbasbasbasbasbasbasbag68
(g84
g70
NtRp1749
(dp1750
g73
(dp1751
sg82
g78
sg75
(lp1752
g68
(g89
g70
NtRp1753
(dp1754
g73
(dp1755
g93
g94
ssg82
g1749
sg75
(lp1756
S'extension'
p1757
asbag68
(g89
g70
NtRp1758
(dp1759
g73
(dp1760
g100
g101
ssg82
g1749
sg75
(lp1761
S':'
asbag68
(g89
g70
NtRp1762
(dp1763
g73
(dp1764
sg82
g1749
sg75
(lp1765
g68
(g69
g70
NtRp1766
(dp1767
g73
(dp1768
g81
I5
ssg82
g1762
sg75
(lp1769
S'load'
p1770
asbasbasbag68
(g84
g70
NtRp1771
(dp1772
g73
(dp1773
sg82
g78
sg75
(lp1774
g68
(g89
g70
NtRp1775
(dp1776
g73
(dp1777
g93
g94
ssg82
g1771
sg75
(lp1778
S'folder'
p1779
asbag68
(g89
g70
NtRp1780
(dp1781
g73
(dp1782
g100
g101
ssg82
g1771
sg75
(lp1783
S':'
asbag68
(g89
g70
NtRp1784
(dp1785
g73
(dp1786
sg82
g1771
sg75
(lp1787
g68
(g69
g70
NtRp1788
(dp1789
g73
(dp1790
g81
I5
ssg82
g1784
sg75
(lp1791
S'C:\\xampp\\htdocs\\web2py\\applications\\testumgebung\\'
p1792
asbasbasbag68
(g84
g70
NtRp1793
(dp1794
g73
(dp1795
sg82
g78
sg75
(lp1796
g68
(g89
g70
NtRp1797
(dp1798
g73
(dp1799
g93
g94
ssg82
g1793
sg75
(lp1800
S'function'
p1801
asbag68
(g89
g70
NtRp1802
(dp1803
g73
(dp1804
g100
g101
ssg82
g1793
sg75
(lp1805
S':'
asbag68
(g89
g70
NtRp1806
(dp1807
g73
(dp1808
sg82
g1793
sg75
(lp1809
g68
(g69
g70
NtRp1810
(dp1811
g73
(dp1812
g81
I5
ssg82
g1806
sg75
(lp1813
S'feedback'
p1814
asbasbasbag68
(g84
g70
NtRp1815
(dp1816
g73
(dp1817
sg82
g78
sg75
(lp1818
g68
(g89
g70
NtRp1819
(dp1820
g73
(dp1821
g93
g94
ssg82
g1815
sg75
(lp1822
S'get_vars'
p1823
asbag68
(g89
g70
NtRp1824
(dp1825
g73
(dp1826
g100
g101
ssg82
g1815
sg75
(lp1827
S':'
asbag68
(g89
g70
NtRp1828
(dp1829
g73
(dp1830
sg82
g1815
sg75
(lp1831
g68
(g69
g70
NtRp1832
(dp1833
g73
(dp1834
g81
I5
ssg82
g1828
sg75
(lp1835
g68
(g77
g70
NtRp1836
(dp1837
g73
(dp1838
g81
I4
ssg82
Nsg75
(lp1839
sbasbasbasbag68
(g84
g70
NtRp1840
(dp1841
g73
(dp1842
sg82
g78
sg75
(lp1843
g68
(g89
g70
NtRp1844
(dp1845
g73
(dp1846
g93
g94
ssg82
g1840
sg75
(lp1847
S'global_settings'
p1848
asbag68
(g89
g70
NtRp1849
(dp1850
g73
(dp1851
g100
g101
ssg82
g1840
sg75
(lp1852
S':'
asbag68
(g89
g70
NtRp1853
(dp1854
g73
(dp1855
sg82
g1840
sg75
(lp1856
g68
(g69
g70
NtRp1857
(dp1858
g73
(dp1859
g81
I5
ssg82
g1853
sg75
(lp1860
g68
(g77
g70
NtRp1861
(dp1862
g73
(dp1863
g81
I4
ssg82
Nsg75
(lp1864
g68
(g84
g70
NtRp1865
(dp1866
g73
(dp1867
sg82
g1861
sg75
(lp1868
g68
(g89
g70
NtRp1869
(dp1870
g73
(dp1871
g93
g94
ssg82
g1865
sg75
(lp1872
g684
asbag68
(g89
g70
NtRp1873
(dp1874
g73
(dp1875
g100
g101
ssg82
g1865
sg75
(lp1876
S':'
asbag68
(g89
g70
NtRp1877
(dp1878
g73
(dp1879
sg82
g1865
sg75
(lp1880
g68
(g69
g70
NtRp1881
(dp1882
g73
(dp1883
g81
I4
ssg82
g1877
sg75
(lp1884
S"set(['C:\\\\xampp\\\\htdocs\\\\web2py\\\\applications\\\\kieva\\\\', 'C:\\\\xampp\\\\htdocs\\\\web2py\\\\applications\\\\admin\\\\', 'C:\\\\xampp\\\\htdocs\\\\web2py\\\\applications\\\\welcome\\\\', 'C:\\\\xampp\\\\htdocs\\\\web2py\\\\applications\\\\testumgebung\\\\'])"
p1885
asbasbasbag68
(g84
g70
NtRp1886
(dp1887
g73
(dp1888
sg82
g1861
sg75
(lp1889
g68
(g89
g70
NtRp1890
(dp1891
g73
(dp1892
g93
g94
ssg82
g1886
sg75
(lp1893
g706
asbag68
(g89
g70
NtRp1894
(dp1895
g73
(dp1896
g100
g101
ssg82
g1886
sg75
(lp1897
S':'
asbag68
(g89
g70
NtRp1898
(dp1899
g73
(dp1900
sg82
g1886
sg75
(lp1901
g68
(g69
g70
NtRp1902
(dp1903
g73
(dp1904
g81
I4
ssg82
g1898
sg75
(lp1905
g719
asbasbasbag68
(g84
g70
NtRp1906
(dp1907
g73
(dp1908
sg82
g1861
sg75
(lp1909
g68
(g89
g70
NtRp1910
(dp1911
g73
(dp1912
g93
g94
ssg82
g1906
sg75
(lp1913
g728
asbag68
(g89
g70
NtRp1914
(dp1915
g73
(dp1916
g100
g101
ssg82
g1906
sg75
(lp1917
S':'
asbag68
(g89
g70
NtRp1918
(dp1919
g73
(dp1920
sg82
g1906
sg75
(lp1921
g68
(g69
g70
NtRp1922
(dp1923
g73
(dp1924
g81
I4
ssg82
g1918
sg75
(lp1925
g68
(g77
g70
NtRp1926
(dp1927
g73
(dp1928
g81
I3
ssg82
Nsg75
(lp1929
sbasbasbasbag68
(g84
g70
NtRp1930
(dp1931
g73
(dp1932
sg82
g1861
sg75
(lp1933
g68
(g89
g70
NtRp1934
(dp1935
g73
(dp1936
g93
g94
ssg82
g1930
sg75
(lp1937
g753
asbag68
(g89
g70
NtRp1938
(dp1939
g73
(dp1940
g100
g101
ssg82
g1930
sg75
(lp1941
S':'
asbag68
(g89
g70
NtRp1942
(dp1943
g73
(dp1944
sg82
g1930
sg75
(lp1945
g68
(g69
g70
NtRp1946
(dp1947
g73
(dp1948
g81
I4
ssg82
g1942
sg75
(lp1949
S"<Values at 0x31dee18: {'verbose': False, 'ip': '127.0.0.1', 'with_scheduler': False, 'ips': ['10.0.0.109', '192.168.189.1', '192.168.91.1'], 'shutdown_timeout': 5, 'taskbar': False, 'port': 8000, 'maxthreads': None, 'softcron': False, 'server_name': 'swLaptop', 'bpython': False, 'nogui': False, 'nocron': False, 'extcron': False, 'run_system_tests': False, 'test': None, 'folder': 'C:\\\\xampp\\\\htdocs\\\\web2py', 'config': '', 'import_models': False, 'winservice': '', 'shell': None, 'run': '', 'log_filename': 'httpserver.log', 'debuglevel': 30, 'args': [''], 'socket_timeout': 5, 'ssl_ca_certificate': None, 'scheduler': None, 'profiler_filename': None, 'ssl_private_key': '', 'scheduler_groups': None, 'password': '<ask>', 'request_queue_size': 5, 'ssl_certificate': '', 'cronjob': False, 'numthreads': None, 'quiet': False, 'interfaces': None, 'minthreads': None, 'timeout': 10, 'plain': False, 'nobanner': False, 'pid_filename': 'httpserver.pid'}>"
p1950
asbasbasbag68
(g84
g70
NtRp1951
(dp1952
g73
(dp1953
sg82
g1861
sg75
(lp1954
g68
(g89
g70
NtRp1955
(dp1956
g73
(dp1957
g93
g94
ssg82
g1951
sg75
(lp1958
g775
asbag68
(g89
g70
NtRp1959
(dp1960
g73
(dp1961
g100
g101
ssg82
g1951
sg75
(lp1962
S':'
asbag68
(g89
g70
NtRp1963
(dp1964
g73
(dp1965
sg82
g1951
sg75
(lp1966
g68
(g69
g70
NtRp1967
(dp1968
g73
(dp1969
g81
I4
ssg82
g1963
sg75
(lp1970
S'set([])'
p1971
asbasbasbag68
(g84
g70
NtRp1972
(dp1973
g73
(dp1974
sg82
g1861
sg75
(lp1975
g68
(g89
g70
NtRp1976
(dp1977
g73
(dp1978
g93
g94
ssg82
g1972
sg75
(lp1979
g797
asbag68
(g89
g70
NtRp1980
(dp1981
g73
(dp1982
g100
g101
ssg82
g1972
sg75
(lp1983
S':'
asbag68
(g89
g70
NtRp1984
(dp1985
g73
(dp1986
sg82
g1972
sg75
(lp1987
g68
(g69
g70
NtRp1988
(dp1989
g73
(dp1990
g81
I4
ssg82
g1984
sg75
(lp1991
g810
asbasbasbag68
(g84
g70
NtRp1992
(dp1993
g73
(dp1994
sg82
g1861
sg75
(lp1995
g68
(g89
g70
NtRp1996
(dp1997
g73
(dp1998
g93
g94
ssg82
g1992
sg75
(lp1999
g819
asbag68
(g89
g70
NtRp2000
(dp2001
g73
(dp2002
g100
g101
ssg82
g1992
sg75
(lp2003
S':'
asbag68
(g89
g70
NtRp2004
(dp2005
g73
(dp2006
sg82
g1992
sg75
(lp2007
g68
(g69
g70
NtRp2008
(dp2009
g73
(dp2010
g81
I4
ssg82
g2004
sg75
(lp2011
g832
asbasbasbag68
(g84
g70
NtRp2012
(dp2013
g73
(dp2014
sg82
g1861
sg75
(lp2015
g68
(g89
g70
NtRp2016
(dp2017
g73
(dp2018
g93
g94
ssg82
g2012
sg75
(lp2019
g1147
asbag68
(g89
g70
NtRp2020
(dp2021
g73
(dp2022
g100
g101
ssg82
g2012
sg75
(lp2023
S':'
asbag68
(g89
g70
NtRp2024
(dp2025
g73
(dp2026
sg82
g2012
sg75
(lp2027
g68
(g69
g70
NtRp2028
(dp2029
g73
(dp2030
g81
I4
ssg82
g2024
sg75
(lp2031
g810
asbasbasbag68
(g84
g70
NtRp2032
(dp2033
g73
(dp2034
sg82
g1861
sg75
(lp2035
g68
(g89
g70
NtRp2036
(dp2037
g73
(dp2038
g93
g94
ssg82
g2032
sg75
(lp2039
g1168
asbag68
(g89
g70
NtRp2040
(dp2041
g73
(dp2042
g100
g101
ssg82
g2032
sg75
(lp2043
S':'
asbag68
(g89
g70
NtRp2044
(dp2045
g73
(dp2046
sg82
g2032
sg75
(lp2047
g68
(g69
g70
NtRp2048
(dp2049
g73
(dp2050
g81
I4
ssg82
g2044
sg75
(lp2051
g810
asbasbasbag68
(g84
g70
NtRp2052
(dp2053
g73
(dp2054
sg82
g1861
sg75
(lp2055
g68
(g89
g70
NtRp2056
(dp2057
g73
(dp2058
g93
g94
ssg82
g2052
sg75
(lp2059
g1427
asbag68
(g89
g70
NtRp2060
(dp2061
g73
(dp2062
g100
g101
ssg82
g2052
sg75
(lp2063
S':'
asbag68
(g89
g70
NtRp2064
(dp2065
g73
(dp2066
sg82
g2052
sg75
(lp2067
g68
(g69
g70
NtRp2068
(dp2069
g73
(dp2070
g81
I4
ssg82
g2064
sg75
(lp2071
g1440
asbasbasbag68
(g84
g70
NtRp2072
(dp2073
g73
(dp2074
sg82
g1861
sg75
(lp2075
g68
(g89
g70
NtRp2076
(dp2077
g73
(dp2078
g93
g94
ssg82
g2072
sg75
(lp2079
g1470
asbag68
(g89
g70
NtRp2080
(dp2081
g73
(dp2082
g100
g101
ssg82
g2072
sg75
(lp2083
S':'
asbag68
(g89
g70
NtRp2084
(dp2085
g73
(dp2086
sg82
g2072
sg75
(lp2087
g68
(g69
g70
NtRp2088
(dp2089
g73
(dp2090
g81
I4
ssg82
g2084
sg75
(lp2091
g68
(g77
g70
NtRp2092
(dp2093
g73
(dp2094
g81
I3
ssg82
Nsg75
(lp2095
g68
(g84
g70
NtRp2096
(dp2097
g73
(dp2098
sg82
g2092
sg75
(lp2099
g68
(g89
g70
NtRp2100
(dp2101
g73
(dp2102
sg82
g2096
sg75
(lp2103
g68
(g69
g70
NtRp2104
(dp2105
g73
(dp2106
g81
I3
ssg82
g2100
sg75
(lp2107
S'2'
asbasbasbag68
(g84
g70
NtRp2108
(dp2109
g73
(dp2110
sg82
g2092
sg75
(lp2111
g68
(g89
g70
NtRp2112
(dp2113
g73
(dp2114
sg82
g2108
sg75
(lp2115
g68
(g69
g70
NtRp2116
(dp2117
g73
(dp2118
g81
I3
ssg82
g2112
sg75
(lp2119
S'0'
asbasbasbag68
(g84
g70
NtRp2120
(dp2121
g73
(dp2122
sg82
g2092
sg75
(lp2123
g68
(g89
g70
NtRp2124
(dp2125
g73
(dp2126
sg82
g2120
sg75
(lp2127
g68
(g69
g70
NtRp2128
(dp2129
g73
(dp2130
g81
I3
ssg82
g2124
sg75
(lp2131
S'3'
asbasbasbag68
(g84
g70
NtRp2132
(dp2133
g73
(dp2134
sg82
g2092
sg75
(lp2135
g68
(g89
g70
NtRp2136
(dp2137
g73
(dp2138
sg82
g2132
sg75
(lp2139
g68
(g69
g70
NtRp2140
(dp2141
g73
(dp2142
g81
I3
ssg82
g2136
sg75
(lp2143
S'datetime.datetime(2012, 8, 31, 5, 58, 31)'
p2144
asbasbasbag68
(g84
g70
NtRp2145
(dp2146
g73
(dp2147
sg82
g2092
sg75
(lp2148
g68
(g89
g70
NtRp2149
(dp2150
g73
(dp2151
sg82
g2145
sg75
(lp2152
g68
(g69
g70
NtRp2153
(dp2154
g73
(dp2155
g81
I3
ssg82
g2149
sg75
(lp2156
g1548
asbasbasbasbasbasbasbasbasbasbasbag68
(g84
g70
NtRp2157
(dp2158
g73
(dp2159
sg82
g78
sg75
(lp2160
g68
(g89
g70
NtRp2161
(dp2162
g73
(dp2163
g93
g94
ssg82
g2157
sg75
(lp2164
S'is_https'
p2165
asbag68
(g89
g70
NtRp2166
(dp2167
g73
(dp2168
g100
g101
ssg82
g2157
sg75
(lp2169
S':'
asbag68
(g89
g70
NtRp2170
(dp2171
g73
(dp2172
sg82
g2157
sg75
(lp2173
g68
(g69
g70
NtRp2174
(dp2175
g73
(dp2176
g81
I5
ssg82
g2170
sg75
(lp2177
g810
asbasbasbag68
(g84
g70
NtRp2178
(dp2179
g73
(dp2180
sg82
g78
sg75
(lp2181
g68
(g89
g70
NtRp2182
(dp2183
g73
(dp2184
g93
g94
ssg82
g2178
sg75
(lp2185
S'is_local'
p2186
asbag68
(g89
g70
NtRp2187
(dp2188
g73
(dp2189
g100
g101
ssg82
g2178
sg75
(lp2190
S':'
asbag68
(g89
g70
NtRp2191
(dp2192
g73
(dp2193
sg82
g2178
sg75
(lp2194
g68
(g69
g70
NtRp2195
(dp2196
g73
(dp2197
g81
I5
ssg82
g2191
sg75
(lp2198
g111
asbasbasbag68
(g84
g70
NtRp2199
(dp2200
g73
(dp2201
sg82
g78
sg75
(lp2202
g68
(g89
g70
NtRp2203
(dp2204
g73
(dp2205
g93
g94
ssg82
g2199
sg75
(lp2206
S'is_restful'
p2207
asbag68
(g89
g70
NtRp2208
(dp2209
g73
(dp2210
g100
g101
ssg82
g2199
sg75
(lp2211
S':'
asbag68
(g89
g70
NtRp2212
(dp2213
g73
(dp2214
sg82
g2199
sg75
(lp2215
g68
(g69
g70
NtRp2216
(dp2217
g73
(dp2218
g81
I5
ssg82
g2212
sg75
(lp2219
g810
asbasbasbag68
(g84
g70
NtRp2220
(dp2221
g73
(dp2222
sg82
g78
sg75
(lp2223
g68
(g89
g70
NtRp2224
(dp2225
g73
(dp2226
g93
g94
ssg82
g2220
sg75
(lp2227
S'now'
p2228
asbag68
(g89
g70
NtRp2229
(dp2230
g73
(dp2231
g100
g101
ssg82
g2220
sg75
(lp2232
S':'
asbag68
(g89
g70
NtRp2233
(dp2234
g73
(dp2235
sg82
g2220
sg75
(lp2236
g68
(g69
g70
NtRp2237
(dp2238
g73
(dp2239
g81
I5
ssg82
g2233
sg75
(lp2240
S'datetime.datetime(2012, 12, 18, 12, 48, 21, 675000)'
p2241
asbasbasbag68
(g84
g70
NtRp2242
(dp2243
g73
(dp2244
sg82
g78
sg75
(lp2245
g68
(g89
g70
NtRp2246
(dp2247
g73
(dp2248
g93
g94
ssg82
g2242
sg75
(lp2249
S'post_vars'
p2250
asbag68
(g89
g70
NtRp2251
(dp2252
g73
(dp2253
g100
g101
ssg82
g2242
sg75
(lp2254
S':'
asbag68
(g89
g70
NtRp2255
(dp2256
g73
(dp2257
sg82
g2242
sg75
(lp2258
g68
(g69
g70
NtRp2259
(dp2260
g73
(dp2261
g81
I5
ssg82
g2255
sg75
(lp2262
g68
(g77
g70
NtRp2263
(dp2264
g73
(dp2265
g81
I4
ssg82
Nsg75
(lp2266
sbasbasbasbag68
(g84
g70
NtRp2267
(dp2268
g73
(dp2269
sg82
g78
sg75
(lp2270
g68
(g89
g70
NtRp2271
(dp2272
g73
(dp2273
g93
g94
ssg82
g2267
sg75
(lp2274
S'raw_args'
p2275
asbag68
(g89
g70
NtRp2276
(dp2277
g73
(dp2278
g100
g101
ssg82
g2267
sg75
(lp2279
S':'
asbag68
(g89
g70
NtRp2280
(dp2281
g73
(dp2282
sg82
g2267
sg75
(lp2283
g68
(g69
g70
NtRp2284
(dp2285
g73
(dp2286
g81
I5
ssg82
g2280
sg75
(lp2287
S'None'
p2288
asbasbasbag68
(g84
g70
NtRp2289
(dp2290
g73
(dp2291
sg82
g78
sg75
(lp2292
g68
(g89
g70
NtRp2293
(dp2294
g73
(dp2295
g93
g94
ssg82
g2289
sg75
(lp2296
S'raw_extension'
p2297
asbag68
(g89
g70
NtRp2298
(dp2299
g73
(dp2300
g100
g101
ssg82
g2289
sg75
(lp2301
S':'
asbag68
(g89
g70
NtRp2302
(dp2303
g73
(dp2304
sg82
g2289
sg75
(lp2305
g68
(g69
g70
NtRp2306
(dp2307
g73
(dp2308
g81
I5
ssg82
g2302
sg75
(lp2309
g1770
asbasbasbag68
(g84
g70
NtRp2310
(dp2311
g73
(dp2312
sg82
g78
sg75
(lp2313
g68
(g89
g70
NtRp2314
(dp2315
g73
(dp2316
g93
g94
ssg82
g2310
sg75
(lp2317
S'url'
p2318
asbag68
(g89
g70
NtRp2319
(dp2320
g73
(dp2321
g100
g101
ssg82
g2310
sg75
(lp2322
S':'
asbag68
(g89
g70
NtRp2323
(dp2324
g73
(dp2325
sg82
g2310
sg75
(lp2326
g68
(g69
g70
NtRp2327
(dp2328
g73
(dp2329
g81
I5
ssg82
g2323
sg75
(lp2330
S'/testumgebung/plugin_feedbacks/feedback.load'
p2331
asbasbasbag68
(g84
g70
NtRp2332
(dp2333
g73
(dp2334
sg82
g78
sg75
(lp2335
g68
(g89
g70
NtRp2336
(dp2337
g73
(dp2338
g93
g94
ssg82
g2332
sg75
(lp2339
S'utcnow'
p2340
asbag68
(g89
g70
NtRp2341
(dp2342
g73
(dp2343
g100
g101
ssg82
g2332
sg75
(lp2344
S':'
asbag68
(g89
g70
NtRp2345
(dp2346
g73
(dp2347
sg82
g2332
sg75
(lp2348
g68
(g69
g70
NtRp2349
(dp2350
g73
(dp2351
g81
I5
ssg82
g2345
sg75
(lp2352
S'datetime.datetime(2012, 12, 18, 11, 48, 21, 675000)'
p2353
asbasbasbag68
(g84
g70
NtRp2354
(dp2355
g73
(dp2356
sg82
g78
sg75
(lp2357
g68
(g89
g70
NtRp2358
(dp2359
g73
(dp2360
g93
g94
ssg82
g2354
sg75
(lp2361
S'uuid'
p2362
asbag68
(g89
g70
NtRp2363
(dp2364
g73
(dp2365
g100
g101
ssg82
g2354
sg75
(lp2366
S':'
asbag68
(g89
g70
NtRp2367
(dp2368
g73
(dp2369
sg82
g2354
sg75
(lp2370
g68
(g69
g70
NtRp2371
(dp2372
g73
(dp2373
g81
I5
ssg82
g2367
sg75
(lp2374
S'testumgebung/127.0.0.1.2012-12-18.12-48-21.a0262d87-aa43-40c1-9599-b6739001f8b4'
p2375
asbasbasbag68
(g84
g70
NtRp2376
(dp2377
g73
(dp2378
sg82
g78
sg75
(lp2379
g68
(g89
g70
NtRp2380
(dp2381
g73
(dp2382
g93
g94
ssg82
g2376
sg75
(lp2383
S'vars'
p2384
asbag68
(g89
g70
NtRp2385
(dp2386
g73
(dp2387
g100
g101
ssg82
g2376
sg75
(lp2388
S':'
asbag68
(g89
g70
NtRp2389
(dp2390
g73
(dp2391
sg82
g2376
sg75
(lp2392
g68
(g69
g70
NtRp2393
(dp2394
g73
(dp2395
g81
I5
ssg82
g2389
sg75
(lp2396
g68
(g77
g70
NtRp2397
(dp2398
g73
(dp2399
g81
I4
ssg82
Nsg75
(lp2400
sbasbasbasbag68
(g84
g70
NtRp2401
(dp2402
g73
(dp2403
sg82
g78
sg75
(lp2404
g68
(g89
g70
NtRp2405
(dp2406
g73
(dp2407
g93
g94
ssg82
g2401
sg75
(lp2408
S'wsgi'
p2409
asbag68
(g89
g70
NtRp2410
(dp2411
g73
(dp2412
g100
g101
ssg82
g2401
sg75
(lp2413
S':'
asbag68
(g89
g70
NtRp2414
(dp2415
g73
(dp2416
sg82
g2401
sg75
(lp2417
g68
(g69
g70
NtRp2418
(dp2419
g73
(dp2420
g81
I5
ssg82
g2414
sg75
(lp2421
g68
(g77
g70
NtRp2422
(dp2423
g73
(dp2424
g81
I4
ssg82
Nsg75
(lp2425
g68
(g84
g70
NtRp2426
(dp2427
g73
(dp2428
sg82
g2422
sg75
(lp2429
g68
(g89
g70
NtRp2430
(dp2431
g73
(dp2432
g93
g94
ssg82
g2426
sg75
(lp2433
S'environ'
p2434
asbag68
(g89
g70
NtRp2435
(dp2436
g73
(dp2437
g100
g101
ssg82
g2426
sg75
(lp2438
S':'
asbag68
(g89
g70
NtRp2439
(dp2440
g73
(dp2441
sg82
g2426
sg75
(lp2442
g68
(g69
g70
NtRp2443
(dp2444
g73
(dp2445
g81
I4
ssg82
g2439
sg75
(lp2446
g68
(g77
g70
NtRp2447
(dp2448
g73
(dp2449
g81
I3
ssg82
Nsg75
(lp2450
g68
(g84
g70
NtRp2451
(dp2452
g73
(dp2453
sg82
g2447
sg75
(lp2454
g68
(g89
g70
NtRp2455
(dp2456
g73
(dp2457
g93
g94
ssg82
g2451
sg75
(lp2458
S'HTTP_ACCEPT'
p2459
asbag68
(g89
g70
NtRp2460
(dp2461
g73
(dp2462
g100
g101
ssg82
g2451
sg75
(lp2463
S':'
asbag68
(g89
g70
NtRp2464
(dp2465
g73
(dp2466
sg82
g2451
sg75
(lp2467
g68
(g69
g70
NtRp2468
(dp2469
g73
(dp2470
g81
I3
ssg82
g2464
sg75
(lp2471
g854
asbasbasbag68
(g84
g70
NtRp2472
(dp2473
g73
(dp2474
sg82
g2447
sg75
(lp2475
g68
(g89
g70
NtRp2476
(dp2477
g73
(dp2478
g93
g94
ssg82
g2472
sg75
(lp2479
S'HTTP_ACCEPT_ENCODING'
p2480
asbag68
(g89
g70
NtRp2481
(dp2482
g73
(dp2483
g100
g101
ssg82
g2472
sg75
(lp2484
S':'
asbag68
(g89
g70
NtRp2485
(dp2486
g73
(dp2487
sg82
g2472
sg75
(lp2488
g68
(g69
g70
NtRp2489
(dp2490
g73
(dp2491
g81
I3
ssg82
g2485
sg75
(lp2492
g876
asbasbasbag68
(g84
g70
NtRp2493
(dp2494
g73
(dp2495
sg82
g2447
sg75
(lp2496
g68
(g89
g70
NtRp2497
(dp2498
g73
(dp2499
g93
g94
ssg82
g2493
sg75
(lp2500
S'HTTP_ACCEPT_LANGUAGE'
p2501
asbag68
(g89
g70
NtRp2502
(dp2503
g73
(dp2504
g100
g101
ssg82
g2493
sg75
(lp2505
S':'
asbag68
(g89
g70
NtRp2506
(dp2507
g73
(dp2508
sg82
g2493
sg75
(lp2509
g68
(g69
g70
NtRp2510
(dp2511
g73
(dp2512
g81
I3
ssg82
g2506
sg75
(lp2513
g898
asbasbasbag68
(g84
g70
NtRp2514
(dp2515
g73
(dp2516
sg82
g2447
sg75
(lp2517
g68
(g89
g70
NtRp2518
(dp2519
g73
(dp2520
g93
g94
ssg82
g2514
sg75
(lp2521
S'HTTP_CACHE_CONTROL'
p2522
asbag68
(g89
g70
NtRp2523
(dp2524
g73
(dp2525
g100
g101
ssg82
g2514
sg75
(lp2526
S':'
asbag68
(g89
g70
NtRp2527
(dp2528
g73
(dp2529
sg82
g2514
sg75
(lp2530
g68
(g69
g70
NtRp2531
(dp2532
g73
(dp2533
g81
I3
ssg82
g2527
sg75
(lp2534
g920
asbasbasbag68
(g84
g70
NtRp2535
(dp2536
g73
(dp2537
sg82
g2447
sg75
(lp2538
g68
(g89
g70
NtRp2539
(dp2540
g73
(dp2541
g93
g94
ssg82
g2535
sg75
(lp2542
S'HTTP_CONNECTION'
p2543
asbag68
(g89
g70
NtRp2544
(dp2545
g73
(dp2546
g100
g101
ssg82
g2535
sg75
(lp2547
S':'
asbag68
(g89
g70
NtRp2548
(dp2549
g73
(dp2550
sg82
g2535
sg75
(lp2551
g68
(g69
g70
NtRp2552
(dp2553
g73
(dp2554
g81
I3
ssg82
g2548
sg75
(lp2555
g942
asbasbasbag68
(g84
g70
NtRp2556
(dp2557
g73
(dp2558
sg82
g2447
sg75
(lp2559
g68
(g89
g70
NtRp2560
(dp2561
g73
(dp2562
g93
g94
ssg82
g2556
sg75
(lp2563
S'HTTP_COOKIE'
p2564
asbag68
(g89
g70
NtRp2565
(dp2566
g73
(dp2567
g100
g101
ssg82
g2556
sg75
(lp2568
S':'
asbag68
(g89
g70
NtRp2569
(dp2570
g73
(dp2571
sg82
g2556
sg75
(lp2572
g68
(g69
g70
NtRp2573
(dp2574
g73
(dp2575
g81
I3
ssg82
g2569
sg75
(lp2576
g964
asbasbasbag68
(g84
g70
NtRp2577
(dp2578
g73
(dp2579
sg82
g2447
sg75
(lp2580
g68
(g89
g70
NtRp2581
(dp2582
g73
(dp2583
g93
g94
ssg82
g2577
sg75
(lp2584
S'HTTP_DNT'
p2585
asbag68
(g89
g70
NtRp2586
(dp2587
g73
(dp2588
g100
g101
ssg82
g2577
sg75
(lp2589
S':'
asbag68
(g89
g70
NtRp2590
(dp2591
g73
(dp2592
sg82
g2577
sg75
(lp2593
g68
(g69
g70
NtRp2594
(dp2595
g73
(dp2596
g81
I3
ssg82
g2590
sg75
(lp2597
S'1'
asbasbasbag68
(g84
g70
NtRp2598
(dp2599
g73
(dp2600
sg82
g2447
sg75
(lp2601
g68
(g89
g70
NtRp2602
(dp2603
g73
(dp2604
g93
g94
ssg82
g2598
sg75
(lp2605
S'HTTP_HOST'
p2606
asbag68
(g89
g70
NtRp2607
(dp2608
g73
(dp2609
g100
g101
ssg82
g2598
sg75
(lp2610
S':'
asbag68
(g89
g70
NtRp2611
(dp2612
g73
(dp2613
sg82
g2598
sg75
(lp2614
g68
(g69
g70
NtRp2615
(dp2616
g73
(dp2617
g81
I3
ssg82
g2611
sg75
(lp2618
g1007
asbasbasbag68
(g84
g70
NtRp2619
(dp2620
g73
(dp2621
sg82
g2447
sg75
(lp2622
g68
(g89
g70
NtRp2623
(dp2624
g73
(dp2625
g93
g94
ssg82
g2619
sg75
(lp2626
S'HTTP_REFERER'
p2627
asbag68
(g89
g70
NtRp2628
(dp2629
g73
(dp2630
g100
g101
ssg82
g2619
sg75
(lp2631
S':'
asbag68
(g89
g70
NtRp2632
(dp2633
g73
(dp2634
sg82
g2619
sg75
(lp2635
g68
(g69
g70
NtRp2636
(dp2637
g73
(dp2638
g81
I3
ssg82
g2632
sg75
(lp2639
g1029
asbasbasbag68
(g84
g70
NtRp2640
(dp2641
g73
(dp2642
sg82
g2447
sg75
(lp2643
g68
(g89
g70
NtRp2644
(dp2645
g73
(dp2646
g93
g94
ssg82
g2640
sg75
(lp2647
S'HTTP_USER_AGENT'
p2648
asbag68
(g89
g70
NtRp2649
(dp2650
g73
(dp2651
g100
g101
ssg82
g2640
sg75
(lp2652
S':'
asbag68
(g89
g70
NtRp2653
(dp2654
g73
(dp2655
sg82
g2640
sg75
(lp2656
g68
(g69
g70
NtRp2657
(dp2658
g73
(dp2659
g81
I3
ssg82
g2653
sg75
(lp2660
g1051
asbasbasbag68
(g84
g70
NtRp2661
(dp2662
g73
(dp2663
sg82
g2447
sg75
(lp2664
g68
(g89
g70
NtRp2665
(dp2666
g73
(dp2667
g93
g94
ssg82
g2661
sg75
(lp2668
S'HTTP_WEB2PY_COMPONENT_ELEMENT'
p2669
asbag68
(g89
g70
NtRp2670
(dp2671
g73
(dp2672
g100
g101
ssg82
g2661
sg75
(lp2673
S':'
asbag68
(g89
g70
NtRp2674
(dp2675
g73
(dp2676
sg82
g2661
sg75
(lp2677
g68
(g69
g70
NtRp2678
(dp2679
g73
(dp2680
g81
I3
ssg82
g2674
sg75
(lp2681
g201
asbasbasbag68
(g84
g70
NtRp2682
(dp2683
g73
(dp2684
sg82
g2447
sg75
(lp2685
g68
(g89
g70
NtRp2686
(dp2687
g73
(dp2688
g93
g94
ssg82
g2682
sg75
(lp2689
S'HTTP_WEB2PY_COMPONENT_LOCATION'
p2690
asbag68
(g89
g70
NtRp2691
(dp2692
g73
(dp2693
g100
g101
ssg82
g2682
sg75
(lp2694
S':'
asbag68
(g89
g70
NtRp2695
(dp2696
g73
(dp2697
sg82
g2682
sg75
(lp2698
g68
(g69
g70
NtRp2699
(dp2700
g73
(dp2701
g81
I3
ssg82
g2695
sg75
(lp2702
g1094
asbasbasbag68
(g84
g70
NtRp2703
(dp2704
g73
(dp2705
sg82
g2447
sg75
(lp2706
g68
(g89
g70
NtRp2707
(dp2708
g73
(dp2709
g93
g94
ssg82
g2703
sg75
(lp2710
S'HTTP_X_CLICKONCESUPPORT'
p2711
asbag68
(g89
g70
NtRp2712
(dp2713
g73
(dp2714
g100
g101
ssg82
g2703
sg75
(lp2715
S':'
asbag68
(g89
g70
NtRp2716
(dp2717
g73
(dp2718
sg82
g2703
sg75
(lp2719
g68
(g69
g70
NtRp2720
(dp2721
g73
(dp2722
g81
I3
ssg82
g2716
sg75
(lp2723
g1116
asbasbasbag68
(g84
g70
NtRp2724
(dp2725
g73
(dp2726
sg82
g2447
sg75
(lp2727
g68
(g89
g70
NtRp2728
(dp2729
g73
(dp2730
g93
g94
ssg82
g2724
sg75
(lp2731
S'HTTP_X_REQUESTED_WITH'
p2732
asbag68
(g89
g70
NtRp2733
(dp2734
g73
(dp2735
g100
g101
ssg82
g2724
sg75
(lp2736
S':'
asbag68
(g89
g70
NtRp2737
(dp2738
g73
(dp2739
sg82
g2724
sg75
(lp2740
g68
(g69
g70
NtRp2741
(dp2742
g73
(dp2743
g81
I3
ssg82
g2737
sg75
(lp2744
g1138
asbasbasbag68
(g84
g70
NtRp2745
(dp2746
g73
(dp2747
sg82
g2447
sg75
(lp2748
g68
(g89
g70
NtRp2749
(dp2750
g73
(dp2751
g93
g94
ssg82
g2745
sg75
(lp2752
S'PATH_INFO'
p2753
asbag68
(g89
g70
NtRp2754
(dp2755
g73
(dp2756
g100
g101
ssg82
g2745
sg75
(lp2757
S':'
asbag68
(g89
g70
NtRp2758
(dp2759
g73
(dp2760
sg82
g2745
sg75
(lp2761
g68
(g69
g70
NtRp2762
(dp2763
g73
(dp2764
g81
I3
ssg82
g2758
sg75
(lp2765
g1202
asbasbasbag68
(g84
g70
NtRp2766
(dp2767
g73
(dp2768
sg82
g2447
sg75
(lp2769
g68
(g89
g70
NtRp2770
(dp2771
g73
(dp2772
g93
g94
ssg82
g2766
sg75
(lp2773
S'QUERY_STRING'
p2774
asbag68
(g89
g70
NtRp2775
(dp2776
g73
(dp2777
g100
g101
ssg82
g2766
sg75
(lp2778
S':'
asbag68
(g89
g70
NtRp2779
(dp2780
g73
(dp2781
sg82
g2766
sg75
(lp2782
g68
(g69
g70
NtRp2783
(dp2784
g73
(dp2785
g81
I3
ssg82
g2779
sg75
(lp2786
S''
asbasbasbag68
(g84
g70
NtRp2787
(dp2788
g73
(dp2789
sg82
g2447
sg75
(lp2790
g68
(g89
g70
NtRp2791
(dp2792
g73
(dp2793
g93
g94
ssg82
g2787
sg75
(lp2794
S'REMOTE_ADDR'
p2795
asbag68
(g89
g70
NtRp2796
(dp2797
g73
(dp2798
g100
g101
ssg82
g2787
sg75
(lp2799
S':'
asbag68
(g89
g70
NtRp2800
(dp2801
g73
(dp2802
sg82
g2787
sg75
(lp2803
g68
(g69
g70
NtRp2804
(dp2805
g73
(dp2806
g81
I3
ssg82
g2800
sg75
(lp2807
g223
asbasbasbag68
(g84
g70
NtRp2808
(dp2809
g73
(dp2810
sg82
g2447
sg75
(lp2811
g68
(g89
g70
NtRp2812
(dp2813
g73
(dp2814
g93
g94
ssg82
g2808
sg75
(lp2815
S'REMOTE_PORT'
p2816
asbag68
(g89
g70
NtRp2817
(dp2818
g73
(dp2819
g100
g101
ssg82
g2808
sg75
(lp2820
S':'
asbag68
(g89
g70
NtRp2821
(dp2822
g73
(dp2823
sg82
g2808
sg75
(lp2824
g68
(g69
g70
NtRp2825
(dp2826
g73
(dp2827
g81
I3
ssg82
g2821
sg75
(lp2828
g1266
asbasbasbag68
(g84
g70
NtRp2829
(dp2830
g73
(dp2831
sg82
g2447
sg75
(lp2832
g68
(g89
g70
NtRp2833
(dp2834
g73
(dp2835
g93
g94
ssg82
g2829
sg75
(lp2836
S'REQUEST_METHOD'
p2837
asbag68
(g89
g70
NtRp2838
(dp2839
g73
(dp2840
g100
g101
ssg82
g2829
sg75
(lp2841
S':'
asbag68
(g89
g70
NtRp2842
(dp2843
g73
(dp2844
sg82
g2829
sg75
(lp2845
g68
(g69
g70
NtRp2846
(dp2847
g73
(dp2848
g81
I3
ssg82
g2842
sg75
(lp2849
g1288
asbasbasbag68
(g84
g70
NtRp2850
(dp2851
g73
(dp2852
sg82
g2447
sg75
(lp2853
g68
(g89
g70
NtRp2854
(dp2855
g73
(dp2856
g93
g94
ssg82
g2850
sg75
(lp2857
S'REQUEST_URI'
p2858
asbag68
(g89
g70
NtRp2859
(dp2860
g73
(dp2861
g100
g101
ssg82
g2850
sg75
(lp2862
S':'
asbag68
(g89
g70
NtRp2863
(dp2864
g73
(dp2865
sg82
g2850
sg75
(lp2866
g68
(g69
g70
NtRp2867
(dp2868
g73
(dp2869
g81
I3
ssg82
g2863
sg75
(lp2870
g1202
asbasbasbag68
(g84
g70
NtRp2871
(dp2872
g73
(dp2873
sg82
g2447
sg75
(lp2874
g68
(g89
g70
NtRp2875
(dp2876
g73
(dp2877
g93
g94
ssg82
g2871
sg75
(lp2878
S'SCRIPT_NAME'
p2879
asbag68
(g89
g70
NtRp2880
(dp2881
g73
(dp2882
g100
g101
ssg82
g2871
sg75
(lp2883
S':'
asbag68
(g89
g70
NtRp2884
(dp2885
g73
(dp2886
sg82
g2871
sg75
(lp2887
g68
(g69
g70
NtRp2888
(dp2889
g73
(dp2890
g81
I3
ssg82
g2884
sg75
(lp2891
S''
asbasbasbag68
(g84
g70
NtRp2892
(dp2893
g73
(dp2894
sg82
g2447
sg75
(lp2895
g68
(g89
g70
NtRp2896
(dp2897
g73
(dp2898
g93
g94
ssg82
g2892
sg75
(lp2899
S'SERVER_NAME'
p2900
asbag68
(g89
g70
NtRp2901
(dp2902
g73
(dp2903
g100
g101
ssg82
g2892
sg75
(lp2904
S':'
asbag68
(g89
g70
NtRp2905
(dp2906
g73
(dp2907
sg82
g2892
sg75
(lp2908
g68
(g69
g70
NtRp2909
(dp2910
g73
(dp2911
g81
I3
ssg82
g2905
sg75
(lp2912
g1352
asbasbasbag68
(g84
g70
NtRp2913
(dp2914
g73
(dp2915
sg82
g2447
sg75
(lp2916
g68
(g89
g70
NtRp2917
(dp2918
g73
(dp2919
g93
g94
ssg82
g2913
sg75
(lp2920
S'SERVER_PORT'
p2921
asbag68
(g89
g70
NtRp2922
(dp2923
g73
(dp2924
g100
g101
ssg82
g2913
sg75
(lp2925
S':'
asbag68
(g89
g70
NtRp2926
(dp2927
g73
(dp2928
sg82
g2913
sg75
(lp2929
g68
(g69
g70
NtRp2930
(dp2931
g73
(dp2932
g81
I3
ssg82
g2926
sg75
(lp2933
g1374
asbasbasbag68
(g84
g70
NtRp2934
(dp2935
g73
(dp2936
sg82
g2447
sg75
(lp2937
g68
(g89
g70
NtRp2938
(dp2939
g73
(dp2940
g93
g94
ssg82
g2934
sg75
(lp2941
S'SERVER_PROTOCOL'
p2942
asbag68
(g89
g70
NtRp2943
(dp2944
g73
(dp2945
g100
g101
ssg82
g2934
sg75
(lp2946
S':'
asbag68
(g89
g70
NtRp2947
(dp2948
g73
(dp2949
sg82
g2934
sg75
(lp2950
g68
(g69
g70
NtRp2951
(dp2952
g73
(dp2953
g81
I3
ssg82
g2947
sg75
(lp2954
g1396
asbasbasbag68
(g84
g70
NtRp2955
(dp2956
g73
(dp2957
sg82
g2447
sg75
(lp2958
g68
(g89
g70
NtRp2959
(dp2960
g73
(dp2961
g93
g94
ssg82
g2955
sg75
(lp2962
S'SERVER_SOFTWARE'
p2963
asbag68
(g89
g70
NtRp2964
(dp2965
g73
(dp2966
g100
g101
ssg82
g2955
sg75
(lp2967
S':'
asbag68
(g89
g70
NtRp2968
(dp2969
g73
(dp2970
sg82
g2955
sg75
(lp2971
g68
(g69
g70
NtRp2972
(dp2973
g73
(dp2974
g81
I3
ssg82
g2968
sg75
(lp2975
g1418
asbasbasbag68
(g84
g70
NtRp2976
(dp2977
g73
(dp2978
sg82
g2447
sg75
(lp2979
g68
(g89
g70
NtRp2980
(dp2981
g73
(dp2982
g93
g94
ssg82
g2976
sg75
(lp2983
S'wsgi.errors'
p2984
asbag68
(g89
g70
NtRp2985
(dp2986
g73
(dp2987
g100
g101
ssg82
g2976
sg75
(lp2988
S':'
asbag68
(g89
g70
NtRp2989
(dp2990
g73
(dp2991
sg82
g2976
sg75
(lp2992
g68
(g69
g70
NtRp2993
(dp2994
g73
(dp2995
g81
I3
ssg82
g2989
sg75
(lp2996
S"<open file '<stderr>', mode 'w' at 0x021750D0>"
p2997
asbasbasbag68
(g84
g70
NtRp2998
(dp2999
g73
(dp3000
sg82
g2447
sg75
(lp3001
g68
(g89
g70
NtRp3002
(dp3003
g73
(dp3004
g93
g94
ssg82
g2998
sg75
(lp3005
S'wsgi.file_wrapper'
p3006
asbag68
(g89
g70
NtRp3007
(dp3008
g73
(dp3009
g100
g101
ssg82
g2998
sg75
(lp3010
S':'
asbag68
(g89
g70
NtRp3011
(dp3012
g73
(dp3013
sg82
g2998
sg75
(lp3014
g68
(g69
g70
NtRp3015
(dp3016
g73
(dp3017
g81
I3
ssg82
g3011
sg75
(lp3018
S'<class wsgiref.util.FileWrapper at 0x0310D030>'
p3019
asbasbasbag68
(g84
g70
NtRp3020
(dp3021
g73
(dp3022
sg82
g2447
sg75
(lp3023
g68
(g89
g70
NtRp3024
(dp3025
g73
(dp3026
g93
g94
ssg82
g3020
sg75
(lp3027
S'wsgi.input'
p3028
asbag68
(g89
g70
NtRp3029
(dp3030
g73
(dp3031
g100
g101
ssg82
g3020
sg75
(lp3032
S':'
asbag68
(g89
g70
NtRp3033
(dp3034
g73
(dp3035
sg82
g3020
sg75
(lp3036
g68
(g69
g70
NtRp3037
(dp3038
g73
(dp3039
g81
I3
ssg82
g3033
sg75
(lp3040
S'<cStringIO.StringO object at 0x082CFA60>'
p3041
asbasbasbag68
(g84
g70
NtRp3042
(dp3043
g73
(dp3044
sg82
g2447
sg75
(lp3045
g68
(g89
g70
NtRp3046
(dp3047
g73
(dp3048
g93
g94
ssg82
g3042
sg75
(lp3049
S'wsgi.multiprocess'
p3050
asbag68
(g89
g70
NtRp3051
(dp3052
g73
(dp3053
g100
g101
ssg82
g3042
sg75
(lp3054
S':'
asbag68
(g89
g70
NtRp3055
(dp3056
g73
(dp3057
sg82
g3042
sg75
(lp3058
g68
(g69
g70
NtRp3059
(dp3060
g73
(dp3061
g81
I3
ssg82
g3055
sg75
(lp3062
g810
asbasbasbag68
(g84
g70
NtRp3063
(dp3064
g73
(dp3065
sg82
g2447
sg75
(lp3066
g68
(g89
g70
NtRp3067
(dp3068
g73
(dp3069
g93
g94
ssg82
g3063
sg75
(lp3070
S'wsgi.multithread'
p3071
asbag68
(g89
g70
NtRp3072
(dp3073
g73
(dp3074
g100
g101
ssg82
g3063
sg75
(lp3075
S':'
asbag68
(g89
g70
NtRp3076
(dp3077
g73
(dp3078
sg82
g3063
sg75
(lp3079
g68
(g69
g70
NtRp3080
(dp3081
g73
(dp3082
g81
I3
ssg82
g3076
sg75
(lp3083
g111
asbasbasbag68
(g84
g70
NtRp3084
(dp3085
g73
(dp3086
sg82
g2447
sg75
(lp3087
g68
(g89
g70
NtRp3088
(dp3089
g73
(dp3090
g93
g94
ssg82
g3084
sg75
(lp3091
S'wsgi.run_once'
p3092
asbag68
(g89
g70
NtRp3093
(dp3094
g73
(dp3095
g100
g101
ssg82
g3084
sg75
(lp3096
S':'
asbag68
(g89
g70
NtRp3097
(dp3098
g73
(dp3099
sg82
g3084
sg75
(lp3100
g68
(g69
g70
NtRp3101
(dp3102
g73
(dp3103
g81
I3
ssg82
g3097
sg75
(lp3104
g810
asbasbasbag68
(g84
g70
NtRp3105
(dp3106
g73
(dp3107
sg82
g2447
sg75
(lp3108
g68
(g89
g70
NtRp3109
(dp3110
g73
(dp3111
g93
g94
ssg82
g3105
sg75
(lp3112
S'wsgi.url_scheme'
p3113
asbag68
(g89
g70
NtRp3114
(dp3115
g73
(dp3116
g100
g101
ssg82
g3105
sg75
(lp3117
S':'
asbag68
(g89
g70
NtRp3118
(dp3119
g73
(dp3120
sg82
g3105
sg75
(lp3121
g68
(g69
g70
NtRp3122
(dp3123
g73
(dp3124
g81
I3
ssg82
g3118
sg75
(lp3125
g1699
asbasbasbag68
(g84
g70
NtRp3126
(dp3127
g73
(dp3128
sg82
g2447
sg75
(lp3129
g68
(g89
g70
NtRp3130
(dp3131
g73
(dp3132
g93
g94
ssg82
g3126
sg75
(lp3133
S'wsgi.version'
p3134
asbag68
(g89
g70
NtRp3135
(dp3136
g73
(dp3137
g100
g101
ssg82
g3126
sg75
(lp3138
S':'
asbag68
(g89
g70
NtRp3139
(dp3140
g73
(dp3141
sg82
g3126
sg75
(lp3142
g68
(g69
g70
NtRp3143
(dp3144
g73
(dp3145
g81
I3
ssg82
g3139
sg75
(lp3146
S'1'
asbasbasbasbasbasbasbasbasbasbasbasbasbsS'frames'
p3147
(lp3148
(dp3149
S'file'
p3150
S'C:\\xampp\\htdocs\\web2py\\gluon\\restricted.py'
p3151
sS'dump'
p3152
(dp3153
sS'lnum'
p3154
I208
sS'lines'
p3155
(dp3156
sS'call'
p3157
S'(code=\'response.write(\\\'<div id="plugin_feedbacks_contai...\\\\r\\\\n\\\\t\\\\r\\\\n</script>\\\\r\\\\n\\\\r\\\\n</div>\\\', escape=False)\', environment={\'A\': <class \'gluon.html.A\'>, \'Auth\': <class \'gluon.tools.Auth\'>, \'B\': <class \'gluon.html.B\'>, \'BEAUTIFY\': <class \'gluon.html.BEAUTIFY\'>, \'BODY\': <class \'gluon.html.BODY\'>, \'BR\': <class \'gluon.html.BR\'>, \'BUTTON\': <class \'gluon.html.BUTTON\'>, \'CAT\': <class \'gluon.html.CAT\'>, \'CENTER\': <class \'gluon.html.CENTER\'>, \'CLEANUP\': <class \'gluon.validators.CLEANUP\'>, ...}, layer=r\'C:\\xampp\\htdocs\\web2py\\applications\\testumgebung\\views\\plugin_feedbacks/feedback.load\')'
p3158
sS'func'
p3159
S'restricted'
p3160
sa(dp3161
g3150
S'C:\\xampp\\htdocs\\web2py\\gluon\\restricted.py'
p3162
sg3152
(dp3163
sg3154
I193
sg3155
(dp3164
sg3157
S'(code=\'response.write(\\\'<div id="plugin_feedbacks_contai...\\\\r\\\\n\\\\t\\\\r\\\\n</script>\\\\r\\\\n\\\\r\\\\n</div>\\\', escape=False)\', layer=r\'C:\\xampp\\htdocs\\web2py\\applications\\testumgebung\\views\\plugin_feedbacks/feedback.load\')'
p3165
sg3159
S'compile2'
p3166
sasS'pyver'
p3167
S'Python 2.7: C:\\xampp\\htdocs\\web2py\\web2py.exe'
p3168
sS'session'
p3169
g68
(g69
g70
NtRp3170
(dp3171
g73
(dp3172
sg75
(lp3173
g68
(g77
g70
NtRp3174
(dp3175
g73
(dp3176
g81
I5
ssg82
Nsg75
(lp3177
g68
(g84
g70
NtRp3178
(dp3179
g73
(dp3180
sg82
g3174
sg75
(lp3181
g68
(g89
g70
NtRp3182
(dp3183
g73
(dp3184
g93
g94
ssg82
g3178
sg75
(lp3185
S'auth'
p3186
asbag68
(g89
g70
NtRp3187
(dp3188
g73
(dp3189
g100
g101
ssg82
g3178
sg75
(lp3190
S':'
asbag68
(g89
g70
NtRp3191
(dp3192
g73
(dp3193
sg82
g3178
sg75
(lp3194
g68
(g69
g70
NtRp3195
(dp3196
g73
(dp3197
g81
I5
ssg82
g3191
sg75
(lp3198
S'None'
p3199
asbasbasbag68
(g84
g70
NtRp3200
(dp3201
g73
(dp3202
sg82
g3174
sg75
(lp3203
g68
(g89
g70
NtRp3204
(dp3205
g73
(dp3206
g93
g94
ssg82
g3200
sg75
(lp3207
S'plugin_feedbacks'
p3208
asbag68
(g89
g70
NtRp3209
(dp3210
g73
(dp3211
g100
g101
ssg82
g3200
sg75
(lp3212
S':'
asbag68
(g89
g70
NtRp3213
(dp3214
g73
(dp3215
sg82
g3200
sg75
(lp3216
g68
(g69
g70
NtRp3217
(dp3218
g73
(dp3219
g81
I5
ssg82
g3213
sg75
(lp3220
g68
(g77
g70
NtRp3221
(dp3222
g73
(dp3223
g81
I4
ssg82
Nsg75
(lp3224
g68
(g84
g70
NtRp3225
(dp3226
g73
(dp3227
sg82
g3221
sg75
(lp3228
g68
(g89
g70
NtRp3229
(dp3230
g73
(dp3231
g93
g94
ssg82
g3225
sg75
(lp3232
S'sentFeedback'
p3233
asbag68
(g89
g70
NtRp3234
(dp3235
g73
(dp3236
g100
g101
ssg82
g3225
sg75
(lp3237
S':'
asbag68
(g89
g70
NtRp3238
(dp3239
g73
(dp3240
sg82
g3225
sg75
(lp3241
g68
(g69
g70
NtRp3242
(dp3243
g73
(dp3244
g81
I4
ssg82
g3238
sg75
(lp3245
S'0'
asbasbasbag68
(g84
g70
NtRp3246
(dp3247
g73
(dp3248
sg82
g3221
sg75
(lp3249
g68
(g89
g70
NtRp3250
(dp3251
g73
(dp3252
g93
g94
ssg82
g3246
sg75
(lp3253
S'time'
p3254
asbag68
(g89
g70
NtRp3255
(dp3256
g73
(dp3257
g100
g101
ssg82
g3246
sg75
(lp3258
S':'
asbag68
(g89
g70
NtRp3259
(dp3260
g73
(dp3261
sg82
g3246
sg75
(lp3262
g68
(g69
g70
NtRp3263
(dp3264
g73
(dp3265
g81
I4
ssg82
g3259
sg75
(lp3266
S'datetime.datetime(2012, 12, 18, 12, 48, 21, 675000)'
p3267
asbasbasbasbasbasbasbasbasbsS'etype'
p3268
S"<type 'exceptions.SyntaxError'>"
p3269
sS'date'
p3270
S'Tue Dec 18 12:48:21 2012'
p3271
sS'response'
p3272
g68
(g69
g70
NtRp3273
(dp3274
g73
(dp3275
sg75
(lp3276
g68
(g77
g70
NtRp3277
(dp3278
g73
(dp3279
g81
I5
ssg82
Nsg75
(lp3280
g68
(g84
g70
NtRp3281
(dp3282
g73
(dp3283
sg82
g3277
sg75
(lp3284
g68
(g89
g70
NtRp3285
(dp3286
g73
(dp3287
g93
g94
ssg82
g3281
sg75
(lp3288
g166
asbag68
(g89
g70
NtRp3289
(dp3290
g73
(dp3291
g100
g101
ssg82
g3281
sg75
(lp3292
S':'
asbag68
(g89
g70
NtRp3293
(dp3294
g73
(dp3295
sg82
g3281
sg75
(lp3296
g68
(g69
g70
NtRp3297
(dp3298
g73
(dp3299
g81
I5
ssg82
g3293
sg75
(lp3300
S'<cStringIO.StringO object at 0x08813440>'
p3301
asbasbasbag68
(g84
g70
NtRp3302
(dp3303
g73
(dp3304
sg82
g3277
sg75
(lp3305
g68
(g89
g70
NtRp3306
(dp3307
g73
(dp3308
g93
g94
ssg82
g3302
sg75
(lp3309
g254
asbag68
(g89
g70
NtRp3310
(dp3311
g73
(dp3312
g100
g101
ssg82
g3302
sg75
(lp3313
S':'
asbag68
(g89
g70
NtRp3314
(dp3315
g73
(dp3316
sg82
g3302
sg75
(lp3317
g68
(g69
g70
NtRp3318
(dp3319
g73
(dp3320
g81
I5
ssg82
g3314
sg75
(lp3321
g68
(g77
g70
NtRp3322
(dp3323
g73
(dp3324
g81
I4
ssg82
Nsg75
(lp3325
g68
(g84
g70
NtRp3326
(dp3327
g73
(dp3328
sg82
g3322
sg75
(lp3329
g68
(g89
g70
NtRp3330
(dp3331
g73
(dp3332
g93
g94
ssg82
g3326
sg75
(lp3333
S'session_id_testumgebung'
p3334
asbag68
(g89
g70
NtRp3335
(dp3336
g73
(dp3337
g100
g101
ssg82
g3326
sg75
(lp3338
S':'
asbag68
(g89
g70
NtRp3339
(dp3340
g73
(dp3341
sg82
g3326
sg75
(lp3342
g68
(g69
g70
NtRp3343
(dp3344
g73
(dp3345
g81
I4
ssg82
g3339
sg75
(lp3346
g292
ag68
(g77
g70
NtRp3347
(dp3348
g73
(dp3349
g81
I3
ssg82
Nsg75
(lp3350
g68
(g84
g70
NtRp3351
(dp3352
g73
(dp3353
sg82
g3347
sg75
(lp3354
g68
(g89
g70
NtRp3355
(dp3356
g73
(dp3357
g93
g94
ssg82
g3351
sg75
(lp3358
g305
asbag68
(g89
g70
NtRp3359
(dp3360
g73
(dp3361
g100
g101
ssg82
g3351
sg75
(lp3362
S':'
asbag68
(g89
g70
NtRp3363
(dp3364
g73
(dp3365
sg82
g3351
sg75
(lp3366
g68
(g69
g70
NtRp3367
(dp3368
g73
(dp3369
g81
I3
ssg82
g3363
sg75
(lp3370
S''
asbasbasbag68
(g84
g70
NtRp3371
(dp3372
g73
(dp3373
sg82
g3347
sg75
(lp3374
g68
(g89
g70
NtRp3375
(dp3376
g73
(dp3377
g93
g94
ssg82
g3371
sg75
(lp3378
g326
asbag68
(g89
g70
NtRp3379
(dp3380
g73
(dp3381
g100
g101
ssg82
g3371
sg75
(lp3382
S':'
asbag68
(g89
g70
NtRp3383
(dp3384
g73
(dp3385
sg82
g3371
sg75
(lp3386
g68
(g69
g70
NtRp3387
(dp3388
g73
(dp3389
g81
I3
ssg82
g3383
sg75
(lp3390
S''
asbasbasbag68
(g84
g70
NtRp3391
(dp3392
g73
(dp3393
sg82
g3347
sg75
(lp3394
g68
(g89
g70
NtRp3395
(dp3396
g73
(dp3397
g93
g94
ssg82
g3391
sg75
(lp3398
g347
asbag68
(g89
g70
NtRp3399
(dp3400
g73
(dp3401
g100
g101
ssg82
g3391
sg75
(lp3402
S':'
asbag68
(g89
g70
NtRp3403
(dp3404
g73
(dp3405
sg82
g3391
sg75
(lp3406
g68
(g69
g70
NtRp3407
(dp3408
g73
(dp3409
g81
I3
ssg82
g3403
sg75
(lp3410
S''
asbasbasbag68
(g84
g70
NtRp3411
(dp3412
g73
(dp3413
sg82
g3347
sg75
(lp3414
g68
(g89
g70
NtRp3415
(dp3416
g73
(dp3417
g93
g94
ssg82
g3411
sg75
(lp3418
g368
asbag68
(g89
g70
NtRp3419
(dp3420
g73
(dp3421
g100
g101
ssg82
g3411
sg75
(lp3422
S':'
asbag68
(g89
g70
NtRp3423
(dp3424
g73
(dp3425
sg82
g3411
sg75
(lp3426
g68
(g69
g70
NtRp3427
(dp3428
g73
(dp3429
g81
I3
ssg82
g3423
sg75
(lp3430
S''
asbasbasbag68
(g84
g70
NtRp3431
(dp3432
g73
(dp3433
sg82
g3347
sg75
(lp3434
g68
(g89
g70
NtRp3435
(dp3436
g73
(dp3437
g93
g94
ssg82
g3431
sg75
(lp3438
g389
asbag68
(g89
g70
NtRp3439
(dp3440
g73
(dp3441
g100
g101
ssg82
g3431
sg75
(lp3442
S':'
asbag68
(g89
g70
NtRp3443
(dp3444
g73
(dp3445
sg82
g3431
sg75
(lp3446
g68
(g69
g70
NtRp3447
(dp3448
g73
(dp3449
g81
I3
ssg82
g3443
sg75
(lp3450
S''
asbasbasbag68
(g84
g70
NtRp3451
(dp3452
g73
(dp3453
sg82
g3347
sg75
(lp3454
g68
(g89
g70
NtRp3455
(dp3456
g73
(dp3457
g93
g94
ssg82
g3451
sg75
(lp3458
g410
asbag68
(g89
g70
NtRp3459
(dp3460
g73
(dp3461
g100
g101
ssg82
g3451
sg75
(lp3462
S':'
asbag68
(g89
g70
NtRp3463
(dp3464
g73
(dp3465
sg82
g3451
sg75
(lp3466
g68
(g69
g70
NtRp3467
(dp3468
g73
(dp3469
g81
I3
ssg82
g3463
sg75
(lp3470
S'/'
asbasbasbag68
(g84
g70
NtRp3471
(dp3472
g73
(dp3473
sg82
g3347
sg75
(lp3474
g68
(g89
g70
NtRp3475
(dp3476
g73
(dp3477
g93
g94
ssg82
g3471
sg75
(lp3478
g431
asbag68
(g89
g70
NtRp3479
(dp3480
g73
(dp3481
g100
g101
ssg82
g3471
sg75
(lp3482
S':'
asbag68
(g89
g70
NtRp3483
(dp3484
g73
(dp3485
sg82
g3471
sg75
(lp3486
g68
(g69
g70
NtRp3487
(dp3488
g73
(dp3489
g81
I3
ssg82
g3483
sg75
(lp3490
S''
asbasbasbag68
(g84
g70
NtRp3491
(dp3492
g73
(dp3493
sg82
g3347
sg75
(lp3494
g68
(g89
g70
NtRp3495
(dp3496
g73
(dp3497
g93
g94
ssg82
g3491
sg75
(lp3498
g452
asbag68
(g89
g70
NtRp3499
(dp3500
g73
(dp3501
g100
g101
ssg82
g3491
sg75
(lp3502
S':'
asbag68
(g89
g70
NtRp3503
(dp3504
g73
(dp3505
sg82
g3491
sg75
(lp3506
g68
(g69
g70
NtRp3507
(dp3508
g73
(dp3509
g81
I3
ssg82
g3503
sg75
(lp3510
S''
asbasbasbasbasbasbasbasbasbasbasbag68
(g84
g70
NtRp3511
(dp3512
g73
(dp3513
sg82
g3277
sg75
(lp3514
g68
(g89
g70
NtRp3515
(dp3516
g73
(dp3517
g93
g94
ssg82
g3511
sg75
(lp3518
S'delimiters'
p3519
asbag68
(g89
g70
NtRp3520
(dp3521
g73
(dp3522
g100
g101
ssg82
g3511
sg75
(lp3523
S':'
asbag68
(g89
g70
NtRp3524
(dp3525
g73
(dp3526
sg82
g3511
sg75
(lp3527
g68
(g69
g70
NtRp3528
(dp3529
g73
(dp3530
g81
I5
ssg82
g3524
sg75
(lp3531
g68
(g77
g70
NtRp3532
(dp3533
g73
(dp3534
g81
I4
ssg82
Nsg75
(lp3535
g68
(g84
g70
NtRp3536
(dp3537
g73
(dp3538
sg82
g3532
sg75
(lp3539
g68
(g89
g70
NtRp3540
(dp3541
g73
(dp3542
sg82
g3536
sg75
(lp3543
g68
(g69
g70
NtRp3544
(dp3545
g73
(dp3546
g81
I4
ssg82
g3540
sg75
(lp3547
S'{{'
p3548
asbasbasbag68
(g84
g70
NtRp3549
(dp3550
g73
(dp3551
sg82
g3532
sg75
(lp3552
g68
(g89
g70
NtRp3553
(dp3554
g73
(dp3555
sg82
g3549
sg75
(lp3556
g68
(g69
g70
NtRp3557
(dp3558
g73
(dp3559
g81
I4
ssg82
g3553
sg75
(lp3560
S'}}'
p3561
asbasbasbasbasbasbasbag68
(g84
g70
NtRp3562
(dp3563
g73
(dp3564
sg82
g3277
sg75
(lp3565
g68
(g89
g70
NtRp3566
(dp3567
g73
(dp3568
g93
g94
ssg82
g3562
sg75
(lp3569
S'files'
p3570
asbag68
(g89
g70
NtRp3571
(dp3572
g73
(dp3573
g100
g101
ssg82
g3562
sg75
(lp3574
S':'
asbag68
(g89
g70
NtRp3575
(dp3576
g73
(dp3577
sg82
g3562
sg75
(lp3578
g68
(g69
g70
NtRp3579
(dp3580
g73
(dp3581
g81
I5
ssg82
g3575
sg75
(lp3582
g68
(g77
g70
NtRp3583
(dp3584
g73
(dp3585
g81
I4
ssg82
Nsg75
(lp3586
sbasbasbasbag68
(g84
g70
NtRp3587
(dp3588
g73
(dp3589
sg82
g3277
sg75
(lp3590
g68
(g89
g70
NtRp3591
(dp3592
g73
(dp3593
g93
g94
ssg82
g3587
sg75
(lp3594
S'flash'
p3595
asbag68
(g89
g70
NtRp3596
(dp3597
g73
(dp3598
g100
g101
ssg82
g3587
sg75
(lp3599
S':'
asbag68
(g89
g70
NtRp3600
(dp3601
g73
(dp3602
sg82
g3587
sg75
(lp3603
g68
(g69
g70
NtRp3604
(dp3605
g73
(dp3606
g81
I5
ssg82
g3600
sg75
(lp3607
S''
asbasbasbag68
(g84
g70
NtRp3608
(dp3609
g73
(dp3610
sg82
g3277
sg75
(lp3611
g68
(g89
g70
NtRp3612
(dp3613
g73
(dp3614
g93
g94
ssg82
g3608
sg75
(lp3615
S'generic_patterns'
p3616
asbag68
(g89
g70
NtRp3617
(dp3618
g73
(dp3619
g100
g101
ssg82
g3608
sg75
(lp3620
S':'
asbag68
(g89
g70
NtRp3621
(dp3622
g73
(dp3623
sg82
g3608
sg75
(lp3624
g68
(g69
g70
NtRp3625
(dp3626
g73
(dp3627
g81
I5
ssg82
g3621
sg75
(lp3628
g68
(g77
g70
NtRp3629
(dp3630
g73
(dp3631
g81
I4
ssg82
Nsg75
(lp3632
g68
(g84
g70
NtRp3633
(dp3634
g73
(dp3635
sg82
g3629
sg75
(lp3636
g68
(g89
g70
NtRp3637
(dp3638
g73
(dp3639
sg82
g3633
sg75
(lp3640
g68
(g69
g70
NtRp3641
(dp3642
g73
(dp3643
g81
I4
ssg82
g3637
sg75
(lp3644
S'*'
asbasbasbasbasbasbasbag68
(g84
g70
NtRp3645
(dp3646
g73
(dp3647
sg82
g3277
sg75
(lp3648
g68
(g89
g70
NtRp3649
(dp3650
g73
(dp3651
g93
g94
ssg82
g3645
sg75
(lp3652
S'google_analytics_id'
p3653
asbag68
(g89
g70
NtRp3654
(dp3655
g73
(dp3656
g100
g101
ssg82
g3645
sg75
(lp3657
S':'
asbag68
(g89
g70
NtRp3658
(dp3659
g73
(dp3660
sg82
g3645
sg75
(lp3661
g68
(g69
g70
NtRp3662
(dp3663
g73
(dp3664
g81
I5
ssg82
g3658
sg75
(lp3665
S'None'
p3666
asbasbasbag68
(g84
g70
NtRp3667
(dp3668
g73
(dp3669
sg82
g3277
sg75
(lp3670
g68
(g89
g70
NtRp3671
(dp3672
g73
(dp3673
g93
g94
ssg82
g3667
sg75
(lp3674
S'headers'
p3675
asbag68
(g89
g70
NtRp3676
(dp3677
g73
(dp3678
g100
g101
ssg82
g3667
sg75
(lp3679
S':'
asbag68
(g89
g70
NtRp3680
(dp3681
g73
(dp3682
sg82
g3667
sg75
(lp3683
g68
(g69
g70
NtRp3684
(dp3685
g73
(dp3686
g81
I5
ssg82
g3680
sg75
(lp3687
g68
(g77
g70
NtRp3688
(dp3689
g73
(dp3690
g81
I4
ssg82
Nsg75
(lp3691
g68
(g84
g70
NtRp3692
(dp3693
g73
(dp3694
sg82
g3688
sg75
(lp3695
g68
(g89
g70
NtRp3696
(dp3697
g73
(dp3698
g93
g94
ssg82
g3692
sg75
(lp3699
S'Cache-Control'
p3700
asbag68
(g89
g70
NtRp3701
(dp3702
g73
(dp3703
g100
g101
ssg82
g3692
sg75
(lp3704
S':'
asbag68
(g89
g70
NtRp3705
(dp3706
g73
(dp3707
sg82
g3692
sg75
(lp3708
g68
(g69
g70
NtRp3709
(dp3710
g73
(dp3711
g81
I4
ssg82
g3705
sg75
(lp3712
S'no-store, no-cache, must-revalidate, post-check=0, pre-check=0'
p3713
asbasbasbag68
(g84
g70
NtRp3714
(dp3715
g73
(dp3716
sg82
g3688
sg75
(lp3717
g68
(g89
g70
NtRp3718
(dp3719
g73
(dp3720
g93
g94
ssg82
g3714
sg75
(lp3721
S'Content-Type'
p3722
asbag68
(g89
g70
NtRp3723
(dp3724
g73
(dp3725
g100
g101
ssg82
g3714
sg75
(lp3726
S':'
asbag68
(g89
g70
NtRp3727
(dp3728
g73
(dp3729
sg82
g3714
sg75
(lp3730
g68
(g69
g70
NtRp3731
(dp3732
g73
(dp3733
g81
I4
ssg82
g3727
sg75
(lp3734
S'text/html; charset=utf-8'
p3735
asbasbasbag68
(g84
g70
NtRp3736
(dp3737
g73
(dp3738
sg82
g3688
sg75
(lp3739
g68
(g89
g70
NtRp3740
(dp3741
g73
(dp3742
g93
g94
ssg82
g3736
sg75
(lp3743
S'Expires'
p3744
asbag68
(g89
g70
NtRp3745
(dp3746
g73
(dp3747
g100
g101
ssg82
g3736
sg75
(lp3748
S':'
asbag68
(g89
g70
NtRp3749
(dp3750
g73
(dp3751
sg82
g3736
sg75
(lp3752
g68
(g69
g70
NtRp3753
(dp3754
g73
(dp3755
g81
I4
ssg82
g3749
sg75
(lp3756
S'Tue, 18 Dec 2012 11:48:21 GMT'
p3757
asbasbasbag68
(g84
g70
NtRp3758
(dp3759
g73
(dp3760
sg82
g3688
sg75
(lp3761
g68
(g89
g70
NtRp3762
(dp3763
g73
(dp3764
g93
g94
ssg82
g3758
sg75
(lp3765
S'Pragma'
p3766
asbag68
(g89
g70
NtRp3767
(dp3768
g73
(dp3769
g100
g101
ssg82
g3758
sg75
(lp3770
S':'
asbag68
(g89
g70
NtRp3771
(dp3772
g73
(dp3773
sg82
g3758
sg75
(lp3774
g68
(g69
g70
NtRp3775
(dp3776
g73
(dp3777
g81
I4
ssg82
g3771
sg75
(lp3778
S'no-cache'
p3779
asbasbasbag68
(g84
g70
NtRp3780
(dp3781
g73
(dp3782
sg82
g3688
sg75
(lp3783
g68
(g89
g70
NtRp3784
(dp3785
g73
(dp3786
g93
g94
ssg82
g3780
sg75
(lp3787
S'X-Powered-By'
p3788
asbag68
(g89
g70
NtRp3789
(dp3790
g73
(dp3791
g100
g101
ssg82
g3780
sg75
(lp3792
S':'
asbag68
(g89
g70
NtRp3793
(dp3794
g73
(dp3795
sg82
g3780
sg75
(lp3796
g68
(g69
g70
NtRp3797
(dp3798
g73
(dp3799
g81
I4
ssg82
g3793
sg75
(lp3800
S'web2py'
p3801
asbasbasbasbasbasbasbag68
(g84
g70
NtRp3802
(dp3803
g73
(dp3804
sg82
g3277
sg75
(lp3805
g68
(g89
g70
NtRp3806
(dp3807
g73
(dp3808
g93
g94
ssg82
g3802
sg75
(lp3809
S'menu'
p3810
asbag68
(g89
g70
NtRp3811
(dp3812
g73
(dp3813
g100
g101
ssg82
g3802
sg75
(lp3814
S':'
asbag68
(g89
g70
NtRp3815
(dp3816
g73
(dp3817
sg82
g3802
sg75
(lp3818
g68
(g69
g70
NtRp3819
(dp3820
g73
(dp3821
g81
I5
ssg82
g3815
sg75
(lp3822
g68
(g77
g70
NtRp3823
(dp3824
g73
(dp3825
g81
I4
ssg82
Nsg75
(lp3826
g68
(g84
g70
NtRp3827
(dp3828
g73
(dp3829
sg82
g3823
sg75
(lp3830
g68
(g89
g70
NtRp3831
(dp3832
g73
(dp3833
sg82
g3827
sg75
(lp3834
g68
(g69
g70
NtRp3835
(dp3836
g73
(dp3837
g81
I4
ssg82
g3831
sg75
(lp3838
g68
(g77
g70
NtRp3839
(dp3840
g73
(dp3841
g81
I3
ssg82
Nsg75
(lp3842
g68
(g84
g70
NtRp3843
(dp3844
g73
(dp3845
sg82
g3839
sg75
(lp3846
g68
(g89
g70
NtRp3847
(dp3848
g73
(dp3849
sg82
g3843
sg75
(lp3850
g68
(g69
g70
NtRp3851
(dp3852
g73
(dp3853
g81
I3
ssg82
g3847
sg75
(lp3854
cgluon.languages
lazyT_unpickle
p3855
(S't\x04\x00\x00\x00Home'
tRp3856
asbasbasbag68
(g84
g70
NtRp3857
(dp3858
g73
(dp3859
sg82
g3839
sg75
(lp3860
g68
(g89
g70
NtRp3861
(dp3862
g73
(dp3863
sg82
g3857
sg75
(lp3864
g68
(g69
g70
NtRp3865
(dp3866
g73
(dp3867
g81
I3
ssg82
g3861
sg75
(lp3868
g810
asbasbasbag68
(g84
g70
NtRp3869
(dp3870
g73
(dp3871
sg82
g3839
sg75
(lp3872
g68
(g89
g70
NtRp3873
(dp3874
g73
(dp3875
sg82
g3869
sg75
(lp3876
g68
(g69
g70
NtRp3877
(dp3878
g73
(dp3879
g81
I3
ssg82
g3873
sg75
(lp3880
S'/testumgebung/default/index.load'
p3881
asbasbasbag68
(g84
g70
NtRp3882
(dp3883
g73
(dp3884
sg82
g3839
sg75
(lp3885
g68
(g89
g70
NtRp3886
(dp3887
g73
(dp3888
sg82
g3882
sg75
(lp3889
g68
(g69
g70
NtRp3890
(dp3891
g73
(dp3892
g81
I3
ssg82
g3886
sg75
(lp3893
g68
(g77
g70
NtRp3894
(dp3895
g73
(dp3896
g81
I2
ssg82
Nsg75
(lp3897
sbasbasbasbasbasbasbasbag68
(g84
g70
NtRp3898
(dp3899
g73
(dp3900
sg82
g3823
sg75
(lp3901
g68
(g89
g70
NtRp3902
(dp3903
g73
(dp3904
sg82
g3898
sg75
(lp3905
g68
(g69
g70
NtRp3906
(dp3907
g73
(dp3908
g81
I4
ssg82
g3902
sg75
(lp3909
g68
(g77
g70
NtRp3910
(dp3911
g73
(dp3912
g81
I3
ssg82
Nsg75
(lp3913
g68
(g84
g70
NtRp3914
(dp3915
g73
(dp3916
sg82
g3910
sg75
(lp3917
g68
(g89
g70
NtRp3918
(dp3919
g73
(dp3920
sg82
g3914
sg75
(lp3921
g68
(g69
g70
NtRp3922
(dp3923
g73
(dp3924
g81
I3
ssg82
g3918
sg75
(lp3925
g68
(cgluon.html
SPAN
p3926
g70
NtRp3927
(dp3928
g73
(dp3929
g93
S'color:yellow'
p3930
ssg82
Nsg75
(lp3931
g3801
asbasbasbasbag68
(g84
g70
NtRp3932
(dp3933
g73
(dp3934
sg82
g3910
sg75
(lp3935
g68
(g89
g70
NtRp3936
(dp3937
g73
(dp3938
sg82
g3932
sg75
(lp3939
g68
(g69
g70
NtRp3940
(dp3941
g73
(dp3942
g81
I3
ssg82
g3936
sg75
(lp3943
g810
asbasbasbag68
(g84
g70
NtRp3944
(dp3945
g73
(dp3946
sg82
g3910
sg75
(lp3947
g68
(g89
g70
NtRp3948
(dp3949
g73
(dp3950
sg82
g3944
sg75
(lp3951
g68
(g69
g70
NtRp3952
(dp3953
g73
(dp3954
g81
I3
ssg82
g3948
sg75
(lp3955
S'http://web2py.com'
p3956
asbasbasbag68
(g84
g70
NtRp3957
(dp3958
g73
(dp3959
sg82
g3910
sg75
(lp3960
g68
(g89
g70
NtRp3961
(dp3962
g73
(dp3963
sg82
g3957
sg75
(lp3964
g68
(g69
g70
NtRp3965
(dp3966
g73
(dp3967
g81
I3
ssg82
g3961
sg75
(lp3968
g68
(g77
g70
NtRp3969
(dp3970
g73
(dp3971
g81
I2
ssg82
Nsg75
(lp3972
g68
(g84
g70
NtRp3973
(dp3974
g73
(dp3975
sg82
g3969
sg75
(lp3976
g68
(g89
g70
NtRp3977
(dp3978
g73
(dp3979
sg82
g3973
sg75
(lp3980
g68
(g69
g70
NtRp3981
(dp3982
g73
(dp3983
g81
I2
ssg82
g3977
sg75
(lp3984
g68
(g77
g70
NtRp3985
(dp3986
g73
(dp3987
g81
I1
ssg82
Nsg75
(lp3988
g68
(g84
g70
NtRp3989
(dp3990
g73
(dp3991
sg82
g3985
sg75
(lp3992
g68
(g89
g70
NtRp3993
(dp3994
g73
(dp3995
sg82
g3989
sg75
(lp3996
g68
(g69
g70
NtRp3997
(dp3998
g73
(dp3999
g81
I1
ssg82
g3993
sg75
(lp4000
g3855
(S's\x08\x00\x00\x00My Sites'
tRp4001
asbasbasbag68
(g84
g70
NtRp4002
(dp4003
g73
(dp4004
sg82
g3985
sg75
(lp4005
g68
(g89
g70
NtRp4006
(dp4007
g73
(dp4008
sg82
g4002
sg75
(lp4009
g68
(g69
g70
NtRp4010
(dp4011
g73
(dp4012
g81
I1
ssg82
g4006
sg75
(lp4013
I00
asbasbasbag68
(g84
g70
NtRp4014
(dp4015
g73
(dp4016
sg82
g3985
sg75
(lp4017
g68
(g89
g70
NtRp4018
(dp4019
g73
(dp4020
sg82
g4014
sg75
(lp4021
g68
(g69
g70
NtRp4022
(dp4023
g73
(dp4024
g81
I1
ssg82
g4018
sg75
(lp4025
S'/admin/default/site.load'
p4026
asbasbasbasbasbasbasbag68
(g84
g70
NtRp4027
(dp4028
g73
(dp4029
sg82
g3969
sg75
(lp4030
g68
(g89
g70
NtRp4031
(dp4032
g73
(dp4033
sg82
g4027
sg75
(lp4034
g68
(g69
g70
NtRp4035
(dp4036
g73
(dp4037
g81
I2
ssg82
g4031
sg75
(lp4038
g68
(g77
g70
NtRp4039
(dp4040
g73
(dp4041
g81
I1
ssg82
Nsg75
(lp4042
g68
(g84
g70
NtRp4043
(dp4044
g73
(dp4045
sg82
g4039
sg75
(lp4046
g68
(g89
g70
NtRp4047
(dp4048
g73
(dp4049
sg82
g4043
sg75
(lp4050
g68
(g69
g70
NtRp4051
(dp4052
g73
(dp4053
g81
I1
ssg82
g4047
sg75
(lp4054
g3855
(S's\x08\x00\x00\x00This App'
tRp4055
asbasbasbag68
(g84
g70
NtRp4056
(dp4057
g73
(dp4058
sg82
g4039
sg75
(lp4059
g68
(g89
g70
NtRp4060
(dp4061
g73
(dp4062
sg82
g4056
sg75
(lp4063
g68
(g69
g70
NtRp4064
(dp4065
g73
(dp4066
g81
I1
ssg82
g4060
sg75
(lp4067
I00
asbasbasbag68
(g84
g70
NtRp4068
(dp4069
g73
(dp4070
sg82
g4039
sg75
(lp4071
g68
(g89
g70
NtRp4072
(dp4073
g73
(dp4074
sg82
g4068
sg75
(lp4075
g68
(g69
g70
NtRp4076
(dp4077
g73
(dp4078
g81
I1
ssg82
g4072
sg75
(lp4079
S'/admin/default/design.load/testumgebung'
p4080
asbasbasbag68
(g84
g70
NtRp4081
(dp4082
g73
(dp4083
sg82
g4039
sg75
(lp4084
g68
(g89
g70
NtRp4085
(dp4086
g73
(dp4087
sg82
g4081
sg75
(lp4088
g68
(g69
g70
NtRp4089
(dp4090
g73
(dp4091
g81
I1
ssg82
g4085
sg75
(lp4092
(lp4093
(g3855
(S't\n\x00\x00\x00Controller'
tRp4094
I00
S'/admin/default/edit.load/testumgebung/controllers/plugin_feedbacks.py'
tp4095
a(g3855
(S't\x04\x00\x00\x00View'
tRp4096
I00
S'/admin/default/edit.load/testumgebung/views/plugin_feedbacks/feedback.load'
tp4097
a(g3855
(S't\x06\x00\x00\x00Layout'
tRp4098
I00
S'/admin/default/edit.load/testumgebung/views/layout.html'
tp4099
a(g3855
(S't\n\x00\x00\x00Stylesheet'
tRp4100
I00
S'/admin/default/edit.load/testumgebung/static/css/web2py.css'
tp4101
a(g3855
(S's\x08\x00\x00\x00DB Model'
tRp4102
I00
S'/admin/default/edit.load/testumgebung/models/db.py'
tp4103
a(g3855
(S's\n\x00\x00\x00Menu Model'
tRp4104
I00
S'/admin/default/edit.load/testumgebung/models/menu.py'
tp4105
a(g3855
(S't\x08\x00\x00\x00Database'
tRp4106
I00
S'/testumgebung/appadmin/index.load'
tp4107
a(g3855
(S't\x06\x00\x00\x00Errors'
tRp4108
I00
S'/admin/default/errors.load/testumgebung'
tp4109
a(g3855
(S't\x05\x00\x00\x00About'
tRp4110
I00
S'/admin/default/about.load/testumgebung'
tp4111
aasbasbasbasbasbasbasbag68
(g84
g70
NtRp4112
(dp4113
g73
(dp4114
sg82
g3969
sg75
(lp4115
g68
(g89
g70
NtRp4116
(dp4117
g73
(dp4118
sg82
g4112
sg75
(lp4119
g68
(g69
g70
NtRp4120
(dp4121
g73
(dp4122
g81
I2
ssg82
g4116
sg75
(lp4123
g68
(g77
g70
NtRp4124
(dp4125
g73
(dp4126
g81
I1
ssg82
Nsg75
(lp4127
g68
(g84
g70
NtRp4128
(dp4129
g73
(dp4130
sg82
g4124
sg75
(lp4131
g68
(g89
g70
NtRp4132
(dp4133
g73
(dp4134
sg82
g4128
sg75
(lp4135
g68
(g69
g70
NtRp4136
(dp4137
g73
(dp4138
g81
I1
ssg82
g4132
sg75
(lp4139
S'web2py.com'
p4140
asbasbasbag68
(g84
g70
NtRp4141
(dp4142
g73
(dp4143
sg82
g4124
sg75
(lp4144
g68
(g89
g70
NtRp4145
(dp4146
g73
(dp4147
sg82
g4141
sg75
(lp4148
g68
(g69
g70
NtRp4149
(dp4150
g73
(dp4151
g81
I1
ssg82
g4145
sg75
(lp4152
I00
asbasbasbag68
(g84
g70
NtRp4153
(dp4154
g73
(dp4155
sg82
g4124
sg75
(lp4156
g68
(g89
g70
NtRp4157
(dp4158
g73
(dp4159
sg82
g4153
sg75
(lp4160
g68
(g69
g70
NtRp4161
(dp4162
g73
(dp4163
g81
I1
ssg82
g4157
sg75
(lp4164
S'http://www.web2py.com'
p4165
asbasbasbag68
(g84
g70
NtRp4166
(dp4167
g73
(dp4168
sg82
g4124
sg75
(lp4169
g68
(g89
g70
NtRp4170
(dp4171
g73
(dp4172
sg82
g4166
sg75
(lp4173
g68
(g69
g70
NtRp4174
(dp4175
g73
(dp4176
g81
I1
ssg82
g4170
sg75
(lp4177
(lp4178
(g3855
(S't\x08\x00\x00\x00Download'
tRp4179
I00
S'http://www.web2py.com/examples/default/download'
p4180
tp4181
a(g3855
(S't\x07\x00\x00\x00Support'
tRp4182
I00
S'http://www.web2py.com/examples/default/support'
p4183
tp4184
a(g3855
(S't\x04\x00\x00\x00Demo'
tRp4185
I00
S'http://web2py.com/demo_admin'
p4186
tp4187
a(g3855
(S's\x0e\x00\x00\x00Quick Examples'
tRp4188
I00
S'http://web2py.com/examples/default/examples'
p4189
tp4190
a(g3855
(S't\x03\x00\x00\x00FAQ'
tRp4191
I00
S'http://web2py.com/AlterEgo'
p4192
tp4193
a(g3855
(S't\x06\x00\x00\x00Videos'
tRp4194
I00
S'http://www.web2py.com/examples/default/videos/'
p4195
tp4196
a(g3855
(S's\x11\x00\x00\x00Free Applications'
tRp4197
I00
S'http://web2py.com/appliances'
p4198
tp4199
a(g3855
(S't\x07\x00\x00\x00Plugins'
tRp4200
I00
S'http://web2py.com/plugins'
p4201
tp4202
a(g3855
(S't\x07\x00\x00\x00Layouts'
tRp4203
I00
S'http://web2py.com/layouts'
p4204
tp4205
a(g3855
(S't\x07\x00\x00\x00Recipes'
tRp4206
I00
S'http://web2pyslices.com/'
p4207
tp4208
a(g3855
(S't\x08\x00\x00\x00Semantic'
tRp4209
I00
S'http://web2py.com/semantic'
p4210
tp4211
aasbasbasbasbasbasbasbag68
(g84
g70
NtRp4212
(dp4213
g73
(dp4214
sg82
g3969
sg75
(lp4215
g68
(g89
g70
NtRp4216
(dp4217
g73
(dp4218
sg82
g4212
sg75
(lp4219
g68
(g69
g70
NtRp4220
(dp4221
g73
(dp4222
g81
I2
ssg82
g4216
sg75
(lp4223
g68
(g77
g70
NtRp4224
(dp4225
g73
(dp4226
g81
I1
ssg82
Nsg75
(lp4227
g68
(g84
g70
NtRp4228
(dp4229
g73
(dp4230
sg82
g4224
sg75
(lp4231
g68
(g89
g70
NtRp4232
(dp4233
g73
(dp4234
sg82
g4228
sg75
(lp4235
g68
(g69
g70
NtRp4236
(dp4237
g73
(dp4238
g81
I1
ssg82
g4232
sg75
(lp4239
g3855
(S't\r\x00\x00\x00Documentation'
tRp4240
asbasbasbag68
(g84
g70
NtRp4241
(dp4242
g73
(dp4243
sg82
g4224
sg75
(lp4244
g68
(g89
g70
NtRp4245
(dp4246
g73
(dp4247
sg82
g4241
sg75
(lp4248
g68
(g69
g70
NtRp4249
(dp4250
g73
(dp4251
g81
I1
ssg82
g4245
sg75
(lp4252
I00
asbasbasbag68
(g84
g70
NtRp4253
(dp4254
g73
(dp4255
sg82
g4224
sg75
(lp4256
g68
(g89
g70
NtRp4257
(dp4258
g73
(dp4259
sg82
g4253
sg75
(lp4260
g68
(g69
g70
NtRp4261
(dp4262
g73
(dp4263
g81
I1
ssg82
g4257
sg75
(lp4264
S'http://www.web2py.com/book'
p4265
asbasbasbag68
(g84
g70
NtRp4266
(dp4267
g73
(dp4268
sg82
g4224
sg75
(lp4269
g68
(g89
g70
NtRp4270
(dp4271
g73
(dp4272
sg82
g4266
sg75
(lp4273
g68
(g69
g70
NtRp4274
(dp4275
g73
(dp4276
g81
I1
ssg82
g4270
sg75
(lp4277
(lp4278
(g3855
(S't\x07\x00\x00\x00Preface'
tRp4279
I00
S'http://www.web2py.com/book/default/chapter/00'
p4280
tp4281
a(g3855
(S't\x0c\x00\x00\x00Introduction'
tRp4282
I00
S'http://www.web2py.com/book/default/chapter/01'
p4283
tp4284
a(g3855
(S't\x06\x00\x00\x00Python'
tRp4285
I00
S'http://www.web2py.com/book/default/chapter/02'
p4286
tp4287
a(g3855
(S't\x08\x00\x00\x00Overview'
tRp4288
I00
S'http://www.web2py.com/book/default/chapter/03'
p4289
tp4290
a(g3855
(S's\x08\x00\x00\x00The Core'
tRp4291
I00
S'http://www.web2py.com/book/default/chapter/04'
p4292
tp4293
a(g3855
(S's\t\x00\x00\x00The Views'
tRp4294
I00
S'http://www.web2py.com/book/default/chapter/05'
p4295
tp4296
a(g3855
(S't\x08\x00\x00\x00Database'
tRp4297
I00
S'http://www.web2py.com/book/default/chapter/06'
p4298
tp4299
a(g3855
(S's\x14\x00\x00\x00Forms and Validators'
tRp4300
I00
S'http://www.web2py.com/book/default/chapter/07'
p4301
tp4302
a(g3855
(S's\r\x00\x00\x00Email and SMS'
tRp4303
I00
S'http://www.web2py.com/book/default/chapter/08'
p4304
tp4305
a(g3855
(S's\x0e\x00\x00\x00Access Control'
tRp4306
I00
S'http://www.web2py.com/book/default/chapter/09'
p4307
tp4308
a(g3855
(S't\x08\x00\x00\x00Services'
tRp4309
I00
S'http://www.web2py.com/book/default/chapter/10'
p4310
tp4311
a(g3855
(S's\x0c\x00\x00\x00Ajax Recipes'
tRp4312
I00
S'http://www.web2py.com/book/default/chapter/11'
p4313
tp4314
a(g3855
(S's\x16\x00\x00\x00Components and Plugins'
tRp4315
I00
S'http://www.web2py.com/book/default/chapter/12'
p4316
tp4317
a(g3855
(S's\x12\x00\x00\x00Deployment Recipes'
tRp4318
I00
S'http://www.web2py.com/book/default/chapter/13'
p4319
tp4320
a(g3855
(S's\r\x00\x00\x00Other Recipes'
tRp4321
I00
S'http://www.web2py.com/book/default/chapter/14'
p4322
tp4323
a(g3855
(S's\r\x00\x00\x00Buy this book'
tRp4324
I00
S'http://stores.lulu.com/web2py'
p4325
tp4326
aasbasbasbasbasbasbasbag68
(g84
g70
NtRp4327
(dp4328
g73
(dp4329
sg82
g3969
sg75
(lp4330
g68
(g89
g70
NtRp4331
(dp4332
g73
(dp4333
sg82
g4327
sg75
(lp4334
g68
(g69
g70
NtRp4335
(dp4336
g73
(dp4337
g81
I2
ssg82
g4331
sg75
(lp4338
g68
(g77
g70
NtRp4339
(dp4340
g73
(dp4341
g81
I1
ssg82
Nsg75
(lp4342
g68
(g84
g70
NtRp4343
(dp4344
g73
(dp4345
sg82
g4339
sg75
(lp4346
g68
(g89
g70
NtRp4347
(dp4348
g73
(dp4349
sg82
g4343
sg75
(lp4350
g68
(g69
g70
NtRp4351
(dp4352
g73
(dp4353
g81
I1
ssg82
g4347
sg75
(lp4354
g3855
(S't\t\x00\x00\x00Community'
tRp4355
asbasbasbag68
(g84
g70
NtRp4356
(dp4357
g73
(dp4358
sg82
g4339
sg75
(lp4359
g68
(g89
g70
NtRp4360
(dp4361
g73
(dp4362
sg82
g4356
sg75
(lp4363
g68
(g69
g70
NtRp4364
(dp4365
g73
(dp4366
g81
I1
ssg82
g4360
sg75
(lp4367
I00
asbasbasbag68
(g84
g70
NtRp4368
(dp4369
g73
(dp4370
sg82
g4339
sg75
(lp4371
g68
(g89
g70
NtRp4372
(dp4373
g73
(dp4374
sg82
g4368
sg75
(lp4375
g68
(g69
g70
NtRp4376
(dp4377
g73
(dp4378
g81
I1
ssg82
g4372
sg75
(lp4379
Nasbasbasbag68
(g84
g70
NtRp4380
(dp4381
g73
(dp4382
sg82
g4339
sg75
(lp4383
g68
(g89
g70
NtRp4384
(dp4385
g73
(dp4386
sg82
g4380
sg75
(lp4387
g68
(g69
g70
NtRp4388
(dp4389
g73
(dp4390
g81
I1
ssg82
g4384
sg75
(lp4391
(lp4392
(g3855
(S't\x06\x00\x00\x00Groups'
tRp4393
I00
S'http://www.web2py.com/examples/default/usergroups'
p4394
tp4395
a(g3855
(S't\x07\x00\x00\x00Twitter'
tRp4396
I00
S'http://twitter.com/web2py'
p4397
tp4398
a(g3855
(S's\t\x00\x00\x00Live Chat'
tRp4399
I00
S'http://webchat.freenode.net/?channels=web2py'
p4400
tp4401
aasbasbasbasbasbasbasbag68
(g84
g70
NtRp4402
(dp4403
g73
(dp4404
sg82
g3969
sg75
(lp4405
g68
(g89
g70
NtRp4406
(dp4407
g73
(dp4408
sg82
g4402
sg75
(lp4409
g68
(g69
g70
NtRp4410
(dp4411
g73
(dp4412
g81
I2
ssg82
g4406
sg75
(lp4413
g68
(g77
g70
NtRp4414
(dp4415
g73
(dp4416
g81
I1
ssg82
Nsg75
(lp4417
g68
(g84
g70
NtRp4418
(dp4419
g73
(dp4420
sg82
g4414
sg75
(lp4421
g68
(g89
g70
NtRp4422
(dp4423
g73
(dp4424
sg82
g4418
sg75
(lp4425
g68
(g69
g70
NtRp4426
(dp4427
g73
(dp4428
g81
I1
ssg82
g4422
sg75
(lp4429
g3855
(S't\x07\x00\x00\x00Plugins'
tRp4430
asbasbasbag68
(g84
g70
NtRp4431
(dp4432
g73
(dp4433
sg82
g4414
sg75
(lp4434
g68
(g89
g70
NtRp4435
(dp4436
g73
(dp4437
sg82
g4431
sg75
(lp4438
g68
(g69
g70
NtRp4439
(dp4440
g73
(dp4441
g81
I1
ssg82
g4435
sg75
(lp4442
I00
asbasbasbag68
(g84
g70
NtRp4443
(dp4444
g73
(dp4445
sg82
g4414
sg75
(lp4446
g68
(g89
g70
NtRp4447
(dp4448
g73
(dp4449
sg82
g4443
sg75
(lp4450
g68
(g69
g70
NtRp4451
(dp4452
g73
(dp4453
g81
I1
ssg82
g4447
sg75
(lp4454
Nasbasbasbag68
(g84
g70
NtRp4455
(dp4456
g73
(dp4457
sg82
g4414
sg75
(lp4458
g68
(g89
g70
NtRp4459
(dp4460
g73
(dp4461
sg82
g4455
sg75
(lp4462
g68
(g69
g70
NtRp4463
(dp4464
g73
(dp4465
g81
I1
ssg82
g4459
sg75
(lp4466
(lp4467
(S'plugin_wiki'
p4468
I00
S'http://web2py.com/examples/default/download'
p4469
tp4470
a(g3855
(S's\r\x00\x00\x00Other Plugins'
tRp4471
I00
g4201
tp4472
a(g3855
(S's\x0e\x00\x00\x00Layout Plugins'
tRp4473
I00
g4204
tp4474
aasbasbasbasbasbasbasbasbasbasbasbasbasbasbasbasbasbasbasbag68
(g84
g70
NtRp4475
(dp4476
g73
(dp4477
sg82
g3277
sg75
(lp4478
g68
(g89
g70
NtRp4479
(dp4480
g73
(dp4481
g93
g94
ssg82
g4475
sg75
(lp4482
S'meta'
p4483
asbag68
(g89
g70
NtRp4484
(dp4485
g73
(dp4486
g100
g101
ssg82
g4475
sg75
(lp4487
S':'
asbag68
(g89
g70
NtRp4488
(dp4489
g73
(dp4490
sg82
g4475
sg75
(lp4491
g68
(g69
g70
NtRp4492
(dp4493
g73
(dp4494
g81
I5
ssg82
g4488
sg75
(lp4495
g68
(g77
g70
NtRp4496
(dp4497
g73
(dp4498
g81
I4
ssg82
Nsg75
(lp4499
g68
(g84
g70
NtRp4500
(dp4501
g73
(dp4502
sg82
g4496
sg75
(lp4503
g68
(g89
g70
NtRp4504
(dp4505
g73
(dp4506
g93
g94
ssg82
g4500
sg75
(lp4507
S'author'
p4508
asbag68
(g89
g70
NtRp4509
(dp4510
g73
(dp4511
g100
g101
ssg82
g4500
sg75
(lp4512
S':'
asbag68
(g89
g70
NtRp4513
(dp4514
g73
(dp4515
sg82
g4500
sg75
(lp4516
g68
(g69
g70
NtRp4517
(dp4518
g73
(dp4519
g81
I4
ssg82
g4513
sg75
(lp4520
S'Your Name <you@example.com>'
p4521
asbasbasbag68
(g84
g70
NtRp4522
(dp4523
g73
(dp4524
sg82
g4496
sg75
(lp4525
g68
(g89
g70
NtRp4526
(dp4527
g73
(dp4528
g93
g94
ssg82
g4522
sg75
(lp4529
S'description'
p4530
asbag68
(g89
g70
NtRp4531
(dp4532
g73
(dp4533
g100
g101
ssg82
g4522
sg75
(lp4534
S':'
asbag68
(g89
g70
NtRp4535
(dp4536
g73
(dp4537
sg82
g4522
sg75
(lp4538
g68
(g69
g70
NtRp4539
(dp4540
g73
(dp4541
g81
I4
ssg82
g4535
sg75
(lp4542
S'a cool new app'
p4543
asbasbasbag68
(g84
g70
NtRp4544
(dp4545
g73
(dp4546
sg82
g4496
sg75
(lp4547
g68
(g89
g70
NtRp4548
(dp4549
g73
(dp4550
g93
g94
ssg82
g4544
sg75
(lp4551
S'generator'
p4552
asbag68
(g89
g70
NtRp4553
(dp4554
g73
(dp4555
g100
g101
ssg82
g4544
sg75
(lp4556
S':'
asbag68
(g89
g70
NtRp4557
(dp4558
g73
(dp4559
sg82
g4544
sg75
(lp4560
g68
(g69
g70
NtRp4561
(dp4562
g73
(dp4563
g81
I4
ssg82
g4557
sg75
(lp4564
S'Web2py Web Framework'
p4565
asbasbasbag68
(g84
g70
NtRp4566
(dp4567
g73
(dp4568
sg82
g4496
sg75
(lp4569
g68
(g89
g70
NtRp4570
(dp4571
g73
(dp4572
g93
g94
ssg82
g4566
sg75
(lp4573
S'keywords'
p4574
asbag68
(g89
g70
NtRp4575
(dp4576
g73
(dp4577
g100
g101
ssg82
g4566
sg75
(lp4578
S':'
asbag68
(g89
g70
NtRp4579
(dp4580
g73
(dp4581
sg82
g4566
sg75
(lp4582
g68
(g69
g70
NtRp4583
(dp4584
g73
(dp4585
g81
I4
ssg82
g4579
sg75
(lp4586
S'web2py, python, framework'
p4587
asbasbasbasbasbasbasbag68
(g84
g70
NtRp4588
(dp4589
g73
(dp4590
sg82
g3277
sg75
(lp4591
g68
(g89
g70
NtRp4592
(dp4593
g73
(dp4594
g93
g94
ssg82
g4588
sg75
(lp4595
S'postprocessing'
p4596
asbag68
(g89
g70
NtRp4597
(dp4598
g73
(dp4599
g100
g101
ssg82
g4588
sg75
(lp4600
S':'
asbag68
(g89
g70
NtRp4601
(dp4602
g73
(dp4603
sg82
g4588
sg75
(lp4604
g68
(g69
g70
NtRp4605
(dp4606
g73
(dp4607
g81
I5
ssg82
g4601
sg75
(lp4608
g68
(g77
g70
NtRp4609
(dp4610
g73
(dp4611
g81
I4
ssg82
Nsg75
(lp4612
sbasbasbasbag68
(g84
g70
NtRp4613
(dp4614
g73
(dp4615
sg82
g3277
sg75
(lp4616
g68
(g89
g70
NtRp4617
(dp4618
g73
(dp4619
g93
g94
ssg82
g4613
sg75
(lp4620
S'session_file'
p4621
asbag68
(g89
g70
NtRp4622
(dp4623
g73
(dp4624
g100
g101
ssg82
g4613
sg75
(lp4625
S':'
asbag68
(g89
g70
NtRp4626
(dp4627
g73
(dp4628
sg82
g4613
sg75
(lp4629
g68
(g69
g70
NtRp4630
(dp4631
g73
(dp4632
g81
I5
ssg82
g4626
sg75
(lp4633
S"<open file 'C:\\xampp\\htdocs\\web2py\\applications\\testumgebung\\sessions\\127.0.0.1-90677836-87e3-4573-bd9a-704b577fb384', mode 'rb+' at 0x08BD3CD8>"
p4634
asbasbasbag68
(g84
g70
NtRp4635
(dp4636
g73
(dp4637
sg82
g3277
sg75
(lp4638
g68
(g89
g70
NtRp4639
(dp4640
g73
(dp4641
g93
g94
ssg82
g4635
sg75
(lp4642
S'session_filename'
p4643
asbag68
(g89
g70
NtRp4644
(dp4645
g73
(dp4646
g100
g101
ssg82
g4635
sg75
(lp4647
S':'
asbag68
(g89
g70
NtRp4648
(dp4649
g73
(dp4650
sg82
g4635
sg75
(lp4651
g68
(g69
g70
NtRp4652
(dp4653
g73
(dp4654
g81
I5
ssg82
g4648
sg75
(lp4655
S'C:\\xampp\\htdocs\\web2py\\applications\\testumgebung\\sessions\\127.0.0.1-90677836-87e3-4573-bd9a-704b577fb384'
p4656
asbasbasbag68
(g84
g70
NtRp4657
(dp4658
g73
(dp4659
sg82
g3277
sg75
(lp4660
g68
(g89
g70
NtRp4661
(dp4662
g73
(dp4663
g93
g94
ssg82
g4657
sg75
(lp4664
S'session_id'
p4665
asbag68
(g89
g70
NtRp4666
(dp4667
g73
(dp4668
g100
g101
ssg82
g4657
sg75
(lp4669
S':'
asbag68
(g89
g70
NtRp4670
(dp4671
g73
(dp4672
sg82
g4657
sg75
(lp4673
g68
(g69
g70
NtRp4674
(dp4675
g73
(dp4676
g81
I5
ssg82
g4670
sg75
(lp4677
g292
asbasbasbag68
(g84
g70
NtRp4678
(dp4679
g73
(dp4680
sg82
g3277
sg75
(lp4681
g68
(g89
g70
NtRp4682
(dp4683
g73
(dp4684
g93
g94
ssg82
g4678
sg75
(lp4685
S'session_id_name'
p4686
asbag68
(g89
g70
NtRp4687
(dp4688
g73
(dp4689
g100
g101
ssg82
g4678
sg75
(lp4690
S':'
asbag68
(g89
g70
NtRp4691
(dp4692
g73
(dp4693
sg82
g4678
sg75
(lp4694
g68
(g69
g70
NtRp4695
(dp4696
g73
(dp4697
g81
I5
ssg82
g4691
sg75
(lp4698
g3334
asbasbasbag68
(g84
g70
NtRp4699
(dp4700
g73
(dp4701
sg82
g3277
sg75
(lp4702
g68
(g89
g70
NtRp4703
(dp4704
g73
(dp4705
g93
g94
ssg82
g4699
sg75
(lp4706
S'session_locked'
p4707
asbag68
(g89
g70
NtRp4708
(dp4709
g73
(dp4710
g100
g101
ssg82
g4699
sg75
(lp4711
S':'
asbag68
(g89
g70
NtRp4712
(dp4713
g73
(dp4714
sg82
g4699
sg75
(lp4715
g68
(g69
g70
NtRp4716
(dp4717
g73
(dp4718
g81
I5
ssg82
g4712
sg75
(lp4719
g111
asbasbasbag68
(g84
g70
NtRp4720
(dp4721
g73
(dp4722
sg82
g3277
sg75
(lp4723
g68
(g89
g70
NtRp4724
(dp4725
g73
(dp4726
g93
g94
ssg82
g4720
sg75
(lp4727
S'session_new'
p4728
asbag68
(g89
g70
NtRp4729
(dp4730
g73
(dp4731
g100
g101
ssg82
g4720
sg75
(lp4732
S':'
asbag68
(g89
g70
NtRp4733
(dp4734
g73
(dp4735
sg82
g4720
sg75
(lp4736
g68
(g69
g70
NtRp4737
(dp4738
g73
(dp4739
g81
I5
ssg82
g4733
sg75
(lp4740
g810
asbasbasbag68
(g84
g70
NtRp4741
(dp4742
g73
(dp4743
sg82
g3277
sg75
(lp4744
g68
(g89
g70
NtRp4745
(dp4746
g73
(dp4747
g93
g94
ssg82
g4741
sg75
(lp4748
S'status'
p4749
asbag68
(g89
g70
NtRp4750
(dp4751
g73
(dp4752
g100
g101
ssg82
g4741
sg75
(lp4753
S':'
asbag68
(g89
g70
NtRp4754
(dp4755
g73
(dp4756
sg82
g4741
sg75
(lp4757
g68
(g69
g70
NtRp4758
(dp4759
g73
(dp4760
g81
I5
ssg82
g4754
sg75
(lp4761
S'200'
p4762
asbasbasbag68
(g84
g70
NtRp4763
(dp4764
g73
(dp4765
sg82
g3277
sg75
(lp4766
g68
(g89
g70
NtRp4767
(dp4768
g73
(dp4769
g93
g94
ssg82
g4763
sg75
(lp4770
S'subtitle'
p4771
asbag68
(g89
g70
NtRp4772
(dp4773
g73
(dp4774
g100
g101
ssg82
g4763
sg75
(lp4775
S':'
asbag68
(g89
g70
NtRp4776
(dp4777
g73
(dp4778
sg82
g4763
sg75
(lp4779
g68
(g69
g70
NtRp4780
(dp4781
g73
(dp4782
g81
I5
ssg82
g4776
sg75
(lp4783
g3855
(S's\r\x00\x00\x00customize me!'
tRp4784
asbasbasbag68
(g84
g70
NtRp4785
(dp4786
g73
(dp4787
sg82
g3277
sg75
(lp4788
g68
(g89
g70
NtRp4789
(dp4790
g73
(dp4791
g93
g94
ssg82
g4785
sg75
(lp4792
S'title'
p4793
asbag68
(g89
g70
NtRp4794
(dp4795
g73
(dp4796
g100
g101
ssg82
g4785
sg75
(lp4797
S':'
asbag68
(g89
g70
NtRp4798
(dp4799
g73
(dp4800
sg82
g4785
sg75
(lp4801
g68
(g69
g70
NtRp4802
(dp4803
g73
(dp4804
g81
I5
ssg82
g4798
sg75
(lp4805
S'Testumgebung'
p4806
asbasbasbag68
(g84
g70
NtRp4807
(dp4808
g73
(dp4809
sg82
g3277
sg75
(lp4810
g68
(g89
g70
NtRp4811
(dp4812
g73
(dp4813
g93
g94
ssg82
g4807
sg75
(lp4814
S'view'
p4815
asbag68
(g89
g70
NtRp4816
(dp4817
g73
(dp4818
g100
g101
ssg82
g4807
sg75
(lp4819
S':'
asbag68
(g89
g70
NtRp4820
(dp4821
g73
(dp4822
sg82
g4807
sg75
(lp4823
g68
(g69
g70
NtRp4824
(dp4825
g73
(dp4826
g81
I5
ssg82
g4820
sg75
(lp4827
S'plugin_feedbacks/feedback.load'
p4828
asbasbasbasbasbsS'locals'
p4829
(dp4830
g4
S"r'C:\\xampp\\htdocs\\web2py\\applications\\testumgebung\\views\\plugin_feedbacks/feedback.load'"
p4831
sg6
S'\'response.write(\\\'<div id="plugin_feedbacks_contai...\\\\r\\\\n\\\\t\\\\r\\\\n</script>\\\\r\\\\n\\\\r\\\\n</div>\\\', escape=False)\''
p4832
sssS'traceback'
p4833
S'Traceback (most recent call last):\n  File "gluon/restricted.py", line 208, in restricted\n  File "gluon/restricted.py", line 193, in compile2\n  File "C:\\xampp\\htdocs\\web2py\\applications\\testumgebung\\views\\plugin_feedbacks/feedback.load", line 4\n    response.write(session.plugin_feedbacks["sentFeedback)\n                                                         ^\nSyntaxError: EOL while scanning string literal\n'
p4834
s.