(dp1
S'output'
p2
S"<type 'exceptions.ImportError'> Cannot import module 'mainfeedbackform'"
p3
sS'layer'
p4
S'C:\\xampp\\htdocs\\web2py\\applications\\testumgebung\\controllers/default.py'
p5
sS'code'
p6
S'# -*- coding: utf-8 -*-\n# this file is released under public domain and you can use without limitations\nfrom plugin_kibit_widgets import LikertWidget\nfrom plugin_kibit_widgets import SmileyWidget\nfrom plugin_rating_widget import RatingWidget\nimport mainfeedbackform\n\ndb.answers.scale.widget = LikertWidget()\ndb.answers_smiley.scale.widget = SmileyWidget()\ndb.answers_stars.rating.widget = RatingWidget()\n#########################################################################\n## This is a samples controller\n## - index is the default action of any application\n## - user is required for authentication and authorization\n## - download is for downloading files uploaded in the db (does streaming)\n## - call exposes all registered services (none by default)\n#########################################################################\n\ndef index():\n    """\n    """\n\n\n    form = SQLFORM(db.answers)\n    \n    form2 = SQLFORM(db.answers_smiley)\n    \n    form3 = SQLFORM(db.answers_smiley)\n    \n    form4 = SQLFORM(db.answers_stars)\n    \n    stars_results = db(db.answers_stars.id > 0).select()\n    \n    mainfeedbackObject = mainfeedbackform.Mainfeedback(db, **mainfeedbackform_translations)\n    mf_form = mainfeedbackObject.form(formstyle=\'divs\')\n\n\n    return dict(message=T(\'Hello World\'), form=form, form2=form2, form3=form3, form4=form4, stars_results=stars_results, mf_form=mf_form)\n\ndef user():\n    """\n    exposes:\n    http://..../[app]/default/user/login\n    http://..../[app]/default/user/logout\n    http://..../[app]/default/user/register\n    http://..../[app]/default/user/profile\n    http://..../[app]/default/user/retrieve_password\n    http://..../[app]/default/user/change_password\n    use @auth.requires_login()\n        @auth.requires_membership(\'group name\')\n        @auth.requires_permission(\'read\',\'table name\',record_id)\n    to decorate functions that need access control\n    """\n    return dict(form=auth())\n\n\ndef download():\n    """\n    allows downloading of uploaded files\n    http://..../[app]/default/download/[filename]\n    """\n    return response.download(request,db)\n\n\ndef call():\n    """\n    exposes services. for example:\n    http://..../[app]/default/call/jsonrpc\n    decorate with @services.jsonrpc the functions to expose\n    supports xml, json, xmlrpc, jsonrpc, amfrpc, rss, csv\n    """\n    return service()\n\n\n@auth.requires_signature()\ndef data():\n    """\n    http://..../[app]/default/data/tables\n    http://..../[app]/default/data/create/[table]\n    http://..../[app]/default/data/read/[table]/[id]\n    http://..../[app]/default/data/update/[table]/[id]\n    http://..../[app]/default/data/delete/[table]/[id]\n    http://..../[app]/default/data/select/[table]\n    http://..../[app]/default/data/search/[table]\n    but URLs must be signed, i.e. linked with\n      A(\'table\',_href=URL(\'data/tables\',user_signature=True))\n    or with the signed load operator\n      LOAD(\'default\',\'data.load\',args=\'tables\',ajax=True,user_signature=True)\n    """\n    return dict(form=crud())\n\nresponse._vars=response._caller(index)\n'
p7
sS'snapshot'
p8
(dp9
S'exception'
p10
(dp11
S'__hash__'
p12
S"<method-wrapper '__hash__' of exceptions.ImportError object>"
p13
sS'__setattr__'
p14
S"<method-wrapper '__setattr__' of exceptions.ImportError object>"
p15
sS'__reduce_ex__'
p16
S'<built-in method __reduce_ex__ of exceptions.ImportError object>'
p17
sS'__getslice__'
p18
S"<method-wrapper '__getslice__' of exceptions.ImportError object>"
p19
sS'__getitem__'
p20
S"<method-wrapper '__getitem__' of exceptions.ImportError object>"
p21
sS'__setstate__'
p22
S'<built-in method __setstate__ of exceptions.ImportError object>'
p23
sS'__reduce__'
p24
S'<built-in method __reduce__ of exceptions.ImportError object>'
p25
sS'__str__'
p26
S"<method-wrapper '__str__' of exceptions.ImportError object>"
p27
sS'__format__'
p28
S'<built-in method __format__ of exceptions.ImportError object>'
p29
sS'__getattribute__'
p30
S"<method-wrapper '__getattribute__' of exceptions.ImportError object>"
p31
sS'__class__'
p32
S"<type 'exceptions.ImportError'>"
p33
sS'__unicode__'
p34
S'<built-in method __unicode__ of exceptions.ImportError object>'
p35
sS'__delattr__'
p36
S"<method-wrapper '__delattr__' of exceptions.ImportError object>"
p37
sS'__subclasshook__'
p38
S'<built-in method __subclasshook__ of type object>'
p39
sS'__repr__'
p40
S"<method-wrapper '__repr__' of exceptions.ImportError object>"
p41
sS'args'
p42
S'("Cannot import module \'mainfeedbackform\'",)'
p43
sS'__dict__'
p44
S'{}'
p45
sS'__sizeof__'
p46
S'<built-in method __sizeof__ of exceptions.ImportError object>'
p47
sS'__doc__'
p48
S'"Import can\'t find module, or can\'t find name in module."'
p49
sS'__init__'
p50
S"<method-wrapper '__init__' of exceptions.ImportError object>"
p51
sS'__new__'
p52
S'<built-in method __new__ of type object>'
p53
ssS'evalue'
p54
S"Cannot import module 'mainfeedbackform'"
p55
sS'request'
p56
ccopy_reg
_reconstructor
p57
(cgluon.html
BEAUTIFY
p58
c__builtin__
object
p59
NtRp60
(dp61
S'attributes'
p62
(dp63
sS'components'
p64
(lp65
g57
(cgluon.html
TABLE
p66
g59
NtRp67
(dp68
g62
(dp69
S'level'
p70
I5
ssS'parent'
p71
Nsg64
(lp72
g57
(cgluon.html
TR
p73
g59
NtRp74
(dp75
g62
(dp76
sg71
g67
sg64
(lp77
g57
(cgluon.html
TD
p78
g59
NtRp79
(dp80
g62
(dp81
S'_style'
p82
S'font-weight:bold;vertical-align:top'
p83
ssg71
g74
sg64
(lp84
S'ajax'
p85
asbag57
(g78
g59
NtRp86
(dp87
g62
(dp88
S'_valign'
p89
S'top'
p90
ssg71
g74
sg64
(lp91
S':'
asbag57
(g78
g59
NtRp92
(dp93
g62
(dp94
sg71
g74
sg64
(lp95
g57
(g58
g59
NtRp96
(dp97
g62
(dp98
g70
I5
ssg71
g92
sg64
(lp99
S'False'
p100
asbasbasbag57
(g73
g59
NtRp101
(dp102
g62
(dp103
sg71
g67
sg64
(lp104
g57
(g78
g59
NtRp105
(dp106
g62
(dp107
g82
g83
ssg71
g101
sg64
(lp108
S'application'
p109
asbag57
(g78
g59
NtRp110
(dp111
g62
(dp112
g89
g90
ssg71
g101
sg64
(lp113
S':'
asbag57
(g78
g59
NtRp114
(dp115
g62
(dp116
sg71
g101
sg64
(lp117
g57
(g58
g59
NtRp118
(dp119
g62
(dp120
g70
I5
ssg71
g114
sg64
(lp121
S'testumgebung'
p122
asbasbasbag57
(g73
g59
NtRp123
(dp124
g62
(dp125
sg71
g67
sg64
(lp126
g57
(g78
g59
NtRp127
(dp128
g62
(dp129
g82
g83
ssg71
g123
sg64
(lp130
g42
asbag57
(g78
g59
NtRp131
(dp132
g62
(dp133
g89
g90
ssg71
g123
sg64
(lp134
S':'
asbag57
(g78
g59
NtRp135
(dp136
g62
(dp137
sg71
g123
sg64
(lp138
g57
(g58
g59
NtRp139
(dp140
g62
(dp141
g70
I5
ssg71
g135
sg64
(lp142
g57
(g66
g59
NtRp143
(dp144
g62
(dp145
g70
I4
ssg71
Nsg64
(lp146
sbasbasbasbag57
(g73
g59
NtRp147
(dp148
g62
(dp149
sg71
g67
sg64
(lp150
g57
(g78
g59
NtRp151
(dp152
g62
(dp153
g82
g83
ssg71
g147
sg64
(lp154
S'body'
p155
asbag57
(g78
g59
NtRp156
(dp157
g62
(dp158
g89
g90
ssg71
g147
sg64
(lp159
S':'
asbag57
(g78
g59
NtRp160
(dp161
g62
(dp162
sg71
g147
sg64
(lp163
g57
(g58
g59
NtRp164
(dp165
g62
(dp166
g70
I5
ssg71
g160
sg64
(lp167
S'<cStringIO.StringO object at 0x034D5EA0>'
p168
asbasbasbag57
(g73
g59
NtRp169
(dp170
g62
(dp171
sg71
g67
sg64
(lp172
g57
(g78
g59
NtRp173
(dp174
g62
(dp175
g82
g83
ssg71
g169
sg64
(lp176
S'cid'
p177
asbag57
(g78
g59
NtRp178
(dp179
g62
(dp180
g89
g90
ssg71
g169
sg64
(lp181
S':'
asbag57
(g78
g59
NtRp182
(dp183
g62
(dp184
sg71
g169
sg64
(lp185
g57
(g58
g59
NtRp186
(dp187
g62
(dp188
g70
I5
ssg71
g182
sg64
(lp189
S'None'
p190
asbasbasbag57
(g73
g59
NtRp191
(dp192
g62
(dp193
sg71
g67
sg64
(lp194
g57
(g78
g59
NtRp195
(dp196
g62
(dp197
g82
g83
ssg71
g191
sg64
(lp198
S'client'
p199
asbag57
(g78
g59
NtRp200
(dp201
g62
(dp202
g89
g90
ssg71
g191
sg64
(lp203
S':'
asbag57
(g78
g59
NtRp204
(dp205
g62
(dp206
sg71
g191
sg64
(lp207
g57
(g58
g59
NtRp208
(dp209
g62
(dp210
g70
I5
ssg71
g204
sg64
(lp211
S'127.0.0.1'
p212
asbasbasbag57
(g73
g59
NtRp213
(dp214
g62
(dp215
sg71
g67
sg64
(lp216
g57
(g78
g59
NtRp217
(dp218
g62
(dp219
g82
g83
ssg71
g213
sg64
(lp220
S'controller'
p221
asbag57
(g78
g59
NtRp222
(dp223
g62
(dp224
g89
g90
ssg71
g213
sg64
(lp225
S':'
asbag57
(g78
g59
NtRp226
(dp227
g62
(dp228
sg71
g213
sg64
(lp229
g57
(g58
g59
NtRp230
(dp231
g62
(dp232
g70
I5
ssg71
g226
sg64
(lp233
S'default'
p234
asbasbasbag57
(g73
g59
NtRp235
(dp236
g62
(dp237
sg71
g67
sg64
(lp238
g57
(g78
g59
NtRp239
(dp240
g62
(dp241
g82
g83
ssg71
g235
sg64
(lp242
S'cookies'
p243
asbag57
(g78
g59
NtRp244
(dp245
g62
(dp246
g89
g90
ssg71
g235
sg64
(lp247
S':'
asbag57
(g78
g59
NtRp248
(dp249
g62
(dp250
sg71
g235
sg64
(lp251
g57
(g58
g59
NtRp252
(dp253
g62
(dp254
g70
I5
ssg71
g248
sg64
(lp255
g57
(g66
g59
NtRp256
(dp257
g62
(dp258
g70
I4
ssg71
Nsg64
(lp259
g57
(g73
g59
NtRp260
(dp261
g62
(dp262
sg71
g256
sg64
(lp263
g57
(g78
g59
NtRp264
(dp265
g62
(dp266
g82
g83
ssg71
g260
sg64
(lp267
S'session_id_welcome'
p268
asbag57
(g78
g59
NtRp269
(dp270
g62
(dp271
g89
g90
ssg71
g260
sg64
(lp272
S':'
asbag57
(g78
g59
NtRp273
(dp274
g62
(dp275
sg71
g260
sg64
(lp276
g57
(g58
g59
NtRp277
(dp278
g62
(dp279
g70
I4
ssg71
g273
sg64
(lp280
S'127.0.0.1-81b956c1-9cdc-482f-87d2-4551e733c8e3'
p281
ag57
(g66
g59
NtRp282
(dp283
g62
(dp284
g70
I3
ssg71
Nsg64
(lp285
g57
(g73
g59
NtRp286
(dp287
g62
(dp288
sg71
g282
sg64
(lp289
g57
(g78
g59
NtRp290
(dp291
g62
(dp292
g82
g83
ssg71
g286
sg64
(lp293
S'comment'
p294
asbag57
(g78
g59
NtRp295
(dp296
g62
(dp297
g89
g90
ssg71
g286
sg64
(lp298
S':'
asbag57
(g78
g59
NtRp299
(dp300
g62
(dp301
sg71
g286
sg64
(lp302
g57
(g58
g59
NtRp303
(dp304
g62
(dp305
g70
I3
ssg71
g299
sg64
(lp306
S''
asbasbasbag57
(g73
g59
NtRp307
(dp308
g62
(dp309
sg71
g282
sg64
(lp310
g57
(g78
g59
NtRp311
(dp312
g62
(dp313
g82
g83
ssg71
g307
sg64
(lp314
S'domain'
p315
asbag57
(g78
g59
NtRp316
(dp317
g62
(dp318
g89
g90
ssg71
g307
sg64
(lp319
S':'
asbag57
(g78
g59
NtRp320
(dp321
g62
(dp322
sg71
g307
sg64
(lp323
g57
(g58
g59
NtRp324
(dp325
g62
(dp326
g70
I3
ssg71
g320
sg64
(lp327
S''
asbasbasbag57
(g73
g59
NtRp328
(dp329
g62
(dp330
sg71
g282
sg64
(lp331
g57
(g78
g59
NtRp332
(dp333
g62
(dp334
g82
g83
ssg71
g328
sg64
(lp335
S'expires'
p336
asbag57
(g78
g59
NtRp337
(dp338
g62
(dp339
g89
g90
ssg71
g328
sg64
(lp340
S':'
asbag57
(g78
g59
NtRp341
(dp342
g62
(dp343
sg71
g328
sg64
(lp344
g57
(g58
g59
NtRp345
(dp346
g62
(dp347
g70
I3
ssg71
g341
sg64
(lp348
S''
asbasbasbag57
(g73
g59
NtRp349
(dp350
g62
(dp351
sg71
g282
sg64
(lp352
g57
(g78
g59
NtRp353
(dp354
g62
(dp355
g82
g83
ssg71
g349
sg64
(lp356
S'httponly'
p357
asbag57
(g78
g59
NtRp358
(dp359
g62
(dp360
g89
g90
ssg71
g349
sg64
(lp361
S':'
asbag57
(g78
g59
NtRp362
(dp363
g62
(dp364
sg71
g349
sg64
(lp365
g57
(g58
g59
NtRp366
(dp367
g62
(dp368
g70
I3
ssg71
g362
sg64
(lp369
S''
asbasbasbag57
(g73
g59
NtRp370
(dp371
g62
(dp372
sg71
g282
sg64
(lp373
g57
(g78
g59
NtRp374
(dp375
g62
(dp376
g82
g83
ssg71
g370
sg64
(lp377
S'max-age'
p378
asbag57
(g78
g59
NtRp379
(dp380
g62
(dp381
g89
g90
ssg71
g370
sg64
(lp382
S':'
asbag57
(g78
g59
NtRp383
(dp384
g62
(dp385
sg71
g370
sg64
(lp386
g57
(g58
g59
NtRp387
(dp388
g62
(dp389
g70
I3
ssg71
g383
sg64
(lp390
S''
asbasbasbag57
(g73
g59
NtRp391
(dp392
g62
(dp393
sg71
g282
sg64
(lp394
g57
(g78
g59
NtRp395
(dp396
g62
(dp397
g82
g83
ssg71
g391
sg64
(lp398
S'path'
p399
asbag57
(g78
g59
NtRp400
(dp401
g62
(dp402
g89
g90
ssg71
g391
sg64
(lp403
S':'
asbag57
(g78
g59
NtRp404
(dp405
g62
(dp406
sg71
g391
sg64
(lp407
g57
(g58
g59
NtRp408
(dp409
g62
(dp410
g70
I3
ssg71
g404
sg64
(lp411
S''
asbasbasbag57
(g73
g59
NtRp412
(dp413
g62
(dp414
sg71
g282
sg64
(lp415
g57
(g78
g59
NtRp416
(dp417
g62
(dp418
g82
g83
ssg71
g412
sg64
(lp419
S'secure'
p420
asbag57
(g78
g59
NtRp421
(dp422
g62
(dp423
g89
g90
ssg71
g412
sg64
(lp424
S':'
asbag57
(g78
g59
NtRp425
(dp426
g62
(dp427
sg71
g412
sg64
(lp428
g57
(g58
g59
NtRp429
(dp430
g62
(dp431
g70
I3
ssg71
g425
sg64
(lp432
S''
asbasbasbag57
(g73
g59
NtRp433
(dp434
g62
(dp435
sg71
g282
sg64
(lp436
g57
(g78
g59
NtRp437
(dp438
g62
(dp439
g82
g83
ssg71
g433
sg64
(lp440
S'version'
p441
asbag57
(g78
g59
NtRp442
(dp443
g62
(dp444
g89
g90
ssg71
g433
sg64
(lp445
S':'
asbag57
(g78
g59
NtRp446
(dp447
g62
(dp448
sg71
g433
sg64
(lp449
g57
(g58
g59
NtRp450
(dp451
g62
(dp452
g70
I3
ssg71
g446
sg64
(lp453
S''
asbasbasbasbasbasbasbasbasbasbasbag57
(g73
g59
NtRp454
(dp455
g62
(dp456
sg71
g67
sg64
(lp457
g57
(g78
g59
NtRp458
(dp459
g62
(dp460
g82
g83
ssg71
g454
sg64
(lp461
S'env'
p462
asbag57
(g78
g59
NtRp463
(dp464
g62
(dp465
g89
g90
ssg71
g454
sg64
(lp466
S':'
asbag57
(g78
g59
NtRp467
(dp468
g62
(dp469
sg71
g454
sg64
(lp470
g57
(g58
g59
NtRp471
(dp472
g62
(dp473
g70
I5
ssg71
g467
sg64
(lp474
g57
(g66
g59
NtRp475
(dp476
g62
(dp477
g70
I4
ssg71
Nsg64
(lp478
g57
(g73
g59
NtRp479
(dp480
g62
(dp481
sg71
g475
sg64
(lp482
g57
(g78
g59
NtRp483
(dp484
g62
(dp485
g82
g83
ssg71
g479
sg64
(lp486
S'app_folders'
p487
asbag57
(g78
g59
NtRp488
(dp489
g62
(dp490
g89
g90
ssg71
g479
sg64
(lp491
S':'
asbag57
(g78
g59
NtRp492
(dp493
g62
(dp494
sg71
g479
sg64
(lp495
g57
(g58
g59
NtRp496
(dp497
g62
(dp498
g70
I4
ssg71
g492
sg64
(lp499
S"set(['C:\\\\xampp\\\\htdocs\\\\web2py\\\\applications\\\\welcome\\\\', 'C:\\\\xampp\\\\htdocs\\\\web2py\\\\applications\\\\testumgebung\\\\'])"
p500
asbasbasbag57
(g73
g59
NtRp501
(dp502
g62
(dp503
sg71
g475
sg64
(lp504
g57
(g78
g59
NtRp505
(dp506
g62
(dp507
g82
g83
ssg71
g501
sg64
(lp508
S'applications_parent'
p509
asbag57
(g78
g59
NtRp510
(dp511
g62
(dp512
g89
g90
ssg71
g501
sg64
(lp513
S':'
asbag57
(g78
g59
NtRp514
(dp515
g62
(dp516
sg71
g501
sg64
(lp517
g57
(g58
g59
NtRp518
(dp519
g62
(dp520
g70
I4
ssg71
g514
sg64
(lp521
S'C:\\xampp\\htdocs\\web2py'
p522
asbasbasbag57
(g73
g59
NtRp523
(dp524
g62
(dp525
sg71
g475
sg64
(lp526
g57
(g78
g59
NtRp527
(dp528
g62
(dp529
g82
g83
ssg71
g523
sg64
(lp530
S'cmd_args'
p531
asbag57
(g78
g59
NtRp532
(dp533
g62
(dp534
g89
g90
ssg71
g523
sg64
(lp535
S':'
asbag57
(g78
g59
NtRp536
(dp537
g62
(dp538
sg71
g523
sg64
(lp539
g57
(g58
g59
NtRp540
(dp541
g62
(dp542
g70
I4
ssg71
g536
sg64
(lp543
g57
(g66
g59
NtRp544
(dp545
g62
(dp546
g70
I3
ssg71
Nsg64
(lp547
sbasbasbasbag57
(g73
g59
NtRp548
(dp549
g62
(dp550
sg71
g475
sg64
(lp551
g57
(g78
g59
NtRp552
(dp553
g62
(dp554
g82
g83
ssg71
g548
sg64
(lp555
S'cmd_options'
p556
asbag57
(g78
g59
NtRp557
(dp558
g62
(dp559
g89
g90
ssg71
g548
sg64
(lp560
S':'
asbag57
(g78
g59
NtRp561
(dp562
g62
(dp563
sg71
g548
sg64
(lp564
g57
(g58
g59
NtRp565
(dp566
g62
(dp567
g70
I4
ssg71
g561
sg64
(lp568
S"<Values at 0x31dee18: {'verbose': False, 'ip': '127.0.0.1', 'with_scheduler': False, 'ips': ['10.0.0.109', '192.168.189.1', '192.168.91.1'], 'shutdown_timeout': 5, 'taskbar': False, 'port': 8000, 'maxthreads': None, 'softcron': False, 'server_name': 'swLaptop', 'bpython': False, 'nogui': False, 'nocron': False, 'extcron': False, 'run_system_tests': False, 'test': None, 'folder': 'C:\\\\xampp\\\\htdocs\\\\web2py', 'config': '', 'import_models': False, 'winservice': '', 'shell': None, 'run': '', 'log_filename': 'httpserver.log', 'debuglevel': 30, 'args': [''], 'socket_timeout': 5, 'ssl_ca_certificate': None, 'scheduler': None, 'profiler_filename': None, 'ssl_private_key': '', 'scheduler_groups': None, 'password': '<ask>', 'request_queue_size': 5, 'ssl_certificate': '', 'cronjob': False, 'numthreads': None, 'quiet': False, 'interfaces': None, 'minthreads': None, 'timeout': 10, 'plain': False, 'nobanner': False, 'pid_filename': 'httpserver.pid'}>"
p569
asbasbasbag57
(g73
g59
NtRp570
(dp571
g62
(dp572
sg71
g475
sg64
(lp573
g57
(g78
g59
NtRp574
(dp575
g62
(dp576
g82
g83
ssg71
g570
sg64
(lp577
S'db_sessions'
p578
asbag57
(g78
g59
NtRp579
(dp580
g62
(dp581
g89
g90
ssg71
g570
sg64
(lp582
S':'
asbag57
(g78
g59
NtRp583
(dp584
g62
(dp585
sg71
g570
sg64
(lp586
g57
(g58
g59
NtRp587
(dp588
g62
(dp589
g70
I4
ssg71
g583
sg64
(lp590
S'set([])'
p591
asbasbasbag57
(g73
g59
NtRp592
(dp593
g62
(dp594
sg71
g475
sg64
(lp595
g57
(g78
g59
NtRp596
(dp597
g62
(dp598
g82
g83
ssg71
g592
sg64
(lp599
S'debugging'
p600
asbag57
(g78
g59
NtRp601
(dp602
g62
(dp603
g89
g90
ssg71
g592
sg64
(lp604
S':'
asbag57
(g78
g59
NtRp605
(dp606
g62
(dp607
sg71
g592
sg64
(lp608
g57
(g58
g59
NtRp609
(dp610
g62
(dp611
g70
I4
ssg71
g605
sg64
(lp612
g100
asbasbasbag57
(g73
g59
NtRp613
(dp614
g62
(dp615
sg71
g475
sg64
(lp616
g57
(g78
g59
NtRp617
(dp618
g62
(dp619
g82
g83
ssg71
g613
sg64
(lp620
S'gluon_parent'
p621
asbag57
(g78
g59
NtRp622
(dp623
g62
(dp624
g89
g90
ssg71
g613
sg64
(lp625
S':'
asbag57
(g78
g59
NtRp626
(dp627
g62
(dp628
sg71
g613
sg64
(lp629
g57
(g58
g59
NtRp630
(dp631
g62
(dp632
g70
I4
ssg71
g626
sg64
(lp633
S'C:\\xampp\\htdocs\\web2py'
p634
asbasbasbag57
(g73
g59
NtRp635
(dp636
g62
(dp637
sg71
g475
sg64
(lp638
g57
(g78
g59
NtRp639
(dp640
g62
(dp641
g82
g83
ssg71
g635
sg64
(lp642
S'http_accept'
p643
asbag57
(g78
g59
NtRp644
(dp645
g62
(dp646
g89
g90
ssg71
g635
sg64
(lp647
S':'
asbag57
(g78
g59
NtRp648
(dp649
g62
(dp650
sg71
g635
sg64
(lp651
g57
(g58
g59
NtRp652
(dp653
g62
(dp654
g70
I4
ssg71
g648
sg64
(lp655
S'text/html,application/xhtml+xml,application/xml;q=0.9,*/*;q=0.8'
p656
asbasbasbag57
(g73
g59
NtRp657
(dp658
g62
(dp659
sg71
g475
sg64
(lp660
g57
(g78
g59
NtRp661
(dp662
g62
(dp663
g82
g83
ssg71
g657
sg64
(lp664
S'http_accept_encoding'
p665
asbag57
(g78
g59
NtRp666
(dp667
g62
(dp668
g89
g90
ssg71
g657
sg64
(lp669
S':'
asbag57
(g78
g59
NtRp670
(dp671
g62
(dp672
sg71
g657
sg64
(lp673
g57
(g58
g59
NtRp674
(dp675
g62
(dp676
g70
I4
ssg71
g670
sg64
(lp677
S'gzip, deflate'
p678
asbasbasbag57
(g73
g59
NtRp679
(dp680
g62
(dp681
sg71
g475
sg64
(lp682
g57
(g78
g59
NtRp683
(dp684
g62
(dp685
g82
g83
ssg71
g679
sg64
(lp686
S'http_accept_language'
p687
asbag57
(g78
g59
NtRp688
(dp689
g62
(dp690
g89
g90
ssg71
g679
sg64
(lp691
S':'
asbag57
(g78
g59
NtRp692
(dp693
g62
(dp694
sg71
g679
sg64
(lp695
g57
(g58
g59
NtRp696
(dp697
g62
(dp698
g70
I4
ssg71
g692
sg64
(lp699
S'de-de,de;q=0.8,en-us;q=0.5,en;q=0.3'
p700
asbasbasbag57
(g73
g59
NtRp701
(dp702
g62
(dp703
sg71
g475
sg64
(lp704
g57
(g78
g59
NtRp705
(dp706
g62
(dp707
g82
g83
ssg71
g701
sg64
(lp708
S'http_connection'
p709
asbag57
(g78
g59
NtRp710
(dp711
g62
(dp712
g89
g90
ssg71
g701
sg64
(lp713
S':'
asbag57
(g78
g59
NtRp714
(dp715
g62
(dp716
sg71
g701
sg64
(lp717
g57
(g58
g59
NtRp718
(dp719
g62
(dp720
g70
I4
ssg71
g714
sg64
(lp721
S'keep-alive'
p722
asbasbasbag57
(g73
g59
NtRp723
(dp724
g62
(dp725
sg71
g475
sg64
(lp726
g57
(g78
g59
NtRp727
(dp728
g62
(dp729
g82
g83
ssg71
g723
sg64
(lp730
S'http_cookie'
p731
asbag57
(g78
g59
NtRp732
(dp733
g62
(dp734
g89
g90
ssg71
g723
sg64
(lp735
S':'
asbag57
(g78
g59
NtRp736
(dp737
g62
(dp738
sg71
g723
sg64
(lp739
g57
(g58
g59
NtRp740
(dp741
g62
(dp742
g70
I4
ssg71
g736
sg64
(lp743
S'session_id_welcome=127.0.0.1-81b956c1-9cdc-482f-87d2-4551e733c8e3'
p744
asbasbasbag57
(g73
g59
NtRp745
(dp746
g62
(dp747
sg71
g475
sg64
(lp748
g57
(g78
g59
NtRp749
(dp750
g62
(dp751
g82
g83
ssg71
g745
sg64
(lp752
S'http_dnt'
p753
asbag57
(g78
g59
NtRp754
(dp755
g62
(dp756
g89
g90
ssg71
g745
sg64
(lp757
S':'
asbag57
(g78
g59
NtRp758
(dp759
g62
(dp760
sg71
g745
sg64
(lp761
g57
(g58
g59
NtRp762
(dp763
g62
(dp764
g70
I4
ssg71
g758
sg64
(lp765
S'1'
asbasbasbag57
(g73
g59
NtRp766
(dp767
g62
(dp768
sg71
g475
sg64
(lp769
g57
(g78
g59
NtRp770
(dp771
g62
(dp772
g82
g83
ssg71
g766
sg64
(lp773
S'http_host'
p774
asbag57
(g78
g59
NtRp775
(dp776
g62
(dp777
g89
g90
ssg71
g766
sg64
(lp778
S':'
asbag57
(g78
g59
NtRp779
(dp780
g62
(dp781
sg71
g766
sg64
(lp782
g57
(g58
g59
NtRp783
(dp784
g62
(dp785
g70
I4
ssg71
g779
sg64
(lp786
S'127.0.0.1:8000'
p787
asbasbasbag57
(g73
g59
NtRp788
(dp789
g62
(dp790
sg71
g475
sg64
(lp791
g57
(g78
g59
NtRp792
(dp793
g62
(dp794
g82
g83
ssg71
g788
sg64
(lp795
S'http_user_agent'
p796
asbag57
(g78
g59
NtRp797
(dp798
g62
(dp799
g89
g90
ssg71
g788
sg64
(lp800
S':'
asbag57
(g78
g59
NtRp801
(dp802
g62
(dp803
sg71
g788
sg64
(lp804
g57
(g58
g59
NtRp805
(dp806
g62
(dp807
g70
I4
ssg71
g801
sg64
(lp808
S'Mozilla/5.0 (Windows NT 6.1; WOW64; rv:17.0) Gecko/20100101 Firefox/17.0'
p809
asbasbasbag57
(g73
g59
NtRp810
(dp811
g62
(dp812
sg71
g475
sg64
(lp813
g57
(g78
g59
NtRp814
(dp815
g62
(dp816
g82
g83
ssg71
g810
sg64
(lp817
S'http_x_clickoncesupport'
p818
asbag57
(g78
g59
NtRp819
(dp820
g62
(dp821
g89
g90
ssg71
g810
sg64
(lp822
S':'
asbag57
(g78
g59
NtRp823
(dp824
g62
(dp825
sg71
g810
sg64
(lp826
g57
(g58
g59
NtRp827
(dp828
g62
(dp829
g70
I4
ssg71
g823
sg64
(lp830
S'(.NET CLR 2.0.50727; .NET CLR 3.5.30729; .NET CLR 3.0.30729; .NET4.0C; .NET4.0E)'
p831
asbasbasbag57
(g73
g59
NtRp832
(dp833
g62
(dp834
sg71
g475
sg64
(lp835
g57
(g78
g59
NtRp836
(dp837
g62
(dp838
g82
g83
ssg71
g832
sg64
(lp839
S'is_jython'
p840
asbag57
(g78
g59
NtRp841
(dp842
g62
(dp843
g89
g90
ssg71
g832
sg64
(lp844
S':'
asbag57
(g78
g59
NtRp845
(dp846
g62
(dp847
sg71
g832
sg64
(lp848
g57
(g58
g59
NtRp849
(dp850
g62
(dp851
g70
I4
ssg71
g845
sg64
(lp852
g100
asbasbasbag57
(g73
g59
NtRp853
(dp854
g62
(dp855
sg71
g475
sg64
(lp856
g57
(g78
g59
NtRp857
(dp858
g62
(dp859
g82
g83
ssg71
g853
sg64
(lp860
S'is_pypy'
p861
asbag57
(g78
g59
NtRp862
(dp863
g62
(dp864
g89
g90
ssg71
g853
sg64
(lp865
S':'
asbag57
(g78
g59
NtRp866
(dp867
g62
(dp868
sg71
g853
sg64
(lp869
g57
(g58
g59
NtRp870
(dp871
g62
(dp872
g70
I4
ssg71
g866
sg64
(lp873
g100
asbasbasbag57
(g73
g59
NtRp874
(dp875
g62
(dp876
sg71
g475
sg64
(lp877
g57
(g78
g59
NtRp878
(dp879
g62
(dp880
g82
g83
ssg71
g874
sg64
(lp881
S'path_info'
p882
asbag57
(g78
g59
NtRp883
(dp884
g62
(dp885
g89
g90
ssg71
g874
sg64
(lp886
S':'
asbag57
(g78
g59
NtRp887
(dp888
g62
(dp889
sg71
g874
sg64
(lp890
g57
(g58
g59
NtRp891
(dp892
g62
(dp893
g70
I4
ssg71
g887
sg64
(lp894
S'/testumgebung'
p895
asbasbasbag57
(g73
g59
NtRp896
(dp897
g62
(dp898
sg71
g475
sg64
(lp899
g57
(g78
g59
NtRp900
(dp901
g62
(dp902
g82
g83
ssg71
g896
sg64
(lp903
S'query_string'
p904
asbag57
(g78
g59
NtRp905
(dp906
g62
(dp907
g89
g90
ssg71
g896
sg64
(lp908
S':'
asbag57
(g78
g59
NtRp909
(dp910
g62
(dp911
sg71
g896
sg64
(lp912
g57
(g58
g59
NtRp913
(dp914
g62
(dp915
g70
I4
ssg71
g909
sg64
(lp916
S''
asbasbasbag57
(g73
g59
NtRp917
(dp918
g62
(dp919
sg71
g475
sg64
(lp920
g57
(g78
g59
NtRp921
(dp922
g62
(dp923
g82
g83
ssg71
g917
sg64
(lp924
S'remote_addr'
p925
asbag57
(g78
g59
NtRp926
(dp927
g62
(dp928
g89
g90
ssg71
g917
sg64
(lp929
S':'
asbag57
(g78
g59
NtRp930
(dp931
g62
(dp932
sg71
g917
sg64
(lp933
g57
(g58
g59
NtRp934
(dp935
g62
(dp936
g70
I4
ssg71
g930
sg64
(lp937
g212
asbasbasbag57
(g73
g59
NtRp938
(dp939
g62
(dp940
sg71
g475
sg64
(lp941
g57
(g78
g59
NtRp942
(dp943
g62
(dp944
g82
g83
ssg71
g938
sg64
(lp945
S'remote_port'
p946
asbag57
(g78
g59
NtRp947
(dp948
g62
(dp949
g89
g90
ssg71
g938
sg64
(lp950
S':'
asbag57
(g78
g59
NtRp951
(dp952
g62
(dp953
sg71
g938
sg64
(lp954
g57
(g58
g59
NtRp955
(dp956
g62
(dp957
g70
I4
ssg71
g951
sg64
(lp958
S'51289'
p959
asbasbasbag57
(g73
g59
NtRp960
(dp961
g62
(dp962
sg71
g475
sg64
(lp963
g57
(g78
g59
NtRp964
(dp965
g62
(dp966
g82
g83
ssg71
g960
sg64
(lp967
S'request_method'
p968
asbag57
(g78
g59
NtRp969
(dp970
g62
(dp971
g89
g90
ssg71
g960
sg64
(lp972
S':'
asbag57
(g78
g59
NtRp973
(dp974
g62
(dp975
sg71
g960
sg64
(lp976
g57
(g58
g59
NtRp977
(dp978
g62
(dp979
g70
I4
ssg71
g973
sg64
(lp980
S'GET'
p981
asbasbasbag57
(g73
g59
NtRp982
(dp983
g62
(dp984
sg71
g475
sg64
(lp985
g57
(g78
g59
NtRp986
(dp987
g62
(dp988
g82
g83
ssg71
g982
sg64
(lp989
S'request_uri'
p990
asbag57
(g78
g59
NtRp991
(dp992
g62
(dp993
g89
g90
ssg71
g982
sg64
(lp994
S':'
asbag57
(g78
g59
NtRp995
(dp996
g62
(dp997
sg71
g982
sg64
(lp998
g57
(g58
g59
NtRp999
(dp1000
g62
(dp1001
g70
I4
ssg71
g995
sg64
(lp1002
g895
asbasbasbag57
(g73
g59
NtRp1003
(dp1004
g62
(dp1005
sg71
g475
sg64
(lp1006
g57
(g78
g59
NtRp1007
(dp1008
g62
(dp1009
g82
g83
ssg71
g1003
sg64
(lp1010
S'script_name'
p1011
asbag57
(g78
g59
NtRp1012
(dp1013
g62
(dp1014
g89
g90
ssg71
g1003
sg64
(lp1015
S':'
asbag57
(g78
g59
NtRp1016
(dp1017
g62
(dp1018
sg71
g1003
sg64
(lp1019
g57
(g58
g59
NtRp1020
(dp1021
g62
(dp1022
g70
I4
ssg71
g1016
sg64
(lp1023
S''
asbasbasbag57
(g73
g59
NtRp1024
(dp1025
g62
(dp1026
sg71
g475
sg64
(lp1027
g57
(g78
g59
NtRp1028
(dp1029
g62
(dp1030
g82
g83
ssg71
g1024
sg64
(lp1031
S'server_name'
p1032
asbag57
(g78
g59
NtRp1033
(dp1034
g62
(dp1035
g89
g90
ssg71
g1024
sg64
(lp1036
S':'
asbag57
(g78
g59
NtRp1037
(dp1038
g62
(dp1039
sg71
g1024
sg64
(lp1040
g57
(g58
g59
NtRp1041
(dp1042
g62
(dp1043
g70
I4
ssg71
g1037
sg64
(lp1044
S'swLaptop'
p1045
asbasbasbag57
(g73
g59
NtRp1046
(dp1047
g62
(dp1048
sg71
g475
sg64
(lp1049
g57
(g78
g59
NtRp1050
(dp1051
g62
(dp1052
g82
g83
ssg71
g1046
sg64
(lp1053
S'server_port'
p1054
asbag57
(g78
g59
NtRp1055
(dp1056
g62
(dp1057
g89
g90
ssg71
g1046
sg64
(lp1058
S':'
asbag57
(g78
g59
NtRp1059
(dp1060
g62
(dp1061
sg71
g1046
sg64
(lp1062
g57
(g58
g59
NtRp1063
(dp1064
g62
(dp1065
g70
I4
ssg71
g1059
sg64
(lp1066
S'8000'
p1067
asbasbasbag57
(g73
g59
NtRp1068
(dp1069
g62
(dp1070
sg71
g475
sg64
(lp1071
g57
(g78
g59
NtRp1072
(dp1073
g62
(dp1074
g82
g83
ssg71
g1068
sg64
(lp1075
S'server_protocol'
p1076
asbag57
(g78
g59
NtRp1077
(dp1078
g62
(dp1079
g89
g90
ssg71
g1068
sg64
(lp1080
S':'
asbag57
(g78
g59
NtRp1081
(dp1082
g62
(dp1083
sg71
g1068
sg64
(lp1084
g57
(g58
g59
NtRp1085
(dp1086
g62
(dp1087
g70
I4
ssg71
g1081
sg64
(lp1088
S'HTTP/1.1'
p1089
asbasbasbag57
(g73
g59
NtRp1090
(dp1091
g62
(dp1092
sg71
g475
sg64
(lp1093
g57
(g78
g59
NtRp1094
(dp1095
g62
(dp1096
g82
g83
ssg71
g1090
sg64
(lp1097
S'server_software'
p1098
asbag57
(g78
g59
NtRp1099
(dp1100
g62
(dp1101
g89
g90
ssg71
g1090
sg64
(lp1102
S':'
asbag57
(g78
g59
NtRp1103
(dp1104
g62
(dp1105
sg71
g1090
sg64
(lp1106
g57
(g58
g59
NtRp1107
(dp1108
g62
(dp1109
g70
I4
ssg71
g1103
sg64
(lp1110
S'Rocket 1.2.4'
p1111
asbasbasbag57
(g73
g59
NtRp1112
(dp1113
g62
(dp1114
sg71
g475
sg64
(lp1115
g57
(g78
g59
NtRp1116
(dp1117
g62
(dp1118
g82
g83
ssg71
g1112
sg64
(lp1119
S'web2py_crontype'
p1120
asbag57
(g78
g59
NtRp1121
(dp1122
g62
(dp1123
g89
g90
ssg71
g1112
sg64
(lp1124
S':'
asbag57
(g78
g59
NtRp1125
(dp1126
g62
(dp1127
sg71
g1112
sg64
(lp1128
g57
(g58
g59
NtRp1129
(dp1130
g62
(dp1131
g70
I4
ssg71
g1125
sg64
(lp1132
S'hard'
p1133
asbasbasbag57
(g73
g59
NtRp1134
(dp1135
g62
(dp1136
sg71
g475
sg64
(lp1137
g57
(g78
g59
NtRp1138
(dp1139
g62
(dp1140
g82
g83
ssg71
g1134
sg64
(lp1141
S'web2py_path'
p1142
asbag57
(g78
g59
NtRp1143
(dp1144
g62
(dp1145
g89
g90
ssg71
g1134
sg64
(lp1146
S':'
asbag57
(g78
g59
NtRp1147
(dp1148
g62
(dp1149
sg71
g1134
sg64
(lp1150
g57
(g58
g59
NtRp1151
(dp1152
g62
(dp1153
g70
I4
ssg71
g1147
sg64
(lp1154
g522
asbasbasbag57
(g73
g59
NtRp1155
(dp1156
g62
(dp1157
sg71
g475
sg64
(lp1158
g57
(g78
g59
NtRp1159
(dp1160
g62
(dp1161
g82
g83
ssg71
g1155
sg64
(lp1162
S'web2py_version'
p1163
asbag57
(g78
g59
NtRp1164
(dp1165
g62
(dp1166
g89
g90
ssg71
g1155
sg64
(lp1167
S':'
asbag57
(g78
g59
NtRp1168
(dp1169
g62
(dp1170
sg71
g1155
sg64
(lp1171
g57
(g58
g59
NtRp1172
(dp1173
g62
(dp1174
g70
I4
ssg71
g1168
sg64
(lp1175
g57
(g66
g59
NtRp1176
(dp1177
g62
(dp1178
g70
I3
ssg71
Nsg64
(lp1179
g57
(g73
g59
NtRp1180
(dp1181
g62
(dp1182
sg71
g1176
sg64
(lp1183
g57
(g78
g59
NtRp1184
(dp1185
g62
(dp1186
sg71
g1180
sg64
(lp1187
g57
(g58
g59
NtRp1188
(dp1189
g62
(dp1190
g70
I3
ssg71
g1184
sg64
(lp1191
S'2'
asbasbasbag57
(g73
g59
NtRp1192
(dp1193
g62
(dp1194
sg71
g1176
sg64
(lp1195
g57
(g78
g59
NtRp1196
(dp1197
g62
(dp1198
sg71
g1192
sg64
(lp1199
g57
(g58
g59
NtRp1200
(dp1201
g62
(dp1202
g70
I3
ssg71
g1196
sg64
(lp1203
S'0'
asbasbasbag57
(g73
g59
NtRp1204
(dp1205
g62
(dp1206
sg71
g1176
sg64
(lp1207
g57
(g78
g59
NtRp1208
(dp1209
g62
(dp1210
sg71
g1204
sg64
(lp1211
g57
(g58
g59
NtRp1212
(dp1213
g62
(dp1214
g70
I3
ssg71
g1208
sg64
(lp1215
S'3'
asbasbasbag57
(g73
g59
NtRp1216
(dp1217
g62
(dp1218
sg71
g1176
sg64
(lp1219
g57
(g78
g59
NtRp1220
(dp1221
g62
(dp1222
sg71
g1216
sg64
(lp1223
g57
(g58
g59
NtRp1224
(dp1225
g62
(dp1226
g70
I3
ssg71
g1220
sg64
(lp1227
S'datetime.datetime(2012, 8, 31, 5, 58, 31)'
p1228
asbasbasbag57
(g73
g59
NtRp1229
(dp1230
g62
(dp1231
sg71
g1176
sg64
(lp1232
g57
(g78
g59
NtRp1233
(dp1234
g62
(dp1235
sg71
g1229
sg64
(lp1236
g57
(g58
g59
NtRp1237
(dp1238
g62
(dp1239
g70
I3
ssg71
g1233
sg64
(lp1240
S'stable'
p1241
asbasbasbasbasbasbasbag57
(g73
g59
NtRp1242
(dp1243
g62
(dp1244
sg71
g475
sg64
(lp1245
g57
(g78
g59
NtRp1246
(dp1247
g62
(dp1248
g82
g83
ssg71
g1242
sg64
(lp1249
S'wsgi_errors'
p1250
asbag57
(g78
g59
NtRp1251
(dp1252
g62
(dp1253
g89
g90
ssg71
g1242
sg64
(lp1254
S':'
asbag57
(g78
g59
NtRp1255
(dp1256
g62
(dp1257
sg71
g1242
sg64
(lp1258
g57
(g58
g59
NtRp1259
(dp1260
g62
(dp1261
g70
I4
ssg71
g1255
sg64
(lp1262
S"<open file '<stderr>', mode 'w' at 0x021750D0>"
p1263
asbasbasbag57
(g73
g59
NtRp1264
(dp1265
g62
(dp1266
sg71
g475
sg64
(lp1267
g57
(g78
g59
NtRp1268
(dp1269
g62
(dp1270
g82
g83
ssg71
g1264
sg64
(lp1271
S'wsgi_file_wrapper'
p1272
asbag57
(g78
g59
NtRp1273
(dp1274
g62
(dp1275
g89
g90
ssg71
g1264
sg64
(lp1276
S':'
asbag57
(g78
g59
NtRp1277
(dp1278
g62
(dp1279
sg71
g1264
sg64
(lp1280
g57
(g58
g59
NtRp1281
(dp1282
g62
(dp1283
g70
I4
ssg71
g1277
sg64
(lp1284
S'<class wsgiref.util.FileWrapper at 0x0310D030>'
p1285
asbasbasbag57
(g73
g59
NtRp1286
(dp1287
g62
(dp1288
sg71
g475
sg64
(lp1289
g57
(g78
g59
NtRp1290
(dp1291
g62
(dp1292
g82
g83
ssg71
g1286
sg64
(lp1293
S'wsgi_input'
p1294
asbag57
(g78
g59
NtRp1295
(dp1296
g62
(dp1297
g89
g90
ssg71
g1286
sg64
(lp1298
S':'
asbag57
(g78
g59
NtRp1299
(dp1300
g62
(dp1301
sg71
g1286
sg64
(lp1302
g57
(g58
g59
NtRp1303
(dp1304
g62
(dp1305
g70
I4
ssg71
g1299
sg64
(lp1306
S'<socket._fileobject object at 0x03457CB0>'
p1307
asbasbasbag57
(g73
g59
NtRp1308
(dp1309
g62
(dp1310
sg71
g475
sg64
(lp1311
g57
(g78
g59
NtRp1312
(dp1313
g62
(dp1314
g82
g83
ssg71
g1308
sg64
(lp1315
S'wsgi_multiprocess'
p1316
asbag57
(g78
g59
NtRp1317
(dp1318
g62
(dp1319
g89
g90
ssg71
g1308
sg64
(lp1320
S':'
asbag57
(g78
g59
NtRp1321
(dp1322
g62
(dp1323
sg71
g1308
sg64
(lp1324
g57
(g58
g59
NtRp1325
(dp1326
g62
(dp1327
g70
I4
ssg71
g1321
sg64
(lp1328
g100
asbasbasbag57
(g73
g59
NtRp1329
(dp1330
g62
(dp1331
sg71
g475
sg64
(lp1332
g57
(g78
g59
NtRp1333
(dp1334
g62
(dp1335
g82
g83
ssg71
g1329
sg64
(lp1336
S'wsgi_multithread'
p1337
asbag57
(g78
g59
NtRp1338
(dp1339
g62
(dp1340
g89
g90
ssg71
g1329
sg64
(lp1341
S':'
asbag57
(g78
g59
NtRp1342
(dp1343
g62
(dp1344
sg71
g1329
sg64
(lp1345
g57
(g58
g59
NtRp1346
(dp1347
g62
(dp1348
g70
I4
ssg71
g1342
sg64
(lp1349
S'True'
p1350
asbasbasbag57
(g73
g59
NtRp1351
(dp1352
g62
(dp1353
sg71
g475
sg64
(lp1354
g57
(g78
g59
NtRp1355
(dp1356
g62
(dp1357
g82
g83
ssg71
g1351
sg64
(lp1358
S'wsgi_run_once'
p1359
asbag57
(g78
g59
NtRp1360
(dp1361
g62
(dp1362
g89
g90
ssg71
g1351
sg64
(lp1363
S':'
asbag57
(g78
g59
NtRp1364
(dp1365
g62
(dp1366
sg71
g1351
sg64
(lp1367
g57
(g58
g59
NtRp1368
(dp1369
g62
(dp1370
g70
I4
ssg71
g1364
sg64
(lp1371
g100
asbasbasbag57
(g73
g59
NtRp1372
(dp1373
g62
(dp1374
sg71
g475
sg64
(lp1375
g57
(g78
g59
NtRp1376
(dp1377
g62
(dp1378
g82
g83
ssg71
g1372
sg64
(lp1379
S'wsgi_url_scheme'
p1380
asbag57
(g78
g59
NtRp1381
(dp1382
g62
(dp1383
g89
g90
ssg71
g1372
sg64
(lp1384
S':'
asbag57
(g78
g59
NtRp1385
(dp1386
g62
(dp1387
sg71
g1372
sg64
(lp1388
g57
(g58
g59
NtRp1389
(dp1390
g62
(dp1391
g70
I4
ssg71
g1385
sg64
(lp1392
S'http'
p1393
asbasbasbag57
(g73
g59
NtRp1394
(dp1395
g62
(dp1396
sg71
g475
sg64
(lp1397
g57
(g78
g59
NtRp1398
(dp1399
g62
(dp1400
g82
g83
ssg71
g1394
sg64
(lp1401
S'wsgi_version'
p1402
asbag57
(g78
g59
NtRp1403
(dp1404
g62
(dp1405
g89
g90
ssg71
g1394
sg64
(lp1406
S':'
asbag57
(g78
g59
NtRp1407
(dp1408
g62
(dp1409
sg71
g1394
sg64
(lp1410
g57
(g58
g59
NtRp1411
(dp1412
g62
(dp1413
g70
I4
ssg71
g1407
sg64
(lp1414
g57
(g66
g59
NtRp1415
(dp1416
g62
(dp1417
g70
I3
ssg71
Nsg64
(lp1418
g57
(g73
g59
NtRp1419
(dp1420
g62
(dp1421
sg71
g1415
sg64
(lp1422
g57
(g78
g59
NtRp1423
(dp1424
g62
(dp1425
sg71
g1419
sg64
(lp1426
g57
(g58
g59
NtRp1427
(dp1428
g62
(dp1429
g70
I3
ssg71
g1423
sg64
(lp1430
S'1'
asbasbasbag57
(g73
g59
NtRp1431
(dp1432
g62
(dp1433
sg71
g1415
sg64
(lp1434
g57
(g78
g59
NtRp1435
(dp1436
g62
(dp1437
sg71
g1431
sg64
(lp1438
g57
(g58
g59
NtRp1439
(dp1440
g62
(dp1441
g70
I3
ssg71
g1435
sg64
(lp1442
S'0'
asbasbasbasbasbasbasbasbasbasbasbag57
(g73
g59
NtRp1443
(dp1444
g62
(dp1445
sg71
g67
sg64
(lp1446
g57
(g78
g59
NtRp1447
(dp1448
g62
(dp1449
g82
g83
ssg71
g1443
sg64
(lp1450
S'extension'
p1451
asbag57
(g78
g59
NtRp1452
(dp1453
g62
(dp1454
g89
g90
ssg71
g1443
sg64
(lp1455
S':'
asbag57
(g78
g59
NtRp1456
(dp1457
g62
(dp1458
sg71
g1443
sg64
(lp1459
g57
(g58
g59
NtRp1460
(dp1461
g62
(dp1462
g70
I5
ssg71
g1456
sg64
(lp1463
S'html'
p1464
asbasbasbag57
(g73
g59
NtRp1465
(dp1466
g62
(dp1467
sg71
g67
sg64
(lp1468
g57
(g78
g59
NtRp1469
(dp1470
g62
(dp1471
g82
g83
ssg71
g1465
sg64
(lp1472
S'folder'
p1473
asbag57
(g78
g59
NtRp1474
(dp1475
g62
(dp1476
g89
g90
ssg71
g1465
sg64
(lp1477
S':'
asbag57
(g78
g59
NtRp1478
(dp1479
g62
(dp1480
sg71
g1465
sg64
(lp1481
g57
(g58
g59
NtRp1482
(dp1483
g62
(dp1484
g70
I5
ssg71
g1478
sg64
(lp1485
S'C:\\xampp\\htdocs\\web2py\\applications\\testumgebung\\'
p1486
asbasbasbag57
(g73
g59
NtRp1487
(dp1488
g62
(dp1489
sg71
g67
sg64
(lp1490
g57
(g78
g59
NtRp1491
(dp1492
g62
(dp1493
g82
g83
ssg71
g1487
sg64
(lp1494
S'function'
p1495
asbag57
(g78
g59
NtRp1496
(dp1497
g62
(dp1498
g89
g90
ssg71
g1487
sg64
(lp1499
S':'
asbag57
(g78
g59
NtRp1500
(dp1501
g62
(dp1502
sg71
g1487
sg64
(lp1503
g57
(g58
g59
NtRp1504
(dp1505
g62
(dp1506
g70
I5
ssg71
g1500
sg64
(lp1507
S'index'
p1508
asbasbasbag57
(g73
g59
NtRp1509
(dp1510
g62
(dp1511
sg71
g67
sg64
(lp1512
g57
(g78
g59
NtRp1513
(dp1514
g62
(dp1515
g82
g83
ssg71
g1509
sg64
(lp1516
S'get_vars'
p1517
asbag57
(g78
g59
NtRp1518
(dp1519
g62
(dp1520
g89
g90
ssg71
g1509
sg64
(lp1521
S':'
asbag57
(g78
g59
NtRp1522
(dp1523
g62
(dp1524
sg71
g1509
sg64
(lp1525
g57
(g58
g59
NtRp1526
(dp1527
g62
(dp1528
g70
I5
ssg71
g1522
sg64
(lp1529
g57
(g66
g59
NtRp1530
(dp1531
g62
(dp1532
g70
I4
ssg71
Nsg64
(lp1533
sbasbasbasbag57
(g73
g59
NtRp1534
(dp1535
g62
(dp1536
sg71
g67
sg64
(lp1537
g57
(g78
g59
NtRp1538
(dp1539
g62
(dp1540
g82
g83
ssg71
g1534
sg64
(lp1541
S'global_settings'
p1542
asbag57
(g78
g59
NtRp1543
(dp1544
g62
(dp1545
g89
g90
ssg71
g1534
sg64
(lp1546
S':'
asbag57
(g78
g59
NtRp1547
(dp1548
g62
(dp1549
sg71
g1534
sg64
(lp1550
g57
(g58
g59
NtRp1551
(dp1552
g62
(dp1553
g70
I5
ssg71
g1547
sg64
(lp1554
g57
(g66
g59
NtRp1555
(dp1556
g62
(dp1557
g70
I4
ssg71
Nsg64
(lp1558
g57
(g73
g59
NtRp1559
(dp1560
g62
(dp1561
sg71
g1555
sg64
(lp1562
g57
(g78
g59
NtRp1563
(dp1564
g62
(dp1565
g82
g83
ssg71
g1559
sg64
(lp1566
g487
asbag57
(g78
g59
NtRp1567
(dp1568
g62
(dp1569
g89
g90
ssg71
g1559
sg64
(lp1570
S':'
asbag57
(g78
g59
NtRp1571
(dp1572
g62
(dp1573
sg71
g1559
sg64
(lp1574
g57
(g58
g59
NtRp1575
(dp1576
g62
(dp1577
g70
I4
ssg71
g1571
sg64
(lp1578
S"set(['C:\\\\xampp\\\\htdocs\\\\web2py\\\\applications\\\\welcome\\\\', 'C:\\\\xampp\\\\htdocs\\\\web2py\\\\applications\\\\testumgebung\\\\'])"
p1579
asbasbasbag57
(g73
g59
NtRp1580
(dp1581
g62
(dp1582
sg71
g1555
sg64
(lp1583
g57
(g78
g59
NtRp1584
(dp1585
g62
(dp1586
g82
g83
ssg71
g1580
sg64
(lp1587
g509
asbag57
(g78
g59
NtRp1588
(dp1589
g62
(dp1590
g89
g90
ssg71
g1580
sg64
(lp1591
S':'
asbag57
(g78
g59
NtRp1592
(dp1593
g62
(dp1594
sg71
g1580
sg64
(lp1595
g57
(g58
g59
NtRp1596
(dp1597
g62
(dp1598
g70
I4
ssg71
g1592
sg64
(lp1599
g522
asbasbasbag57
(g73
g59
NtRp1600
(dp1601
g62
(dp1602
sg71
g1555
sg64
(lp1603
g57
(g78
g59
NtRp1604
(dp1605
g62
(dp1606
g82
g83
ssg71
g1600
sg64
(lp1607
g531
asbag57
(g78
g59
NtRp1608
(dp1609
g62
(dp1610
g89
g90
ssg71
g1600
sg64
(lp1611
S':'
asbag57
(g78
g59
NtRp1612
(dp1613
g62
(dp1614
sg71
g1600
sg64
(lp1615
g57
(g58
g59
NtRp1616
(dp1617
g62
(dp1618
g70
I4
ssg71
g1612
sg64
(lp1619
g57
(g66
g59
NtRp1620
(dp1621
g62
(dp1622
g70
I3
ssg71
Nsg64
(lp1623
sbasbasbasbag57
(g73
g59
NtRp1624
(dp1625
g62
(dp1626
sg71
g1555
sg64
(lp1627
g57
(g78
g59
NtRp1628
(dp1629
g62
(dp1630
g82
g83
ssg71
g1624
sg64
(lp1631
g556
asbag57
(g78
g59
NtRp1632
(dp1633
g62
(dp1634
g89
g90
ssg71
g1624
sg64
(lp1635
S':'
asbag57
(g78
g59
NtRp1636
(dp1637
g62
(dp1638
sg71
g1624
sg64
(lp1639
g57
(g58
g59
NtRp1640
(dp1641
g62
(dp1642
g70
I4
ssg71
g1636
sg64
(lp1643
S"<Values at 0x31dee18: {'verbose': False, 'ip': '127.0.0.1', 'with_scheduler': False, 'ips': ['10.0.0.109', '192.168.189.1', '192.168.91.1'], 'shutdown_timeout': 5, 'taskbar': False, 'port': 8000, 'maxthreads': None, 'softcron': False, 'server_name': 'swLaptop', 'bpython': False, 'nogui': False, 'nocron': False, 'extcron': False, 'run_system_tests': False, 'test': None, 'folder': 'C:\\\\xampp\\\\htdocs\\\\web2py', 'config': '', 'import_models': False, 'winservice': '', 'shell': None, 'run': '', 'log_filename': 'httpserver.log', 'debuglevel': 30, 'args': [''], 'socket_timeout': 5, 'ssl_ca_certificate': None, 'scheduler': None, 'profiler_filename': None, 'ssl_private_key': '', 'scheduler_groups': None, 'password': '<ask>', 'request_queue_size': 5, 'ssl_certificate': '', 'cronjob': False, 'numthreads': None, 'quiet': False, 'interfaces': None, 'minthreads': None, 'timeout': 10, 'plain': False, 'nobanner': False, 'pid_filename': 'httpserver.pid'}>"
p1644
asbasbasbag57
(g73
g59
NtRp1645
(dp1646
g62
(dp1647
sg71
g1555
sg64
(lp1648
g57
(g78
g59
NtRp1649
(dp1650
g62
(dp1651
g82
g83
ssg71
g1645
sg64
(lp1652
g578
asbag57
(g78
g59
NtRp1653
(dp1654
g62
(dp1655
g89
g90
ssg71
g1645
sg64
(lp1656
S':'
asbag57
(g78
g59
NtRp1657
(dp1658
g62
(dp1659
sg71
g1645
sg64
(lp1660
g57
(g58
g59
NtRp1661
(dp1662
g62
(dp1663
g70
I4
ssg71
g1657
sg64
(lp1664
S'set([])'
p1665
asbasbasbag57
(g73
g59
NtRp1666
(dp1667
g62
(dp1668
sg71
g1555
sg64
(lp1669
g57
(g78
g59
NtRp1670
(dp1671
g62
(dp1672
g82
g83
ssg71
g1666
sg64
(lp1673
g600
asbag57
(g78
g59
NtRp1674
(dp1675
g62
(dp1676
g89
g90
ssg71
g1666
sg64
(lp1677
S':'
asbag57
(g78
g59
NtRp1678
(dp1679
g62
(dp1680
sg71
g1666
sg64
(lp1681
g57
(g58
g59
NtRp1682
(dp1683
g62
(dp1684
g70
I4
ssg71
g1678
sg64
(lp1685
g100
asbasbasbag57
(g73
g59
NtRp1686
(dp1687
g62
(dp1688
sg71
g1555
sg64
(lp1689
g57
(g78
g59
NtRp1690
(dp1691
g62
(dp1692
g82
g83
ssg71
g1686
sg64
(lp1693
g621
asbag57
(g78
g59
NtRp1694
(dp1695
g62
(dp1696
g89
g90
ssg71
g1686
sg64
(lp1697
S':'
asbag57
(g78
g59
NtRp1698
(dp1699
g62
(dp1700
sg71
g1686
sg64
(lp1701
g57
(g58
g59
NtRp1702
(dp1703
g62
(dp1704
g70
I4
ssg71
g1698
sg64
(lp1705
g634
asbasbasbag57
(g73
g59
NtRp1706
(dp1707
g62
(dp1708
sg71
g1555
sg64
(lp1709
g57
(g78
g59
NtRp1710
(dp1711
g62
(dp1712
g82
g83
ssg71
g1706
sg64
(lp1713
g840
asbag57
(g78
g59
NtRp1714
(dp1715
g62
(dp1716
g89
g90
ssg71
g1706
sg64
(lp1717
S':'
asbag57
(g78
g59
NtRp1718
(dp1719
g62
(dp1720
sg71
g1706
sg64
(lp1721
g57
(g58
g59
NtRp1722
(dp1723
g62
(dp1724
g70
I4
ssg71
g1718
sg64
(lp1725
g100
asbasbasbag57
(g73
g59
NtRp1726
(dp1727
g62
(dp1728
sg71
g1555
sg64
(lp1729
g57
(g78
g59
NtRp1730
(dp1731
g62
(dp1732
g82
g83
ssg71
g1726
sg64
(lp1733
g861
asbag57
(g78
g59
NtRp1734
(dp1735
g62
(dp1736
g89
g90
ssg71
g1726
sg64
(lp1737
S':'
asbag57
(g78
g59
NtRp1738
(dp1739
g62
(dp1740
sg71
g1726
sg64
(lp1741
g57
(g58
g59
NtRp1742
(dp1743
g62
(dp1744
g70
I4
ssg71
g1738
sg64
(lp1745
g100
asbasbasbag57
(g73
g59
NtRp1746
(dp1747
g62
(dp1748
sg71
g1555
sg64
(lp1749
g57
(g78
g59
NtRp1750
(dp1751
g62
(dp1752
g82
g83
ssg71
g1746
sg64
(lp1753
g1120
asbag57
(g78
g59
NtRp1754
(dp1755
g62
(dp1756
g89
g90
ssg71
g1746
sg64
(lp1757
S':'
asbag57
(g78
g59
NtRp1758
(dp1759
g62
(dp1760
sg71
g1746
sg64
(lp1761
g57
(g58
g59
NtRp1762
(dp1763
g62
(dp1764
g70
I4
ssg71
g1758
sg64
(lp1765
g1133
asbasbasbag57
(g73
g59
NtRp1766
(dp1767
g62
(dp1768
sg71
g1555
sg64
(lp1769
g57
(g78
g59
NtRp1770
(dp1771
g62
(dp1772
g82
g83
ssg71
g1766
sg64
(lp1773
g1163
asbag57
(g78
g59
NtRp1774
(dp1775
g62
(dp1776
g89
g90
ssg71
g1766
sg64
(lp1777
S':'
asbag57
(g78
g59
NtRp1778
(dp1779
g62
(dp1780
sg71
g1766
sg64
(lp1781
g57
(g58
g59
NtRp1782
(dp1783
g62
(dp1784
g70
I4
ssg71
g1778
sg64
(lp1785
g57
(g66
g59
NtRp1786
(dp1787
g62
(dp1788
g70
I3
ssg71
Nsg64
(lp1789
g57
(g73
g59
NtRp1790
(dp1791
g62
(dp1792
sg71
g1786
sg64
(lp1793
g57
(g78
g59
NtRp1794
(dp1795
g62
(dp1796
sg71
g1790
sg64
(lp1797
g57
(g58
g59
NtRp1798
(dp1799
g62
(dp1800
g70
I3
ssg71
g1794
sg64
(lp1801
S'2'
asbasbasbag57
(g73
g59
NtRp1802
(dp1803
g62
(dp1804
sg71
g1786
sg64
(lp1805
g57
(g78
g59
NtRp1806
(dp1807
g62
(dp1808
sg71
g1802
sg64
(lp1809
g57
(g58
g59
NtRp1810
(dp1811
g62
(dp1812
g70
I3
ssg71
g1806
sg64
(lp1813
S'0'
asbasbasbag57
(g73
g59
NtRp1814
(dp1815
g62
(dp1816
sg71
g1786
sg64
(lp1817
g57
(g78
g59
NtRp1818
(dp1819
g62
(dp1820
sg71
g1814
sg64
(lp1821
g57
(g58
g59
NtRp1822
(dp1823
g62
(dp1824
g70
I3
ssg71
g1818
sg64
(lp1825
S'3'
asbasbasbag57
(g73
g59
NtRp1826
(dp1827
g62
(dp1828
sg71
g1786
sg64
(lp1829
g57
(g78
g59
NtRp1830
(dp1831
g62
(dp1832
sg71
g1826
sg64
(lp1833
g57
(g58
g59
NtRp1834
(dp1835
g62
(dp1836
g70
I3
ssg71
g1830
sg64
(lp1837
S'datetime.datetime(2012, 8, 31, 5, 58, 31)'
p1838
asbasbasbag57
(g73
g59
NtRp1839
(dp1840
g62
(dp1841
sg71
g1786
sg64
(lp1842
g57
(g78
g59
NtRp1843
(dp1844
g62
(dp1845
sg71
g1839
sg64
(lp1846
g57
(g58
g59
NtRp1847
(dp1848
g62
(dp1849
g70
I3
ssg71
g1843
sg64
(lp1850
g1241
asbasbasbasbasbasbasbasbasbasbasbag57
(g73
g59
NtRp1851
(dp1852
g62
(dp1853
sg71
g67
sg64
(lp1854
g57
(g78
g59
NtRp1855
(dp1856
g62
(dp1857
g82
g83
ssg71
g1851
sg64
(lp1858
S'is_https'
p1859
asbag57
(g78
g59
NtRp1860
(dp1861
g62
(dp1862
g89
g90
ssg71
g1851
sg64
(lp1863
S':'
asbag57
(g78
g59
NtRp1864
(dp1865
g62
(dp1866
sg71
g1851
sg64
(lp1867
g57
(g58
g59
NtRp1868
(dp1869
g62
(dp1870
g70
I5
ssg71
g1864
sg64
(lp1871
g100
asbasbasbag57
(g73
g59
NtRp1872
(dp1873
g62
(dp1874
sg71
g67
sg64
(lp1875
g57
(g78
g59
NtRp1876
(dp1877
g62
(dp1878
g82
g83
ssg71
g1872
sg64
(lp1879
S'is_local'
p1880
asbag57
(g78
g59
NtRp1881
(dp1882
g62
(dp1883
g89
g90
ssg71
g1872
sg64
(lp1884
S':'
asbag57
(g78
g59
NtRp1885
(dp1886
g62
(dp1887
sg71
g1872
sg64
(lp1888
g57
(g58
g59
NtRp1889
(dp1890
g62
(dp1891
g70
I5
ssg71
g1885
sg64
(lp1892
g1350
asbasbasbag57
(g73
g59
NtRp1893
(dp1894
g62
(dp1895
sg71
g67
sg64
(lp1896
g57
(g78
g59
NtRp1897
(dp1898
g62
(dp1899
g82
g83
ssg71
g1893
sg64
(lp1900
S'is_restful'
p1901
asbag57
(g78
g59
NtRp1902
(dp1903
g62
(dp1904
g89
g90
ssg71
g1893
sg64
(lp1905
S':'
asbag57
(g78
g59
NtRp1906
(dp1907
g62
(dp1908
sg71
g1893
sg64
(lp1909
g57
(g58
g59
NtRp1910
(dp1911
g62
(dp1912
g70
I5
ssg71
g1906
sg64
(lp1913
g100
asbasbasbag57
(g73
g59
NtRp1914
(dp1915
g62
(dp1916
sg71
g67
sg64
(lp1917
g57
(g78
g59
NtRp1918
(dp1919
g62
(dp1920
g82
g83
ssg71
g1914
sg64
(lp1921
S'now'
p1922
asbag57
(g78
g59
NtRp1923
(dp1924
g62
(dp1925
g89
g90
ssg71
g1914
sg64
(lp1926
S':'
asbag57
(g78
g59
NtRp1927
(dp1928
g62
(dp1929
sg71
g1914
sg64
(lp1930
g57
(g58
g59
NtRp1931
(dp1932
g62
(dp1933
g70
I5
ssg71
g1927
sg64
(lp1934
S'datetime.datetime(2012, 12, 17, 12, 4, 13, 735000)'
p1935
asbasbasbag57
(g73
g59
NtRp1936
(dp1937
g62
(dp1938
sg71
g67
sg64
(lp1939
g57
(g78
g59
NtRp1940
(dp1941
g62
(dp1942
g82
g83
ssg71
g1936
sg64
(lp1943
S'post_vars'
p1944
asbag57
(g78
g59
NtRp1945
(dp1946
g62
(dp1947
g89
g90
ssg71
g1936
sg64
(lp1948
S':'
asbag57
(g78
g59
NtRp1949
(dp1950
g62
(dp1951
sg71
g1936
sg64
(lp1952
g57
(g58
g59
NtRp1953
(dp1954
g62
(dp1955
g70
I5
ssg71
g1949
sg64
(lp1956
g57
(g66
g59
NtRp1957
(dp1958
g62
(dp1959
g70
I4
ssg71
Nsg64
(lp1960
sbasbasbasbag57
(g73
g59
NtRp1961
(dp1962
g62
(dp1963
sg71
g67
sg64
(lp1964
g57
(g78
g59
NtRp1965
(dp1966
g62
(dp1967
g82
g83
ssg71
g1961
sg64
(lp1968
S'raw_args'
p1969
asbag57
(g78
g59
NtRp1970
(dp1971
g62
(dp1972
g89
g90
ssg71
g1961
sg64
(lp1973
S':'
asbag57
(g78
g59
NtRp1974
(dp1975
g62
(dp1976
sg71
g1961
sg64
(lp1977
g57
(g58
g59
NtRp1978
(dp1979
g62
(dp1980
g70
I5
ssg71
g1974
sg64
(lp1981
S'None'
p1982
asbasbasbag57
(g73
g59
NtRp1983
(dp1984
g62
(dp1985
sg71
g67
sg64
(lp1986
g57
(g78
g59
NtRp1987
(dp1988
g62
(dp1989
g82
g83
ssg71
g1983
sg64
(lp1990
S'raw_extension'
p1991
asbag57
(g78
g59
NtRp1992
(dp1993
g62
(dp1994
g89
g90
ssg71
g1983
sg64
(lp1995
S':'
asbag57
(g78
g59
NtRp1996
(dp1997
g62
(dp1998
sg71
g1983
sg64
(lp1999
g57
(g58
g59
NtRp2000
(dp2001
g62
(dp2002
g70
I5
ssg71
g1996
sg64
(lp2003
S'None'
p2004
asbasbasbag57
(g73
g59
NtRp2005
(dp2006
g62
(dp2007
sg71
g67
sg64
(lp2008
g57
(g78
g59
NtRp2009
(dp2010
g62
(dp2011
g82
g83
ssg71
g2005
sg64
(lp2012
S'url'
p2013
asbag57
(g78
g59
NtRp2014
(dp2015
g62
(dp2016
g89
g90
ssg71
g2005
sg64
(lp2017
S':'
asbag57
(g78
g59
NtRp2018
(dp2019
g62
(dp2020
sg71
g2005
sg64
(lp2021
g57
(g58
g59
NtRp2022
(dp2023
g62
(dp2024
g70
I5
ssg71
g2018
sg64
(lp2025
S'/testumgebung/default/index'
p2026
asbasbasbag57
(g73
g59
NtRp2027
(dp2028
g62
(dp2029
sg71
g67
sg64
(lp2030
g57
(g78
g59
NtRp2031
(dp2032
g62
(dp2033
g82
g83
ssg71
g2027
sg64
(lp2034
S'utcnow'
p2035
asbag57
(g78
g59
NtRp2036
(dp2037
g62
(dp2038
g89
g90
ssg71
g2027
sg64
(lp2039
S':'
asbag57
(g78
g59
NtRp2040
(dp2041
g62
(dp2042
sg71
g2027
sg64
(lp2043
g57
(g58
g59
NtRp2044
(dp2045
g62
(dp2046
g70
I5
ssg71
g2040
sg64
(lp2047
S'datetime.datetime(2012, 12, 17, 11, 4, 13, 735000)'
p2048
asbasbasbag57
(g73
g59
NtRp2049
(dp2050
g62
(dp2051
sg71
g67
sg64
(lp2052
g57
(g78
g59
NtRp2053
(dp2054
g62
(dp2055
g82
g83
ssg71
g2049
sg64
(lp2056
S'uuid'
p2057
asbag57
(g78
g59
NtRp2058
(dp2059
g62
(dp2060
g89
g90
ssg71
g2049
sg64
(lp2061
S':'
asbag57
(g78
g59
NtRp2062
(dp2063
g62
(dp2064
sg71
g2049
sg64
(lp2065
g57
(g58
g59
NtRp2066
(dp2067
g62
(dp2068
g70
I5
ssg71
g2062
sg64
(lp2069
S'testumgebung/127.0.0.1.2012-12-17.12-04-13.c05f974f-a456-4796-a317-87c33f3647e6'
p2070
asbasbasbag57
(g73
g59
NtRp2071
(dp2072
g62
(dp2073
sg71
g67
sg64
(lp2074
g57
(g78
g59
NtRp2075
(dp2076
g62
(dp2077
g82
g83
ssg71
g2071
sg64
(lp2078
S'vars'
p2079
asbag57
(g78
g59
NtRp2080
(dp2081
g62
(dp2082
g89
g90
ssg71
g2071
sg64
(lp2083
S':'
asbag57
(g78
g59
NtRp2084
(dp2085
g62
(dp2086
sg71
g2071
sg64
(lp2087
g57
(g58
g59
NtRp2088
(dp2089
g62
(dp2090
g70
I5
ssg71
g2084
sg64
(lp2091
g57
(g66
g59
NtRp2092
(dp2093
g62
(dp2094
g70
I4
ssg71
Nsg64
(lp2095
sbasbasbasbag57
(g73
g59
NtRp2096
(dp2097
g62
(dp2098
sg71
g67
sg64
(lp2099
g57
(g78
g59
NtRp2100
(dp2101
g62
(dp2102
g82
g83
ssg71
g2096
sg64
(lp2103
S'wsgi'
p2104
asbag57
(g78
g59
NtRp2105
(dp2106
g62
(dp2107
g89
g90
ssg71
g2096
sg64
(lp2108
S':'
asbag57
(g78
g59
NtRp2109
(dp2110
g62
(dp2111
sg71
g2096
sg64
(lp2112
g57
(g58
g59
NtRp2113
(dp2114
g62
(dp2115
g70
I5
ssg71
g2109
sg64
(lp2116
g57
(g66
g59
NtRp2117
(dp2118
g62
(dp2119
g70
I4
ssg71
Nsg64
(lp2120
g57
(g73
g59
NtRp2121
(dp2122
g62
(dp2123
sg71
g2117
sg64
(lp2124
g57
(g78
g59
NtRp2125
(dp2126
g62
(dp2127
g82
g83
ssg71
g2121
sg64
(lp2128
S'environ'
p2129
asbag57
(g78
g59
NtRp2130
(dp2131
g62
(dp2132
g89
g90
ssg71
g2121
sg64
(lp2133
S':'
asbag57
(g78
g59
NtRp2134
(dp2135
g62
(dp2136
sg71
g2121
sg64
(lp2137
g57
(g58
g59
NtRp2138
(dp2139
g62
(dp2140
g70
I4
ssg71
g2134
sg64
(lp2141
g57
(g66
g59
NtRp2142
(dp2143
g62
(dp2144
g70
I3
ssg71
Nsg64
(lp2145
g57
(g73
g59
NtRp2146
(dp2147
g62
(dp2148
sg71
g2142
sg64
(lp2149
g57
(g78
g59
NtRp2150
(dp2151
g62
(dp2152
g82
g83
ssg71
g2146
sg64
(lp2153
S'HTTP_ACCEPT'
p2154
asbag57
(g78
g59
NtRp2155
(dp2156
g62
(dp2157
g89
g90
ssg71
g2146
sg64
(lp2158
S':'
asbag57
(g78
g59
NtRp2159
(dp2160
g62
(dp2161
sg71
g2146
sg64
(lp2162
g57
(g58
g59
NtRp2163
(dp2164
g62
(dp2165
g70
I3
ssg71
g2159
sg64
(lp2166
g656
asbasbasbag57
(g73
g59
NtRp2167
(dp2168
g62
(dp2169
sg71
g2142
sg64
(lp2170
g57
(g78
g59
NtRp2171
(dp2172
g62
(dp2173
g82
g83
ssg71
g2167
sg64
(lp2174
S'HTTP_ACCEPT_ENCODING'
p2175
asbag57
(g78
g59
NtRp2176
(dp2177
g62
(dp2178
g89
g90
ssg71
g2167
sg64
(lp2179
S':'
asbag57
(g78
g59
NtRp2180
(dp2181
g62
(dp2182
sg71
g2167
sg64
(lp2183
g57
(g58
g59
NtRp2184
(dp2185
g62
(dp2186
g70
I3
ssg71
g2180
sg64
(lp2187
g678
asbasbasbag57
(g73
g59
NtRp2188
(dp2189
g62
(dp2190
sg71
g2142
sg64
(lp2191
g57
(g78
g59
NtRp2192
(dp2193
g62
(dp2194
g82
g83
ssg71
g2188
sg64
(lp2195
S'HTTP_ACCEPT_LANGUAGE'
p2196
asbag57
(g78
g59
NtRp2197
(dp2198
g62
(dp2199
g89
g90
ssg71
g2188
sg64
(lp2200
S':'
asbag57
(g78
g59
NtRp2201
(dp2202
g62
(dp2203
sg71
g2188
sg64
(lp2204
g57
(g58
g59
NtRp2205
(dp2206
g62
(dp2207
g70
I3
ssg71
g2201
sg64
(lp2208
g700
asbasbasbag57
(g73
g59
NtRp2209
(dp2210
g62
(dp2211
sg71
g2142
sg64
(lp2212
g57
(g78
g59
NtRp2213
(dp2214
g62
(dp2215
g82
g83
ssg71
g2209
sg64
(lp2216
S'HTTP_CONNECTION'
p2217
asbag57
(g78
g59
NtRp2218
(dp2219
g62
(dp2220
g89
g90
ssg71
g2209
sg64
(lp2221
S':'
asbag57
(g78
g59
NtRp2222
(dp2223
g62
(dp2224
sg71
g2209
sg64
(lp2225
g57
(g58
g59
NtRp2226
(dp2227
g62
(dp2228
g70
I3
ssg71
g2222
sg64
(lp2229
g722
asbasbasbag57
(g73
g59
NtRp2230
(dp2231
g62
(dp2232
sg71
g2142
sg64
(lp2233
g57
(g78
g59
NtRp2234
(dp2235
g62
(dp2236
g82
g83
ssg71
g2230
sg64
(lp2237
S'HTTP_COOKIE'
p2238
asbag57
(g78
g59
NtRp2239
(dp2240
g62
(dp2241
g89
g90
ssg71
g2230
sg64
(lp2242
S':'
asbag57
(g78
g59
NtRp2243
(dp2244
g62
(dp2245
sg71
g2230
sg64
(lp2246
g57
(g58
g59
NtRp2247
(dp2248
g62
(dp2249
g70
I3
ssg71
g2243
sg64
(lp2250
g744
asbasbasbag57
(g73
g59
NtRp2251
(dp2252
g62
(dp2253
sg71
g2142
sg64
(lp2254
g57
(g78
g59
NtRp2255
(dp2256
g62
(dp2257
g82
g83
ssg71
g2251
sg64
(lp2258
S'HTTP_DNT'
p2259
asbag57
(g78
g59
NtRp2260
(dp2261
g62
(dp2262
g89
g90
ssg71
g2251
sg64
(lp2263
S':'
asbag57
(g78
g59
NtRp2264
(dp2265
g62
(dp2266
sg71
g2251
sg64
(lp2267
g57
(g58
g59
NtRp2268
(dp2269
g62
(dp2270
g70
I3
ssg71
g2264
sg64
(lp2271
S'1'
asbasbasbag57
(g73
g59
NtRp2272
(dp2273
g62
(dp2274
sg71
g2142
sg64
(lp2275
g57
(g78
g59
NtRp2276
(dp2277
g62
(dp2278
g82
g83
ssg71
g2272
sg64
(lp2279
S'HTTP_HOST'
p2280
asbag57
(g78
g59
NtRp2281
(dp2282
g62
(dp2283
g89
g90
ssg71
g2272
sg64
(lp2284
S':'
asbag57
(g78
g59
NtRp2285
(dp2286
g62
(dp2287
sg71
g2272
sg64
(lp2288
g57
(g58
g59
NtRp2289
(dp2290
g62
(dp2291
g70
I3
ssg71
g2285
sg64
(lp2292
g787
asbasbasbag57
(g73
g59
NtRp2293
(dp2294
g62
(dp2295
sg71
g2142
sg64
(lp2296
g57
(g78
g59
NtRp2297
(dp2298
g62
(dp2299
g82
g83
ssg71
g2293
sg64
(lp2300
S'HTTP_USER_AGENT'
p2301
asbag57
(g78
g59
NtRp2302
(dp2303
g62
(dp2304
g89
g90
ssg71
g2293
sg64
(lp2305
S':'
asbag57
(g78
g59
NtRp2306
(dp2307
g62
(dp2308
sg71
g2293
sg64
(lp2309
g57
(g58
g59
NtRp2310
(dp2311
g62
(dp2312
g70
I3
ssg71
g2306
sg64
(lp2313
g809
asbasbasbag57
(g73
g59
NtRp2314
(dp2315
g62
(dp2316
sg71
g2142
sg64
(lp2317
g57
(g78
g59
NtRp2318
(dp2319
g62
(dp2320
g82
g83
ssg71
g2314
sg64
(lp2321
S'HTTP_X_CLICKONCESUPPORT'
p2322
asbag57
(g78
g59
NtRp2323
(dp2324
g62
(dp2325
g89
g90
ssg71
g2314
sg64
(lp2326
S':'
asbag57
(g78
g59
NtRp2327
(dp2328
g62
(dp2329
sg71
g2314
sg64
(lp2330
g57
(g58
g59
NtRp2331
(dp2332
g62
(dp2333
g70
I3
ssg71
g2327
sg64
(lp2334
g831
asbasbasbag57
(g73
g59
NtRp2335
(dp2336
g62
(dp2337
sg71
g2142
sg64
(lp2338
g57
(g78
g59
NtRp2339
(dp2340
g62
(dp2341
g82
g83
ssg71
g2335
sg64
(lp2342
S'PATH_INFO'
p2343
asbag57
(g78
g59
NtRp2344
(dp2345
g62
(dp2346
g89
g90
ssg71
g2335
sg64
(lp2347
S':'
asbag57
(g78
g59
NtRp2348
(dp2349
g62
(dp2350
sg71
g2335
sg64
(lp2351
g57
(g58
g59
NtRp2352
(dp2353
g62
(dp2354
g70
I3
ssg71
g2348
sg64
(lp2355
g895
asbasbasbag57
(g73
g59
NtRp2356
(dp2357
g62
(dp2358
sg71
g2142
sg64
(lp2359
g57
(g78
g59
NtRp2360
(dp2361
g62
(dp2362
g82
g83
ssg71
g2356
sg64
(lp2363
S'QUERY_STRING'
p2364
asbag57
(g78
g59
NtRp2365
(dp2366
g62
(dp2367
g89
g90
ssg71
g2356
sg64
(lp2368
S':'
asbag57
(g78
g59
NtRp2369
(dp2370
g62
(dp2371
sg71
g2356
sg64
(lp2372
g57
(g58
g59
NtRp2373
(dp2374
g62
(dp2375
g70
I3
ssg71
g2369
sg64
(lp2376
S''
asbasbasbag57
(g73
g59
NtRp2377
(dp2378
g62
(dp2379
sg71
g2142
sg64
(lp2380
g57
(g78
g59
NtRp2381
(dp2382
g62
(dp2383
g82
g83
ssg71
g2377
sg64
(lp2384
S'REMOTE_ADDR'
p2385
asbag57
(g78
g59
NtRp2386
(dp2387
g62
(dp2388
g89
g90
ssg71
g2377
sg64
(lp2389
S':'
asbag57
(g78
g59
NtRp2390
(dp2391
g62
(dp2392
sg71
g2377
sg64
(lp2393
g57
(g58
g59
NtRp2394
(dp2395
g62
(dp2396
g70
I3
ssg71
g2390
sg64
(lp2397
g212
asbasbasbag57
(g73
g59
NtRp2398
(dp2399
g62
(dp2400
sg71
g2142
sg64
(lp2401
g57
(g78
g59
NtRp2402
(dp2403
g62
(dp2404
g82
g83
ssg71
g2398
sg64
(lp2405
S'REMOTE_PORT'
p2406
asbag57
(g78
g59
NtRp2407
(dp2408
g62
(dp2409
g89
g90
ssg71
g2398
sg64
(lp2410
S':'
asbag57
(g78
g59
NtRp2411
(dp2412
g62
(dp2413
sg71
g2398
sg64
(lp2414
g57
(g58
g59
NtRp2415
(dp2416
g62
(dp2417
g70
I3
ssg71
g2411
sg64
(lp2418
g959
asbasbasbag57
(g73
g59
NtRp2419
(dp2420
g62
(dp2421
sg71
g2142
sg64
(lp2422
g57
(g78
g59
NtRp2423
(dp2424
g62
(dp2425
g82
g83
ssg71
g2419
sg64
(lp2426
S'REQUEST_METHOD'
p2427
asbag57
(g78
g59
NtRp2428
(dp2429
g62
(dp2430
g89
g90
ssg71
g2419
sg64
(lp2431
S':'
asbag57
(g78
g59
NtRp2432
(dp2433
g62
(dp2434
sg71
g2419
sg64
(lp2435
g57
(g58
g59
NtRp2436
(dp2437
g62
(dp2438
g70
I3
ssg71
g2432
sg64
(lp2439
g981
asbasbasbag57
(g73
g59
NtRp2440
(dp2441
g62
(dp2442
sg71
g2142
sg64
(lp2443
g57
(g78
g59
NtRp2444
(dp2445
g62
(dp2446
g82
g83
ssg71
g2440
sg64
(lp2447
S'REQUEST_URI'
p2448
asbag57
(g78
g59
NtRp2449
(dp2450
g62
(dp2451
g89
g90
ssg71
g2440
sg64
(lp2452
S':'
asbag57
(g78
g59
NtRp2453
(dp2454
g62
(dp2455
sg71
g2440
sg64
(lp2456
g57
(g58
g59
NtRp2457
(dp2458
g62
(dp2459
g70
I3
ssg71
g2453
sg64
(lp2460
g895
asbasbasbag57
(g73
g59
NtRp2461
(dp2462
g62
(dp2463
sg71
g2142
sg64
(lp2464
g57
(g78
g59
NtRp2465
(dp2466
g62
(dp2467
g82
g83
ssg71
g2461
sg64
(lp2468
S'SCRIPT_NAME'
p2469
asbag57
(g78
g59
NtRp2470
(dp2471
g62
(dp2472
g89
g90
ssg71
g2461
sg64
(lp2473
S':'
asbag57
(g78
g59
NtRp2474
(dp2475
g62
(dp2476
sg71
g2461
sg64
(lp2477
g57
(g58
g59
NtRp2478
(dp2479
g62
(dp2480
g70
I3
ssg71
g2474
sg64
(lp2481
S''
asbasbasbag57
(g73
g59
NtRp2482
(dp2483
g62
(dp2484
sg71
g2142
sg64
(lp2485
g57
(g78
g59
NtRp2486
(dp2487
g62
(dp2488
g82
g83
ssg71
g2482
sg64
(lp2489
S'SERVER_NAME'
p2490
asbag57
(g78
g59
NtRp2491
(dp2492
g62
(dp2493
g89
g90
ssg71
g2482
sg64
(lp2494
S':'
asbag57
(g78
g59
NtRp2495
(dp2496
g62
(dp2497
sg71
g2482
sg64
(lp2498
g57
(g58
g59
NtRp2499
(dp2500
g62
(dp2501
g70
I3
ssg71
g2495
sg64
(lp2502
g1045
asbasbasbag57
(g73
g59
NtRp2503
(dp2504
g62
(dp2505
sg71
g2142
sg64
(lp2506
g57
(g78
g59
NtRp2507
(dp2508
g62
(dp2509
g82
g83
ssg71
g2503
sg64
(lp2510
S'SERVER_PORT'
p2511
asbag57
(g78
g59
NtRp2512
(dp2513
g62
(dp2514
g89
g90
ssg71
g2503
sg64
(lp2515
S':'
asbag57
(g78
g59
NtRp2516
(dp2517
g62
(dp2518
sg71
g2503
sg64
(lp2519
g57
(g58
g59
NtRp2520
(dp2521
g62
(dp2522
g70
I3
ssg71
g2516
sg64
(lp2523
g1067
asbasbasbag57
(g73
g59
NtRp2524
(dp2525
g62
(dp2526
sg71
g2142
sg64
(lp2527
g57
(g78
g59
NtRp2528
(dp2529
g62
(dp2530
g82
g83
ssg71
g2524
sg64
(lp2531
S'SERVER_PROTOCOL'
p2532
asbag57
(g78
g59
NtRp2533
(dp2534
g62
(dp2535
g89
g90
ssg71
g2524
sg64
(lp2536
S':'
asbag57
(g78
g59
NtRp2537
(dp2538
g62
(dp2539
sg71
g2524
sg64
(lp2540
g57
(g58
g59
NtRp2541
(dp2542
g62
(dp2543
g70
I3
ssg71
g2537
sg64
(lp2544
g1089
asbasbasbag57
(g73
g59
NtRp2545
(dp2546
g62
(dp2547
sg71
g2142
sg64
(lp2548
g57
(g78
g59
NtRp2549
(dp2550
g62
(dp2551
g82
g83
ssg71
g2545
sg64
(lp2552
S'SERVER_SOFTWARE'
p2553
asbag57
(g78
g59
NtRp2554
(dp2555
g62
(dp2556
g89
g90
ssg71
g2545
sg64
(lp2557
S':'
asbag57
(g78
g59
NtRp2558
(dp2559
g62
(dp2560
sg71
g2545
sg64
(lp2561
g57
(g58
g59
NtRp2562
(dp2563
g62
(dp2564
g70
I3
ssg71
g2558
sg64
(lp2565
g1111
asbasbasbag57
(g73
g59
NtRp2566
(dp2567
g62
(dp2568
sg71
g2142
sg64
(lp2569
g57
(g78
g59
NtRp2570
(dp2571
g62
(dp2572
g82
g83
ssg71
g2566
sg64
(lp2573
S'wsgi.errors'
p2574
asbag57
(g78
g59
NtRp2575
(dp2576
g62
(dp2577
g89
g90
ssg71
g2566
sg64
(lp2578
S':'
asbag57
(g78
g59
NtRp2579
(dp2580
g62
(dp2581
sg71
g2566
sg64
(lp2582
g57
(g58
g59
NtRp2583
(dp2584
g62
(dp2585
g70
I3
ssg71
g2579
sg64
(lp2586
S"<open file '<stderr>', mode 'w' at 0x021750D0>"
p2587
asbasbasbag57
(g73
g59
NtRp2588
(dp2589
g62
(dp2590
sg71
g2142
sg64
(lp2591
g57
(g78
g59
NtRp2592
(dp2593
g62
(dp2594
g82
g83
ssg71
g2588
sg64
(lp2595
S'wsgi.file_wrapper'
p2596
asbag57
(g78
g59
NtRp2597
(dp2598
g62
(dp2599
g89
g90
ssg71
g2588
sg64
(lp2600
S':'
asbag57
(g78
g59
NtRp2601
(dp2602
g62
(dp2603
sg71
g2588
sg64
(lp2604
g57
(g58
g59
NtRp2605
(dp2606
g62
(dp2607
g70
I3
ssg71
g2601
sg64
(lp2608
S'<class wsgiref.util.FileWrapper at 0x0310D030>'
p2609
asbasbasbag57
(g73
g59
NtRp2610
(dp2611
g62
(dp2612
sg71
g2142
sg64
(lp2613
g57
(g78
g59
NtRp2614
(dp2615
g62
(dp2616
g82
g83
ssg71
g2610
sg64
(lp2617
S'wsgi.input'
p2618
asbag57
(g78
g59
NtRp2619
(dp2620
g62
(dp2621
g89
g90
ssg71
g2610
sg64
(lp2622
S':'
asbag57
(g78
g59
NtRp2623
(dp2624
g62
(dp2625
sg71
g2610
sg64
(lp2626
g57
(g58
g59
NtRp2627
(dp2628
g62
(dp2629
g70
I3
ssg71
g2623
sg64
(lp2630
S'<cStringIO.StringO object at 0x034D5EA0>'
p2631
asbasbasbag57
(g73
g59
NtRp2632
(dp2633
g62
(dp2634
sg71
g2142
sg64
(lp2635
g57
(g78
g59
NtRp2636
(dp2637
g62
(dp2638
g82
g83
ssg71
g2632
sg64
(lp2639
S'wsgi.multiprocess'
p2640
asbag57
(g78
g59
NtRp2641
(dp2642
g62
(dp2643
g89
g90
ssg71
g2632
sg64
(lp2644
S':'
asbag57
(g78
g59
NtRp2645
(dp2646
g62
(dp2647
sg71
g2632
sg64
(lp2648
g57
(g58
g59
NtRp2649
(dp2650
g62
(dp2651
g70
I3
ssg71
g2645
sg64
(lp2652
g100
asbasbasbag57
(g73
g59
NtRp2653
(dp2654
g62
(dp2655
sg71
g2142
sg64
(lp2656
g57
(g78
g59
NtRp2657
(dp2658
g62
(dp2659
g82
g83
ssg71
g2653
sg64
(lp2660
S'wsgi.multithread'
p2661
asbag57
(g78
g59
NtRp2662
(dp2663
g62
(dp2664
g89
g90
ssg71
g2653
sg64
(lp2665
S':'
asbag57
(g78
g59
NtRp2666
(dp2667
g62
(dp2668
sg71
g2653
sg64
(lp2669
g57
(g58
g59
NtRp2670
(dp2671
g62
(dp2672
g70
I3
ssg71
g2666
sg64
(lp2673
g1350
asbasbasbag57
(g73
g59
NtRp2674
(dp2675
g62
(dp2676
sg71
g2142
sg64
(lp2677
g57
(g78
g59
NtRp2678
(dp2679
g62
(dp2680
g82
g83
ssg71
g2674
sg64
(lp2681
S'wsgi.run_once'
p2682
asbag57
(g78
g59
NtRp2683
(dp2684
g62
(dp2685
g89
g90
ssg71
g2674
sg64
(lp2686
S':'
asbag57
(g78
g59
NtRp2687
(dp2688
g62
(dp2689
sg71
g2674
sg64
(lp2690
g57
(g58
g59
NtRp2691
(dp2692
g62
(dp2693
g70
I3
ssg71
g2687
sg64
(lp2694
g100
asbasbasbag57
(g73
g59
NtRp2695
(dp2696
g62
(dp2697
sg71
g2142
sg64
(lp2698
g57
(g78
g59
NtRp2699
(dp2700
g62
(dp2701
g82
g83
ssg71
g2695
sg64
(lp2702
S'wsgi.url_scheme'
p2703
asbag57
(g78
g59
NtRp2704
(dp2705
g62
(dp2706
g89
g90
ssg71
g2695
sg64
(lp2707
S':'
asbag57
(g78
g59
NtRp2708
(dp2709
g62
(dp2710
sg71
g2695
sg64
(lp2711
g57
(g58
g59
NtRp2712
(dp2713
g62
(dp2714
g70
I3
ssg71
g2708
sg64
(lp2715
g1393
asbasbasbag57
(g73
g59
NtRp2716
(dp2717
g62
(dp2718
sg71
g2142
sg64
(lp2719
g57
(g78
g59
NtRp2720
(dp2721
g62
(dp2722
g82
g83
ssg71
g2716
sg64
(lp2723
S'wsgi.version'
p2724
asbag57
(g78
g59
NtRp2725
(dp2726
g62
(dp2727
g89
g90
ssg71
g2716
sg64
(lp2728
S':'
asbag57
(g78
g59
NtRp2729
(dp2730
g62
(dp2731
sg71
g2716
sg64
(lp2732
g57
(g58
g59
NtRp2733
(dp2734
g62
(dp2735
g70
I3
ssg71
g2729
sg64
(lp2736
S'1'
asbasbasbasbasbasbasbasbasbasbasbasbasbsS'frames'
p2737
(lp2738
(dp2739
S'file'
p2740
S'C:\\xampp\\htdocs\\web2py\\gluon\\restricted.py'
p2741
sS'dump'
p2742
(dp2743
sS'lnum'
p2744
I209
sS'lines'
p2745
(dp2746
sS'call'
p2747
S"(code='# -*- coding: utf-8 -*-\\n# this file is released ...=crud())\\n\\nresponse._vars=response._caller(index)\\n', environment={'A': <class 'gluon.html.A'>, 'Auth': <class 'gluon.tools.Auth'>, 'B': <class 'gluon.html.B'>, 'BEAUTIFY': <class 'gluon.html.BEAUTIFY'>, 'BODY': <class 'gluon.html.BODY'>, 'BR': <class 'gluon.html.BR'>, 'BUTTON': <class 'gluon.html.BUTTON'>, 'CAT': <class 'gluon.html.CAT'>, 'CENTER': <class 'gluon.html.CENTER'>, 'CLEANUP': <class 'gluon.validators.CLEANUP'>, ...}, layer=r'C:\\xampp\\htdocs\\web2py\\applications\\testumgebung\\controllers/default.py')"
p2748
sS'func'
p2749
S'restricted'
p2750
sa(dp2751
g2740
S'C:\\xampp\\htdocs\\web2py\\applications\\testumgebung\\controllers\\default.py'
p2752
sg2742
(dp2753
sg2744
I6
sg2745
(dp2754
I2
S'# this file is released under public domain and you can use without limitations'
p2755
sI3
S'from plugin_kibit_widgets import LikertWidget'
p2756
sI4
S'from plugin_kibit_widgets import SmileyWidget'
p2757
sI5
S'from plugin_rating_widget import RatingWidget'
p2758
sI6
S'import mainfeedbackform'
p2759
sI7
S''
sI8
S'db.answers.scale.widget = LikertWidget()'
p2760
sI9
S'db.answers_smiley.scale.widget = SmileyWidget()'
p2761
sI10
S'db.answers_stars.rating.widget = RatingWidget()'
p2762
sI11
S'#########################################################################'
p2763
ssg2747
S'()'
p2764
sg2749
S'<module>'
p2765
sa(dp2766
g2740
S'C:\\xampp\\htdocs\\web2py\\gluon\\custom_import.py'
p2767
sg2742
(dp2768
sg2744
I295
sg2745
(dp2769
sg2747
S"(self=<gluon.custom_import._Web2pyDateTrackerImporter object>, name='mainfeedbackform', globals={'A': <class 'gluon.html.A'>, 'Auth': <class 'gluon.tools.Auth'>, 'B': <class 'gluon.html.B'>, 'BEAUTIFY': <class 'gluon.html.BEAUTIFY'>, 'BODY': <class 'gluon.html.BODY'>, 'BR': <class 'gluon.html.BR'>, 'BUTTON': <class 'gluon.html.BUTTON'>, 'CAT': <class 'gluon.html.CAT'>, 'CENTER': <class 'gluon.html.CENTER'>, 'CLEANUP': <class 'gluon.validators.CLEANUP'>, ...}, locals={'A': <class 'gluon.html.A'>, 'Auth': <class 'gluon.tools.Auth'>, 'B': <class 'gluon.html.B'>, 'BEAUTIFY': <class 'gluon.html.BEAUTIFY'>, 'BODY': <class 'gluon.html.BODY'>, 'BR': <class 'gluon.html.BR'>, 'BUTTON': <class 'gluon.html.BUTTON'>, 'CAT': <class 'gluon.html.CAT'>, 'CENTER': <class 'gluon.html.CENTER'>, 'CLEANUP': <class 'gluon.validators.CLEANUP'>, ...}, fromlist=[], level=-1)"
p2770
sg2749
S'__call__'
p2771
sasS'pyver'
p2772
S'Python 2.7: C:\\xampp\\htdocs\\web2py\\web2py.exe'
p2773
sS'session'
p2774
g57
(g58
g59
NtRp2775
(dp2776
g62
(dp2777
sg64
(lp2778
g57
(g66
g59
NtRp2779
(dp2780
g62
(dp2781
g70
I5
ssg71
Nsg64
(lp2782
g57
(g73
g59
NtRp2783
(dp2784
g62
(dp2785
sg71
g2779
sg64
(lp2786
g57
(g78
g59
NtRp2787
(dp2788
g62
(dp2789
g82
g83
ssg71
g2783
sg64
(lp2790
S'auth'
p2791
asbag57
(g78
g59
NtRp2792
(dp2793
g62
(dp2794
g89
g90
ssg71
g2783
sg64
(lp2795
S':'
asbag57
(g78
g59
NtRp2796
(dp2797
g62
(dp2798
sg71
g2783
sg64
(lp2799
g57
(g58
g59
NtRp2800
(dp2801
g62
(dp2802
g70
I5
ssg71
g2796
sg64
(lp2803
S'None'
p2804
asbasbasbasbasbsS'etype'
p2805
S"<type 'exceptions.ImportError'>"
p2806
sS'date'
p2807
S'Mon Dec 17 12:04:13 2012'
p2808
sS'response'
p2809
g57
(g58
g59
NtRp2810
(dp2811
g62
(dp2812
sg64
(lp2813
g57
(g66
g59
NtRp2814
(dp2815
g62
(dp2816
g70
I5
ssg71
Nsg64
(lp2817
g57
(g73
g59
NtRp2818
(dp2819
g62
(dp2820
sg71
g2814
sg64
(lp2821
g57
(g78
g59
NtRp2822
(dp2823
g62
(dp2824
g82
g83
ssg71
g2818
sg64
(lp2825
g155
asbag57
(g78
g59
NtRp2826
(dp2827
g62
(dp2828
g89
g90
ssg71
g2818
sg64
(lp2829
S':'
asbag57
(g78
g59
NtRp2830
(dp2831
g62
(dp2832
sg71
g2818
sg64
(lp2833
g57
(g58
g59
NtRp2834
(dp2835
g62
(dp2836
g70
I5
ssg71
g2830
sg64
(lp2837
S'<cStringIO.StringO object at 0x034D5C60>'
p2838
asbasbasbag57
(g73
g59
NtRp2839
(dp2840
g62
(dp2841
sg71
g2814
sg64
(lp2842
g57
(g78
g59
NtRp2843
(dp2844
g62
(dp2845
g82
g83
ssg71
g2839
sg64
(lp2846
g243
asbag57
(g78
g59
NtRp2847
(dp2848
g62
(dp2849
g89
g90
ssg71
g2839
sg64
(lp2850
S':'
asbag57
(g78
g59
NtRp2851
(dp2852
g62
(dp2853
sg71
g2839
sg64
(lp2854
g57
(g58
g59
NtRp2855
(dp2856
g62
(dp2857
g70
I5
ssg71
g2851
sg64
(lp2858
g57
(g66
g59
NtRp2859
(dp2860
g62
(dp2861
g70
I4
ssg71
Nsg64
(lp2862
g57
(g73
g59
NtRp2863
(dp2864
g62
(dp2865
sg71
g2859
sg64
(lp2866
g57
(g78
g59
NtRp2867
(dp2868
g62
(dp2869
g82
g83
ssg71
g2863
sg64
(lp2870
S'session_id_testumgebung'
p2871
asbag57
(g78
g59
NtRp2872
(dp2873
g62
(dp2874
g89
g90
ssg71
g2863
sg64
(lp2875
S':'
asbag57
(g78
g59
NtRp2876
(dp2877
g62
(dp2878
sg71
g2863
sg64
(lp2879
g57
(g58
g59
NtRp2880
(dp2881
g62
(dp2882
g70
I4
ssg71
g2876
sg64
(lp2883
S'127.0.0.1-a474333f-8ab3-401e-b86e-991db78dd485'
p2884
ag57
(g66
g59
NtRp2885
(dp2886
g62
(dp2887
g70
I3
ssg71
Nsg64
(lp2888
g57
(g73
g59
NtRp2889
(dp2890
g62
(dp2891
sg71
g2885
sg64
(lp2892
g57
(g78
g59
NtRp2893
(dp2894
g62
(dp2895
g82
g83
ssg71
g2889
sg64
(lp2896
g294
asbag57
(g78
g59
NtRp2897
(dp2898
g62
(dp2899
g89
g90
ssg71
g2889
sg64
(lp2900
S':'
asbag57
(g78
g59
NtRp2901
(dp2902
g62
(dp2903
sg71
g2889
sg64
(lp2904
g57
(g58
g59
NtRp2905
(dp2906
g62
(dp2907
g70
I3
ssg71
g2901
sg64
(lp2908
S''
asbasbasbag57
(g73
g59
NtRp2909
(dp2910
g62
(dp2911
sg71
g2885
sg64
(lp2912
g57
(g78
g59
NtRp2913
(dp2914
g62
(dp2915
g82
g83
ssg71
g2909
sg64
(lp2916
g315
asbag57
(g78
g59
NtRp2917
(dp2918
g62
(dp2919
g89
g90
ssg71
g2909
sg64
(lp2920
S':'
asbag57
(g78
g59
NtRp2921
(dp2922
g62
(dp2923
sg71
g2909
sg64
(lp2924
g57
(g58
g59
NtRp2925
(dp2926
g62
(dp2927
g70
I3
ssg71
g2921
sg64
(lp2928
S''
asbasbasbag57
(g73
g59
NtRp2929
(dp2930
g62
(dp2931
sg71
g2885
sg64
(lp2932
g57
(g78
g59
NtRp2933
(dp2934
g62
(dp2935
g82
g83
ssg71
g2929
sg64
(lp2936
g336
asbag57
(g78
g59
NtRp2937
(dp2938
g62
(dp2939
g89
g90
ssg71
g2929
sg64
(lp2940
S':'
asbag57
(g78
g59
NtRp2941
(dp2942
g62
(dp2943
sg71
g2929
sg64
(lp2944
g57
(g58
g59
NtRp2945
(dp2946
g62
(dp2947
g70
I3
ssg71
g2941
sg64
(lp2948
S''
asbasbasbag57
(g73
g59
NtRp2949
(dp2950
g62
(dp2951
sg71
g2885
sg64
(lp2952
g57
(g78
g59
NtRp2953
(dp2954
g62
(dp2955
g82
g83
ssg71
g2949
sg64
(lp2956
g357
asbag57
(g78
g59
NtRp2957
(dp2958
g62
(dp2959
g89
g90
ssg71
g2949
sg64
(lp2960
S':'
asbag57
(g78
g59
NtRp2961
(dp2962
g62
(dp2963
sg71
g2949
sg64
(lp2964
g57
(g58
g59
NtRp2965
(dp2966
g62
(dp2967
g70
I3
ssg71
g2961
sg64
(lp2968
S''
asbasbasbag57
(g73
g59
NtRp2969
(dp2970
g62
(dp2971
sg71
g2885
sg64
(lp2972
g57
(g78
g59
NtRp2973
(dp2974
g62
(dp2975
g82
g83
ssg71
g2969
sg64
(lp2976
g378
asbag57
(g78
g59
NtRp2977
(dp2978
g62
(dp2979
g89
g90
ssg71
g2969
sg64
(lp2980
S':'
asbag57
(g78
g59
NtRp2981
(dp2982
g62
(dp2983
sg71
g2969
sg64
(lp2984
g57
(g58
g59
NtRp2985
(dp2986
g62
(dp2987
g70
I3
ssg71
g2981
sg64
(lp2988
S''
asbasbasbag57
(g73
g59
NtRp2989
(dp2990
g62
(dp2991
sg71
g2885
sg64
(lp2992
g57
(g78
g59
NtRp2993
(dp2994
g62
(dp2995
g82
g83
ssg71
g2989
sg64
(lp2996
g399
asbag57
(g78
g59
NtRp2997
(dp2998
g62
(dp2999
g89
g90
ssg71
g2989
sg64
(lp3000
S':'
asbag57
(g78
g59
NtRp3001
(dp3002
g62
(dp3003
sg71
g2989
sg64
(lp3004
g57
(g58
g59
NtRp3005
(dp3006
g62
(dp3007
g70
I3
ssg71
g3001
sg64
(lp3008
S'/'
asbasbasbag57
(g73
g59
NtRp3009
(dp3010
g62
(dp3011
sg71
g2885
sg64
(lp3012
g57
(g78
g59
NtRp3013
(dp3014
g62
(dp3015
g82
g83
ssg71
g3009
sg64
(lp3016
g420
asbag57
(g78
g59
NtRp3017
(dp3018
g62
(dp3019
g89
g90
ssg71
g3009
sg64
(lp3020
S':'
asbag57
(g78
g59
NtRp3021
(dp3022
g62
(dp3023
sg71
g3009
sg64
(lp3024
g57
(g58
g59
NtRp3025
(dp3026
g62
(dp3027
g70
I3
ssg71
g3021
sg64
(lp3028
S''
asbasbasbag57
(g73
g59
NtRp3029
(dp3030
g62
(dp3031
sg71
g2885
sg64
(lp3032
g57
(g78
g59
NtRp3033
(dp3034
g62
(dp3035
g82
g83
ssg71
g3029
sg64
(lp3036
g441
asbag57
(g78
g59
NtRp3037
(dp3038
g62
(dp3039
g89
g90
ssg71
g3029
sg64
(lp3040
S':'
asbag57
(g78
g59
NtRp3041
(dp3042
g62
(dp3043
sg71
g3029
sg64
(lp3044
g57
(g58
g59
NtRp3045
(dp3046
g62
(dp3047
g70
I3
ssg71
g3041
sg64
(lp3048
S''
asbasbasbasbasbasbasbasbasbasbasbag57
(g73
g59
NtRp3049
(dp3050
g62
(dp3051
sg71
g2814
sg64
(lp3052
g57
(g78
g59
NtRp3053
(dp3054
g62
(dp3055
g82
g83
ssg71
g3049
sg64
(lp3056
S'delimiters'
p3057
asbag57
(g78
g59
NtRp3058
(dp3059
g62
(dp3060
g89
g90
ssg71
g3049
sg64
(lp3061
S':'
asbag57
(g78
g59
NtRp3062
(dp3063
g62
(dp3064
sg71
g3049
sg64
(lp3065
g57
(g58
g59
NtRp3066
(dp3067
g62
(dp3068
g70
I5
ssg71
g3062
sg64
(lp3069
g57
(g66
g59
NtRp3070
(dp3071
g62
(dp3072
g70
I4
ssg71
Nsg64
(lp3073
g57
(g73
g59
NtRp3074
(dp3075
g62
(dp3076
sg71
g3070
sg64
(lp3077
g57
(g78
g59
NtRp3078
(dp3079
g62
(dp3080
sg71
g3074
sg64
(lp3081
g57
(g58
g59
NtRp3082
(dp3083
g62
(dp3084
g70
I4
ssg71
g3078
sg64
(lp3085
S'{{'
p3086
asbasbasbag57
(g73
g59
NtRp3087
(dp3088
g62
(dp3089
sg71
g3070
sg64
(lp3090
g57
(g78
g59
NtRp3091
(dp3092
g62
(dp3093
sg71
g3087
sg64
(lp3094
g57
(g58
g59
NtRp3095
(dp3096
g62
(dp3097
g70
I4
ssg71
g3091
sg64
(lp3098
S'}}'
p3099
asbasbasbasbasbasbasbag57
(g73
g59
NtRp3100
(dp3101
g62
(dp3102
sg71
g2814
sg64
(lp3103
g57
(g78
g59
NtRp3104
(dp3105
g62
(dp3106
g82
g83
ssg71
g3100
sg64
(lp3107
S'files'
p3108
asbag57
(g78
g59
NtRp3109
(dp3110
g62
(dp3111
g89
g90
ssg71
g3100
sg64
(lp3112
S':'
asbag57
(g78
g59
NtRp3113
(dp3114
g62
(dp3115
sg71
g3100
sg64
(lp3116
g57
(g58
g59
NtRp3117
(dp3118
g62
(dp3119
g70
I5
ssg71
g3113
sg64
(lp3120
g57
(g66
g59
NtRp3121
(dp3122
g62
(dp3123
g70
I4
ssg71
Nsg64
(lp3124
sbasbasbasbag57
(g73
g59
NtRp3125
(dp3126
g62
(dp3127
sg71
g2814
sg64
(lp3128
g57
(g78
g59
NtRp3129
(dp3130
g62
(dp3131
g82
g83
ssg71
g3125
sg64
(lp3132
S'flash'
p3133
asbag57
(g78
g59
NtRp3134
(dp3135
g62
(dp3136
g89
g90
ssg71
g3125
sg64
(lp3137
S':'
asbag57
(g78
g59
NtRp3138
(dp3139
g62
(dp3140
sg71
g3125
sg64
(lp3141
g57
(g58
g59
NtRp3142
(dp3143
g62
(dp3144
g70
I5
ssg71
g3138
sg64
(lp3145
S''
asbasbasbag57
(g73
g59
NtRp3146
(dp3147
g62
(dp3148
sg71
g2814
sg64
(lp3149
g57
(g78
g59
NtRp3150
(dp3151
g62
(dp3152
g82
g83
ssg71
g3146
sg64
(lp3153
S'generic_patterns'
p3154
asbag57
(g78
g59
NtRp3155
(dp3156
g62
(dp3157
g89
g90
ssg71
g3146
sg64
(lp3158
S':'
asbag57
(g78
g59
NtRp3159
(dp3160
g62
(dp3161
sg71
g3146
sg64
(lp3162
g57
(g58
g59
NtRp3163
(dp3164
g62
(dp3165
g70
I5
ssg71
g3159
sg64
(lp3166
g57
(g66
g59
NtRp3167
(dp3168
g62
(dp3169
g70
I4
ssg71
Nsg64
(lp3170
g57
(g73
g59
NtRp3171
(dp3172
g62
(dp3173
sg71
g3167
sg64
(lp3174
g57
(g78
g59
NtRp3175
(dp3176
g62
(dp3177
sg71
g3171
sg64
(lp3178
g57
(g58
g59
NtRp3179
(dp3180
g62
(dp3181
g70
I4
ssg71
g3175
sg64
(lp3182
S'*'
asbasbasbasbasbasbasbag57
(g73
g59
NtRp3183
(dp3184
g62
(dp3185
sg71
g2814
sg64
(lp3186
g57
(g78
g59
NtRp3187
(dp3188
g62
(dp3189
g82
g83
ssg71
g3183
sg64
(lp3190
S'google_analytics_id'
p3191
asbag57
(g78
g59
NtRp3192
(dp3193
g62
(dp3194
g89
g90
ssg71
g3183
sg64
(lp3195
S':'
asbag57
(g78
g59
NtRp3196
(dp3197
g62
(dp3198
sg71
g3183
sg64
(lp3199
g57
(g58
g59
NtRp3200
(dp3201
g62
(dp3202
g70
I5
ssg71
g3196
sg64
(lp3203
S'None'
p3204
asbasbasbag57
(g73
g59
NtRp3205
(dp3206
g62
(dp3207
sg71
g2814
sg64
(lp3208
g57
(g78
g59
NtRp3209
(dp3210
g62
(dp3211
g82
g83
ssg71
g3205
sg64
(lp3212
S'headers'
p3213
asbag57
(g78
g59
NtRp3214
(dp3215
g62
(dp3216
g89
g90
ssg71
g3205
sg64
(lp3217
S':'
asbag57
(g78
g59
NtRp3218
(dp3219
g62
(dp3220
sg71
g3205
sg64
(lp3221
g57
(g58
g59
NtRp3222
(dp3223
g62
(dp3224
g70
I5
ssg71
g3218
sg64
(lp3225
g57
(g66
g59
NtRp3226
(dp3227
g62
(dp3228
g70
I4
ssg71
Nsg64
(lp3229
g57
(g73
g59
NtRp3230
(dp3231
g62
(dp3232
sg71
g3226
sg64
(lp3233
g57
(g78
g59
NtRp3234
(dp3235
g62
(dp3236
g82
g83
ssg71
g3230
sg64
(lp3237
S'Cache-Control'
p3238
asbag57
(g78
g59
NtRp3239
(dp3240
g62
(dp3241
g89
g90
ssg71
g3230
sg64
(lp3242
S':'
asbag57
(g78
g59
NtRp3243
(dp3244
g62
(dp3245
sg71
g3230
sg64
(lp3246
g57
(g58
g59
NtRp3247
(dp3248
g62
(dp3249
g70
I4
ssg71
g3243
sg64
(lp3250
S'no-store, no-cache, must-revalidate, post-check=0, pre-check=0'
p3251
asbasbasbag57
(g73
g59
NtRp3252
(dp3253
g62
(dp3254
sg71
g3226
sg64
(lp3255
g57
(g78
g59
NtRp3256
(dp3257
g62
(dp3258
g82
g83
ssg71
g3252
sg64
(lp3259
S'Content-Type'
p3260
asbag57
(g78
g59
NtRp3261
(dp3262
g62
(dp3263
g89
g90
ssg71
g3252
sg64
(lp3264
S':'
asbag57
(g78
g59
NtRp3265
(dp3266
g62
(dp3267
sg71
g3252
sg64
(lp3268
g57
(g58
g59
NtRp3269
(dp3270
g62
(dp3271
g70
I4
ssg71
g3265
sg64
(lp3272
S'text/html; charset=utf-8'
p3273
asbasbasbag57
(g73
g59
NtRp3274
(dp3275
g62
(dp3276
sg71
g3226
sg64
(lp3277
g57
(g78
g59
NtRp3278
(dp3279
g62
(dp3280
g82
g83
ssg71
g3274
sg64
(lp3281
S'Expires'
p3282
asbag57
(g78
g59
NtRp3283
(dp3284
g62
(dp3285
g89
g90
ssg71
g3274
sg64
(lp3286
S':'
asbag57
(g78
g59
NtRp3287
(dp3288
g62
(dp3289
sg71
g3274
sg64
(lp3290
g57
(g58
g59
NtRp3291
(dp3292
g62
(dp3293
g70
I4
ssg71
g3287
sg64
(lp3294
S'Mon, 17 Dec 2012 11:04:13 GMT'
p3295
asbasbasbag57
(g73
g59
NtRp3296
(dp3297
g62
(dp3298
sg71
g3226
sg64
(lp3299
g57
(g78
g59
NtRp3300
(dp3301
g62
(dp3302
g82
g83
ssg71
g3296
sg64
(lp3303
S'Pragma'
p3304
asbag57
(g78
g59
NtRp3305
(dp3306
g62
(dp3307
g89
g90
ssg71
g3296
sg64
(lp3308
S':'
asbag57
(g78
g59
NtRp3309
(dp3310
g62
(dp3311
sg71
g3296
sg64
(lp3312
g57
(g58
g59
NtRp3313
(dp3314
g62
(dp3315
g70
I4
ssg71
g3309
sg64
(lp3316
S'no-cache'
p3317
asbasbasbag57
(g73
g59
NtRp3318
(dp3319
g62
(dp3320
sg71
g3226
sg64
(lp3321
g57
(g78
g59
NtRp3322
(dp3323
g62
(dp3324
g82
g83
ssg71
g3318
sg64
(lp3325
S'X-Powered-By'
p3326
asbag57
(g78
g59
NtRp3327
(dp3328
g62
(dp3329
g89
g90
ssg71
g3318
sg64
(lp3330
S':'
asbag57
(g78
g59
NtRp3331
(dp3332
g62
(dp3333
sg71
g3318
sg64
(lp3334
g57
(g58
g59
NtRp3335
(dp3336
g62
(dp3337
g70
I4
ssg71
g3331
sg64
(lp3338
S'web2py'
p3339
asbasbasbasbasbasbasbag57
(g73
g59
NtRp3340
(dp3341
g62
(dp3342
sg71
g2814
sg64
(lp3343
g57
(g78
g59
NtRp3344
(dp3345
g62
(dp3346
g82
g83
ssg71
g3340
sg64
(lp3347
S'menu'
p3348
asbag57
(g78
g59
NtRp3349
(dp3350
g62
(dp3351
g89
g90
ssg71
g3340
sg64
(lp3352
S':'
asbag57
(g78
g59
NtRp3353
(dp3354
g62
(dp3355
sg71
g3340
sg64
(lp3356
g57
(g58
g59
NtRp3357
(dp3358
g62
(dp3359
g70
I5
ssg71
g3353
sg64
(lp3360
g57
(g66
g59
NtRp3361
(dp3362
g62
(dp3363
g70
I4
ssg71
Nsg64
(lp3364
g57
(g73
g59
NtRp3365
(dp3366
g62
(dp3367
sg71
g3361
sg64
(lp3368
g57
(g78
g59
NtRp3369
(dp3370
g62
(dp3371
sg71
g3365
sg64
(lp3372
g57
(g58
g59
NtRp3373
(dp3374
g62
(dp3375
g70
I4
ssg71
g3369
sg64
(lp3376
g57
(g66
g59
NtRp3377
(dp3378
g62
(dp3379
g70
I3
ssg71
Nsg64
(lp3380
g57
(g73
g59
NtRp3381
(dp3382
g62
(dp3383
sg71
g3377
sg64
(lp3384
g57
(g78
g59
NtRp3385
(dp3386
g62
(dp3387
sg71
g3381
sg64
(lp3388
g57
(g58
g59
NtRp3389
(dp3390
g62
(dp3391
g70
I3
ssg71
g3385
sg64
(lp3392
cgluon.languages
lazyT_unpickle
p3393
(S't\x04\x00\x00\x00Home'
tRp3394
asbasbasbag57
(g73
g59
NtRp3395
(dp3396
g62
(dp3397
sg71
g3377
sg64
(lp3398
g57
(g78
g59
NtRp3399
(dp3400
g62
(dp3401
sg71
g3395
sg64
(lp3402
g57
(g58
g59
NtRp3403
(dp3404
g62
(dp3405
g70
I3
ssg71
g3399
sg64
(lp3406
g100
asbasbasbag57
(g73
g59
NtRp3407
(dp3408
g62
(dp3409
sg71
g3377
sg64
(lp3410
g57
(g78
g59
NtRp3411
(dp3412
g62
(dp3413
sg71
g3407
sg64
(lp3414
g57
(g58
g59
NtRp3415
(dp3416
g62
(dp3417
g70
I3
ssg71
g3411
sg64
(lp3418
S'/testumgebung/default/index'
p3419
asbasbasbag57
(g73
g59
NtRp3420
(dp3421
g62
(dp3422
sg71
g3377
sg64
(lp3423
g57
(g78
g59
NtRp3424
(dp3425
g62
(dp3426
sg71
g3420
sg64
(lp3427
g57
(g58
g59
NtRp3428
(dp3429
g62
(dp3430
g70
I3
ssg71
g3424
sg64
(lp3431
g57
(g66
g59
NtRp3432
(dp3433
g62
(dp3434
g70
I2
ssg71
Nsg64
(lp3435
sbasbasbasbasbasbasbasbag57
(g73
g59
NtRp3436
(dp3437
g62
(dp3438
sg71
g3361
sg64
(lp3439
g57
(g78
g59
NtRp3440
(dp3441
g62
(dp3442
sg71
g3436
sg64
(lp3443
g57
(g58
g59
NtRp3444
(dp3445
g62
(dp3446
g70
I4
ssg71
g3440
sg64
(lp3447
g57
(g66
g59
NtRp3448
(dp3449
g62
(dp3450
g70
I3
ssg71
Nsg64
(lp3451
g57
(g73
g59
NtRp3452
(dp3453
g62
(dp3454
sg71
g3448
sg64
(lp3455
g57
(g78
g59
NtRp3456
(dp3457
g62
(dp3458
sg71
g3452
sg64
(lp3459
g57
(g58
g59
NtRp3460
(dp3461
g62
(dp3462
g70
I3
ssg71
g3456
sg64
(lp3463
g57
(cgluon.html
SPAN
p3464
g59
NtRp3465
(dp3466
g62
(dp3467
g82
S'color:yellow'
p3468
ssg71
Nsg64
(lp3469
g3339
asbasbasbasbag57
(g73
g59
NtRp3470
(dp3471
g62
(dp3472
sg71
g3448
sg64
(lp3473
g57
(g78
g59
NtRp3474
(dp3475
g62
(dp3476
sg71
g3470
sg64
(lp3477
g57
(g58
g59
NtRp3478
(dp3479
g62
(dp3480
g70
I3
ssg71
g3474
sg64
(lp3481
g100
asbasbasbag57
(g73
g59
NtRp3482
(dp3483
g62
(dp3484
sg71
g3448
sg64
(lp3485
g57
(g78
g59
NtRp3486
(dp3487
g62
(dp3488
sg71
g3482
sg64
(lp3489
g57
(g58
g59
NtRp3490
(dp3491
g62
(dp3492
g70
I3
ssg71
g3486
sg64
(lp3493
S'http://web2py.com'
p3494
asbasbasbag57
(g73
g59
NtRp3495
(dp3496
g62
(dp3497
sg71
g3448
sg64
(lp3498
g57
(g78
g59
NtRp3499
(dp3500
g62
(dp3501
sg71
g3495
sg64
(lp3502
g57
(g58
g59
NtRp3503
(dp3504
g62
(dp3505
g70
I3
ssg71
g3499
sg64
(lp3506
g57
(g66
g59
NtRp3507
(dp3508
g62
(dp3509
g70
I2
ssg71
Nsg64
(lp3510
g57
(g73
g59
NtRp3511
(dp3512
g62
(dp3513
sg71
g3507
sg64
(lp3514
g57
(g78
g59
NtRp3515
(dp3516
g62
(dp3517
sg71
g3511
sg64
(lp3518
g57
(g58
g59
NtRp3519
(dp3520
g62
(dp3521
g70
I2
ssg71
g3515
sg64
(lp3522
g57
(g66
g59
NtRp3523
(dp3524
g62
(dp3525
g70
I1
ssg71
Nsg64
(lp3526
g57
(g73
g59
NtRp3527
(dp3528
g62
(dp3529
sg71
g3523
sg64
(lp3530
g57
(g78
g59
NtRp3531
(dp3532
g62
(dp3533
sg71
g3527
sg64
(lp3534
g57
(g58
g59
NtRp3535
(dp3536
g62
(dp3537
g70
I1
ssg71
g3531
sg64
(lp3538
g3393
(S's\x08\x00\x00\x00My Sites'
tRp3539
asbasbasbag57
(g73
g59
NtRp3540
(dp3541
g62
(dp3542
sg71
g3523
sg64
(lp3543
g57
(g78
g59
NtRp3544
(dp3545
g62
(dp3546
sg71
g3540
sg64
(lp3547
g57
(g58
g59
NtRp3548
(dp3549
g62
(dp3550
g70
I1
ssg71
g3544
sg64
(lp3551
I00
asbasbasbag57
(g73
g59
NtRp3552
(dp3553
g62
(dp3554
sg71
g3523
sg64
(lp3555
g57
(g78
g59
NtRp3556
(dp3557
g62
(dp3558
sg71
g3552
sg64
(lp3559
g57
(g58
g59
NtRp3560
(dp3561
g62
(dp3562
g70
I1
ssg71
g3556
sg64
(lp3563
S'/admin/default/site'
p3564
asbasbasbasbasbasbasbag57
(g73
g59
NtRp3565
(dp3566
g62
(dp3567
sg71
g3507
sg64
(lp3568
g57
(g78
g59
NtRp3569
(dp3570
g62
(dp3571
sg71
g3565
sg64
(lp3572
g57
(g58
g59
NtRp3573
(dp3574
g62
(dp3575
g70
I2
ssg71
g3569
sg64
(lp3576
g57
(g66
g59
NtRp3577
(dp3578
g62
(dp3579
g70
I1
ssg71
Nsg64
(lp3580
g57
(g73
g59
NtRp3581
(dp3582
g62
(dp3583
sg71
g3577
sg64
(lp3584
g57
(g78
g59
NtRp3585
(dp3586
g62
(dp3587
sg71
g3581
sg64
(lp3588
g57
(g58
g59
NtRp3589
(dp3590
g62
(dp3591
g70
I1
ssg71
g3585
sg64
(lp3592
g3393
(S's\x08\x00\x00\x00This App'
tRp3593
asbasbasbag57
(g73
g59
NtRp3594
(dp3595
g62
(dp3596
sg71
g3577
sg64
(lp3597
g57
(g78
g59
NtRp3598
(dp3599
g62
(dp3600
sg71
g3594
sg64
(lp3601
g57
(g58
g59
NtRp3602
(dp3603
g62
(dp3604
g70
I1
ssg71
g3598
sg64
(lp3605
I00
asbasbasbag57
(g73
g59
NtRp3606
(dp3607
g62
(dp3608
sg71
g3577
sg64
(lp3609
g57
(g78
g59
NtRp3610
(dp3611
g62
(dp3612
sg71
g3606
sg64
(lp3613
g57
(g58
g59
NtRp3614
(dp3615
g62
(dp3616
g70
I1
ssg71
g3610
sg64
(lp3617
S'/admin/default/design/testumgebung'
p3618
asbasbasbag57
(g73
g59
NtRp3619
(dp3620
g62
(dp3621
sg71
g3577
sg64
(lp3622
g57
(g78
g59
NtRp3623
(dp3624
g62
(dp3625
sg71
g3619
sg64
(lp3626
g57
(g58
g59
NtRp3627
(dp3628
g62
(dp3629
g70
I1
ssg71
g3623
sg64
(lp3630
(lp3631
(g3393
(S't\n\x00\x00\x00Controller'
tRp3632
I00
S'/admin/default/edit/testumgebung/controllers/default.py'
tp3633
a(g3393
(S't\x04\x00\x00\x00View'
tRp3634
I00
S'/admin/default/edit/testumgebung/views/default/index.html'
tp3635
a(g3393
(S't\x06\x00\x00\x00Layout'
tRp3636
I00
S'/admin/default/edit/testumgebung/views/layout.html'
tp3637
a(g3393
(S't\n\x00\x00\x00Stylesheet'
tRp3638
I00
S'/admin/default/edit/testumgebung/static/css/web2py.css'
tp3639
a(g3393
(S's\x08\x00\x00\x00DB Model'
tRp3640
I00
S'/admin/default/edit/testumgebung/models/db.py'
tp3641
a(g3393
(S's\n\x00\x00\x00Menu Model'
tRp3642
I00
S'/admin/default/edit/testumgebung/models/menu.py'
tp3643
a(g3393
(S't\x08\x00\x00\x00Database'
tRp3644
I00
S'/testumgebung/appadmin/index'
tp3645
a(g3393
(S't\x06\x00\x00\x00Errors'
tRp3646
I00
S'/admin/default/errors/testumgebung'
tp3647
a(g3393
(S't\x05\x00\x00\x00About'
tRp3648
I00
S'/admin/default/about/testumgebung'
tp3649
aasbasbasbasbasbasbasbag57
(g73
g59
NtRp3650
(dp3651
g62
(dp3652
sg71
g3507
sg64
(lp3653
g57
(g78
g59
NtRp3654
(dp3655
g62
(dp3656
sg71
g3650
sg64
(lp3657
g57
(g58
g59
NtRp3658
(dp3659
g62
(dp3660
g70
I2
ssg71
g3654
sg64
(lp3661
g57
(g66
g59
NtRp3662
(dp3663
g62
(dp3664
g70
I1
ssg71
Nsg64
(lp3665
g57
(g73
g59
NtRp3666
(dp3667
g62
(dp3668
sg71
g3662
sg64
(lp3669
g57
(g78
g59
NtRp3670
(dp3671
g62
(dp3672
sg71
g3666
sg64
(lp3673
g57
(g58
g59
NtRp3674
(dp3675
g62
(dp3676
g70
I1
ssg71
g3670
sg64
(lp3677
S'web2py.com'
p3678
asbasbasbag57
(g73
g59
NtRp3679
(dp3680
g62
(dp3681
sg71
g3662
sg64
(lp3682
g57
(g78
g59
NtRp3683
(dp3684
g62
(dp3685
sg71
g3679
sg64
(lp3686
g57
(g58
g59
NtRp3687
(dp3688
g62
(dp3689
g70
I1
ssg71
g3683
sg64
(lp3690
I00
asbasbasbag57
(g73
g59
NtRp3691
(dp3692
g62
(dp3693
sg71
g3662
sg64
(lp3694
g57
(g78
g59
NtRp3695
(dp3696
g62
(dp3697
sg71
g3691
sg64
(lp3698
g57
(g58
g59
NtRp3699
(dp3700
g62
(dp3701
g70
I1
ssg71
g3695
sg64
(lp3702
S'http://www.web2py.com'
p3703
asbasbasbag57
(g73
g59
NtRp3704
(dp3705
g62
(dp3706
sg71
g3662
sg64
(lp3707
g57
(g78
g59
NtRp3708
(dp3709
g62
(dp3710
sg71
g3704
sg64
(lp3711
g57
(g58
g59
NtRp3712
(dp3713
g62
(dp3714
g70
I1
ssg71
g3708
sg64
(lp3715
(lp3716
(g3393
(S't\x08\x00\x00\x00Download'
tRp3717
I00
S'http://www.web2py.com/examples/default/download'
p3718
tp3719
a(g3393
(S't\x07\x00\x00\x00Support'
tRp3720
I00
S'http://www.web2py.com/examples/default/support'
p3721
tp3722
a(g3393
(S't\x04\x00\x00\x00Demo'
tRp3723
I00
S'http://web2py.com/demo_admin'
p3724
tp3725
a(g3393
(S's\x0e\x00\x00\x00Quick Examples'
tRp3726
I00
S'http://web2py.com/examples/default/examples'
p3727
tp3728
a(g3393
(S't\x03\x00\x00\x00FAQ'
tRp3729
I00
S'http://web2py.com/AlterEgo'
p3730
tp3731
a(g3393
(S't\x06\x00\x00\x00Videos'
tRp3732
I00
S'http://www.web2py.com/examples/default/videos/'
p3733
tp3734
a(g3393
(S's\x11\x00\x00\x00Free Applications'
tRp3735
I00
S'http://web2py.com/appliances'
p3736
tp3737
a(g3393
(S't\x07\x00\x00\x00Plugins'
tRp3738
I00
S'http://web2py.com/plugins'
p3739
tp3740
a(g3393
(S't\x07\x00\x00\x00Layouts'
tRp3741
I00
S'http://web2py.com/layouts'
p3742
tp3743
a(g3393
(S't\x07\x00\x00\x00Recipes'
tRp3744
I00
S'http://web2pyslices.com/'
p3745
tp3746
a(g3393
(S't\x08\x00\x00\x00Semantic'
tRp3747
I00
S'http://web2py.com/semantic'
p3748
tp3749
aasbasbasbasbasbasbasbag57
(g73
g59
NtRp3750
(dp3751
g62
(dp3752
sg71
g3507
sg64
(lp3753
g57
(g78
g59
NtRp3754
(dp3755
g62
(dp3756
sg71
g3750
sg64
(lp3757
g57
(g58
g59
NtRp3758
(dp3759
g62
(dp3760
g70
I2
ssg71
g3754
sg64
(lp3761
g57
(g66
g59
NtRp3762
(dp3763
g62
(dp3764
g70
I1
ssg71
Nsg64
(lp3765
g57
(g73
g59
NtRp3766
(dp3767
g62
(dp3768
sg71
g3762
sg64
(lp3769
g57
(g78
g59
NtRp3770
(dp3771
g62
(dp3772
sg71
g3766
sg64
(lp3773
g57
(g58
g59
NtRp3774
(dp3775
g62
(dp3776
g70
I1
ssg71
g3770
sg64
(lp3777
g3393
(S't\r\x00\x00\x00Documentation'
tRp3778
asbasbasbag57
(g73
g59
NtRp3779
(dp3780
g62
(dp3781
sg71
g3762
sg64
(lp3782
g57
(g78
g59
NtRp3783
(dp3784
g62
(dp3785
sg71
g3779
sg64
(lp3786
g57
(g58
g59
NtRp3787
(dp3788
g62
(dp3789
g70
I1
ssg71
g3783
sg64
(lp3790
I00
asbasbasbag57
(g73
g59
NtRp3791
(dp3792
g62
(dp3793
sg71
g3762
sg64
(lp3794
g57
(g78
g59
NtRp3795
(dp3796
g62
(dp3797
sg71
g3791
sg64
(lp3798
g57
(g58
g59
NtRp3799
(dp3800
g62
(dp3801
g70
I1
ssg71
g3795
sg64
(lp3802
S'http://www.web2py.com/book'
p3803
asbasbasbag57
(g73
g59
NtRp3804
(dp3805
g62
(dp3806
sg71
g3762
sg64
(lp3807
g57
(g78
g59
NtRp3808
(dp3809
g62
(dp3810
sg71
g3804
sg64
(lp3811
g57
(g58
g59
NtRp3812
(dp3813
g62
(dp3814
g70
I1
ssg71
g3808
sg64
(lp3815
(lp3816
(g3393
(S't\x07\x00\x00\x00Preface'
tRp3817
I00
S'http://www.web2py.com/book/default/chapter/00'
p3818
tp3819
a(g3393
(S't\x0c\x00\x00\x00Introduction'
tRp3820
I00
S'http://www.web2py.com/book/default/chapter/01'
p3821
tp3822
a(g3393
(S't\x06\x00\x00\x00Python'
tRp3823
I00
S'http://www.web2py.com/book/default/chapter/02'
p3824
tp3825
a(g3393
(S't\x08\x00\x00\x00Overview'
tRp3826
I00
S'http://www.web2py.com/book/default/chapter/03'
p3827
tp3828
a(g3393
(S's\x08\x00\x00\x00The Core'
tRp3829
I00
S'http://www.web2py.com/book/default/chapter/04'
p3830
tp3831
a(g3393
(S's\t\x00\x00\x00The Views'
tRp3832
I00
S'http://www.web2py.com/book/default/chapter/05'
p3833
tp3834
a(g3393
(S't\x08\x00\x00\x00Database'
tRp3835
I00
S'http://www.web2py.com/book/default/chapter/06'
p3836
tp3837
a(g3393
(S's\x14\x00\x00\x00Forms and Validators'
tRp3838
I00
S'http://www.web2py.com/book/default/chapter/07'
p3839
tp3840
a(g3393
(S's\r\x00\x00\x00Email and SMS'
tRp3841
I00
S'http://www.web2py.com/book/default/chapter/08'
p3842
tp3843
a(g3393
(S's\x0e\x00\x00\x00Access Control'
tRp3844
I00
S'http://www.web2py.com/book/default/chapter/09'
p3845
tp3846
a(g3393
(S't\x08\x00\x00\x00Services'
tRp3847
I00
S'http://www.web2py.com/book/default/chapter/10'
p3848
tp3849
a(g3393
(S's\x0c\x00\x00\x00Ajax Recipes'
tRp3850
I00
S'http://www.web2py.com/book/default/chapter/11'
p3851
tp3852
a(g3393
(S's\x16\x00\x00\x00Components and Plugins'
tRp3853
I00
S'http://www.web2py.com/book/default/chapter/12'
p3854
tp3855
a(g3393
(S's\x12\x00\x00\x00Deployment Recipes'
tRp3856
I00
S'http://www.web2py.com/book/default/chapter/13'
p3857
tp3858
a(g3393
(S's\r\x00\x00\x00Other Recipes'
tRp3859
I00
S'http://www.web2py.com/book/default/chapter/14'
p3860
tp3861
a(g3393
(S's\r\x00\x00\x00Buy this book'
tRp3862
I00
S'http://stores.lulu.com/web2py'
p3863
tp3864
aasbasbasbasbasbasbasbag57
(g73
g59
NtRp3865
(dp3866
g62
(dp3867
sg71
g3507
sg64
(lp3868
g57
(g78
g59
NtRp3869
(dp3870
g62
(dp3871
sg71
g3865
sg64
(lp3872
g57
(g58
g59
NtRp3873
(dp3874
g62
(dp3875
g70
I2
ssg71
g3869
sg64
(lp3876
g57
(g66
g59
NtRp3877
(dp3878
g62
(dp3879
g70
I1
ssg71
Nsg64
(lp3880
g57
(g73
g59
NtRp3881
(dp3882
g62
(dp3883
sg71
g3877
sg64
(lp3884
g57
(g78
g59
NtRp3885
(dp3886
g62
(dp3887
sg71
g3881
sg64
(lp3888
g57
(g58
g59
NtRp3889
(dp3890
g62
(dp3891
g70
I1
ssg71
g3885
sg64
(lp3892
g3393
(S't\t\x00\x00\x00Community'
tRp3893
asbasbasbag57
(g73
g59
NtRp3894
(dp3895
g62
(dp3896
sg71
g3877
sg64
(lp3897
g57
(g78
g59
NtRp3898
(dp3899
g62
(dp3900
sg71
g3894
sg64
(lp3901
g57
(g58
g59
NtRp3902
(dp3903
g62
(dp3904
g70
I1
ssg71
g3898
sg64
(lp3905
I00
asbasbasbag57
(g73
g59
NtRp3906
(dp3907
g62
(dp3908
sg71
g3877
sg64
(lp3909
g57
(g78
g59
NtRp3910
(dp3911
g62
(dp3912
sg71
g3906
sg64
(lp3913
g57
(g58
g59
NtRp3914
(dp3915
g62
(dp3916
g70
I1
ssg71
g3910
sg64
(lp3917
Nasbasbasbag57
(g73
g59
NtRp3918
(dp3919
g62
(dp3920
sg71
g3877
sg64
(lp3921
g57
(g78
g59
NtRp3922
(dp3923
g62
(dp3924
sg71
g3918
sg64
(lp3925
g57
(g58
g59
NtRp3926
(dp3927
g62
(dp3928
g70
I1
ssg71
g3922
sg64
(lp3929
(lp3930
(g3393
(S't\x06\x00\x00\x00Groups'
tRp3931
I00
S'http://www.web2py.com/examples/default/usergroups'
p3932
tp3933
a(g3393
(S't\x07\x00\x00\x00Twitter'
tRp3934
I00
S'http://twitter.com/web2py'
p3935
tp3936
a(g3393
(S's\t\x00\x00\x00Live Chat'
tRp3937
I00
S'http://webchat.freenode.net/?channels=web2py'
p3938
tp3939
aasbasbasbasbasbasbasbag57
(g73
g59
NtRp3940
(dp3941
g62
(dp3942
sg71
g3507
sg64
(lp3943
g57
(g78
g59
NtRp3944
(dp3945
g62
(dp3946
sg71
g3940
sg64
(lp3947
g57
(g58
g59
NtRp3948
(dp3949
g62
(dp3950
g70
I2
ssg71
g3944
sg64
(lp3951
g57
(g66
g59
NtRp3952
(dp3953
g62
(dp3954
g70
I1
ssg71
Nsg64
(lp3955
g57
(g73
g59
NtRp3956
(dp3957
g62
(dp3958
sg71
g3952
sg64
(lp3959
g57
(g78
g59
NtRp3960
(dp3961
g62
(dp3962
sg71
g3956
sg64
(lp3963
g57
(g58
g59
NtRp3964
(dp3965
g62
(dp3966
g70
I1
ssg71
g3960
sg64
(lp3967
g3393
(S't\x07\x00\x00\x00Plugins'
tRp3968
asbasbasbag57
(g73
g59
NtRp3969
(dp3970
g62
(dp3971
sg71
g3952
sg64
(lp3972
g57
(g78
g59
NtRp3973
(dp3974
g62
(dp3975
sg71
g3969
sg64
(lp3976
g57
(g58
g59
NtRp3977
(dp3978
g62
(dp3979
g70
I1
ssg71
g3973
sg64
(lp3980
I00
asbasbasbag57
(g73
g59
NtRp3981
(dp3982
g62
(dp3983
sg71
g3952
sg64
(lp3984
g57
(g78
g59
NtRp3985
(dp3986
g62
(dp3987
sg71
g3981
sg64
(lp3988
g57
(g58
g59
NtRp3989
(dp3990
g62
(dp3991
g70
I1
ssg71
g3985
sg64
(lp3992
Nasbasbasbag57
(g73
g59
NtRp3993
(dp3994
g62
(dp3995
sg71
g3952
sg64
(lp3996
g57
(g78
g59
NtRp3997
(dp3998
g62
(dp3999
sg71
g3993
sg64
(lp4000
g57
(g58
g59
NtRp4001
(dp4002
g62
(dp4003
g70
I1
ssg71
g3997
sg64
(lp4004
(lp4005
(S'plugin_wiki'
p4006
I00
S'http://web2py.com/examples/default/download'
p4007
tp4008
a(g3393
(S's\r\x00\x00\x00Other Plugins'
tRp4009
I00
g3739
tp4010
a(g3393
(S's\x0e\x00\x00\x00Layout Plugins'
tRp4011
I00
g3742
tp4012
aasbasbasbasbasbasbasbasbasbasbasbasbasbasbasbasbasbasbasbag57
(g73
g59
NtRp4013
(dp4014
g62
(dp4015
sg71
g2814
sg64
(lp4016
g57
(g78
g59
NtRp4017
(dp4018
g62
(dp4019
g82
g83
ssg71
g4013
sg64
(lp4020
S'meta'
p4021
asbag57
(g78
g59
NtRp4022
(dp4023
g62
(dp4024
g89
g90
ssg71
g4013
sg64
(lp4025
S':'
asbag57
(g78
g59
NtRp4026
(dp4027
g62
(dp4028
sg71
g4013
sg64
(lp4029
g57
(g58
g59
NtRp4030
(dp4031
g62
(dp4032
g70
I5
ssg71
g4026
sg64
(lp4033
g57
(g66
g59
NtRp4034
(dp4035
g62
(dp4036
g70
I4
ssg71
Nsg64
(lp4037
g57
(g73
g59
NtRp4038
(dp4039
g62
(dp4040
sg71
g4034
sg64
(lp4041
g57
(g78
g59
NtRp4042
(dp4043
g62
(dp4044
g82
g83
ssg71
g4038
sg64
(lp4045
S'author'
p4046
asbag57
(g78
g59
NtRp4047
(dp4048
g62
(dp4049
g89
g90
ssg71
g4038
sg64
(lp4050
S':'
asbag57
(g78
g59
NtRp4051
(dp4052
g62
(dp4053
sg71
g4038
sg64
(lp4054
g57
(g58
g59
NtRp4055
(dp4056
g62
(dp4057
g70
I4
ssg71
g4051
sg64
(lp4058
S'Your Name <you@example.com>'
p4059
asbasbasbag57
(g73
g59
NtRp4060
(dp4061
g62
(dp4062
sg71
g4034
sg64
(lp4063
g57
(g78
g59
NtRp4064
(dp4065
g62
(dp4066
g82
g83
ssg71
g4060
sg64
(lp4067
S'description'
p4068
asbag57
(g78
g59
NtRp4069
(dp4070
g62
(dp4071
g89
g90
ssg71
g4060
sg64
(lp4072
S':'
asbag57
(g78
g59
NtRp4073
(dp4074
g62
(dp4075
sg71
g4060
sg64
(lp4076
g57
(g58
g59
NtRp4077
(dp4078
g62
(dp4079
g70
I4
ssg71
g4073
sg64
(lp4080
S'a cool new app'
p4081
asbasbasbag57
(g73
g59
NtRp4082
(dp4083
g62
(dp4084
sg71
g4034
sg64
(lp4085
g57
(g78
g59
NtRp4086
(dp4087
g62
(dp4088
g82
g83
ssg71
g4082
sg64
(lp4089
S'generator'
p4090
asbag57
(g78
g59
NtRp4091
(dp4092
g62
(dp4093
g89
g90
ssg71
g4082
sg64
(lp4094
S':'
asbag57
(g78
g59
NtRp4095
(dp4096
g62
(dp4097
sg71
g4082
sg64
(lp4098
g57
(g58
g59
NtRp4099
(dp4100
g62
(dp4101
g70
I4
ssg71
g4095
sg64
(lp4102
S'Web2py Web Framework'
p4103
asbasbasbag57
(g73
g59
NtRp4104
(dp4105
g62
(dp4106
sg71
g4034
sg64
(lp4107
g57
(g78
g59
NtRp4108
(dp4109
g62
(dp4110
g82
g83
ssg71
g4104
sg64
(lp4111
S'keywords'
p4112
asbag57
(g78
g59
NtRp4113
(dp4114
g62
(dp4115
g89
g90
ssg71
g4104
sg64
(lp4116
S':'
asbag57
(g78
g59
NtRp4117
(dp4118
g62
(dp4119
sg71
g4104
sg64
(lp4120
g57
(g58
g59
NtRp4121
(dp4122
g62
(dp4123
g70
I4
ssg71
g4117
sg64
(lp4124
S'web2py, python, framework'
p4125
asbasbasbasbasbasbasbag57
(g73
g59
NtRp4126
(dp4127
g62
(dp4128
sg71
g2814
sg64
(lp4129
g57
(g78
g59
NtRp4130
(dp4131
g62
(dp4132
g82
g83
ssg71
g4126
sg64
(lp4133
S'postprocessing'
p4134
asbag57
(g78
g59
NtRp4135
(dp4136
g62
(dp4137
g89
g90
ssg71
g4126
sg64
(lp4138
S':'
asbag57
(g78
g59
NtRp4139
(dp4140
g62
(dp4141
sg71
g4126
sg64
(lp4142
g57
(g58
g59
NtRp4143
(dp4144
g62
(dp4145
g70
I5
ssg71
g4139
sg64
(lp4146
g57
(g66
g59
NtRp4147
(dp4148
g62
(dp4149
g70
I4
ssg71
Nsg64
(lp4150
sbasbasbasbag57
(g73
g59
NtRp4151
(dp4152
g62
(dp4153
sg71
g2814
sg64
(lp4154
g57
(g78
g59
NtRp4155
(dp4156
g62
(dp4157
g82
g83
ssg71
g4151
sg64
(lp4158
S'session_filename'
p4159
asbag57
(g78
g59
NtRp4160
(dp4161
g62
(dp4162
g89
g90
ssg71
g4151
sg64
(lp4163
S':'
asbag57
(g78
g59
NtRp4164
(dp4165
g62
(dp4166
sg71
g4151
sg64
(lp4167
g57
(g58
g59
NtRp4168
(dp4169
g62
(dp4170
g70
I5
ssg71
g4164
sg64
(lp4171
S'C:\\xampp\\htdocs\\web2py\\applications\\testumgebung\\sessions\\127.0.0.1-a474333f-8ab3-401e-b86e-991db78dd485'
p4172
asbasbasbag57
(g73
g59
NtRp4173
(dp4174
g62
(dp4175
sg71
g2814
sg64
(lp4176
g57
(g78
g59
NtRp4177
(dp4178
g62
(dp4179
g82
g83
ssg71
g4173
sg64
(lp4180
S'session_id'
p4181
asbag57
(g78
g59
NtRp4182
(dp4183
g62
(dp4184
g89
g90
ssg71
g4173
sg64
(lp4185
S':'
asbag57
(g78
g59
NtRp4186
(dp4187
g62
(dp4188
sg71
g4173
sg64
(lp4189
g57
(g58
g59
NtRp4190
(dp4191
g62
(dp4192
g70
I5
ssg71
g4186
sg64
(lp4193
g2884
asbasbasbag57
(g73
g59
NtRp4194
(dp4195
g62
(dp4196
sg71
g2814
sg64
(lp4197
g57
(g78
g59
NtRp4198
(dp4199
g62
(dp4200
g82
g83
ssg71
g4194
sg64
(lp4201
S'session_id_name'
p4202
asbag57
(g78
g59
NtRp4203
(dp4204
g62
(dp4205
g89
g90
ssg71
g4194
sg64
(lp4206
S':'
asbag57
(g78
g59
NtRp4207
(dp4208
g62
(dp4209
sg71
g4194
sg64
(lp4210
g57
(g58
g59
NtRp4211
(dp4212
g62
(dp4213
g70
I5
ssg71
g4207
sg64
(lp4214
g2871
asbasbasbag57
(g73
g59
NtRp4215
(dp4216
g62
(dp4217
sg71
g2814
sg64
(lp4218
g57
(g78
g59
NtRp4219
(dp4220
g62
(dp4221
g82
g83
ssg71
g4215
sg64
(lp4222
S'session_new'
p4223
asbag57
(g78
g59
NtRp4224
(dp4225
g62
(dp4226
g89
g90
ssg71
g4215
sg64
(lp4227
S':'
asbag57
(g78
g59
NtRp4228
(dp4229
g62
(dp4230
sg71
g4215
sg64
(lp4231
g57
(g58
g59
NtRp4232
(dp4233
g62
(dp4234
g70
I5
ssg71
g4228
sg64
(lp4235
g1350
asbasbasbag57
(g73
g59
NtRp4236
(dp4237
g62
(dp4238
sg71
g2814
sg64
(lp4239
g57
(g78
g59
NtRp4240
(dp4241
g62
(dp4242
g82
g83
ssg71
g4236
sg64
(lp4243
S'status'
p4244
asbag57
(g78
g59
NtRp4245
(dp4246
g62
(dp4247
g89
g90
ssg71
g4236
sg64
(lp4248
S':'
asbag57
(g78
g59
NtRp4249
(dp4250
g62
(dp4251
sg71
g4236
sg64
(lp4252
g57
(g58
g59
NtRp4253
(dp4254
g62
(dp4255
g70
I5
ssg71
g4249
sg64
(lp4256
S'200'
p4257
asbasbasbag57
(g73
g59
NtRp4258
(dp4259
g62
(dp4260
sg71
g2814
sg64
(lp4261
g57
(g78
g59
NtRp4262
(dp4263
g62
(dp4264
g82
g83
ssg71
g4258
sg64
(lp4265
S'subtitle'
p4266
asbag57
(g78
g59
NtRp4267
(dp4268
g62
(dp4269
g89
g90
ssg71
g4258
sg64
(lp4270
S':'
asbag57
(g78
g59
NtRp4271
(dp4272
g62
(dp4273
sg71
g4258
sg64
(lp4274
g57
(g58
g59
NtRp4275
(dp4276
g62
(dp4277
g70
I5
ssg71
g4271
sg64
(lp4278
g3393
(S's\r\x00\x00\x00customize me!'
tRp4279
asbasbasbag57
(g73
g59
NtRp4280
(dp4281
g62
(dp4282
sg71
g2814
sg64
(lp4283
g57
(g78
g59
NtRp4284
(dp4285
g62
(dp4286
g82
g83
ssg71
g4280
sg64
(lp4287
S'title'
p4288
asbag57
(g78
g59
NtRp4289
(dp4290
g62
(dp4291
g89
g90
ssg71
g4280
sg64
(lp4292
S':'
asbag57
(g78
g59
NtRp4293
(dp4294
g62
(dp4295
sg71
g4280
sg64
(lp4296
g57
(g58
g59
NtRp4297
(dp4298
g62
(dp4299
g70
I5
ssg71
g4293
sg64
(lp4300
S'Testumgebung'
p4301
asbasbasbag57
(g73
g59
NtRp4302
(dp4303
g62
(dp4304
sg71
g2814
sg64
(lp4305
g57
(g78
g59
NtRp4306
(dp4307
g62
(dp4308
g82
g83
ssg71
g4302
sg64
(lp4309
S'view'
p4310
asbag57
(g78
g59
NtRp4311
(dp4312
g62
(dp4313
g89
g90
ssg71
g4302
sg64
(lp4314
S':'
asbag57
(g78
g59
NtRp4315
(dp4316
g62
(dp4317
sg71
g4302
sg64
(lp4318
g57
(g58
g59
NtRp4319
(dp4320
g62
(dp4321
g70
I5
ssg71
g4315
sg64
(lp4322
S'default/index.html'
p4323
asbasbasbasbasbsS'locals'
p4324
(dp4325
S'fromlist'
p4326
S'[]'
p4327
sS'e'
S'ImportError("Cannot import module \'mainfeedbackform\'",)'
p4328
sS'name'
p4329
S"'mainfeedbackform'"
p4330
sg70
S'-1'
p4331
sS'caller_file_name'
p4332
S"r'C:\\xampp\\htdocs\\web2py\\applications\\testumgebung\\controllers/default.py'"
p4333
sS'self'
p4334
S'<gluon.custom_import._Web2pyDateTrackerImporter object>'
p4335
sS'match_app_dir'
p4336
S'<_sre.SRE_Match object>'
p4337
sS'globals'
p4338
S"{'A': <class 'gluon.html.A'>, 'Auth': <class 'gluon.tools.Auth'>, 'B': <class 'gluon.html.B'>, 'BEAUTIFY': <class 'gluon.html.BEAUTIFY'>, 'BODY': <class 'gluon.html.BODY'>, 'BR': <class 'gluon.html.BR'>, 'BUTTON': <class 'gluon.html.BUTTON'>, 'CAT': <class 'gluon.html.CAT'>, 'CENTER': <class 'gluon.html.CENTER'>, 'CLEANUP': <class 'gluon.validators.CLEANUP'>, ...}"
p4339
sS'modules_prefix'
p4340
S"'applications.testumgebung.modules'"
p4341
sS'e1'
p4342
S"ImportError('No module named mainfeedbackform',)"
p4343
sg4324
S"{'A': <class 'gluon.html.A'>, 'Auth': <class 'gluon.tools.Auth'>, 'B': <class 'gluon.html.B'>, 'BEAUTIFY': <class 'gluon.html.BEAUTIFY'>, 'BODY': <class 'gluon.html.BODY'>, 'BR': <class 'gluon.html.BR'>, 'BUTTON': <class 'gluon.html.BUTTON'>, 'CAT': <class 'gluon.html.CAT'>, 'CENTER': <class 'gluon.html.CENTER'>, 'CLEANUP': <class 'gluon.validators.CLEANUP'>, ...}"
p4344
sssS'traceback'
p4345
S'Traceback (most recent call last):\n  File "gluon/restricted.py", line 209, in restricted\n  File "C:\\xampp\\htdocs\\web2py\\applications\\testumgebung\\controllers/default.py", line 6, in <module>\n  File "gluon/custom_import.py", line 295, in __call__\nImportError: Cannot import module \'mainfeedbackform\'\n'
p4346
s.