(dp1
S'output'
p2
S"<type 'exceptions.SyntaxError'> invalid syntax (controllers/default.py, line 17)"
p3
sS'layer'
p4
S'C:\\xampp\\htdocs\\web2py\\applications\\testumgebung\\controllers/default.py'
p5
sS'code'
p6
S'# -*- coding: utf-8 -*-\n# this file is released under public domain and you can use without limitations\n\n#########################################################################\n## This is a samples controller\n## - index is the default action of any application\n## - user is required for authentication and authorization\n## - download is for downloading files uploaded in the db (does streaming)\n## - call exposes all registered services (none by default)\n#########################################################################\n\ndef index():\n    """\n    """\n\n\n    form = \n\n\n\n\n    return dict(message=T(\'Hello World\'))\n\ndef user():\n    """\n    exposes:\n    http://..../[app]/default/user/login\n    http://..../[app]/default/user/logout\n    http://..../[app]/default/user/register\n    http://..../[app]/default/user/profile\n    http://..../[app]/default/user/retrieve_password\n    http://..../[app]/default/user/change_password\n    use @auth.requires_login()\n        @auth.requires_membership(\'group name\')\n        @auth.requires_permission(\'read\',\'table name\',record_id)\n    to decorate functions that need access control\n    """\n    return dict(form=auth())\n\n\ndef download():\n    """\n    allows downloading of uploaded files\n    http://..../[app]/default/download/[filename]\n    """\n    return response.download(request,db)\n\n\ndef call():\n    """\n    exposes services. for example:\n    http://..../[app]/default/call/jsonrpc\n    decorate with @services.jsonrpc the functions to expose\n    supports xml, json, xmlrpc, jsonrpc, amfrpc, rss, csv\n    """\n    return service()\n\n\n@auth.requires_signature()\ndef data():\n    """\n    http://..../[app]/default/data/tables\n    http://..../[app]/default/data/create/[table]\n    http://..../[app]/default/data/read/[table]/[id]\n    http://..../[app]/default/data/update/[table]/[id]\n    http://..../[app]/default/data/delete/[table]/[id]\n    http://..../[app]/default/data/select/[table]\n    http://..../[app]/default/data/search/[table]\n    but URLs must be signed, i.e. linked with\n      A(\'table\',_href=URL(\'data/tables\',user_signature=True))\n    or with the signed load operator\n      LOAD(\'default\',\'data.load\',args=\'tables\',ajax=True,user_signature=True)\n    """\n    return dict(form=crud())\n\nresponse._vars=response._caller(index)\n'
p7
sS'snapshot'
p8
(dp9
S'exception'
p10
(dp11
S'__getslice__'
p12
S"<method-wrapper '__getslice__' of exceptions.SyntaxError object>"
p13
sS'text'
p14
S"'    form = \\n'"
p15
sS'__str__'
p16
S"<method-wrapper '__str__' of exceptions.SyntaxError object>"
p17
sS'__reduce__'
p18
S'<built-in method __reduce__ of exceptions.SyntaxError object>'
p19
sS'__dict__'
p20
S'{}'
p21
sS'__sizeof__'
p22
S'<built-in method __sizeof__ of exceptions.SyntaxError object>'
p23
sS'__init__'
p24
S"<method-wrapper '__init__' of exceptions.SyntaxError object>"
p25
sS'__setattr__'
p26
S"<method-wrapper '__setattr__' of exceptions.SyntaxError object>"
p27
sS'__reduce_ex__'
p28
S'<built-in method __reduce_ex__ of exceptions.SyntaxError object>'
p29
sS'__new__'
p30
S'<built-in method __new__ of type object>'
p31
sS'__format__'
p32
S'<built-in method __format__ of exceptions.SyntaxError object>'
p33
sS'__class__'
p34
S"<type 'exceptions.SyntaxError'>"
p35
sS'filename'
p36
S"r'C:\\xampp\\htdocs\\web2py\\applications\\testumgebung\\controllers/default.py'"
p37
sS'lineno'
p38
S'17'
p39
sS'msg'
p40
S"'invalid syntax'"
p41
sS'__doc__'
p42
S"'Invalid syntax.'"
p43
sS'__getitem__'
p44
S"<method-wrapper '__getitem__' of exceptions.SyntaxError object>"
p45
sS'__setstate__'
p46
S'<built-in method __setstate__ of exceptions.SyntaxError object>'
p47
sS'__getattribute__'
p48
S"<method-wrapper '__getattribute__' of exceptions.SyntaxError object>"
p49
sS'print_file_and_line'
p50
S'None'
p51
sS'args'
p52
S"('invalid syntax', (r'C:\\xampp\\htdocs\\web2py\\applications\\testumgebung\\controllers/default.py', 17, 12, '    form = \\n'))"
p53
sS'__subclasshook__'
p54
S'<built-in method __subclasshook__ of type object>'
p55
sS'offset'
p56
S'12'
p57
sS'__unicode__'
p58
S'<built-in method __unicode__ of exceptions.SyntaxError object>'
p59
sS'__delattr__'
p60
S"<method-wrapper '__delattr__' of exceptions.SyntaxError object>"
p61
sS'__repr__'
p62
S"<method-wrapper '__repr__' of exceptions.SyntaxError object>"
p63
sS'__hash__'
p64
S"<method-wrapper '__hash__' of exceptions.SyntaxError object>"
p65
ssS'evalue'
p66
S'invalid syntax (controllers/default.py, line 17)'
p67
sS'request'
p68
ccopy_reg
_reconstructor
p69
(cgluon.html
BEAUTIFY
p70
c__builtin__
object
p71
NtRp72
(dp73
S'attributes'
p74
(dp75
sS'components'
p76
(lp77
g69
(cgluon.html
TABLE
p78
g71
NtRp79
(dp80
g74
(dp81
S'level'
p82
I5
ssS'parent'
p83
Nsg76
(lp84
g69
(cgluon.html
TR
p85
g71
NtRp86
(dp87
g74
(dp88
sg83
g79
sg76
(lp89
g69
(cgluon.html
TD
p90
g71
NtRp91
(dp92
g74
(dp93
S'_style'
p94
S'font-weight:bold;vertical-align:top'
p95
ssg83
g86
sg76
(lp96
S'ajax'
p97
asbag69
(g90
g71
NtRp98
(dp99
g74
(dp100
S'_valign'
p101
S'top'
p102
ssg83
g86
sg76
(lp103
S':'
asbag69
(g90
g71
NtRp104
(dp105
g74
(dp106
sg83
g86
sg76
(lp107
g69
(g70
g71
NtRp108
(dp109
g74
(dp110
g82
I5
ssg83
g104
sg76
(lp111
S'False'
p112
asbasbasbag69
(g85
g71
NtRp113
(dp114
g74
(dp115
sg83
g79
sg76
(lp116
g69
(g90
g71
NtRp117
(dp118
g74
(dp119
g94
g95
ssg83
g113
sg76
(lp120
S'application'
p121
asbag69
(g90
g71
NtRp122
(dp123
g74
(dp124
g101
g102
ssg83
g113
sg76
(lp125
S':'
asbag69
(g90
g71
NtRp126
(dp127
g74
(dp128
sg83
g113
sg76
(lp129
g69
(g70
g71
NtRp130
(dp131
g74
(dp132
g82
I5
ssg83
g126
sg76
(lp133
S'testumgebung'
p134
asbasbasbag69
(g85
g71
NtRp135
(dp136
g74
(dp137
sg83
g79
sg76
(lp138
g69
(g90
g71
NtRp139
(dp140
g74
(dp141
g94
g95
ssg83
g135
sg76
(lp142
g52
asbag69
(g90
g71
NtRp143
(dp144
g74
(dp145
g101
g102
ssg83
g135
sg76
(lp146
S':'
asbag69
(g90
g71
NtRp147
(dp148
g74
(dp149
sg83
g135
sg76
(lp150
g69
(g70
g71
NtRp151
(dp152
g74
(dp153
g82
I5
ssg83
g147
sg76
(lp154
g69
(g78
g71
NtRp155
(dp156
g74
(dp157
g82
I4
ssg83
Nsg76
(lp158
sbasbasbasbag69
(g85
g71
NtRp159
(dp160
g74
(dp161
sg83
g79
sg76
(lp162
g69
(g90
g71
NtRp163
(dp164
g74
(dp165
g94
g95
ssg83
g159
sg76
(lp166
S'body'
p167
asbag69
(g90
g71
NtRp168
(dp169
g74
(dp170
g101
g102
ssg83
g159
sg76
(lp171
S':'
asbag69
(g90
g71
NtRp172
(dp173
g74
(dp174
sg83
g159
sg76
(lp175
g69
(g70
g71
NtRp176
(dp177
g74
(dp178
g82
I5
ssg83
g172
sg76
(lp179
S'<cStringIO.StringO object at 0x06F74F80>'
p180
asbasbasbag69
(g85
g71
NtRp181
(dp182
g74
(dp183
sg83
g79
sg76
(lp184
g69
(g90
g71
NtRp185
(dp186
g74
(dp187
g94
g95
ssg83
g181
sg76
(lp188
S'cid'
p189
asbag69
(g90
g71
NtRp190
(dp191
g74
(dp192
g101
g102
ssg83
g181
sg76
(lp193
S':'
asbag69
(g90
g71
NtRp194
(dp195
g74
(dp196
sg83
g181
sg76
(lp197
g69
(g70
g71
NtRp198
(dp199
g74
(dp200
g82
I5
ssg83
g194
sg76
(lp201
S'None'
p202
asbasbasbag69
(g85
g71
NtRp203
(dp204
g74
(dp205
sg83
g79
sg76
(lp206
g69
(g90
g71
NtRp207
(dp208
g74
(dp209
g94
g95
ssg83
g203
sg76
(lp210
S'client'
p211
asbag69
(g90
g71
NtRp212
(dp213
g74
(dp214
g101
g102
ssg83
g203
sg76
(lp215
S':'
asbag69
(g90
g71
NtRp216
(dp217
g74
(dp218
sg83
g203
sg76
(lp219
g69
(g70
g71
NtRp220
(dp221
g74
(dp222
g82
I5
ssg83
g216
sg76
(lp223
S'127.0.0.1'
p224
asbasbasbag69
(g85
g71
NtRp225
(dp226
g74
(dp227
sg83
g79
sg76
(lp228
g69
(g90
g71
NtRp229
(dp230
g74
(dp231
g94
g95
ssg83
g225
sg76
(lp232
S'controller'
p233
asbag69
(g90
g71
NtRp234
(dp235
g74
(dp236
g101
g102
ssg83
g225
sg76
(lp237
S':'
asbag69
(g90
g71
NtRp238
(dp239
g74
(dp240
sg83
g225
sg76
(lp241
g69
(g70
g71
NtRp242
(dp243
g74
(dp244
g82
I5
ssg83
g238
sg76
(lp245
S'default'
p246
asbasbasbag69
(g85
g71
NtRp247
(dp248
g74
(dp249
sg83
g79
sg76
(lp250
g69
(g90
g71
NtRp251
(dp252
g74
(dp253
g94
g95
ssg83
g247
sg76
(lp254
S'cookies'
p255
asbag69
(g90
g71
NtRp256
(dp257
g74
(dp258
g101
g102
ssg83
g247
sg76
(lp259
S':'
asbag69
(g90
g71
NtRp260
(dp261
g74
(dp262
sg83
g247
sg76
(lp263
g69
(g70
g71
NtRp264
(dp265
g74
(dp266
g82
I5
ssg83
g260
sg76
(lp267
g69
(g78
g71
NtRp268
(dp269
g74
(dp270
g82
I4
ssg83
Nsg76
(lp271
g69
(g85
g71
NtRp272
(dp273
g74
(dp274
sg83
g268
sg76
(lp275
g69
(g90
g71
NtRp276
(dp277
g74
(dp278
g94
g95
ssg83
g272
sg76
(lp279
S'session_id_admin'
p280
asbag69
(g90
g71
NtRp281
(dp282
g74
(dp283
g101
g102
ssg83
g272
sg76
(lp284
S':'
asbag69
(g90
g71
NtRp285
(dp286
g74
(dp287
sg83
g272
sg76
(lp288
g69
(g70
g71
NtRp289
(dp290
g74
(dp291
g82
I4
ssg83
g285
sg76
(lp292
S'127.0.0.1-5239cf5b-9e7b-4053-ae72-24b9121deeab'
p293
ag69
(g78
g71
NtRp294
(dp295
g74
(dp296
g82
I3
ssg83
Nsg76
(lp297
g69
(g85
g71
NtRp298
(dp299
g74
(dp300
sg83
g294
sg76
(lp301
g69
(g90
g71
NtRp302
(dp303
g74
(dp304
g94
g95
ssg83
g298
sg76
(lp305
S'comment'
p306
asbag69
(g90
g71
NtRp307
(dp308
g74
(dp309
g101
g102
ssg83
g298
sg76
(lp310
S':'
asbag69
(g90
g71
NtRp311
(dp312
g74
(dp313
sg83
g298
sg76
(lp314
g69
(g70
g71
NtRp315
(dp316
g74
(dp317
g82
I3
ssg83
g311
sg76
(lp318
S''
asbasbasbag69
(g85
g71
NtRp319
(dp320
g74
(dp321
sg83
g294
sg76
(lp322
g69
(g90
g71
NtRp323
(dp324
g74
(dp325
g94
g95
ssg83
g319
sg76
(lp326
S'domain'
p327
asbag69
(g90
g71
NtRp328
(dp329
g74
(dp330
g101
g102
ssg83
g319
sg76
(lp331
S':'
asbag69
(g90
g71
NtRp332
(dp333
g74
(dp334
sg83
g319
sg76
(lp335
g69
(g70
g71
NtRp336
(dp337
g74
(dp338
g82
I3
ssg83
g332
sg76
(lp339
S''
asbasbasbag69
(g85
g71
NtRp340
(dp341
g74
(dp342
sg83
g294
sg76
(lp343
g69
(g90
g71
NtRp344
(dp345
g74
(dp346
g94
g95
ssg83
g340
sg76
(lp347
S'expires'
p348
asbag69
(g90
g71
NtRp349
(dp350
g74
(dp351
g101
g102
ssg83
g340
sg76
(lp352
S':'
asbag69
(g90
g71
NtRp353
(dp354
g74
(dp355
sg83
g340
sg76
(lp356
g69
(g70
g71
NtRp357
(dp358
g74
(dp359
g82
I3
ssg83
g353
sg76
(lp360
S''
asbasbasbag69
(g85
g71
NtRp361
(dp362
g74
(dp363
sg83
g294
sg76
(lp364
g69
(g90
g71
NtRp365
(dp366
g74
(dp367
g94
g95
ssg83
g361
sg76
(lp368
S'httponly'
p369
asbag69
(g90
g71
NtRp370
(dp371
g74
(dp372
g101
g102
ssg83
g361
sg76
(lp373
S':'
asbag69
(g90
g71
NtRp374
(dp375
g74
(dp376
sg83
g361
sg76
(lp377
g69
(g70
g71
NtRp378
(dp379
g74
(dp380
g82
I3
ssg83
g374
sg76
(lp381
S''
asbasbasbag69
(g85
g71
NtRp382
(dp383
g74
(dp384
sg83
g294
sg76
(lp385
g69
(g90
g71
NtRp386
(dp387
g74
(dp388
g94
g95
ssg83
g382
sg76
(lp389
S'max-age'
p390
asbag69
(g90
g71
NtRp391
(dp392
g74
(dp393
g101
g102
ssg83
g382
sg76
(lp394
S':'
asbag69
(g90
g71
NtRp395
(dp396
g74
(dp397
sg83
g382
sg76
(lp398
g69
(g70
g71
NtRp399
(dp400
g74
(dp401
g82
I3
ssg83
g395
sg76
(lp402
S''
asbasbasbag69
(g85
g71
NtRp403
(dp404
g74
(dp405
sg83
g294
sg76
(lp406
g69
(g90
g71
NtRp407
(dp408
g74
(dp409
g94
g95
ssg83
g403
sg76
(lp410
S'path'
p411
asbag69
(g90
g71
NtRp412
(dp413
g74
(dp414
g101
g102
ssg83
g403
sg76
(lp415
S':'
asbag69
(g90
g71
NtRp416
(dp417
g74
(dp418
sg83
g403
sg76
(lp419
g69
(g70
g71
NtRp420
(dp421
g74
(dp422
g82
I3
ssg83
g416
sg76
(lp423
S''
asbasbasbag69
(g85
g71
NtRp424
(dp425
g74
(dp426
sg83
g294
sg76
(lp427
g69
(g90
g71
NtRp428
(dp429
g74
(dp430
g94
g95
ssg83
g424
sg76
(lp431
S'secure'
p432
asbag69
(g90
g71
NtRp433
(dp434
g74
(dp435
g101
g102
ssg83
g424
sg76
(lp436
S':'
asbag69
(g90
g71
NtRp437
(dp438
g74
(dp439
sg83
g424
sg76
(lp440
g69
(g70
g71
NtRp441
(dp442
g74
(dp443
g82
I3
ssg83
g437
sg76
(lp444
S''
asbasbasbag69
(g85
g71
NtRp445
(dp446
g74
(dp447
sg83
g294
sg76
(lp448
g69
(g90
g71
NtRp449
(dp450
g74
(dp451
g94
g95
ssg83
g445
sg76
(lp452
S'version'
p453
asbag69
(g90
g71
NtRp454
(dp455
g74
(dp456
g101
g102
ssg83
g445
sg76
(lp457
S':'
asbag69
(g90
g71
NtRp458
(dp459
g74
(dp460
sg83
g445
sg76
(lp461
g69
(g70
g71
NtRp462
(dp463
g74
(dp464
g82
I3
ssg83
g458
sg76
(lp465
S''
asbasbasbasbasbasbasbag69
(g85
g71
NtRp466
(dp467
g74
(dp468
sg83
g268
sg76
(lp469
g69
(g90
g71
NtRp470
(dp471
g74
(dp472
g94
g95
ssg83
g466
sg76
(lp473
S'session_id_kieva'
p474
asbag69
(g90
g71
NtRp475
(dp476
g74
(dp477
g101
g102
ssg83
g466
sg76
(lp478
S':'
asbag69
(g90
g71
NtRp479
(dp480
g74
(dp481
sg83
g466
sg76
(lp482
g69
(g70
g71
NtRp483
(dp484
g74
(dp485
g82
I4
ssg83
g479
sg76
(lp486
S'127.0.0.1-fff4b2b7-03cc-4da7-b514-2284420dda5f'
p487
ag69
(g78
g71
NtRp488
(dp489
g74
(dp490
g82
I3
ssg83
Nsg76
(lp491
g69
(g85
g71
NtRp492
(dp493
g74
(dp494
sg83
g488
sg76
(lp495
g69
(g90
g71
NtRp496
(dp497
g74
(dp498
g94
g95
ssg83
g492
sg76
(lp499
g306
asbag69
(g90
g71
NtRp500
(dp501
g74
(dp502
g101
g102
ssg83
g492
sg76
(lp503
S':'
asbag69
(g90
g71
NtRp504
(dp505
g74
(dp506
sg83
g492
sg76
(lp507
g69
(g70
g71
NtRp508
(dp509
g74
(dp510
g82
I3
ssg83
g504
sg76
(lp511
S''
asbasbasbag69
(g85
g71
NtRp512
(dp513
g74
(dp514
sg83
g488
sg76
(lp515
g69
(g90
g71
NtRp516
(dp517
g74
(dp518
g94
g95
ssg83
g512
sg76
(lp519
g327
asbag69
(g90
g71
NtRp520
(dp521
g74
(dp522
g101
g102
ssg83
g512
sg76
(lp523
S':'
asbag69
(g90
g71
NtRp524
(dp525
g74
(dp526
sg83
g512
sg76
(lp527
g69
(g70
g71
NtRp528
(dp529
g74
(dp530
g82
I3
ssg83
g524
sg76
(lp531
S''
asbasbasbag69
(g85
g71
NtRp532
(dp533
g74
(dp534
sg83
g488
sg76
(lp535
g69
(g90
g71
NtRp536
(dp537
g74
(dp538
g94
g95
ssg83
g532
sg76
(lp539
g348
asbag69
(g90
g71
NtRp540
(dp541
g74
(dp542
g101
g102
ssg83
g532
sg76
(lp543
S':'
asbag69
(g90
g71
NtRp544
(dp545
g74
(dp546
sg83
g532
sg76
(lp547
g69
(g70
g71
NtRp548
(dp549
g74
(dp550
g82
I3
ssg83
g544
sg76
(lp551
S''
asbasbasbag69
(g85
g71
NtRp552
(dp553
g74
(dp554
sg83
g488
sg76
(lp555
g69
(g90
g71
NtRp556
(dp557
g74
(dp558
g94
g95
ssg83
g552
sg76
(lp559
g369
asbag69
(g90
g71
NtRp560
(dp561
g74
(dp562
g101
g102
ssg83
g552
sg76
(lp563
S':'
asbag69
(g90
g71
NtRp564
(dp565
g74
(dp566
sg83
g552
sg76
(lp567
g69
(g70
g71
NtRp568
(dp569
g74
(dp570
g82
I3
ssg83
g564
sg76
(lp571
S''
asbasbasbag69
(g85
g71
NtRp572
(dp573
g74
(dp574
sg83
g488
sg76
(lp575
g69
(g90
g71
NtRp576
(dp577
g74
(dp578
g94
g95
ssg83
g572
sg76
(lp579
g390
asbag69
(g90
g71
NtRp580
(dp581
g74
(dp582
g101
g102
ssg83
g572
sg76
(lp583
S':'
asbag69
(g90
g71
NtRp584
(dp585
g74
(dp586
sg83
g572
sg76
(lp587
g69
(g70
g71
NtRp588
(dp589
g74
(dp590
g82
I3
ssg83
g584
sg76
(lp591
S''
asbasbasbag69
(g85
g71
NtRp592
(dp593
g74
(dp594
sg83
g488
sg76
(lp595
g69
(g90
g71
NtRp596
(dp597
g74
(dp598
g94
g95
ssg83
g592
sg76
(lp599
g411
asbag69
(g90
g71
NtRp600
(dp601
g74
(dp602
g101
g102
ssg83
g592
sg76
(lp603
S':'
asbag69
(g90
g71
NtRp604
(dp605
g74
(dp606
sg83
g592
sg76
(lp607
g69
(g70
g71
NtRp608
(dp609
g74
(dp610
g82
I3
ssg83
g604
sg76
(lp611
S''
asbasbasbag69
(g85
g71
NtRp612
(dp613
g74
(dp614
sg83
g488
sg76
(lp615
g69
(g90
g71
NtRp616
(dp617
g74
(dp618
g94
g95
ssg83
g612
sg76
(lp619
g432
asbag69
(g90
g71
NtRp620
(dp621
g74
(dp622
g101
g102
ssg83
g612
sg76
(lp623
S':'
asbag69
(g90
g71
NtRp624
(dp625
g74
(dp626
sg83
g612
sg76
(lp627
g69
(g70
g71
NtRp628
(dp629
g74
(dp630
g82
I3
ssg83
g624
sg76
(lp631
S''
asbasbasbag69
(g85
g71
NtRp632
(dp633
g74
(dp634
sg83
g488
sg76
(lp635
g69
(g90
g71
NtRp636
(dp637
g74
(dp638
g94
g95
ssg83
g632
sg76
(lp639
g453
asbag69
(g90
g71
NtRp640
(dp641
g74
(dp642
g101
g102
ssg83
g632
sg76
(lp643
S':'
asbag69
(g90
g71
NtRp644
(dp645
g74
(dp646
sg83
g632
sg76
(lp647
g69
(g70
g71
NtRp648
(dp649
g74
(dp650
g82
I3
ssg83
g644
sg76
(lp651
S''
asbasbasbasbasbasbasbag69
(g85
g71
NtRp652
(dp653
g74
(dp654
sg83
g268
sg76
(lp655
g69
(g90
g71
NtRp656
(dp657
g74
(dp658
g94
g95
ssg83
g652
sg76
(lp659
S'session_id_testumgebung'
p660
asbag69
(g90
g71
NtRp661
(dp662
g74
(dp663
g101
g102
ssg83
g652
sg76
(lp664
S':'
asbag69
(g90
g71
NtRp665
(dp666
g74
(dp667
sg83
g652
sg76
(lp668
g69
(g70
g71
NtRp669
(dp670
g74
(dp671
g82
I4
ssg83
g665
sg76
(lp672
S'127.0.0.1-583949e9-52f5-49cf-8866-f6d66a5fcf06'
p673
ag69
(g78
g71
NtRp674
(dp675
g74
(dp676
g82
I3
ssg83
Nsg76
(lp677
g69
(g85
g71
NtRp678
(dp679
g74
(dp680
sg83
g674
sg76
(lp681
g69
(g90
g71
NtRp682
(dp683
g74
(dp684
g94
g95
ssg83
g678
sg76
(lp685
g306
asbag69
(g90
g71
NtRp686
(dp687
g74
(dp688
g101
g102
ssg83
g678
sg76
(lp689
S':'
asbag69
(g90
g71
NtRp690
(dp691
g74
(dp692
sg83
g678
sg76
(lp693
g69
(g70
g71
NtRp694
(dp695
g74
(dp696
g82
I3
ssg83
g690
sg76
(lp697
S''
asbasbasbag69
(g85
g71
NtRp698
(dp699
g74
(dp700
sg83
g674
sg76
(lp701
g69
(g90
g71
NtRp702
(dp703
g74
(dp704
g94
g95
ssg83
g698
sg76
(lp705
g327
asbag69
(g90
g71
NtRp706
(dp707
g74
(dp708
g101
g102
ssg83
g698
sg76
(lp709
S':'
asbag69
(g90
g71
NtRp710
(dp711
g74
(dp712
sg83
g698
sg76
(lp713
g69
(g70
g71
NtRp714
(dp715
g74
(dp716
g82
I3
ssg83
g710
sg76
(lp717
S''
asbasbasbag69
(g85
g71
NtRp718
(dp719
g74
(dp720
sg83
g674
sg76
(lp721
g69
(g90
g71
NtRp722
(dp723
g74
(dp724
g94
g95
ssg83
g718
sg76
(lp725
g348
asbag69
(g90
g71
NtRp726
(dp727
g74
(dp728
g101
g102
ssg83
g718
sg76
(lp729
S':'
asbag69
(g90
g71
NtRp730
(dp731
g74
(dp732
sg83
g718
sg76
(lp733
g69
(g70
g71
NtRp734
(dp735
g74
(dp736
g82
I3
ssg83
g730
sg76
(lp737
S''
asbasbasbag69
(g85
g71
NtRp738
(dp739
g74
(dp740
sg83
g674
sg76
(lp741
g69
(g90
g71
NtRp742
(dp743
g74
(dp744
g94
g95
ssg83
g738
sg76
(lp745
g369
asbag69
(g90
g71
NtRp746
(dp747
g74
(dp748
g101
g102
ssg83
g738
sg76
(lp749
S':'
asbag69
(g90
g71
NtRp750
(dp751
g74
(dp752
sg83
g738
sg76
(lp753
g69
(g70
g71
NtRp754
(dp755
g74
(dp756
g82
I3
ssg83
g750
sg76
(lp757
S''
asbasbasbag69
(g85
g71
NtRp758
(dp759
g74
(dp760
sg83
g674
sg76
(lp761
g69
(g90
g71
NtRp762
(dp763
g74
(dp764
g94
g95
ssg83
g758
sg76
(lp765
g390
asbag69
(g90
g71
NtRp766
(dp767
g74
(dp768
g101
g102
ssg83
g758
sg76
(lp769
S':'
asbag69
(g90
g71
NtRp770
(dp771
g74
(dp772
sg83
g758
sg76
(lp773
g69
(g70
g71
NtRp774
(dp775
g74
(dp776
g82
I3
ssg83
g770
sg76
(lp777
S''
asbasbasbag69
(g85
g71
NtRp778
(dp779
g74
(dp780
sg83
g674
sg76
(lp781
g69
(g90
g71
NtRp782
(dp783
g74
(dp784
g94
g95
ssg83
g778
sg76
(lp785
g411
asbag69
(g90
g71
NtRp786
(dp787
g74
(dp788
g101
g102
ssg83
g778
sg76
(lp789
S':'
asbag69
(g90
g71
NtRp790
(dp791
g74
(dp792
sg83
g778
sg76
(lp793
g69
(g70
g71
NtRp794
(dp795
g74
(dp796
g82
I3
ssg83
g790
sg76
(lp797
S''
asbasbasbag69
(g85
g71
NtRp798
(dp799
g74
(dp800
sg83
g674
sg76
(lp801
g69
(g90
g71
NtRp802
(dp803
g74
(dp804
g94
g95
ssg83
g798
sg76
(lp805
g432
asbag69
(g90
g71
NtRp806
(dp807
g74
(dp808
g101
g102
ssg83
g798
sg76
(lp809
S':'
asbag69
(g90
g71
NtRp810
(dp811
g74
(dp812
sg83
g798
sg76
(lp813
g69
(g70
g71
NtRp814
(dp815
g74
(dp816
g82
I3
ssg83
g810
sg76
(lp817
S''
asbasbasbag69
(g85
g71
NtRp818
(dp819
g74
(dp820
sg83
g674
sg76
(lp821
g69
(g90
g71
NtRp822
(dp823
g74
(dp824
g94
g95
ssg83
g818
sg76
(lp825
g453
asbag69
(g90
g71
NtRp826
(dp827
g74
(dp828
g101
g102
ssg83
g818
sg76
(lp829
S':'
asbag69
(g90
g71
NtRp830
(dp831
g74
(dp832
sg83
g818
sg76
(lp833
g69
(g70
g71
NtRp834
(dp835
g74
(dp836
g82
I3
ssg83
g830
sg76
(lp837
S''
asbasbasbasbasbasbasbag69
(g85
g71
NtRp838
(dp839
g74
(dp840
sg83
g268
sg76
(lp841
g69
(g90
g71
NtRp842
(dp843
g74
(dp844
g94
g95
ssg83
g838
sg76
(lp845
S'session_id_welcome'
p846
asbag69
(g90
g71
NtRp847
(dp848
g74
(dp849
g101
g102
ssg83
g838
sg76
(lp850
S':'
asbag69
(g90
g71
NtRp851
(dp852
g74
(dp853
sg83
g838
sg76
(lp854
g69
(g70
g71
NtRp855
(dp856
g74
(dp857
g82
I4
ssg83
g851
sg76
(lp858
S'127.0.0.1-e4a73cb2-056d-4635-8bc9-bbdaf3d225f8'
p859
ag69
(g78
g71
NtRp860
(dp861
g74
(dp862
g82
I3
ssg83
Nsg76
(lp863
g69
(g85
g71
NtRp864
(dp865
g74
(dp866
sg83
g860
sg76
(lp867
g69
(g90
g71
NtRp868
(dp869
g74
(dp870
g94
g95
ssg83
g864
sg76
(lp871
g306
asbag69
(g90
g71
NtRp872
(dp873
g74
(dp874
g101
g102
ssg83
g864
sg76
(lp875
S':'
asbag69
(g90
g71
NtRp876
(dp877
g74
(dp878
sg83
g864
sg76
(lp879
g69
(g70
g71
NtRp880
(dp881
g74
(dp882
g82
I3
ssg83
g876
sg76
(lp883
S''
asbasbasbag69
(g85
g71
NtRp884
(dp885
g74
(dp886
sg83
g860
sg76
(lp887
g69
(g90
g71
NtRp888
(dp889
g74
(dp890
g94
g95
ssg83
g884
sg76
(lp891
g327
asbag69
(g90
g71
NtRp892
(dp893
g74
(dp894
g101
g102
ssg83
g884
sg76
(lp895
S':'
asbag69
(g90
g71
NtRp896
(dp897
g74
(dp898
sg83
g884
sg76
(lp899
g69
(g70
g71
NtRp900
(dp901
g74
(dp902
g82
I3
ssg83
g896
sg76
(lp903
S''
asbasbasbag69
(g85
g71
NtRp904
(dp905
g74
(dp906
sg83
g860
sg76
(lp907
g69
(g90
g71
NtRp908
(dp909
g74
(dp910
g94
g95
ssg83
g904
sg76
(lp911
g348
asbag69
(g90
g71
NtRp912
(dp913
g74
(dp914
g101
g102
ssg83
g904
sg76
(lp915
S':'
asbag69
(g90
g71
NtRp916
(dp917
g74
(dp918
sg83
g904
sg76
(lp919
g69
(g70
g71
NtRp920
(dp921
g74
(dp922
g82
I3
ssg83
g916
sg76
(lp923
S''
asbasbasbag69
(g85
g71
NtRp924
(dp925
g74
(dp926
sg83
g860
sg76
(lp927
g69
(g90
g71
NtRp928
(dp929
g74
(dp930
g94
g95
ssg83
g924
sg76
(lp931
g369
asbag69
(g90
g71
NtRp932
(dp933
g74
(dp934
g101
g102
ssg83
g924
sg76
(lp935
S':'
asbag69
(g90
g71
NtRp936
(dp937
g74
(dp938
sg83
g924
sg76
(lp939
g69
(g70
g71
NtRp940
(dp941
g74
(dp942
g82
I3
ssg83
g936
sg76
(lp943
S''
asbasbasbag69
(g85
g71
NtRp944
(dp945
g74
(dp946
sg83
g860
sg76
(lp947
g69
(g90
g71
NtRp948
(dp949
g74
(dp950
g94
g95
ssg83
g944
sg76
(lp951
g390
asbag69
(g90
g71
NtRp952
(dp953
g74
(dp954
g101
g102
ssg83
g944
sg76
(lp955
S':'
asbag69
(g90
g71
NtRp956
(dp957
g74
(dp958
sg83
g944
sg76
(lp959
g69
(g70
g71
NtRp960
(dp961
g74
(dp962
g82
I3
ssg83
g956
sg76
(lp963
S''
asbasbasbag69
(g85
g71
NtRp964
(dp965
g74
(dp966
sg83
g860
sg76
(lp967
g69
(g90
g71
NtRp968
(dp969
g74
(dp970
g94
g95
ssg83
g964
sg76
(lp971
g411
asbag69
(g90
g71
NtRp972
(dp973
g74
(dp974
g101
g102
ssg83
g964
sg76
(lp975
S':'
asbag69
(g90
g71
NtRp976
(dp977
g74
(dp978
sg83
g964
sg76
(lp979
g69
(g70
g71
NtRp980
(dp981
g74
(dp982
g82
I3
ssg83
g976
sg76
(lp983
S''
asbasbasbag69
(g85
g71
NtRp984
(dp985
g74
(dp986
sg83
g860
sg76
(lp987
g69
(g90
g71
NtRp988
(dp989
g74
(dp990
g94
g95
ssg83
g984
sg76
(lp991
g432
asbag69
(g90
g71
NtRp992
(dp993
g74
(dp994
g101
g102
ssg83
g984
sg76
(lp995
S':'
asbag69
(g90
g71
NtRp996
(dp997
g74
(dp998
sg83
g984
sg76
(lp999
g69
(g70
g71
NtRp1000
(dp1001
g74
(dp1002
g82
I3
ssg83
g996
sg76
(lp1003
S''
asbasbasbag69
(g85
g71
NtRp1004
(dp1005
g74
(dp1006
sg83
g860
sg76
(lp1007
g69
(g90
g71
NtRp1008
(dp1009
g74
(dp1010
g94
g95
ssg83
g1004
sg76
(lp1011
g453
asbag69
(g90
g71
NtRp1012
(dp1013
g74
(dp1014
g101
g102
ssg83
g1004
sg76
(lp1015
S':'
asbag69
(g90
g71
NtRp1016
(dp1017
g74
(dp1018
sg83
g1004
sg76
(lp1019
g69
(g70
g71
NtRp1020
(dp1021
g74
(dp1022
g82
I3
ssg83
g1016
sg76
(lp1023
S''
asbasbasbasbasbasbasbasbasbasbasbag69
(g85
g71
NtRp1024
(dp1025
g74
(dp1026
sg83
g79
sg76
(lp1027
g69
(g90
g71
NtRp1028
(dp1029
g74
(dp1030
g94
g95
ssg83
g1024
sg76
(lp1031
S'env'
p1032
asbag69
(g90
g71
NtRp1033
(dp1034
g74
(dp1035
g101
g102
ssg83
g1024
sg76
(lp1036
S':'
asbag69
(g90
g71
NtRp1037
(dp1038
g74
(dp1039
sg83
g1024
sg76
(lp1040
g69
(g70
g71
NtRp1041
(dp1042
g74
(dp1043
g82
I5
ssg83
g1037
sg76
(lp1044
g69
(g78
g71
NtRp1045
(dp1046
g74
(dp1047
g82
I4
ssg83
Nsg76
(lp1048
g69
(g85
g71
NtRp1049
(dp1050
g74
(dp1051
sg83
g1045
sg76
(lp1052
g69
(g90
g71
NtRp1053
(dp1054
g74
(dp1055
g94
g95
ssg83
g1049
sg76
(lp1056
S'app_folders'
p1057
asbag69
(g90
g71
NtRp1058
(dp1059
g74
(dp1060
g101
g102
ssg83
g1049
sg76
(lp1061
S':'
asbag69
(g90
g71
NtRp1062
(dp1063
g74
(dp1064
sg83
g1049
sg76
(lp1065
g69
(g70
g71
NtRp1066
(dp1067
g74
(dp1068
g82
I4
ssg83
g1062
sg76
(lp1069
S"set(['C:\\\\xampp\\\\htdocs\\\\web2py\\\\applications\\\\kieva\\\\', 'C:\\\\xampp\\\\htdocs\\\\web2py\\\\applications\\\\admin\\\\', 'C:\\\\xampp\\\\htdocs\\\\web2py\\\\applications\\\\welcome\\\\', 'C:\\\\xampp\\\\htdocs\\\\web2py\\\\applications\\\\testumgebung\\\\'])"
p1070
asbasbasbag69
(g85
g71
NtRp1071
(dp1072
g74
(dp1073
sg83
g1045
sg76
(lp1074
g69
(g90
g71
NtRp1075
(dp1076
g74
(dp1077
g94
g95
ssg83
g1071
sg76
(lp1078
S'applications_parent'
p1079
asbag69
(g90
g71
NtRp1080
(dp1081
g74
(dp1082
g101
g102
ssg83
g1071
sg76
(lp1083
S':'
asbag69
(g90
g71
NtRp1084
(dp1085
g74
(dp1086
sg83
g1071
sg76
(lp1087
g69
(g70
g71
NtRp1088
(dp1089
g74
(dp1090
g82
I4
ssg83
g1084
sg76
(lp1091
S'C:\\xampp\\htdocs\\web2py'
p1092
asbasbasbag69
(g85
g71
NtRp1093
(dp1094
g74
(dp1095
sg83
g1045
sg76
(lp1096
g69
(g90
g71
NtRp1097
(dp1098
g74
(dp1099
g94
g95
ssg83
g1093
sg76
(lp1100
S'cmd_args'
p1101
asbag69
(g90
g71
NtRp1102
(dp1103
g74
(dp1104
g101
g102
ssg83
g1093
sg76
(lp1105
S':'
asbag69
(g90
g71
NtRp1106
(dp1107
g74
(dp1108
sg83
g1093
sg76
(lp1109
g69
(g70
g71
NtRp1110
(dp1111
g74
(dp1112
g82
I4
ssg83
g1106
sg76
(lp1113
g69
(g78
g71
NtRp1114
(dp1115
g74
(dp1116
g82
I3
ssg83
Nsg76
(lp1117
sbasbasbasbag69
(g85
g71
NtRp1118
(dp1119
g74
(dp1120
sg83
g1045
sg76
(lp1121
g69
(g90
g71
NtRp1122
(dp1123
g74
(dp1124
g94
g95
ssg83
g1118
sg76
(lp1125
S'cmd_options'
p1126
asbag69
(g90
g71
NtRp1127
(dp1128
g74
(dp1129
g101
g102
ssg83
g1118
sg76
(lp1130
S':'
asbag69
(g90
g71
NtRp1131
(dp1132
g74
(dp1133
sg83
g1118
sg76
(lp1134
g69
(g70
g71
NtRp1135
(dp1136
g74
(dp1137
g82
I4
ssg83
g1131
sg76
(lp1138
S"<Values at 0x2e4ee18: {'verbose': False, 'ip': '127.0.0.1', 'with_scheduler': False, 'ips': ['192.168.178.21', '192.168.189.1', '192.168.91.1'], 'shutdown_timeout': 5, 'taskbar': False, 'port': 8000, 'maxthreads': None, 'softcron': False, 'server_name': 'swLaptop', 'bpython': False, 'nogui': False, 'nocron': False, 'extcron': False, 'run_system_tests': False, 'test': None, 'folder': 'C:\\\\xampp\\\\htdocs\\\\web2py', 'config': '', 'import_models': False, 'winservice': '', 'shell': None, 'run': '', 'log_filename': 'httpserver.log', 'debuglevel': 30, 'args': [''], 'socket_timeout': 5, 'ssl_ca_certificate': None, 'scheduler': None, 'profiler_filename': None, 'ssl_private_key': '', 'scheduler_groups': None, 'password': '<ask>', 'request_queue_size': 5, 'ssl_certificate': '', 'cronjob': False, 'numthreads': None, 'quiet': False, 'interfaces': None, 'minthreads': None, 'timeout': 10, 'plain': False, 'nobanner': False, 'pid_filename': 'httpserver.pid'}>"
p1139
asbasbasbag69
(g85
g71
NtRp1140
(dp1141
g74
(dp1142
sg83
g1045
sg76
(lp1143
g69
(g90
g71
NtRp1144
(dp1145
g74
(dp1146
g94
g95
ssg83
g1140
sg76
(lp1147
S'db_sessions'
p1148
asbag69
(g90
g71
NtRp1149
(dp1150
g74
(dp1151
g101
g102
ssg83
g1140
sg76
(lp1152
S':'
asbag69
(g90
g71
NtRp1153
(dp1154
g74
(dp1155
sg83
g1140
sg76
(lp1156
g69
(g70
g71
NtRp1157
(dp1158
g74
(dp1159
g82
I4
ssg83
g1153
sg76
(lp1160
S'set([])'
p1161
asbasbasbag69
(g85
g71
NtRp1162
(dp1163
g74
(dp1164
sg83
g1045
sg76
(lp1165
g69
(g90
g71
NtRp1166
(dp1167
g74
(dp1168
g94
g95
ssg83
g1162
sg76
(lp1169
S'debugging'
p1170
asbag69
(g90
g71
NtRp1171
(dp1172
g74
(dp1173
g101
g102
ssg83
g1162
sg76
(lp1174
S':'
asbag69
(g90
g71
NtRp1175
(dp1176
g74
(dp1177
sg83
g1162
sg76
(lp1178
g69
(g70
g71
NtRp1179
(dp1180
g74
(dp1181
g82
I4
ssg83
g1175
sg76
(lp1182
g112
asbasbasbag69
(g85
g71
NtRp1183
(dp1184
g74
(dp1185
sg83
g1045
sg76
(lp1186
g69
(g90
g71
NtRp1187
(dp1188
g74
(dp1189
g94
g95
ssg83
g1183
sg76
(lp1190
S'gluon_parent'
p1191
asbag69
(g90
g71
NtRp1192
(dp1193
g74
(dp1194
g101
g102
ssg83
g1183
sg76
(lp1195
S':'
asbag69
(g90
g71
NtRp1196
(dp1197
g74
(dp1198
sg83
g1183
sg76
(lp1199
g69
(g70
g71
NtRp1200
(dp1201
g74
(dp1202
g82
I4
ssg83
g1196
sg76
(lp1203
S'C:\\xampp\\htdocs\\web2py'
p1204
asbasbasbag69
(g85
g71
NtRp1205
(dp1206
g74
(dp1207
sg83
g1045
sg76
(lp1208
g69
(g90
g71
NtRp1209
(dp1210
g74
(dp1211
g94
g95
ssg83
g1205
sg76
(lp1212
S'http_accept'
p1213
asbag69
(g90
g71
NtRp1214
(dp1215
g74
(dp1216
g101
g102
ssg83
g1205
sg76
(lp1217
S':'
asbag69
(g90
g71
NtRp1218
(dp1219
g74
(dp1220
sg83
g1205
sg76
(lp1221
g69
(g70
g71
NtRp1222
(dp1223
g74
(dp1224
g82
I4
ssg83
g1218
sg76
(lp1225
S'text/html,application/xhtml+xml,application/xml;q=0.9,*/*;q=0.8'
p1226
asbasbasbag69
(g85
g71
NtRp1227
(dp1228
g74
(dp1229
sg83
g1045
sg76
(lp1230
g69
(g90
g71
NtRp1231
(dp1232
g74
(dp1233
g94
g95
ssg83
g1227
sg76
(lp1234
S'http_accept_encoding'
p1235
asbag69
(g90
g71
NtRp1236
(dp1237
g74
(dp1238
g101
g102
ssg83
g1227
sg76
(lp1239
S':'
asbag69
(g90
g71
NtRp1240
(dp1241
g74
(dp1242
sg83
g1227
sg76
(lp1243
g69
(g70
g71
NtRp1244
(dp1245
g74
(dp1246
g82
I4
ssg83
g1240
sg76
(lp1247
S'gzip, deflate'
p1248
asbasbasbag69
(g85
g71
NtRp1249
(dp1250
g74
(dp1251
sg83
g1045
sg76
(lp1252
g69
(g90
g71
NtRp1253
(dp1254
g74
(dp1255
g94
g95
ssg83
g1249
sg76
(lp1256
S'http_accept_language'
p1257
asbag69
(g90
g71
NtRp1258
(dp1259
g74
(dp1260
g101
g102
ssg83
g1249
sg76
(lp1261
S':'
asbag69
(g90
g71
NtRp1262
(dp1263
g74
(dp1264
sg83
g1249
sg76
(lp1265
g69
(g70
g71
NtRp1266
(dp1267
g74
(dp1268
g82
I4
ssg83
g1262
sg76
(lp1269
S'de-de,de;q=0.8,en-us;q=0.5,en;q=0.3'
p1270
asbasbasbag69
(g85
g71
NtRp1271
(dp1272
g74
(dp1273
sg83
g1045
sg76
(lp1274
g69
(g90
g71
NtRp1275
(dp1276
g74
(dp1277
g94
g95
ssg83
g1271
sg76
(lp1278
S'http_cache_control'
p1279
asbag69
(g90
g71
NtRp1280
(dp1281
g74
(dp1282
g101
g102
ssg83
g1271
sg76
(lp1283
S':'
asbag69
(g90
g71
NtRp1284
(dp1285
g74
(dp1286
sg83
g1271
sg76
(lp1287
g69
(g70
g71
NtRp1288
(dp1289
g74
(dp1290
g82
I4
ssg83
g1284
sg76
(lp1291
S'max-age=0'
p1292
asbasbasbag69
(g85
g71
NtRp1293
(dp1294
g74
(dp1295
sg83
g1045
sg76
(lp1296
g69
(g90
g71
NtRp1297
(dp1298
g74
(dp1299
g94
g95
ssg83
g1293
sg76
(lp1300
S'http_connection'
p1301
asbag69
(g90
g71
NtRp1302
(dp1303
g74
(dp1304
g101
g102
ssg83
g1293
sg76
(lp1305
S':'
asbag69
(g90
g71
NtRp1306
(dp1307
g74
(dp1308
sg83
g1293
sg76
(lp1309
g69
(g70
g71
NtRp1310
(dp1311
g74
(dp1312
g82
I4
ssg83
g1306
sg76
(lp1313
S'keep-alive'
p1314
asbasbasbag69
(g85
g71
NtRp1315
(dp1316
g74
(dp1317
sg83
g1045
sg76
(lp1318
g69
(g90
g71
NtRp1319
(dp1320
g74
(dp1321
g94
g95
ssg83
g1315
sg76
(lp1322
S'http_cookie'
p1323
asbag69
(g90
g71
NtRp1324
(dp1325
g74
(dp1326
g101
g102
ssg83
g1315
sg76
(lp1327
S':'
asbag69
(g90
g71
NtRp1328
(dp1329
g74
(dp1330
sg83
g1315
sg76
(lp1331
g69
(g70
g71
NtRp1332
(dp1333
g74
(dp1334
g82
I4
ssg83
g1328
sg76
(lp1335
S'session_id_welcome=127.0.0.1-e4a73cb2-056d-4635-8bc9-bbdaf3d225f8; session_id_kieva=127.0.0.1-fff4b2b7-03cc-4da7-b514-2284420dda5f; session_id_testumgebung=127.0.0.1-583949e9-52f5-49cf-8866-f6d66a5fcf06; session_id_admin=127.0.0.1-5239cf5b-9e7b-4053-ae72-24b9121deeab'
p1336
asbasbasbag69
(g85
g71
NtRp1337
(dp1338
g74
(dp1339
sg83
g1045
sg76
(lp1340
g69
(g90
g71
NtRp1341
(dp1342
g74
(dp1343
g94
g95
ssg83
g1337
sg76
(lp1344
S'http_dnt'
p1345
asbag69
(g90
g71
NtRp1346
(dp1347
g74
(dp1348
g101
g102
ssg83
g1337
sg76
(lp1349
S':'
asbag69
(g90
g71
NtRp1350
(dp1351
g74
(dp1352
sg83
g1337
sg76
(lp1353
g69
(g70
g71
NtRp1354
(dp1355
g74
(dp1356
g82
I4
ssg83
g1350
sg76
(lp1357
S'1'
asbasbasbag69
(g85
g71
NtRp1358
(dp1359
g74
(dp1360
sg83
g1045
sg76
(lp1361
g69
(g90
g71
NtRp1362
(dp1363
g74
(dp1364
g94
g95
ssg83
g1358
sg76
(lp1365
S'http_host'
p1366
asbag69
(g90
g71
NtRp1367
(dp1368
g74
(dp1369
g101
g102
ssg83
g1358
sg76
(lp1370
S':'
asbag69
(g90
g71
NtRp1371
(dp1372
g74
(dp1373
sg83
g1358
sg76
(lp1374
g69
(g70
g71
NtRp1375
(dp1376
g74
(dp1377
g82
I4
ssg83
g1371
sg76
(lp1378
S'127.0.0.1:8000'
p1379
asbasbasbag69
(g85
g71
NtRp1380
(dp1381
g74
(dp1382
sg83
g1045
sg76
(lp1383
g69
(g90
g71
NtRp1384
(dp1385
g74
(dp1386
g94
g95
ssg83
g1380
sg76
(lp1387
S'http_user_agent'
p1388
asbag69
(g90
g71
NtRp1389
(dp1390
g74
(dp1391
g101
g102
ssg83
g1380
sg76
(lp1392
S':'
asbag69
(g90
g71
NtRp1393
(dp1394
g74
(dp1395
sg83
g1380
sg76
(lp1396
g69
(g70
g71
NtRp1397
(dp1398
g74
(dp1399
g82
I4
ssg83
g1393
sg76
(lp1400
S'Mozilla/5.0 (Windows NT 6.1; WOW64; rv:17.0) Gecko/20100101 Firefox/17.0'
p1401
asbasbasbag69
(g85
g71
NtRp1402
(dp1403
g74
(dp1404
sg83
g1045
sg76
(lp1405
g69
(g90
g71
NtRp1406
(dp1407
g74
(dp1408
g94
g95
ssg83
g1402
sg76
(lp1409
S'http_x_clickoncesupport'
p1410
asbag69
(g90
g71
NtRp1411
(dp1412
g74
(dp1413
g101
g102
ssg83
g1402
sg76
(lp1414
S':'
asbag69
(g90
g71
NtRp1415
(dp1416
g74
(dp1417
sg83
g1402
sg76
(lp1418
g69
(g70
g71
NtRp1419
(dp1420
g74
(dp1421
g82
I4
ssg83
g1415
sg76
(lp1422
S'(.NET CLR 2.0.50727; .NET CLR 3.5.30729; .NET CLR 3.0.30729; .NET4.0C; .NET4.0E)'
p1423
asbasbasbag69
(g85
g71
NtRp1424
(dp1425
g74
(dp1426
sg83
g1045
sg76
(lp1427
g69
(g90
g71
NtRp1428
(dp1429
g74
(dp1430
g94
g95
ssg83
g1424
sg76
(lp1431
S'is_jython'
p1432
asbag69
(g90
g71
NtRp1433
(dp1434
g74
(dp1435
g101
g102
ssg83
g1424
sg76
(lp1436
S':'
asbag69
(g90
g71
NtRp1437
(dp1438
g74
(dp1439
sg83
g1424
sg76
(lp1440
g69
(g70
g71
NtRp1441
(dp1442
g74
(dp1443
g82
I4
ssg83
g1437
sg76
(lp1444
g112
asbasbasbag69
(g85
g71
NtRp1445
(dp1446
g74
(dp1447
sg83
g1045
sg76
(lp1448
g69
(g90
g71
NtRp1449
(dp1450
g74
(dp1451
g94
g95
ssg83
g1445
sg76
(lp1452
S'is_pypy'
p1453
asbag69
(g90
g71
NtRp1454
(dp1455
g74
(dp1456
g101
g102
ssg83
g1445
sg76
(lp1457
S':'
asbag69
(g90
g71
NtRp1458
(dp1459
g74
(dp1460
sg83
g1445
sg76
(lp1461
g69
(g70
g71
NtRp1462
(dp1463
g74
(dp1464
g82
I4
ssg83
g1458
sg76
(lp1465
g112
asbasbasbag69
(g85
g71
NtRp1466
(dp1467
g74
(dp1468
sg83
g1045
sg76
(lp1469
g69
(g90
g71
NtRp1470
(dp1471
g74
(dp1472
g94
g95
ssg83
g1466
sg76
(lp1473
S'path_info'
p1474
asbag69
(g90
g71
NtRp1475
(dp1476
g74
(dp1477
g101
g102
ssg83
g1466
sg76
(lp1478
S':'
asbag69
(g90
g71
NtRp1479
(dp1480
g74
(dp1481
sg83
g1466
sg76
(lp1482
g69
(g70
g71
NtRp1483
(dp1484
g74
(dp1485
g82
I4
ssg83
g1479
sg76
(lp1486
S'/testumgebung'
p1487
asbasbasbag69
(g85
g71
NtRp1488
(dp1489
g74
(dp1490
sg83
g1045
sg76
(lp1491
g69
(g90
g71
NtRp1492
(dp1493
g74
(dp1494
g94
g95
ssg83
g1488
sg76
(lp1495
S'query_string'
p1496
asbag69
(g90
g71
NtRp1497
(dp1498
g74
(dp1499
g101
g102
ssg83
g1488
sg76
(lp1500
S':'
asbag69
(g90
g71
NtRp1501
(dp1502
g74
(dp1503
sg83
g1488
sg76
(lp1504
g69
(g70
g71
NtRp1505
(dp1506
g74
(dp1507
g82
I4
ssg83
g1501
sg76
(lp1508
S''
asbasbasbag69
(g85
g71
NtRp1509
(dp1510
g74
(dp1511
sg83
g1045
sg76
(lp1512
g69
(g90
g71
NtRp1513
(dp1514
g74
(dp1515
g94
g95
ssg83
g1509
sg76
(lp1516
S'remote_addr'
p1517
asbag69
(g90
g71
NtRp1518
(dp1519
g74
(dp1520
g101
g102
ssg83
g1509
sg76
(lp1521
S':'
asbag69
(g90
g71
NtRp1522
(dp1523
g74
(dp1524
sg83
g1509
sg76
(lp1525
g69
(g70
g71
NtRp1526
(dp1527
g74
(dp1528
g82
I4
ssg83
g1522
sg76
(lp1529
g224
asbasbasbag69
(g85
g71
NtRp1530
(dp1531
g74
(dp1532
sg83
g1045
sg76
(lp1533
g69
(g90
g71
NtRp1534
(dp1535
g74
(dp1536
g94
g95
ssg83
g1530
sg76
(lp1537
S'remote_port'
p1538
asbag69
(g90
g71
NtRp1539
(dp1540
g74
(dp1541
g101
g102
ssg83
g1530
sg76
(lp1542
S':'
asbag69
(g90
g71
NtRp1543
(dp1544
g74
(dp1545
sg83
g1530
sg76
(lp1546
g69
(g70
g71
NtRp1547
(dp1548
g74
(dp1549
g82
I4
ssg83
g1543
sg76
(lp1550
S'61672'
p1551
asbasbasbag69
(g85
g71
NtRp1552
(dp1553
g74
(dp1554
sg83
g1045
sg76
(lp1555
g69
(g90
g71
NtRp1556
(dp1557
g74
(dp1558
g94
g95
ssg83
g1552
sg76
(lp1559
S'request_method'
p1560
asbag69
(g90
g71
NtRp1561
(dp1562
g74
(dp1563
g101
g102
ssg83
g1552
sg76
(lp1564
S':'
asbag69
(g90
g71
NtRp1565
(dp1566
g74
(dp1567
sg83
g1552
sg76
(lp1568
g69
(g70
g71
NtRp1569
(dp1570
g74
(dp1571
g82
I4
ssg83
g1565
sg76
(lp1572
S'GET'
p1573
asbasbasbag69
(g85
g71
NtRp1574
(dp1575
g74
(dp1576
sg83
g1045
sg76
(lp1577
g69
(g90
g71
NtRp1578
(dp1579
g74
(dp1580
g94
g95
ssg83
g1574
sg76
(lp1581
S'request_uri'
p1582
asbag69
(g90
g71
NtRp1583
(dp1584
g74
(dp1585
g101
g102
ssg83
g1574
sg76
(lp1586
S':'
asbag69
(g90
g71
NtRp1587
(dp1588
g74
(dp1589
sg83
g1574
sg76
(lp1590
g69
(g70
g71
NtRp1591
(dp1592
g74
(dp1593
g82
I4
ssg83
g1587
sg76
(lp1594
g1487
asbasbasbag69
(g85
g71
NtRp1595
(dp1596
g74
(dp1597
sg83
g1045
sg76
(lp1598
g69
(g90
g71
NtRp1599
(dp1600
g74
(dp1601
g94
g95
ssg83
g1595
sg76
(lp1602
S'script_name'
p1603
asbag69
(g90
g71
NtRp1604
(dp1605
g74
(dp1606
g101
g102
ssg83
g1595
sg76
(lp1607
S':'
asbag69
(g90
g71
NtRp1608
(dp1609
g74
(dp1610
sg83
g1595
sg76
(lp1611
g69
(g70
g71
NtRp1612
(dp1613
g74
(dp1614
g82
I4
ssg83
g1608
sg76
(lp1615
S''
asbasbasbag69
(g85
g71
NtRp1616
(dp1617
g74
(dp1618
sg83
g1045
sg76
(lp1619
g69
(g90
g71
NtRp1620
(dp1621
g74
(dp1622
g94
g95
ssg83
g1616
sg76
(lp1623
S'server_name'
p1624
asbag69
(g90
g71
NtRp1625
(dp1626
g74
(dp1627
g101
g102
ssg83
g1616
sg76
(lp1628
S':'
asbag69
(g90
g71
NtRp1629
(dp1630
g74
(dp1631
sg83
g1616
sg76
(lp1632
g69
(g70
g71
NtRp1633
(dp1634
g74
(dp1635
g82
I4
ssg83
g1629
sg76
(lp1636
S'swLaptop'
p1637
asbasbasbag69
(g85
g71
NtRp1638
(dp1639
g74
(dp1640
sg83
g1045
sg76
(lp1641
g69
(g90
g71
NtRp1642
(dp1643
g74
(dp1644
g94
g95
ssg83
g1638
sg76
(lp1645
S'server_port'
p1646
asbag69
(g90
g71
NtRp1647
(dp1648
g74
(dp1649
g101
g102
ssg83
g1638
sg76
(lp1650
S':'
asbag69
(g90
g71
NtRp1651
(dp1652
g74
(dp1653
sg83
g1638
sg76
(lp1654
g69
(g70
g71
NtRp1655
(dp1656
g74
(dp1657
g82
I4
ssg83
g1651
sg76
(lp1658
S'8000'
p1659
asbasbasbag69
(g85
g71
NtRp1660
(dp1661
g74
(dp1662
sg83
g1045
sg76
(lp1663
g69
(g90
g71
NtRp1664
(dp1665
g74
(dp1666
g94
g95
ssg83
g1660
sg76
(lp1667
S'server_protocol'
p1668
asbag69
(g90
g71
NtRp1669
(dp1670
g74
(dp1671
g101
g102
ssg83
g1660
sg76
(lp1672
S':'
asbag69
(g90
g71
NtRp1673
(dp1674
g74
(dp1675
sg83
g1660
sg76
(lp1676
g69
(g70
g71
NtRp1677
(dp1678
g74
(dp1679
g82
I4
ssg83
g1673
sg76
(lp1680
S'HTTP/1.1'
p1681
asbasbasbag69
(g85
g71
NtRp1682
(dp1683
g74
(dp1684
sg83
g1045
sg76
(lp1685
g69
(g90
g71
NtRp1686
(dp1687
g74
(dp1688
g94
g95
ssg83
g1682
sg76
(lp1689
S'server_software'
p1690
asbag69
(g90
g71
NtRp1691
(dp1692
g74
(dp1693
g101
g102
ssg83
g1682
sg76
(lp1694
S':'
asbag69
(g90
g71
NtRp1695
(dp1696
g74
(dp1697
sg83
g1682
sg76
(lp1698
g69
(g70
g71
NtRp1699
(dp1700
g74
(dp1701
g82
I4
ssg83
g1695
sg76
(lp1702
S'Rocket 1.2.4'
p1703
asbasbasbag69
(g85
g71
NtRp1704
(dp1705
g74
(dp1706
sg83
g1045
sg76
(lp1707
g69
(g90
g71
NtRp1708
(dp1709
g74
(dp1710
g94
g95
ssg83
g1704
sg76
(lp1711
S'web2py_crontype'
p1712
asbag69
(g90
g71
NtRp1713
(dp1714
g74
(dp1715
g101
g102
ssg83
g1704
sg76
(lp1716
S':'
asbag69
(g90
g71
NtRp1717
(dp1718
g74
(dp1719
sg83
g1704
sg76
(lp1720
g69
(g70
g71
NtRp1721
(dp1722
g74
(dp1723
g82
I4
ssg83
g1717
sg76
(lp1724
S'hard'
p1725
asbasbasbag69
(g85
g71
NtRp1726
(dp1727
g74
(dp1728
sg83
g1045
sg76
(lp1729
g69
(g90
g71
NtRp1730
(dp1731
g74
(dp1732
g94
g95
ssg83
g1726
sg76
(lp1733
S'web2py_path'
p1734
asbag69
(g90
g71
NtRp1735
(dp1736
g74
(dp1737
g101
g102
ssg83
g1726
sg76
(lp1738
S':'
asbag69
(g90
g71
NtRp1739
(dp1740
g74
(dp1741
sg83
g1726
sg76
(lp1742
g69
(g70
g71
NtRp1743
(dp1744
g74
(dp1745
g82
I4
ssg83
g1739
sg76
(lp1746
g1092
asbasbasbag69
(g85
g71
NtRp1747
(dp1748
g74
(dp1749
sg83
g1045
sg76
(lp1750
g69
(g90
g71
NtRp1751
(dp1752
g74
(dp1753
g94
g95
ssg83
g1747
sg76
(lp1754
S'web2py_version'
p1755
asbag69
(g90
g71
NtRp1756
(dp1757
g74
(dp1758
g101
g102
ssg83
g1747
sg76
(lp1759
S':'
asbag69
(g90
g71
NtRp1760
(dp1761
g74
(dp1762
sg83
g1747
sg76
(lp1763
g69
(g70
g71
NtRp1764
(dp1765
g74
(dp1766
g82
I4
ssg83
g1760
sg76
(lp1767
g69
(g78
g71
NtRp1768
(dp1769
g74
(dp1770
g82
I3
ssg83
Nsg76
(lp1771
g69
(g85
g71
NtRp1772
(dp1773
g74
(dp1774
sg83
g1768
sg76
(lp1775
g69
(g90
g71
NtRp1776
(dp1777
g74
(dp1778
sg83
g1772
sg76
(lp1779
g69
(g70
g71
NtRp1780
(dp1781
g74
(dp1782
g82
I3
ssg83
g1776
sg76
(lp1783
S'2'
asbasbasbag69
(g85
g71
NtRp1784
(dp1785
g74
(dp1786
sg83
g1768
sg76
(lp1787
g69
(g90
g71
NtRp1788
(dp1789
g74
(dp1790
sg83
g1784
sg76
(lp1791
g69
(g70
g71
NtRp1792
(dp1793
g74
(dp1794
g82
I3
ssg83
g1788
sg76
(lp1795
S'0'
asbasbasbag69
(g85
g71
NtRp1796
(dp1797
g74
(dp1798
sg83
g1768
sg76
(lp1799
g69
(g90
g71
NtRp1800
(dp1801
g74
(dp1802
sg83
g1796
sg76
(lp1803
g69
(g70
g71
NtRp1804
(dp1805
g74
(dp1806
g82
I3
ssg83
g1800
sg76
(lp1807
S'3'
asbasbasbag69
(g85
g71
NtRp1808
(dp1809
g74
(dp1810
sg83
g1768
sg76
(lp1811
g69
(g90
g71
NtRp1812
(dp1813
g74
(dp1814
sg83
g1808
sg76
(lp1815
g69
(g70
g71
NtRp1816
(dp1817
g74
(dp1818
g82
I3
ssg83
g1812
sg76
(lp1819
S'datetime.datetime(2012, 8, 31, 5, 58, 31)'
p1820
asbasbasbag69
(g85
g71
NtRp1821
(dp1822
g74
(dp1823
sg83
g1768
sg76
(lp1824
g69
(g90
g71
NtRp1825
(dp1826
g74
(dp1827
sg83
g1821
sg76
(lp1828
g69
(g70
g71
NtRp1829
(dp1830
g74
(dp1831
g82
I3
ssg83
g1825
sg76
(lp1832
S'stable'
p1833
asbasbasbasbasbasbasbag69
(g85
g71
NtRp1834
(dp1835
g74
(dp1836
sg83
g1045
sg76
(lp1837
g69
(g90
g71
NtRp1838
(dp1839
g74
(dp1840
g94
g95
ssg83
g1834
sg76
(lp1841
S'wsgi_errors'
p1842
asbag69
(g90
g71
NtRp1843
(dp1844
g74
(dp1845
g101
g102
ssg83
g1834
sg76
(lp1846
S':'
asbag69
(g90
g71
NtRp1847
(dp1848
g74
(dp1849
sg83
g1834
sg76
(lp1850
g69
(g70
g71
NtRp1851
(dp1852
g74
(dp1853
g82
I4
ssg83
g1847
sg76
(lp1854
S"<open file '<stderr>', mode 'w' at 0x022350D0>"
p1855
asbasbasbag69
(g85
g71
NtRp1856
(dp1857
g74
(dp1858
sg83
g1045
sg76
(lp1859
g69
(g90
g71
NtRp1860
(dp1861
g74
(dp1862
g94
g95
ssg83
g1856
sg76
(lp1863
S'wsgi_file_wrapper'
p1864
asbag69
(g90
g71
NtRp1865
(dp1866
g74
(dp1867
g101
g102
ssg83
g1856
sg76
(lp1868
S':'
asbag69
(g90
g71
NtRp1869
(dp1870
g74
(dp1871
sg83
g1856
sg76
(lp1872
g69
(g70
g71
NtRp1873
(dp1874
g74
(dp1875
g82
I4
ssg83
g1869
sg76
(lp1876
S'<class wsgiref.util.FileWrapper at 0x02D7D030>'
p1877
asbasbasbag69
(g85
g71
NtRp1878
(dp1879
g74
(dp1880
sg83
g1045
sg76
(lp1881
g69
(g90
g71
NtRp1882
(dp1883
g74
(dp1884
g94
g95
ssg83
g1878
sg76
(lp1885
S'wsgi_input'
p1886
asbag69
(g90
g71
NtRp1887
(dp1888
g74
(dp1889
g101
g102
ssg83
g1878
sg76
(lp1890
S':'
asbag69
(g90
g71
NtRp1891
(dp1892
g74
(dp1893
sg83
g1878
sg76
(lp1894
g69
(g70
g71
NtRp1895
(dp1896
g74
(dp1897
g82
I4
ssg83
g1891
sg76
(lp1898
S'<socket._fileobject object at 0x06FCCE30>'
p1899
asbasbasbag69
(g85
g71
NtRp1900
(dp1901
g74
(dp1902
sg83
g1045
sg76
(lp1903
g69
(g90
g71
NtRp1904
(dp1905
g74
(dp1906
g94
g95
ssg83
g1900
sg76
(lp1907
S'wsgi_multiprocess'
p1908
asbag69
(g90
g71
NtRp1909
(dp1910
g74
(dp1911
g101
g102
ssg83
g1900
sg76
(lp1912
S':'
asbag69
(g90
g71
NtRp1913
(dp1914
g74
(dp1915
sg83
g1900
sg76
(lp1916
g69
(g70
g71
NtRp1917
(dp1918
g74
(dp1919
g82
I4
ssg83
g1913
sg76
(lp1920
g112
asbasbasbag69
(g85
g71
NtRp1921
(dp1922
g74
(dp1923
sg83
g1045
sg76
(lp1924
g69
(g90
g71
NtRp1925
(dp1926
g74
(dp1927
g94
g95
ssg83
g1921
sg76
(lp1928
S'wsgi_multithread'
p1929
asbag69
(g90
g71
NtRp1930
(dp1931
g74
(dp1932
g101
g102
ssg83
g1921
sg76
(lp1933
S':'
asbag69
(g90
g71
NtRp1934
(dp1935
g74
(dp1936
sg83
g1921
sg76
(lp1937
g69
(g70
g71
NtRp1938
(dp1939
g74
(dp1940
g82
I4
ssg83
g1934
sg76
(lp1941
S'True'
p1942
asbasbasbag69
(g85
g71
NtRp1943
(dp1944
g74
(dp1945
sg83
g1045
sg76
(lp1946
g69
(g90
g71
NtRp1947
(dp1948
g74
(dp1949
g94
g95
ssg83
g1943
sg76
(lp1950
S'wsgi_run_once'
p1951
asbag69
(g90
g71
NtRp1952
(dp1953
g74
(dp1954
g101
g102
ssg83
g1943
sg76
(lp1955
S':'
asbag69
(g90
g71
NtRp1956
(dp1957
g74
(dp1958
sg83
g1943
sg76
(lp1959
g69
(g70
g71
NtRp1960
(dp1961
g74
(dp1962
g82
I4
ssg83
g1956
sg76
(lp1963
g112
asbasbasbag69
(g85
g71
NtRp1964
(dp1965
g74
(dp1966
sg83
g1045
sg76
(lp1967
g69
(g90
g71
NtRp1968
(dp1969
g74
(dp1970
g94
g95
ssg83
g1964
sg76
(lp1971
S'wsgi_url_scheme'
p1972
asbag69
(g90
g71
NtRp1973
(dp1974
g74
(dp1975
g101
g102
ssg83
g1964
sg76
(lp1976
S':'
asbag69
(g90
g71
NtRp1977
(dp1978
g74
(dp1979
sg83
g1964
sg76
(lp1980
g69
(g70
g71
NtRp1981
(dp1982
g74
(dp1983
g82
I4
ssg83
g1977
sg76
(lp1984
S'http'
p1985
asbasbasbag69
(g85
g71
NtRp1986
(dp1987
g74
(dp1988
sg83
g1045
sg76
(lp1989
g69
(g90
g71
NtRp1990
(dp1991
g74
(dp1992
g94
g95
ssg83
g1986
sg76
(lp1993
S'wsgi_version'
p1994
asbag69
(g90
g71
NtRp1995
(dp1996
g74
(dp1997
g101
g102
ssg83
g1986
sg76
(lp1998
S':'
asbag69
(g90
g71
NtRp1999
(dp2000
g74
(dp2001
sg83
g1986
sg76
(lp2002
g69
(g70
g71
NtRp2003
(dp2004
g74
(dp2005
g82
I4
ssg83
g1999
sg76
(lp2006
g69
(g78
g71
NtRp2007
(dp2008
g74
(dp2009
g82
I3
ssg83
Nsg76
(lp2010
g69
(g85
g71
NtRp2011
(dp2012
g74
(dp2013
sg83
g2007
sg76
(lp2014
g69
(g90
g71
NtRp2015
(dp2016
g74
(dp2017
sg83
g2011
sg76
(lp2018
g69
(g70
g71
NtRp2019
(dp2020
g74
(dp2021
g82
I3
ssg83
g2015
sg76
(lp2022
S'1'
asbasbasbag69
(g85
g71
NtRp2023
(dp2024
g74
(dp2025
sg83
g2007
sg76
(lp2026
g69
(g90
g71
NtRp2027
(dp2028
g74
(dp2029
sg83
g2023
sg76
(lp2030
g69
(g70
g71
NtRp2031
(dp2032
g74
(dp2033
g82
I3
ssg83
g2027
sg76
(lp2034
S'0'
asbasbasbasbasbasbasbasbasbasbasbag69
(g85
g71
NtRp2035
(dp2036
g74
(dp2037
sg83
g79
sg76
(lp2038
g69
(g90
g71
NtRp2039
(dp2040
g74
(dp2041
g94
g95
ssg83
g2035
sg76
(lp2042
S'extension'
p2043
asbag69
(g90
g71
NtRp2044
(dp2045
g74
(dp2046
g101
g102
ssg83
g2035
sg76
(lp2047
S':'
asbag69
(g90
g71
NtRp2048
(dp2049
g74
(dp2050
sg83
g2035
sg76
(lp2051
g69
(g70
g71
NtRp2052
(dp2053
g74
(dp2054
g82
I5
ssg83
g2048
sg76
(lp2055
S'html'
p2056
asbasbasbag69
(g85
g71
NtRp2057
(dp2058
g74
(dp2059
sg83
g79
sg76
(lp2060
g69
(g90
g71
NtRp2061
(dp2062
g74
(dp2063
g94
g95
ssg83
g2057
sg76
(lp2064
S'folder'
p2065
asbag69
(g90
g71
NtRp2066
(dp2067
g74
(dp2068
g101
g102
ssg83
g2057
sg76
(lp2069
S':'
asbag69
(g90
g71
NtRp2070
(dp2071
g74
(dp2072
sg83
g2057
sg76
(lp2073
g69
(g70
g71
NtRp2074
(dp2075
g74
(dp2076
g82
I5
ssg83
g2070
sg76
(lp2077
S'C:\\xampp\\htdocs\\web2py\\applications\\testumgebung\\'
p2078
asbasbasbag69
(g85
g71
NtRp2079
(dp2080
g74
(dp2081
sg83
g79
sg76
(lp2082
g69
(g90
g71
NtRp2083
(dp2084
g74
(dp2085
g94
g95
ssg83
g2079
sg76
(lp2086
S'function'
p2087
asbag69
(g90
g71
NtRp2088
(dp2089
g74
(dp2090
g101
g102
ssg83
g2079
sg76
(lp2091
S':'
asbag69
(g90
g71
NtRp2092
(dp2093
g74
(dp2094
sg83
g2079
sg76
(lp2095
g69
(g70
g71
NtRp2096
(dp2097
g74
(dp2098
g82
I5
ssg83
g2092
sg76
(lp2099
S'index'
p2100
asbasbasbag69
(g85
g71
NtRp2101
(dp2102
g74
(dp2103
sg83
g79
sg76
(lp2104
g69
(g90
g71
NtRp2105
(dp2106
g74
(dp2107
g94
g95
ssg83
g2101
sg76
(lp2108
S'get_vars'
p2109
asbag69
(g90
g71
NtRp2110
(dp2111
g74
(dp2112
g101
g102
ssg83
g2101
sg76
(lp2113
S':'
asbag69
(g90
g71
NtRp2114
(dp2115
g74
(dp2116
sg83
g2101
sg76
(lp2117
g69
(g70
g71
NtRp2118
(dp2119
g74
(dp2120
g82
I5
ssg83
g2114
sg76
(lp2121
g69
(g78
g71
NtRp2122
(dp2123
g74
(dp2124
g82
I4
ssg83
Nsg76
(lp2125
sbasbasbasbag69
(g85
g71
NtRp2126
(dp2127
g74
(dp2128
sg83
g79
sg76
(lp2129
g69
(g90
g71
NtRp2130
(dp2131
g74
(dp2132
g94
g95
ssg83
g2126
sg76
(lp2133
S'global_settings'
p2134
asbag69
(g90
g71
NtRp2135
(dp2136
g74
(dp2137
g101
g102
ssg83
g2126
sg76
(lp2138
S':'
asbag69
(g90
g71
NtRp2139
(dp2140
g74
(dp2141
sg83
g2126
sg76
(lp2142
g69
(g70
g71
NtRp2143
(dp2144
g74
(dp2145
g82
I5
ssg83
g2139
sg76
(lp2146
g69
(g78
g71
NtRp2147
(dp2148
g74
(dp2149
g82
I4
ssg83
Nsg76
(lp2150
g69
(g85
g71
NtRp2151
(dp2152
g74
(dp2153
sg83
g2147
sg76
(lp2154
g69
(g90
g71
NtRp2155
(dp2156
g74
(dp2157
g94
g95
ssg83
g2151
sg76
(lp2158
g1057
asbag69
(g90
g71
NtRp2159
(dp2160
g74
(dp2161
g101
g102
ssg83
g2151
sg76
(lp2162
S':'
asbag69
(g90
g71
NtRp2163
(dp2164
g74
(dp2165
sg83
g2151
sg76
(lp2166
g69
(g70
g71
NtRp2167
(dp2168
g74
(dp2169
g82
I4
ssg83
g2163
sg76
(lp2170
S"set(['C:\\\\xampp\\\\htdocs\\\\web2py\\\\applications\\\\kieva\\\\', 'C:\\\\xampp\\\\htdocs\\\\web2py\\\\applications\\\\admin\\\\', 'C:\\\\xampp\\\\htdocs\\\\web2py\\\\applications\\\\welcome\\\\', 'C:\\\\xampp\\\\htdocs\\\\web2py\\\\applications\\\\testumgebung\\\\'])"
p2171
asbasbasbag69
(g85
g71
NtRp2172
(dp2173
g74
(dp2174
sg83
g2147
sg76
(lp2175
g69
(g90
g71
NtRp2176
(dp2177
g74
(dp2178
g94
g95
ssg83
g2172
sg76
(lp2179
g1079
asbag69
(g90
g71
NtRp2180
(dp2181
g74
(dp2182
g101
g102
ssg83
g2172
sg76
(lp2183
S':'
asbag69
(g90
g71
NtRp2184
(dp2185
g74
(dp2186
sg83
g2172
sg76
(lp2187
g69
(g70
g71
NtRp2188
(dp2189
g74
(dp2190
g82
I4
ssg83
g2184
sg76
(lp2191
g1092
asbasbasbag69
(g85
g71
NtRp2192
(dp2193
g74
(dp2194
sg83
g2147
sg76
(lp2195
g69
(g90
g71
NtRp2196
(dp2197
g74
(dp2198
g94
g95
ssg83
g2192
sg76
(lp2199
g1101
asbag69
(g90
g71
NtRp2200
(dp2201
g74
(dp2202
g101
g102
ssg83
g2192
sg76
(lp2203
S':'
asbag69
(g90
g71
NtRp2204
(dp2205
g74
(dp2206
sg83
g2192
sg76
(lp2207
g69
(g70
g71
NtRp2208
(dp2209
g74
(dp2210
g82
I4
ssg83
g2204
sg76
(lp2211
g69
(g78
g71
NtRp2212
(dp2213
g74
(dp2214
g82
I3
ssg83
Nsg76
(lp2215
sbasbasbasbag69
(g85
g71
NtRp2216
(dp2217
g74
(dp2218
sg83
g2147
sg76
(lp2219
g69
(g90
g71
NtRp2220
(dp2221
g74
(dp2222
g94
g95
ssg83
g2216
sg76
(lp2223
g1126
asbag69
(g90
g71
NtRp2224
(dp2225
g74
(dp2226
g101
g102
ssg83
g2216
sg76
(lp2227
S':'
asbag69
(g90
g71
NtRp2228
(dp2229
g74
(dp2230
sg83
g2216
sg76
(lp2231
g69
(g70
g71
NtRp2232
(dp2233
g74
(dp2234
g82
I4
ssg83
g2228
sg76
(lp2235
S"<Values at 0x2e4ee18: {'verbose': False, 'ip': '127.0.0.1', 'with_scheduler': False, 'ips': ['192.168.178.21', '192.168.189.1', '192.168.91.1'], 'shutdown_timeout': 5, 'taskbar': False, 'port': 8000, 'maxthreads': None, 'softcron': False, 'server_name': 'swLaptop', 'bpython': False, 'nogui': False, 'nocron': False, 'extcron': False, 'run_system_tests': False, 'test': None, 'folder': 'C:\\\\xampp\\\\htdocs\\\\web2py', 'config': '', 'import_models': False, 'winservice': '', 'shell': None, 'run': '', 'log_filename': 'httpserver.log', 'debuglevel': 30, 'args': [''], 'socket_timeout': 5, 'ssl_ca_certificate': None, 'scheduler': None, 'profiler_filename': None, 'ssl_private_key': '', 'scheduler_groups': None, 'password': '<ask>', 'request_queue_size': 5, 'ssl_certificate': '', 'cronjob': False, 'numthreads': None, 'quiet': False, 'interfaces': None, 'minthreads': None, 'timeout': 10, 'plain': False, 'nobanner': False, 'pid_filename': 'httpserver.pid'}>"
p2236
asbasbasbag69
(g85
g71
NtRp2237
(dp2238
g74
(dp2239
sg83
g2147
sg76
(lp2240
g69
(g90
g71
NtRp2241
(dp2242
g74
(dp2243
g94
g95
ssg83
g2237
sg76
(lp2244
g1148
asbag69
(g90
g71
NtRp2245
(dp2246
g74
(dp2247
g101
g102
ssg83
g2237
sg76
(lp2248
S':'
asbag69
(g90
g71
NtRp2249
(dp2250
g74
(dp2251
sg83
g2237
sg76
(lp2252
g69
(g70
g71
NtRp2253
(dp2254
g74
(dp2255
g82
I4
ssg83
g2249
sg76
(lp2256
S'set([])'
p2257
asbasbasbag69
(g85
g71
NtRp2258
(dp2259
g74
(dp2260
sg83
g2147
sg76
(lp2261
g69
(g90
g71
NtRp2262
(dp2263
g74
(dp2264
g94
g95
ssg83
g2258
sg76
(lp2265
g1170
asbag69
(g90
g71
NtRp2266
(dp2267
g74
(dp2268
g101
g102
ssg83
g2258
sg76
(lp2269
S':'
asbag69
(g90
g71
NtRp2270
(dp2271
g74
(dp2272
sg83
g2258
sg76
(lp2273
g69
(g70
g71
NtRp2274
(dp2275
g74
(dp2276
g82
I4
ssg83
g2270
sg76
(lp2277
g112
asbasbasbag69
(g85
g71
NtRp2278
(dp2279
g74
(dp2280
sg83
g2147
sg76
(lp2281
g69
(g90
g71
NtRp2282
(dp2283
g74
(dp2284
g94
g95
ssg83
g2278
sg76
(lp2285
g1191
asbag69
(g90
g71
NtRp2286
(dp2287
g74
(dp2288
g101
g102
ssg83
g2278
sg76
(lp2289
S':'
asbag69
(g90
g71
NtRp2290
(dp2291
g74
(dp2292
sg83
g2278
sg76
(lp2293
g69
(g70
g71
NtRp2294
(dp2295
g74
(dp2296
g82
I4
ssg83
g2290
sg76
(lp2297
g1204
asbasbasbag69
(g85
g71
NtRp2298
(dp2299
g74
(dp2300
sg83
g2147
sg76
(lp2301
g69
(g90
g71
NtRp2302
(dp2303
g74
(dp2304
g94
g95
ssg83
g2298
sg76
(lp2305
g1432
asbag69
(g90
g71
NtRp2306
(dp2307
g74
(dp2308
g101
g102
ssg83
g2298
sg76
(lp2309
S':'
asbag69
(g90
g71
NtRp2310
(dp2311
g74
(dp2312
sg83
g2298
sg76
(lp2313
g69
(g70
g71
NtRp2314
(dp2315
g74
(dp2316
g82
I4
ssg83
g2310
sg76
(lp2317
g112
asbasbasbag69
(g85
g71
NtRp2318
(dp2319
g74
(dp2320
sg83
g2147
sg76
(lp2321
g69
(g90
g71
NtRp2322
(dp2323
g74
(dp2324
g94
g95
ssg83
g2318
sg76
(lp2325
g1453
asbag69
(g90
g71
NtRp2326
(dp2327
g74
(dp2328
g101
g102
ssg83
g2318
sg76
(lp2329
S':'
asbag69
(g90
g71
NtRp2330
(dp2331
g74
(dp2332
sg83
g2318
sg76
(lp2333
g69
(g70
g71
NtRp2334
(dp2335
g74
(dp2336
g82
I4
ssg83
g2330
sg76
(lp2337
g112
asbasbasbag69
(g85
g71
NtRp2338
(dp2339
g74
(dp2340
sg83
g2147
sg76
(lp2341
g69
(g90
g71
NtRp2342
(dp2343
g74
(dp2344
g94
g95
ssg83
g2338
sg76
(lp2345
g1712
asbag69
(g90
g71
NtRp2346
(dp2347
g74
(dp2348
g101
g102
ssg83
g2338
sg76
(lp2349
S':'
asbag69
(g90
g71
NtRp2350
(dp2351
g74
(dp2352
sg83
g2338
sg76
(lp2353
g69
(g70
g71
NtRp2354
(dp2355
g74
(dp2356
g82
I4
ssg83
g2350
sg76
(lp2357
g1725
asbasbasbag69
(g85
g71
NtRp2358
(dp2359
g74
(dp2360
sg83
g2147
sg76
(lp2361
g69
(g90
g71
NtRp2362
(dp2363
g74
(dp2364
g94
g95
ssg83
g2358
sg76
(lp2365
g1755
asbag69
(g90
g71
NtRp2366
(dp2367
g74
(dp2368
g101
g102
ssg83
g2358
sg76
(lp2369
S':'
asbag69
(g90
g71
NtRp2370
(dp2371
g74
(dp2372
sg83
g2358
sg76
(lp2373
g69
(g70
g71
NtRp2374
(dp2375
g74
(dp2376
g82
I4
ssg83
g2370
sg76
(lp2377
g69
(g78
g71
NtRp2378
(dp2379
g74
(dp2380
g82
I3
ssg83
Nsg76
(lp2381
g69
(g85
g71
NtRp2382
(dp2383
g74
(dp2384
sg83
g2378
sg76
(lp2385
g69
(g90
g71
NtRp2386
(dp2387
g74
(dp2388
sg83
g2382
sg76
(lp2389
g69
(g70
g71
NtRp2390
(dp2391
g74
(dp2392
g82
I3
ssg83
g2386
sg76
(lp2393
S'2'
asbasbasbag69
(g85
g71
NtRp2394
(dp2395
g74
(dp2396
sg83
g2378
sg76
(lp2397
g69
(g90
g71
NtRp2398
(dp2399
g74
(dp2400
sg83
g2394
sg76
(lp2401
g69
(g70
g71
NtRp2402
(dp2403
g74
(dp2404
g82
I3
ssg83
g2398
sg76
(lp2405
S'0'
asbasbasbag69
(g85
g71
NtRp2406
(dp2407
g74
(dp2408
sg83
g2378
sg76
(lp2409
g69
(g90
g71
NtRp2410
(dp2411
g74
(dp2412
sg83
g2406
sg76
(lp2413
g69
(g70
g71
NtRp2414
(dp2415
g74
(dp2416
g82
I3
ssg83
g2410
sg76
(lp2417
S'3'
asbasbasbag69
(g85
g71
NtRp2418
(dp2419
g74
(dp2420
sg83
g2378
sg76
(lp2421
g69
(g90
g71
NtRp2422
(dp2423
g74
(dp2424
sg83
g2418
sg76
(lp2425
g69
(g70
g71
NtRp2426
(dp2427
g74
(dp2428
g82
I3
ssg83
g2422
sg76
(lp2429
S'datetime.datetime(2012, 8, 31, 5, 58, 31)'
p2430
asbasbasbag69
(g85
g71
NtRp2431
(dp2432
g74
(dp2433
sg83
g2378
sg76
(lp2434
g69
(g90
g71
NtRp2435
(dp2436
g74
(dp2437
sg83
g2431
sg76
(lp2438
g69
(g70
g71
NtRp2439
(dp2440
g74
(dp2441
g82
I3
ssg83
g2435
sg76
(lp2442
g1833
asbasbasbasbasbasbasbasbasbasbasbag69
(g85
g71
NtRp2443
(dp2444
g74
(dp2445
sg83
g79
sg76
(lp2446
g69
(g90
g71
NtRp2447
(dp2448
g74
(dp2449
g94
g95
ssg83
g2443
sg76
(lp2450
S'is_https'
p2451
asbag69
(g90
g71
NtRp2452
(dp2453
g74
(dp2454
g101
g102
ssg83
g2443
sg76
(lp2455
S':'
asbag69
(g90
g71
NtRp2456
(dp2457
g74
(dp2458
sg83
g2443
sg76
(lp2459
g69
(g70
g71
NtRp2460
(dp2461
g74
(dp2462
g82
I5
ssg83
g2456
sg76
(lp2463
g112
asbasbasbag69
(g85
g71
NtRp2464
(dp2465
g74
(dp2466
sg83
g79
sg76
(lp2467
g69
(g90
g71
NtRp2468
(dp2469
g74
(dp2470
g94
g95
ssg83
g2464
sg76
(lp2471
S'is_local'
p2472
asbag69
(g90
g71
NtRp2473
(dp2474
g74
(dp2475
g101
g102
ssg83
g2464
sg76
(lp2476
S':'
asbag69
(g90
g71
NtRp2477
(dp2478
g74
(dp2479
sg83
g2464
sg76
(lp2480
g69
(g70
g71
NtRp2481
(dp2482
g74
(dp2483
g82
I5
ssg83
g2477
sg76
(lp2484
g1942
asbasbasbag69
(g85
g71
NtRp2485
(dp2486
g74
(dp2487
sg83
g79
sg76
(lp2488
g69
(g90
g71
NtRp2489
(dp2490
g74
(dp2491
g94
g95
ssg83
g2485
sg76
(lp2492
S'is_restful'
p2493
asbag69
(g90
g71
NtRp2494
(dp2495
g74
(dp2496
g101
g102
ssg83
g2485
sg76
(lp2497
S':'
asbag69
(g90
g71
NtRp2498
(dp2499
g74
(dp2500
sg83
g2485
sg76
(lp2501
g69
(g70
g71
NtRp2502
(dp2503
g74
(dp2504
g82
I5
ssg83
g2498
sg76
(lp2505
g112
asbasbasbag69
(g85
g71
NtRp2506
(dp2507
g74
(dp2508
sg83
g79
sg76
(lp2509
g69
(g90
g71
NtRp2510
(dp2511
g74
(dp2512
g94
g95
ssg83
g2506
sg76
(lp2513
S'now'
p2514
asbag69
(g90
g71
NtRp2515
(dp2516
g74
(dp2517
g101
g102
ssg83
g2506
sg76
(lp2518
S':'
asbag69
(g90
g71
NtRp2519
(dp2520
g74
(dp2521
sg83
g2506
sg76
(lp2522
g69
(g70
g71
NtRp2523
(dp2524
g74
(dp2525
g82
I5
ssg83
g2519
sg76
(lp2526
S'datetime.datetime(2012, 12, 13, 13, 35, 36, 951000)'
p2527
asbasbasbag69
(g85
g71
NtRp2528
(dp2529
g74
(dp2530
sg83
g79
sg76
(lp2531
g69
(g90
g71
NtRp2532
(dp2533
g74
(dp2534
g94
g95
ssg83
g2528
sg76
(lp2535
S'post_vars'
p2536
asbag69
(g90
g71
NtRp2537
(dp2538
g74
(dp2539
g101
g102
ssg83
g2528
sg76
(lp2540
S':'
asbag69
(g90
g71
NtRp2541
(dp2542
g74
(dp2543
sg83
g2528
sg76
(lp2544
g69
(g70
g71
NtRp2545
(dp2546
g74
(dp2547
g82
I5
ssg83
g2541
sg76
(lp2548
g69
(g78
g71
NtRp2549
(dp2550
g74
(dp2551
g82
I4
ssg83
Nsg76
(lp2552
sbasbasbasbag69
(g85
g71
NtRp2553
(dp2554
g74
(dp2555
sg83
g79
sg76
(lp2556
g69
(g90
g71
NtRp2557
(dp2558
g74
(dp2559
g94
g95
ssg83
g2553
sg76
(lp2560
S'raw_args'
p2561
asbag69
(g90
g71
NtRp2562
(dp2563
g74
(dp2564
g101
g102
ssg83
g2553
sg76
(lp2565
S':'
asbag69
(g90
g71
NtRp2566
(dp2567
g74
(dp2568
sg83
g2553
sg76
(lp2569
g69
(g70
g71
NtRp2570
(dp2571
g74
(dp2572
g82
I5
ssg83
g2566
sg76
(lp2573
S'None'
p2574
asbasbasbag69
(g85
g71
NtRp2575
(dp2576
g74
(dp2577
sg83
g79
sg76
(lp2578
g69
(g90
g71
NtRp2579
(dp2580
g74
(dp2581
g94
g95
ssg83
g2575
sg76
(lp2582
S'raw_extension'
p2583
asbag69
(g90
g71
NtRp2584
(dp2585
g74
(dp2586
g101
g102
ssg83
g2575
sg76
(lp2587
S':'
asbag69
(g90
g71
NtRp2588
(dp2589
g74
(dp2590
sg83
g2575
sg76
(lp2591
g69
(g70
g71
NtRp2592
(dp2593
g74
(dp2594
g82
I5
ssg83
g2588
sg76
(lp2595
S'None'
p2596
asbasbasbag69
(g85
g71
NtRp2597
(dp2598
g74
(dp2599
sg83
g79
sg76
(lp2600
g69
(g90
g71
NtRp2601
(dp2602
g74
(dp2603
g94
g95
ssg83
g2597
sg76
(lp2604
S'url'
p2605
asbag69
(g90
g71
NtRp2606
(dp2607
g74
(dp2608
g101
g102
ssg83
g2597
sg76
(lp2609
S':'
asbag69
(g90
g71
NtRp2610
(dp2611
g74
(dp2612
sg83
g2597
sg76
(lp2613
g69
(g70
g71
NtRp2614
(dp2615
g74
(dp2616
g82
I5
ssg83
g2610
sg76
(lp2617
S'/testumgebung/default/index'
p2618
asbasbasbag69
(g85
g71
NtRp2619
(dp2620
g74
(dp2621
sg83
g79
sg76
(lp2622
g69
(g90
g71
NtRp2623
(dp2624
g74
(dp2625
g94
g95
ssg83
g2619
sg76
(lp2626
S'utcnow'
p2627
asbag69
(g90
g71
NtRp2628
(dp2629
g74
(dp2630
g101
g102
ssg83
g2619
sg76
(lp2631
S':'
asbag69
(g90
g71
NtRp2632
(dp2633
g74
(dp2634
sg83
g2619
sg76
(lp2635
g69
(g70
g71
NtRp2636
(dp2637
g74
(dp2638
g82
I5
ssg83
g2632
sg76
(lp2639
S'datetime.datetime(2012, 12, 13, 12, 35, 36, 951000)'
p2640
asbasbasbag69
(g85
g71
NtRp2641
(dp2642
g74
(dp2643
sg83
g79
sg76
(lp2644
g69
(g90
g71
NtRp2645
(dp2646
g74
(dp2647
g94
g95
ssg83
g2641
sg76
(lp2648
S'uuid'
p2649
asbag69
(g90
g71
NtRp2650
(dp2651
g74
(dp2652
g101
g102
ssg83
g2641
sg76
(lp2653
S':'
asbag69
(g90
g71
NtRp2654
(dp2655
g74
(dp2656
sg83
g2641
sg76
(lp2657
g69
(g70
g71
NtRp2658
(dp2659
g74
(dp2660
g82
I5
ssg83
g2654
sg76
(lp2661
S'testumgebung/127.0.0.1.2012-12-13.13-35-36.7c9dfe39-55e3-4728-955f-076b7b6c681a'
p2662
asbasbasbag69
(g85
g71
NtRp2663
(dp2664
g74
(dp2665
sg83
g79
sg76
(lp2666
g69
(g90
g71
NtRp2667
(dp2668
g74
(dp2669
g94
g95
ssg83
g2663
sg76
(lp2670
S'vars'
p2671
asbag69
(g90
g71
NtRp2672
(dp2673
g74
(dp2674
g101
g102
ssg83
g2663
sg76
(lp2675
S':'
asbag69
(g90
g71
NtRp2676
(dp2677
g74
(dp2678
sg83
g2663
sg76
(lp2679
g69
(g70
g71
NtRp2680
(dp2681
g74
(dp2682
g82
I5
ssg83
g2676
sg76
(lp2683
g69
(g78
g71
NtRp2684
(dp2685
g74
(dp2686
g82
I4
ssg83
Nsg76
(lp2687
sbasbasbasbag69
(g85
g71
NtRp2688
(dp2689
g74
(dp2690
sg83
g79
sg76
(lp2691
g69
(g90
g71
NtRp2692
(dp2693
g74
(dp2694
g94
g95
ssg83
g2688
sg76
(lp2695
S'wsgi'
p2696
asbag69
(g90
g71
NtRp2697
(dp2698
g74
(dp2699
g101
g102
ssg83
g2688
sg76
(lp2700
S':'
asbag69
(g90
g71
NtRp2701
(dp2702
g74
(dp2703
sg83
g2688
sg76
(lp2704
g69
(g70
g71
NtRp2705
(dp2706
g74
(dp2707
g82
I5
ssg83
g2701
sg76
(lp2708
g69
(g78
g71
NtRp2709
(dp2710
g74
(dp2711
g82
I4
ssg83
Nsg76
(lp2712
g69
(g85
g71
NtRp2713
(dp2714
g74
(dp2715
sg83
g2709
sg76
(lp2716
g69
(g90
g71
NtRp2717
(dp2718
g74
(dp2719
g94
g95
ssg83
g2713
sg76
(lp2720
S'environ'
p2721
asbag69
(g90
g71
NtRp2722
(dp2723
g74
(dp2724
g101
g102
ssg83
g2713
sg76
(lp2725
S':'
asbag69
(g90
g71
NtRp2726
(dp2727
g74
(dp2728
sg83
g2713
sg76
(lp2729
g69
(g70
g71
NtRp2730
(dp2731
g74
(dp2732
g82
I4
ssg83
g2726
sg76
(lp2733
g69
(g78
g71
NtRp2734
(dp2735
g74
(dp2736
g82
I3
ssg83
Nsg76
(lp2737
g69
(g85
g71
NtRp2738
(dp2739
g74
(dp2740
sg83
g2734
sg76
(lp2741
g69
(g90
g71
NtRp2742
(dp2743
g74
(dp2744
g94
g95
ssg83
g2738
sg76
(lp2745
S'HTTP_ACCEPT'
p2746
asbag69
(g90
g71
NtRp2747
(dp2748
g74
(dp2749
g101
g102
ssg83
g2738
sg76
(lp2750
S':'
asbag69
(g90
g71
NtRp2751
(dp2752
g74
(dp2753
sg83
g2738
sg76
(lp2754
g69
(g70
g71
NtRp2755
(dp2756
g74
(dp2757
g82
I3
ssg83
g2751
sg76
(lp2758
g1226
asbasbasbag69
(g85
g71
NtRp2759
(dp2760
g74
(dp2761
sg83
g2734
sg76
(lp2762
g69
(g90
g71
NtRp2763
(dp2764
g74
(dp2765
g94
g95
ssg83
g2759
sg76
(lp2766
S'HTTP_ACCEPT_ENCODING'
p2767
asbag69
(g90
g71
NtRp2768
(dp2769
g74
(dp2770
g101
g102
ssg83
g2759
sg76
(lp2771
S':'
asbag69
(g90
g71
NtRp2772
(dp2773
g74
(dp2774
sg83
g2759
sg76
(lp2775
g69
(g70
g71
NtRp2776
(dp2777
g74
(dp2778
g82
I3
ssg83
g2772
sg76
(lp2779
g1248
asbasbasbag69
(g85
g71
NtRp2780
(dp2781
g74
(dp2782
sg83
g2734
sg76
(lp2783
g69
(g90
g71
NtRp2784
(dp2785
g74
(dp2786
g94
g95
ssg83
g2780
sg76
(lp2787
S'HTTP_ACCEPT_LANGUAGE'
p2788
asbag69
(g90
g71
NtRp2789
(dp2790
g74
(dp2791
g101
g102
ssg83
g2780
sg76
(lp2792
S':'
asbag69
(g90
g71
NtRp2793
(dp2794
g74
(dp2795
sg83
g2780
sg76
(lp2796
g69
(g70
g71
NtRp2797
(dp2798
g74
(dp2799
g82
I3
ssg83
g2793
sg76
(lp2800
g1270
asbasbasbag69
(g85
g71
NtRp2801
(dp2802
g74
(dp2803
sg83
g2734
sg76
(lp2804
g69
(g90
g71
NtRp2805
(dp2806
g74
(dp2807
g94
g95
ssg83
g2801
sg76
(lp2808
S'HTTP_CACHE_CONTROL'
p2809
asbag69
(g90
g71
NtRp2810
(dp2811
g74
(dp2812
g101
g102
ssg83
g2801
sg76
(lp2813
S':'
asbag69
(g90
g71
NtRp2814
(dp2815
g74
(dp2816
sg83
g2801
sg76
(lp2817
g69
(g70
g71
NtRp2818
(dp2819
g74
(dp2820
g82
I3
ssg83
g2814
sg76
(lp2821
g1292
asbasbasbag69
(g85
g71
NtRp2822
(dp2823
g74
(dp2824
sg83
g2734
sg76
(lp2825
g69
(g90
g71
NtRp2826
(dp2827
g74
(dp2828
g94
g95
ssg83
g2822
sg76
(lp2829
S'HTTP_CONNECTION'
p2830
asbag69
(g90
g71
NtRp2831
(dp2832
g74
(dp2833
g101
g102
ssg83
g2822
sg76
(lp2834
S':'
asbag69
(g90
g71
NtRp2835
(dp2836
g74
(dp2837
sg83
g2822
sg76
(lp2838
g69
(g70
g71
NtRp2839
(dp2840
g74
(dp2841
g82
I3
ssg83
g2835
sg76
(lp2842
g1314
asbasbasbag69
(g85
g71
NtRp2843
(dp2844
g74
(dp2845
sg83
g2734
sg76
(lp2846
g69
(g90
g71
NtRp2847
(dp2848
g74
(dp2849
g94
g95
ssg83
g2843
sg76
(lp2850
S'HTTP_COOKIE'
p2851
asbag69
(g90
g71
NtRp2852
(dp2853
g74
(dp2854
g101
g102
ssg83
g2843
sg76
(lp2855
S':'
asbag69
(g90
g71
NtRp2856
(dp2857
g74
(dp2858
sg83
g2843
sg76
(lp2859
g69
(g70
g71
NtRp2860
(dp2861
g74
(dp2862
g82
I3
ssg83
g2856
sg76
(lp2863
g1336
asbasbasbag69
(g85
g71
NtRp2864
(dp2865
g74
(dp2866
sg83
g2734
sg76
(lp2867
g69
(g90
g71
NtRp2868
(dp2869
g74
(dp2870
g94
g95
ssg83
g2864
sg76
(lp2871
S'HTTP_DNT'
p2872
asbag69
(g90
g71
NtRp2873
(dp2874
g74
(dp2875
g101
g102
ssg83
g2864
sg76
(lp2876
S':'
asbag69
(g90
g71
NtRp2877
(dp2878
g74
(dp2879
sg83
g2864
sg76
(lp2880
g69
(g70
g71
NtRp2881
(dp2882
g74
(dp2883
g82
I3
ssg83
g2877
sg76
(lp2884
S'1'
asbasbasbag69
(g85
g71
NtRp2885
(dp2886
g74
(dp2887
sg83
g2734
sg76
(lp2888
g69
(g90
g71
NtRp2889
(dp2890
g74
(dp2891
g94
g95
ssg83
g2885
sg76
(lp2892
S'HTTP_HOST'
p2893
asbag69
(g90
g71
NtRp2894
(dp2895
g74
(dp2896
g101
g102
ssg83
g2885
sg76
(lp2897
S':'
asbag69
(g90
g71
NtRp2898
(dp2899
g74
(dp2900
sg83
g2885
sg76
(lp2901
g69
(g70
g71
NtRp2902
(dp2903
g74
(dp2904
g82
I3
ssg83
g2898
sg76
(lp2905
g1379
asbasbasbag69
(g85
g71
NtRp2906
(dp2907
g74
(dp2908
sg83
g2734
sg76
(lp2909
g69
(g90
g71
NtRp2910
(dp2911
g74
(dp2912
g94
g95
ssg83
g2906
sg76
(lp2913
S'HTTP_USER_AGENT'
p2914
asbag69
(g90
g71
NtRp2915
(dp2916
g74
(dp2917
g101
g102
ssg83
g2906
sg76
(lp2918
S':'
asbag69
(g90
g71
NtRp2919
(dp2920
g74
(dp2921
sg83
g2906
sg76
(lp2922
g69
(g70
g71
NtRp2923
(dp2924
g74
(dp2925
g82
I3
ssg83
g2919
sg76
(lp2926
g1401
asbasbasbag69
(g85
g71
NtRp2927
(dp2928
g74
(dp2929
sg83
g2734
sg76
(lp2930
g69
(g90
g71
NtRp2931
(dp2932
g74
(dp2933
g94
g95
ssg83
g2927
sg76
(lp2934
S'HTTP_X_CLICKONCESUPPORT'
p2935
asbag69
(g90
g71
NtRp2936
(dp2937
g74
(dp2938
g101
g102
ssg83
g2927
sg76
(lp2939
S':'
asbag69
(g90
g71
NtRp2940
(dp2941
g74
(dp2942
sg83
g2927
sg76
(lp2943
g69
(g70
g71
NtRp2944
(dp2945
g74
(dp2946
g82
I3
ssg83
g2940
sg76
(lp2947
g1423
asbasbasbag69
(g85
g71
NtRp2948
(dp2949
g74
(dp2950
sg83
g2734
sg76
(lp2951
g69
(g90
g71
NtRp2952
(dp2953
g74
(dp2954
g94
g95
ssg83
g2948
sg76
(lp2955
S'PATH_INFO'
p2956
asbag69
(g90
g71
NtRp2957
(dp2958
g74
(dp2959
g101
g102
ssg83
g2948
sg76
(lp2960
S':'
asbag69
(g90
g71
NtRp2961
(dp2962
g74
(dp2963
sg83
g2948
sg76
(lp2964
g69
(g70
g71
NtRp2965
(dp2966
g74
(dp2967
g82
I3
ssg83
g2961
sg76
(lp2968
g1487
asbasbasbag69
(g85
g71
NtRp2969
(dp2970
g74
(dp2971
sg83
g2734
sg76
(lp2972
g69
(g90
g71
NtRp2973
(dp2974
g74
(dp2975
g94
g95
ssg83
g2969
sg76
(lp2976
S'QUERY_STRING'
p2977
asbag69
(g90
g71
NtRp2978
(dp2979
g74
(dp2980
g101
g102
ssg83
g2969
sg76
(lp2981
S':'
asbag69
(g90
g71
NtRp2982
(dp2983
g74
(dp2984
sg83
g2969
sg76
(lp2985
g69
(g70
g71
NtRp2986
(dp2987
g74
(dp2988
g82
I3
ssg83
g2982
sg76
(lp2989
S''
asbasbasbag69
(g85
g71
NtRp2990
(dp2991
g74
(dp2992
sg83
g2734
sg76
(lp2993
g69
(g90
g71
NtRp2994
(dp2995
g74
(dp2996
g94
g95
ssg83
g2990
sg76
(lp2997
S'REMOTE_ADDR'
p2998
asbag69
(g90
g71
NtRp2999
(dp3000
g74
(dp3001
g101
g102
ssg83
g2990
sg76
(lp3002
S':'
asbag69
(g90
g71
NtRp3003
(dp3004
g74
(dp3005
sg83
g2990
sg76
(lp3006
g69
(g70
g71
NtRp3007
(dp3008
g74
(dp3009
g82
I3
ssg83
g3003
sg76
(lp3010
g224
asbasbasbag69
(g85
g71
NtRp3011
(dp3012
g74
(dp3013
sg83
g2734
sg76
(lp3014
g69
(g90
g71
NtRp3015
(dp3016
g74
(dp3017
g94
g95
ssg83
g3011
sg76
(lp3018
S'REMOTE_PORT'
p3019
asbag69
(g90
g71
NtRp3020
(dp3021
g74
(dp3022
g101
g102
ssg83
g3011
sg76
(lp3023
S':'
asbag69
(g90
g71
NtRp3024
(dp3025
g74
(dp3026
sg83
g3011
sg76
(lp3027
g69
(g70
g71
NtRp3028
(dp3029
g74
(dp3030
g82
I3
ssg83
g3024
sg76
(lp3031
g1551
asbasbasbag69
(g85
g71
NtRp3032
(dp3033
g74
(dp3034
sg83
g2734
sg76
(lp3035
g69
(g90
g71
NtRp3036
(dp3037
g74
(dp3038
g94
g95
ssg83
g3032
sg76
(lp3039
S'REQUEST_METHOD'
p3040
asbag69
(g90
g71
NtRp3041
(dp3042
g74
(dp3043
g101
g102
ssg83
g3032
sg76
(lp3044
S':'
asbag69
(g90
g71
NtRp3045
(dp3046
g74
(dp3047
sg83
g3032
sg76
(lp3048
g69
(g70
g71
NtRp3049
(dp3050
g74
(dp3051
g82
I3
ssg83
g3045
sg76
(lp3052
g1573
asbasbasbag69
(g85
g71
NtRp3053
(dp3054
g74
(dp3055
sg83
g2734
sg76
(lp3056
g69
(g90
g71
NtRp3057
(dp3058
g74
(dp3059
g94
g95
ssg83
g3053
sg76
(lp3060
S'REQUEST_URI'
p3061
asbag69
(g90
g71
NtRp3062
(dp3063
g74
(dp3064
g101
g102
ssg83
g3053
sg76
(lp3065
S':'
asbag69
(g90
g71
NtRp3066
(dp3067
g74
(dp3068
sg83
g3053
sg76
(lp3069
g69
(g70
g71
NtRp3070
(dp3071
g74
(dp3072
g82
I3
ssg83
g3066
sg76
(lp3073
g1487
asbasbasbag69
(g85
g71
NtRp3074
(dp3075
g74
(dp3076
sg83
g2734
sg76
(lp3077
g69
(g90
g71
NtRp3078
(dp3079
g74
(dp3080
g94
g95
ssg83
g3074
sg76
(lp3081
S'SCRIPT_NAME'
p3082
asbag69
(g90
g71
NtRp3083
(dp3084
g74
(dp3085
g101
g102
ssg83
g3074
sg76
(lp3086
S':'
asbag69
(g90
g71
NtRp3087
(dp3088
g74
(dp3089
sg83
g3074
sg76
(lp3090
g69
(g70
g71
NtRp3091
(dp3092
g74
(dp3093
g82
I3
ssg83
g3087
sg76
(lp3094
S''
asbasbasbag69
(g85
g71
NtRp3095
(dp3096
g74
(dp3097
sg83
g2734
sg76
(lp3098
g69
(g90
g71
NtRp3099
(dp3100
g74
(dp3101
g94
g95
ssg83
g3095
sg76
(lp3102
S'SERVER_NAME'
p3103
asbag69
(g90
g71
NtRp3104
(dp3105
g74
(dp3106
g101
g102
ssg83
g3095
sg76
(lp3107
S':'
asbag69
(g90
g71
NtRp3108
(dp3109
g74
(dp3110
sg83
g3095
sg76
(lp3111
g69
(g70
g71
NtRp3112
(dp3113
g74
(dp3114
g82
I3
ssg83
g3108
sg76
(lp3115
g1637
asbasbasbag69
(g85
g71
NtRp3116
(dp3117
g74
(dp3118
sg83
g2734
sg76
(lp3119
g69
(g90
g71
NtRp3120
(dp3121
g74
(dp3122
g94
g95
ssg83
g3116
sg76
(lp3123
S'SERVER_PORT'
p3124
asbag69
(g90
g71
NtRp3125
(dp3126
g74
(dp3127
g101
g102
ssg83
g3116
sg76
(lp3128
S':'
asbag69
(g90
g71
NtRp3129
(dp3130
g74
(dp3131
sg83
g3116
sg76
(lp3132
g69
(g70
g71
NtRp3133
(dp3134
g74
(dp3135
g82
I3
ssg83
g3129
sg76
(lp3136
g1659
asbasbasbag69
(g85
g71
NtRp3137
(dp3138
g74
(dp3139
sg83
g2734
sg76
(lp3140
g69
(g90
g71
NtRp3141
(dp3142
g74
(dp3143
g94
g95
ssg83
g3137
sg76
(lp3144
S'SERVER_PROTOCOL'
p3145
asbag69
(g90
g71
NtRp3146
(dp3147
g74
(dp3148
g101
g102
ssg83
g3137
sg76
(lp3149
S':'
asbag69
(g90
g71
NtRp3150
(dp3151
g74
(dp3152
sg83
g3137
sg76
(lp3153
g69
(g70
g71
NtRp3154
(dp3155
g74
(dp3156
g82
I3
ssg83
g3150
sg76
(lp3157
g1681
asbasbasbag69
(g85
g71
NtRp3158
(dp3159
g74
(dp3160
sg83
g2734
sg76
(lp3161
g69
(g90
g71
NtRp3162
(dp3163
g74
(dp3164
g94
g95
ssg83
g3158
sg76
(lp3165
S'SERVER_SOFTWARE'
p3166
asbag69
(g90
g71
NtRp3167
(dp3168
g74
(dp3169
g101
g102
ssg83
g3158
sg76
(lp3170
S':'
asbag69
(g90
g71
NtRp3171
(dp3172
g74
(dp3173
sg83
g3158
sg76
(lp3174
g69
(g70
g71
NtRp3175
(dp3176
g74
(dp3177
g82
I3
ssg83
g3171
sg76
(lp3178
g1703
asbasbasbag69
(g85
g71
NtRp3179
(dp3180
g74
(dp3181
sg83
g2734
sg76
(lp3182
g69
(g90
g71
NtRp3183
(dp3184
g74
(dp3185
g94
g95
ssg83
g3179
sg76
(lp3186
S'wsgi.errors'
p3187
asbag69
(g90
g71
NtRp3188
(dp3189
g74
(dp3190
g101
g102
ssg83
g3179
sg76
(lp3191
S':'
asbag69
(g90
g71
NtRp3192
(dp3193
g74
(dp3194
sg83
g3179
sg76
(lp3195
g69
(g70
g71
NtRp3196
(dp3197
g74
(dp3198
g82
I3
ssg83
g3192
sg76
(lp3199
S"<open file '<stderr>', mode 'w' at 0x022350D0>"
p3200
asbasbasbag69
(g85
g71
NtRp3201
(dp3202
g74
(dp3203
sg83
g2734
sg76
(lp3204
g69
(g90
g71
NtRp3205
(dp3206
g74
(dp3207
g94
g95
ssg83
g3201
sg76
(lp3208
S'wsgi.file_wrapper'
p3209
asbag69
(g90
g71
NtRp3210
(dp3211
g74
(dp3212
g101
g102
ssg83
g3201
sg76
(lp3213
S':'
asbag69
(g90
g71
NtRp3214
(dp3215
g74
(dp3216
sg83
g3201
sg76
(lp3217
g69
(g70
g71
NtRp3218
(dp3219
g74
(dp3220
g82
I3
ssg83
g3214
sg76
(lp3221
S'<class wsgiref.util.FileWrapper at 0x02D7D030>'
p3222
asbasbasbag69
(g85
g71
NtRp3223
(dp3224
g74
(dp3225
sg83
g2734
sg76
(lp3226
g69
(g90
g71
NtRp3227
(dp3228
g74
(dp3229
g94
g95
ssg83
g3223
sg76
(lp3230
S'wsgi.input'
p3231
asbag69
(g90
g71
NtRp3232
(dp3233
g74
(dp3234
g101
g102
ssg83
g3223
sg76
(lp3235
S':'
asbag69
(g90
g71
NtRp3236
(dp3237
g74
(dp3238
sg83
g3223
sg76
(lp3239
g69
(g70
g71
NtRp3240
(dp3241
g74
(dp3242
g82
I3
ssg83
g3236
sg76
(lp3243
S'<cStringIO.StringO object at 0x06F74F80>'
p3244
asbasbasbag69
(g85
g71
NtRp3245
(dp3246
g74
(dp3247
sg83
g2734
sg76
(lp3248
g69
(g90
g71
NtRp3249
(dp3250
g74
(dp3251
g94
g95
ssg83
g3245
sg76
(lp3252
S'wsgi.multiprocess'
p3253
asbag69
(g90
g71
NtRp3254
(dp3255
g74
(dp3256
g101
g102
ssg83
g3245
sg76
(lp3257
S':'
asbag69
(g90
g71
NtRp3258
(dp3259
g74
(dp3260
sg83
g3245
sg76
(lp3261
g69
(g70
g71
NtRp3262
(dp3263
g74
(dp3264
g82
I3
ssg83
g3258
sg76
(lp3265
g112
asbasbasbag69
(g85
g71
NtRp3266
(dp3267
g74
(dp3268
sg83
g2734
sg76
(lp3269
g69
(g90
g71
NtRp3270
(dp3271
g74
(dp3272
g94
g95
ssg83
g3266
sg76
(lp3273
S'wsgi.multithread'
p3274
asbag69
(g90
g71
NtRp3275
(dp3276
g74
(dp3277
g101
g102
ssg83
g3266
sg76
(lp3278
S':'
asbag69
(g90
g71
NtRp3279
(dp3280
g74
(dp3281
sg83
g3266
sg76
(lp3282
g69
(g70
g71
NtRp3283
(dp3284
g74
(dp3285
g82
I3
ssg83
g3279
sg76
(lp3286
g1942
asbasbasbag69
(g85
g71
NtRp3287
(dp3288
g74
(dp3289
sg83
g2734
sg76
(lp3290
g69
(g90
g71
NtRp3291
(dp3292
g74
(dp3293
g94
g95
ssg83
g3287
sg76
(lp3294
S'wsgi.run_once'
p3295
asbag69
(g90
g71
NtRp3296
(dp3297
g74
(dp3298
g101
g102
ssg83
g3287
sg76
(lp3299
S':'
asbag69
(g90
g71
NtRp3300
(dp3301
g74
(dp3302
sg83
g3287
sg76
(lp3303
g69
(g70
g71
NtRp3304
(dp3305
g74
(dp3306
g82
I3
ssg83
g3300
sg76
(lp3307
g112
asbasbasbag69
(g85
g71
NtRp3308
(dp3309
g74
(dp3310
sg83
g2734
sg76
(lp3311
g69
(g90
g71
NtRp3312
(dp3313
g74
(dp3314
g94
g95
ssg83
g3308
sg76
(lp3315
S'wsgi.url_scheme'
p3316
asbag69
(g90
g71
NtRp3317
(dp3318
g74
(dp3319
g101
g102
ssg83
g3308
sg76
(lp3320
S':'
asbag69
(g90
g71
NtRp3321
(dp3322
g74
(dp3323
sg83
g3308
sg76
(lp3324
g69
(g70
g71
NtRp3325
(dp3326
g74
(dp3327
g82
I3
ssg83
g3321
sg76
(lp3328
g1985
asbasbasbag69
(g85
g71
NtRp3329
(dp3330
g74
(dp3331
sg83
g2734
sg76
(lp3332
g69
(g90
g71
NtRp3333
(dp3334
g74
(dp3335
g94
g95
ssg83
g3329
sg76
(lp3336
S'wsgi.version'
p3337
asbag69
(g90
g71
NtRp3338
(dp3339
g74
(dp3340
g101
g102
ssg83
g3329
sg76
(lp3341
S':'
asbag69
(g90
g71
NtRp3342
(dp3343
g74
(dp3344
sg83
g3329
sg76
(lp3345
g69
(g70
g71
NtRp3346
(dp3347
g74
(dp3348
g82
I3
ssg83
g3342
sg76
(lp3349
S'1'
asbasbasbasbasbasbasbasbasbasbasbasbasbsS'frames'
p3350
(lp3351
(dp3352
S'file'
p3353
S'C:\\xampp\\htdocs\\web2py\\gluon\\restricted.py'
p3354
sS'dump'
p3355
(dp3356
sS'lnum'
p3357
I208
sS'lines'
p3358
(dp3359
sS'call'
p3360
S"(code='# -*- coding: utf-8 -*-\\n# this file is released ...=crud())\\n\\nresponse._vars=response._caller(index)\\n', environment={'A': <class 'gluon.html.A'>, 'Auth': <class 'gluon.tools.Auth'>, 'B': <class 'gluon.html.B'>, 'BEAUTIFY': <class 'gluon.html.BEAUTIFY'>, 'BODY': <class 'gluon.html.BODY'>, 'BR': <class 'gluon.html.BR'>, 'BUTTON': <class 'gluon.html.BUTTON'>, 'CAT': <class 'gluon.html.CAT'>, 'CENTER': <class 'gluon.html.CENTER'>, 'CLEANUP': <class 'gluon.validators.CLEANUP'>, ...}, layer=r'C:\\xampp\\htdocs\\web2py\\applications\\testumgebung\\controllers/default.py')"
p3361
sS'func'
p3362
S'restricted'
p3363
sa(dp3364
g3353
S'C:\\xampp\\htdocs\\web2py\\gluon\\restricted.py'
p3365
sg3355
(dp3366
sg3357
I193
sg3358
(dp3367
sg3360
S"(code='# -*- coding: utf-8 -*-\\n# this file is released ...=crud())\\n\\nresponse._vars=response._caller(index)\\n', layer=r'C:\\xampp\\htdocs\\web2py\\applications\\testumgebung\\controllers/default.py')"
p3368
sg3362
S'compile2'
p3369
sasS'pyver'
p3370
S'Python 2.7: C:\\xampp\\htdocs\\web2py\\web2py.exe'
p3371
sS'session'
p3372
g69
(g70
g71
NtRp3373
(dp3374
g74
(dp3375
sg76
(lp3376
g69
(g78
g71
NtRp3377
(dp3378
g74
(dp3379
g82
I5
ssg83
Nsg76
(lp3380
g69
(g85
g71
NtRp3381
(dp3382
g74
(dp3383
sg83
g3377
sg76
(lp3384
g69
(g90
g71
NtRp3385
(dp3386
g74
(dp3387
g94
g95
ssg83
g3381
sg76
(lp3388
S'auth'
p3389
asbag69
(g90
g71
NtRp3390
(dp3391
g74
(dp3392
g101
g102
ssg83
g3381
sg76
(lp3393
S':'
asbag69
(g90
g71
NtRp3394
(dp3395
g74
(dp3396
sg83
g3381
sg76
(lp3397
g69
(g70
g71
NtRp3398
(dp3399
g74
(dp3400
g82
I5
ssg83
g3394
sg76
(lp3401
S'None'
p3402
asbasbasbag69
(g85
g71
NtRp3403
(dp3404
g74
(dp3405
sg83
g3377
sg76
(lp3406
g69
(g90
g71
NtRp3407
(dp3408
g74
(dp3409
g94
g95
ssg83
g3403
sg76
(lp3410
S'flash'
p3411
asbag69
(g90
g71
NtRp3412
(dp3413
g74
(dp3414
g101
g102
ssg83
g3403
sg76
(lp3415
S':'
asbag69
(g90
g71
NtRp3416
(dp3417
g74
(dp3418
sg83
g3403
sg76
(lp3419
g69
(g70
g71
NtRp3420
(dp3421
g74
(dp3422
g82
I5
ssg83
g3416
sg76
(lp3423
S'None'
p3424
asbasbasbag69
(g85
g71
NtRp3425
(dp3426
g74
(dp3427
sg83
g3377
sg76
(lp3428
g69
(g90
g71
NtRp3429
(dp3430
g74
(dp3431
g94
g95
ssg83
g3425
sg76
(lp3432
S'last_orderby'
p3433
asbag69
(g90
g71
NtRp3434
(dp3435
g74
(dp3436
g101
g102
ssg83
g3425
sg76
(lp3437
S':'
asbag69
(g90
g71
NtRp3438
(dp3439
g74
(dp3440
sg83
g3425
sg76
(lp3441
g69
(g70
g71
NtRp3442
(dp3443
g74
(dp3444
g82
I5
ssg83
g3438
sg76
(lp3445
S'None'
p3446
asbasbasbag69
(g85
g71
NtRp3447
(dp3448
g74
(dp3449
sg83
g3377
sg76
(lp3450
g69
(g90
g71
NtRp3451
(dp3452
g74
(dp3453
g94
g95
ssg83
g3447
sg76
(lp3454
S'last_query'
p3455
asbag69
(g90
g71
NtRp3456
(dp3457
g74
(dp3458
g101
g102
ssg83
g3447
sg76
(lp3459
S':'
asbag69
(g90
g71
NtRp3460
(dp3461
g74
(dp3462
sg83
g3447
sg76
(lp3463
g69
(g70
g71
NtRp3464
(dp3465
g74
(dp3466
g82
I5
ssg83
g3460
sg76
(lp3467
S'db.questions.id>0'
p3468
asbasbasbasbasbsS'etype'
p3469
S"<type 'exceptions.SyntaxError'>"
p3470
sS'date'
p3471
S'Thu Dec 13 13:35:37 2012'
p3472
sS'response'
p3473
g69
(g70
g71
NtRp3474
(dp3475
g74
(dp3476
sg76
(lp3477
g69
(g78
g71
NtRp3478
(dp3479
g74
(dp3480
g82
I5
ssg83
Nsg76
(lp3481
g69
(g85
g71
NtRp3482
(dp3483
g74
(dp3484
sg83
g3478
sg76
(lp3485
g69
(g90
g71
NtRp3486
(dp3487
g74
(dp3488
g94
g95
ssg83
g3482
sg76
(lp3489
g167
asbag69
(g90
g71
NtRp3490
(dp3491
g74
(dp3492
g101
g102
ssg83
g3482
sg76
(lp3493
S':'
asbag69
(g90
g71
NtRp3494
(dp3495
g74
(dp3496
sg83
g3482
sg76
(lp3497
g69
(g70
g71
NtRp3498
(dp3499
g74
(dp3500
g82
I5
ssg83
g3494
sg76
(lp3501
S'<cStringIO.StringO object at 0x07455F80>'
p3502
asbasbasbag69
(g85
g71
NtRp3503
(dp3504
g74
(dp3505
sg83
g3478
sg76
(lp3506
g69
(g90
g71
NtRp3507
(dp3508
g74
(dp3509
g94
g95
ssg83
g3503
sg76
(lp3510
g255
asbag69
(g90
g71
NtRp3511
(dp3512
g74
(dp3513
g101
g102
ssg83
g3503
sg76
(lp3514
S':'
asbag69
(g90
g71
NtRp3515
(dp3516
g74
(dp3517
sg83
g3503
sg76
(lp3518
g69
(g70
g71
NtRp3519
(dp3520
g74
(dp3521
g82
I5
ssg83
g3515
sg76
(lp3522
g69
(g78
g71
NtRp3523
(dp3524
g74
(dp3525
g82
I4
ssg83
Nsg76
(lp3526
g69
(g85
g71
NtRp3527
(dp3528
g74
(dp3529
sg83
g3523
sg76
(lp3530
g69
(g90
g71
NtRp3531
(dp3532
g74
(dp3533
g94
g95
ssg83
g3527
sg76
(lp3534
S'session_id_testumgebung'
p3535
asbag69
(g90
g71
NtRp3536
(dp3537
g74
(dp3538
g101
g102
ssg83
g3527
sg76
(lp3539
S':'
asbag69
(g90
g71
NtRp3540
(dp3541
g74
(dp3542
sg83
g3527
sg76
(lp3543
g69
(g70
g71
NtRp3544
(dp3545
g74
(dp3546
g82
I4
ssg83
g3540
sg76
(lp3547
g673
ag69
(g78
g71
NtRp3548
(dp3549
g74
(dp3550
g82
I3
ssg83
Nsg76
(lp3551
g69
(g85
g71
NtRp3552
(dp3553
g74
(dp3554
sg83
g3548
sg76
(lp3555
g69
(g90
g71
NtRp3556
(dp3557
g74
(dp3558
g94
g95
ssg83
g3552
sg76
(lp3559
g306
asbag69
(g90
g71
NtRp3560
(dp3561
g74
(dp3562
g101
g102
ssg83
g3552
sg76
(lp3563
S':'
asbag69
(g90
g71
NtRp3564
(dp3565
g74
(dp3566
sg83
g3552
sg76
(lp3567
g69
(g70
g71
NtRp3568
(dp3569
g74
(dp3570
g82
I3
ssg83
g3564
sg76
(lp3571
S''
asbasbasbag69
(g85
g71
NtRp3572
(dp3573
g74
(dp3574
sg83
g3548
sg76
(lp3575
g69
(g90
g71
NtRp3576
(dp3577
g74
(dp3578
g94
g95
ssg83
g3572
sg76
(lp3579
g327
asbag69
(g90
g71
NtRp3580
(dp3581
g74
(dp3582
g101
g102
ssg83
g3572
sg76
(lp3583
S':'
asbag69
(g90
g71
NtRp3584
(dp3585
g74
(dp3586
sg83
g3572
sg76
(lp3587
g69
(g70
g71
NtRp3588
(dp3589
g74
(dp3590
g82
I3
ssg83
g3584
sg76
(lp3591
S''
asbasbasbag69
(g85
g71
NtRp3592
(dp3593
g74
(dp3594
sg83
g3548
sg76
(lp3595
g69
(g90
g71
NtRp3596
(dp3597
g74
(dp3598
g94
g95
ssg83
g3592
sg76
(lp3599
g348
asbag69
(g90
g71
NtRp3600
(dp3601
g74
(dp3602
g101
g102
ssg83
g3592
sg76
(lp3603
S':'
asbag69
(g90
g71
NtRp3604
(dp3605
g74
(dp3606
sg83
g3592
sg76
(lp3607
g69
(g70
g71
NtRp3608
(dp3609
g74
(dp3610
g82
I3
ssg83
g3604
sg76
(lp3611
S''
asbasbasbag69
(g85
g71
NtRp3612
(dp3613
g74
(dp3614
sg83
g3548
sg76
(lp3615
g69
(g90
g71
NtRp3616
(dp3617
g74
(dp3618
g94
g95
ssg83
g3612
sg76
(lp3619
g369
asbag69
(g90
g71
NtRp3620
(dp3621
g74
(dp3622
g101
g102
ssg83
g3612
sg76
(lp3623
S':'
asbag69
(g90
g71
NtRp3624
(dp3625
g74
(dp3626
sg83
g3612
sg76
(lp3627
g69
(g70
g71
NtRp3628
(dp3629
g74
(dp3630
g82
I3
ssg83
g3624
sg76
(lp3631
S''
asbasbasbag69
(g85
g71
NtRp3632
(dp3633
g74
(dp3634
sg83
g3548
sg76
(lp3635
g69
(g90
g71
NtRp3636
(dp3637
g74
(dp3638
g94
g95
ssg83
g3632
sg76
(lp3639
g390
asbag69
(g90
g71
NtRp3640
(dp3641
g74
(dp3642
g101
g102
ssg83
g3632
sg76
(lp3643
S':'
asbag69
(g90
g71
NtRp3644
(dp3645
g74
(dp3646
sg83
g3632
sg76
(lp3647
g69
(g70
g71
NtRp3648
(dp3649
g74
(dp3650
g82
I3
ssg83
g3644
sg76
(lp3651
S''
asbasbasbag69
(g85
g71
NtRp3652
(dp3653
g74
(dp3654
sg83
g3548
sg76
(lp3655
g69
(g90
g71
NtRp3656
(dp3657
g74
(dp3658
g94
g95
ssg83
g3652
sg76
(lp3659
g411
asbag69
(g90
g71
NtRp3660
(dp3661
g74
(dp3662
g101
g102
ssg83
g3652
sg76
(lp3663
S':'
asbag69
(g90
g71
NtRp3664
(dp3665
g74
(dp3666
sg83
g3652
sg76
(lp3667
g69
(g70
g71
NtRp3668
(dp3669
g74
(dp3670
g82
I3
ssg83
g3664
sg76
(lp3671
S'/'
asbasbasbag69
(g85
g71
NtRp3672
(dp3673
g74
(dp3674
sg83
g3548
sg76
(lp3675
g69
(g90
g71
NtRp3676
(dp3677
g74
(dp3678
g94
g95
ssg83
g3672
sg76
(lp3679
g432
asbag69
(g90
g71
NtRp3680
(dp3681
g74
(dp3682
g101
g102
ssg83
g3672
sg76
(lp3683
S':'
asbag69
(g90
g71
NtRp3684
(dp3685
g74
(dp3686
sg83
g3672
sg76
(lp3687
g69
(g70
g71
NtRp3688
(dp3689
g74
(dp3690
g82
I3
ssg83
g3684
sg76
(lp3691
S''
asbasbasbag69
(g85
g71
NtRp3692
(dp3693
g74
(dp3694
sg83
g3548
sg76
(lp3695
g69
(g90
g71
NtRp3696
(dp3697
g74
(dp3698
g94
g95
ssg83
g3692
sg76
(lp3699
g453
asbag69
(g90
g71
NtRp3700
(dp3701
g74
(dp3702
g101
g102
ssg83
g3692
sg76
(lp3703
S':'
asbag69
(g90
g71
NtRp3704
(dp3705
g74
(dp3706
sg83
g3692
sg76
(lp3707
g69
(g70
g71
NtRp3708
(dp3709
g74
(dp3710
g82
I3
ssg83
g3704
sg76
(lp3711
S''
asbasbasbasbasbasbasbasbasbasbasbag69
(g85
g71
NtRp3712
(dp3713
g74
(dp3714
sg83
g3478
sg76
(lp3715
g69
(g90
g71
NtRp3716
(dp3717
g74
(dp3718
g94
g95
ssg83
g3712
sg76
(lp3719
S'delimiters'
p3720
asbag69
(g90
g71
NtRp3721
(dp3722
g74
(dp3723
g101
g102
ssg83
g3712
sg76
(lp3724
S':'
asbag69
(g90
g71
NtRp3725
(dp3726
g74
(dp3727
sg83
g3712
sg76
(lp3728
g69
(g70
g71
NtRp3729
(dp3730
g74
(dp3731
g82
I5
ssg83
g3725
sg76
(lp3732
g69
(g78
g71
NtRp3733
(dp3734
g74
(dp3735
g82
I4
ssg83
Nsg76
(lp3736
g69
(g85
g71
NtRp3737
(dp3738
g74
(dp3739
sg83
g3733
sg76
(lp3740
g69
(g90
g71
NtRp3741
(dp3742
g74
(dp3743
sg83
g3737
sg76
(lp3744
g69
(g70
g71
NtRp3745
(dp3746
g74
(dp3747
g82
I4
ssg83
g3741
sg76
(lp3748
S'{{'
p3749
asbasbasbag69
(g85
g71
NtRp3750
(dp3751
g74
(dp3752
sg83
g3733
sg76
(lp3753
g69
(g90
g71
NtRp3754
(dp3755
g74
(dp3756
sg83
g3750
sg76
(lp3757
g69
(g70
g71
NtRp3758
(dp3759
g74
(dp3760
g82
I4
ssg83
g3754
sg76
(lp3761
S'}}'
p3762
asbasbasbasbasbasbasbag69
(g85
g71
NtRp3763
(dp3764
g74
(dp3765
sg83
g3478
sg76
(lp3766
g69
(g90
g71
NtRp3767
(dp3768
g74
(dp3769
g94
g95
ssg83
g3763
sg76
(lp3770
S'files'
p3771
asbag69
(g90
g71
NtRp3772
(dp3773
g74
(dp3774
g101
g102
ssg83
g3763
sg76
(lp3775
S':'
asbag69
(g90
g71
NtRp3776
(dp3777
g74
(dp3778
sg83
g3763
sg76
(lp3779
g69
(g70
g71
NtRp3780
(dp3781
g74
(dp3782
g82
I5
ssg83
g3776
sg76
(lp3783
g69
(g78
g71
NtRp3784
(dp3785
g74
(dp3786
g82
I4
ssg83
Nsg76
(lp3787
sbasbasbasbag69
(g85
g71
NtRp3788
(dp3789
g74
(dp3790
sg83
g3478
sg76
(lp3791
g69
(g90
g71
NtRp3792
(dp3793
g74
(dp3794
g94
g95
ssg83
g3788
sg76
(lp3795
S'flash'
p3796
asbag69
(g90
g71
NtRp3797
(dp3798
g74
(dp3799
g101
g102
ssg83
g3788
sg76
(lp3800
S':'
asbag69
(g90
g71
NtRp3801
(dp3802
g74
(dp3803
sg83
g3788
sg76
(lp3804
g69
(g70
g71
NtRp3805
(dp3806
g74
(dp3807
g82
I5
ssg83
g3801
sg76
(lp3808
S''
asbasbasbag69
(g85
g71
NtRp3809
(dp3810
g74
(dp3811
sg83
g3478
sg76
(lp3812
g69
(g90
g71
NtRp3813
(dp3814
g74
(dp3815
g94
g95
ssg83
g3809
sg76
(lp3816
S'generic_patterns'
p3817
asbag69
(g90
g71
NtRp3818
(dp3819
g74
(dp3820
g101
g102
ssg83
g3809
sg76
(lp3821
S':'
asbag69
(g90
g71
NtRp3822
(dp3823
g74
(dp3824
sg83
g3809
sg76
(lp3825
g69
(g70
g71
NtRp3826
(dp3827
g74
(dp3828
g82
I5
ssg83
g3822
sg76
(lp3829
g69
(g78
g71
NtRp3830
(dp3831
g74
(dp3832
g82
I4
ssg83
Nsg76
(lp3833
g69
(g85
g71
NtRp3834
(dp3835
g74
(dp3836
sg83
g3830
sg76
(lp3837
g69
(g90
g71
NtRp3838
(dp3839
g74
(dp3840
sg83
g3834
sg76
(lp3841
g69
(g70
g71
NtRp3842
(dp3843
g74
(dp3844
g82
I4
ssg83
g3838
sg76
(lp3845
S'*'
asbasbasbasbasbasbasbag69
(g85
g71
NtRp3846
(dp3847
g74
(dp3848
sg83
g3478
sg76
(lp3849
g69
(g90
g71
NtRp3850
(dp3851
g74
(dp3852
g94
g95
ssg83
g3846
sg76
(lp3853
S'google_analytics_id'
p3854
asbag69
(g90
g71
NtRp3855
(dp3856
g74
(dp3857
g101
g102
ssg83
g3846
sg76
(lp3858
S':'
asbag69
(g90
g71
NtRp3859
(dp3860
g74
(dp3861
sg83
g3846
sg76
(lp3862
g69
(g70
g71
NtRp3863
(dp3864
g74
(dp3865
g82
I5
ssg83
g3859
sg76
(lp3866
S'None'
p3867
asbasbasbag69
(g85
g71
NtRp3868
(dp3869
g74
(dp3870
sg83
g3478
sg76
(lp3871
g69
(g90
g71
NtRp3872
(dp3873
g74
(dp3874
g94
g95
ssg83
g3868
sg76
(lp3875
S'headers'
p3876
asbag69
(g90
g71
NtRp3877
(dp3878
g74
(dp3879
g101
g102
ssg83
g3868
sg76
(lp3880
S':'
asbag69
(g90
g71
NtRp3881
(dp3882
g74
(dp3883
sg83
g3868
sg76
(lp3884
g69
(g70
g71
NtRp3885
(dp3886
g74
(dp3887
g82
I5
ssg83
g3881
sg76
(lp3888
g69
(g78
g71
NtRp3889
(dp3890
g74
(dp3891
g82
I4
ssg83
Nsg76
(lp3892
g69
(g85
g71
NtRp3893
(dp3894
g74
(dp3895
sg83
g3889
sg76
(lp3896
g69
(g90
g71
NtRp3897
(dp3898
g74
(dp3899
g94
g95
ssg83
g3893
sg76
(lp3900
S'Cache-Control'
p3901
asbag69
(g90
g71
NtRp3902
(dp3903
g74
(dp3904
g101
g102
ssg83
g3893
sg76
(lp3905
S':'
asbag69
(g90
g71
NtRp3906
(dp3907
g74
(dp3908
sg83
g3893
sg76
(lp3909
g69
(g70
g71
NtRp3910
(dp3911
g74
(dp3912
g82
I4
ssg83
g3906
sg76
(lp3913
S'no-store, no-cache, must-revalidate, post-check=0, pre-check=0'
p3914
asbasbasbag69
(g85
g71
NtRp3915
(dp3916
g74
(dp3917
sg83
g3889
sg76
(lp3918
g69
(g90
g71
NtRp3919
(dp3920
g74
(dp3921
g94
g95
ssg83
g3915
sg76
(lp3922
S'Content-Type'
p3923
asbag69
(g90
g71
NtRp3924
(dp3925
g74
(dp3926
g101
g102
ssg83
g3915
sg76
(lp3927
S':'
asbag69
(g90
g71
NtRp3928
(dp3929
g74
(dp3930
sg83
g3915
sg76
(lp3931
g69
(g70
g71
NtRp3932
(dp3933
g74
(dp3934
g82
I4
ssg83
g3928
sg76
(lp3935
S'text/html; charset=utf-8'
p3936
asbasbasbag69
(g85
g71
NtRp3937
(dp3938
g74
(dp3939
sg83
g3889
sg76
(lp3940
g69
(g90
g71
NtRp3941
(dp3942
g74
(dp3943
g94
g95
ssg83
g3937
sg76
(lp3944
S'Expires'
p3945
asbag69
(g90
g71
NtRp3946
(dp3947
g74
(dp3948
g101
g102
ssg83
g3937
sg76
(lp3949
S':'
asbag69
(g90
g71
NtRp3950
(dp3951
g74
(dp3952
sg83
g3937
sg76
(lp3953
g69
(g70
g71
NtRp3954
(dp3955
g74
(dp3956
g82
I4
ssg83
g3950
sg76
(lp3957
S'Thu, 13 Dec 2012 12:35:36 GMT'
p3958
asbasbasbag69
(g85
g71
NtRp3959
(dp3960
g74
(dp3961
sg83
g3889
sg76
(lp3962
g69
(g90
g71
NtRp3963
(dp3964
g74
(dp3965
g94
g95
ssg83
g3959
sg76
(lp3966
S'Pragma'
p3967
asbag69
(g90
g71
NtRp3968
(dp3969
g74
(dp3970
g101
g102
ssg83
g3959
sg76
(lp3971
S':'
asbag69
(g90
g71
NtRp3972
(dp3973
g74
(dp3974
sg83
g3959
sg76
(lp3975
g69
(g70
g71
NtRp3976
(dp3977
g74
(dp3978
g82
I4
ssg83
g3972
sg76
(lp3979
S'no-cache'
p3980
asbasbasbag69
(g85
g71
NtRp3981
(dp3982
g74
(dp3983
sg83
g3889
sg76
(lp3984
g69
(g90
g71
NtRp3985
(dp3986
g74
(dp3987
g94
g95
ssg83
g3981
sg76
(lp3988
S'X-Powered-By'
p3989
asbag69
(g90
g71
NtRp3990
(dp3991
g74
(dp3992
g101
g102
ssg83
g3981
sg76
(lp3993
S':'
asbag69
(g90
g71
NtRp3994
(dp3995
g74
(dp3996
sg83
g3981
sg76
(lp3997
g69
(g70
g71
NtRp3998
(dp3999
g74
(dp4000
g82
I4
ssg83
g3994
sg76
(lp4001
S'web2py'
p4002
asbasbasbasbasbasbasbag69
(g85
g71
NtRp4003
(dp4004
g74
(dp4005
sg83
g3478
sg76
(lp4006
g69
(g90
g71
NtRp4007
(dp4008
g74
(dp4009
g94
g95
ssg83
g4003
sg76
(lp4010
S'menu'
p4011
asbag69
(g90
g71
NtRp4012
(dp4013
g74
(dp4014
g101
g102
ssg83
g4003
sg76
(lp4015
S':'
asbag69
(g90
g71
NtRp4016
(dp4017
g74
(dp4018
sg83
g4003
sg76
(lp4019
g69
(g70
g71
NtRp4020
(dp4021
g74
(dp4022
g82
I5
ssg83
g4016
sg76
(lp4023
g69
(g78
g71
NtRp4024
(dp4025
g74
(dp4026
g82
I4
ssg83
Nsg76
(lp4027
g69
(g85
g71
NtRp4028
(dp4029
g74
(dp4030
sg83
g4024
sg76
(lp4031
g69
(g90
g71
NtRp4032
(dp4033
g74
(dp4034
sg83
g4028
sg76
(lp4035
g69
(g70
g71
NtRp4036
(dp4037
g74
(dp4038
g82
I4
ssg83
g4032
sg76
(lp4039
g69
(g78
g71
NtRp4040
(dp4041
g74
(dp4042
g82
I3
ssg83
Nsg76
(lp4043
g69
(g85
g71
NtRp4044
(dp4045
g74
(dp4046
sg83
g4040
sg76
(lp4047
g69
(g90
g71
NtRp4048
(dp4049
g74
(dp4050
sg83
g4044
sg76
(lp4051
g69
(g70
g71
NtRp4052
(dp4053
g74
(dp4054
g82
I3
ssg83
g4048
sg76
(lp4055
cgluon.languages
lazyT_unpickle
p4056
(S't\x04\x00\x00\x00Home'
tRp4057
asbasbasbag69
(g85
g71
NtRp4058
(dp4059
g74
(dp4060
sg83
g4040
sg76
(lp4061
g69
(g90
g71
NtRp4062
(dp4063
g74
(dp4064
sg83
g4058
sg76
(lp4065
g69
(g70
g71
NtRp4066
(dp4067
g74
(dp4068
g82
I3
ssg83
g4062
sg76
(lp4069
g112
asbasbasbag69
(g85
g71
NtRp4070
(dp4071
g74
(dp4072
sg83
g4040
sg76
(lp4073
g69
(g90
g71
NtRp4074
(dp4075
g74
(dp4076
sg83
g4070
sg76
(lp4077
g69
(g70
g71
NtRp4078
(dp4079
g74
(dp4080
g82
I3
ssg83
g4074
sg76
(lp4081
S'/testumgebung/default/index'
p4082
asbasbasbag69
(g85
g71
NtRp4083
(dp4084
g74
(dp4085
sg83
g4040
sg76
(lp4086
g69
(g90
g71
NtRp4087
(dp4088
g74
(dp4089
sg83
g4083
sg76
(lp4090
g69
(g70
g71
NtRp4091
(dp4092
g74
(dp4093
g82
I3
ssg83
g4087
sg76
(lp4094
g69
(g78
g71
NtRp4095
(dp4096
g74
(dp4097
g82
I2
ssg83
Nsg76
(lp4098
sbasbasbasbasbasbasbasbag69
(g85
g71
NtRp4099
(dp4100
g74
(dp4101
sg83
g4024
sg76
(lp4102
g69
(g90
g71
NtRp4103
(dp4104
g74
(dp4105
sg83
g4099
sg76
(lp4106
g69
(g70
g71
NtRp4107
(dp4108
g74
(dp4109
g82
I4
ssg83
g4103
sg76
(lp4110
g69
(g78
g71
NtRp4111
(dp4112
g74
(dp4113
g82
I3
ssg83
Nsg76
(lp4114
g69
(g85
g71
NtRp4115
(dp4116
g74
(dp4117
sg83
g4111
sg76
(lp4118
g69
(g90
g71
NtRp4119
(dp4120
g74
(dp4121
sg83
g4115
sg76
(lp4122
g69
(g70
g71
NtRp4123
(dp4124
g74
(dp4125
g82
I3
ssg83
g4119
sg76
(lp4126
g69
(cgluon.html
SPAN
p4127
g71
NtRp4128
(dp4129
g74
(dp4130
g94
S'color:yellow'
p4131
ssg83
Nsg76
(lp4132
g4002
asbasbasbasbag69
(g85
g71
NtRp4133
(dp4134
g74
(dp4135
sg83
g4111
sg76
(lp4136
g69
(g90
g71
NtRp4137
(dp4138
g74
(dp4139
sg83
g4133
sg76
(lp4140
g69
(g70
g71
NtRp4141
(dp4142
g74
(dp4143
g82
I3
ssg83
g4137
sg76
(lp4144
g112
asbasbasbag69
(g85
g71
NtRp4145
(dp4146
g74
(dp4147
sg83
g4111
sg76
(lp4148
g69
(g90
g71
NtRp4149
(dp4150
g74
(dp4151
sg83
g4145
sg76
(lp4152
g69
(g70
g71
NtRp4153
(dp4154
g74
(dp4155
g82
I3
ssg83
g4149
sg76
(lp4156
S'http://web2py.com'
p4157
asbasbasbag69
(g85
g71
NtRp4158
(dp4159
g74
(dp4160
sg83
g4111
sg76
(lp4161
g69
(g90
g71
NtRp4162
(dp4163
g74
(dp4164
sg83
g4158
sg76
(lp4165
g69
(g70
g71
NtRp4166
(dp4167
g74
(dp4168
g82
I3
ssg83
g4162
sg76
(lp4169
g69
(g78
g71
NtRp4170
(dp4171
g74
(dp4172
g82
I2
ssg83
Nsg76
(lp4173
g69
(g85
g71
NtRp4174
(dp4175
g74
(dp4176
sg83
g4170
sg76
(lp4177
g69
(g90
g71
NtRp4178
(dp4179
g74
(dp4180
sg83
g4174
sg76
(lp4181
g69
(g70
g71
NtRp4182
(dp4183
g74
(dp4184
g82
I2
ssg83
g4178
sg76
(lp4185
g69
(g78
g71
NtRp4186
(dp4187
g74
(dp4188
g82
I1
ssg83
Nsg76
(lp4189
g69
(g85
g71
NtRp4190
(dp4191
g74
(dp4192
sg83
g4186
sg76
(lp4193
g69
(g90
g71
NtRp4194
(dp4195
g74
(dp4196
sg83
g4190
sg76
(lp4197
g69
(g70
g71
NtRp4198
(dp4199
g74
(dp4200
g82
I1
ssg83
g4194
sg76
(lp4201
g4056
(S's\x08\x00\x00\x00My Sites'
tRp4202
asbasbasbag69
(g85
g71
NtRp4203
(dp4204
g74
(dp4205
sg83
g4186
sg76
(lp4206
g69
(g90
g71
NtRp4207
(dp4208
g74
(dp4209
sg83
g4203
sg76
(lp4210
g69
(g70
g71
NtRp4211
(dp4212
g74
(dp4213
g82
I1
ssg83
g4207
sg76
(lp4214
I00
asbasbasbag69
(g85
g71
NtRp4215
(dp4216
g74
(dp4217
sg83
g4186
sg76
(lp4218
g69
(g90
g71
NtRp4219
(dp4220
g74
(dp4221
sg83
g4215
sg76
(lp4222
g69
(g70
g71
NtRp4223
(dp4224
g74
(dp4225
g82
I1
ssg83
g4219
sg76
(lp4226
S'/admin/default/site'
p4227
asbasbasbasbasbasbasbag69
(g85
g71
NtRp4228
(dp4229
g74
(dp4230
sg83
g4170
sg76
(lp4231
g69
(g90
g71
NtRp4232
(dp4233
g74
(dp4234
sg83
g4228
sg76
(lp4235
g69
(g70
g71
NtRp4236
(dp4237
g74
(dp4238
g82
I2
ssg83
g4232
sg76
(lp4239
g69
(g78
g71
NtRp4240
(dp4241
g74
(dp4242
g82
I1
ssg83
Nsg76
(lp4243
g69
(g85
g71
NtRp4244
(dp4245
g74
(dp4246
sg83
g4240
sg76
(lp4247
g69
(g90
g71
NtRp4248
(dp4249
g74
(dp4250
sg83
g4244
sg76
(lp4251
g69
(g70
g71
NtRp4252
(dp4253
g74
(dp4254
g82
I1
ssg83
g4248
sg76
(lp4255
g4056
(S's\x08\x00\x00\x00This App'
tRp4256
asbasbasbag69
(g85
g71
NtRp4257
(dp4258
g74
(dp4259
sg83
g4240
sg76
(lp4260
g69
(g90
g71
NtRp4261
(dp4262
g74
(dp4263
sg83
g4257
sg76
(lp4264
g69
(g70
g71
NtRp4265
(dp4266
g74
(dp4267
g82
I1
ssg83
g4261
sg76
(lp4268
I00
asbasbasbag69
(g85
g71
NtRp4269
(dp4270
g74
(dp4271
sg83
g4240
sg76
(lp4272
g69
(g90
g71
NtRp4273
(dp4274
g74
(dp4275
sg83
g4269
sg76
(lp4276
g69
(g70
g71
NtRp4277
(dp4278
g74
(dp4279
g82
I1
ssg83
g4273
sg76
(lp4280
S'/admin/default/design/testumgebung'
p4281
asbasbasbag69
(g85
g71
NtRp4282
(dp4283
g74
(dp4284
sg83
g4240
sg76
(lp4285
g69
(g90
g71
NtRp4286
(dp4287
g74
(dp4288
sg83
g4282
sg76
(lp4289
g69
(g70
g71
NtRp4290
(dp4291
g74
(dp4292
g82
I1
ssg83
g4286
sg76
(lp4293
(lp4294
(g4056
(S't\n\x00\x00\x00Controller'
tRp4295
I00
S'/admin/default/edit/testumgebung/controllers/default.py'
tp4296
a(g4056
(S't\x04\x00\x00\x00View'
tRp4297
I00
S'/admin/default/edit/testumgebung/views/default/index.html'
tp4298
a(g4056
(S't\x06\x00\x00\x00Layout'
tRp4299
I00
S'/admin/default/edit/testumgebung/views/layout.html'
tp4300
a(g4056
(S't\n\x00\x00\x00Stylesheet'
tRp4301
I00
S'/admin/default/edit/testumgebung/static/css/web2py.css'
tp4302
a(g4056
(S's\x08\x00\x00\x00DB Model'
tRp4303
I00
S'/admin/default/edit/testumgebung/models/db.py'
tp4304
a(g4056
(S's\n\x00\x00\x00Menu Model'
tRp4305
I00
S'/admin/default/edit/testumgebung/models/menu.py'
tp4306
a(g4056
(S't\x08\x00\x00\x00Database'
tRp4307
I00
S'/testumgebung/appadmin/index'
tp4308
a(g4056
(S't\x06\x00\x00\x00Errors'
tRp4309
I00
S'/admin/default/errors/testumgebung'
tp4310
a(g4056
(S't\x05\x00\x00\x00About'
tRp4311
I00
S'/admin/default/about/testumgebung'
tp4312
aasbasbasbasbasbasbasbag69
(g85
g71
NtRp4313
(dp4314
g74
(dp4315
sg83
g4170
sg76
(lp4316
g69
(g90
g71
NtRp4317
(dp4318
g74
(dp4319
sg83
g4313
sg76
(lp4320
g69
(g70
g71
NtRp4321
(dp4322
g74
(dp4323
g82
I2
ssg83
g4317
sg76
(lp4324
g69
(g78
g71
NtRp4325
(dp4326
g74
(dp4327
g82
I1
ssg83
Nsg76
(lp4328
g69
(g85
g71
NtRp4329
(dp4330
g74
(dp4331
sg83
g4325
sg76
(lp4332
g69
(g90
g71
NtRp4333
(dp4334
g74
(dp4335
sg83
g4329
sg76
(lp4336
g69
(g70
g71
NtRp4337
(dp4338
g74
(dp4339
g82
I1
ssg83
g4333
sg76
(lp4340
S'web2py.com'
p4341
asbasbasbag69
(g85
g71
NtRp4342
(dp4343
g74
(dp4344
sg83
g4325
sg76
(lp4345
g69
(g90
g71
NtRp4346
(dp4347
g74
(dp4348
sg83
g4342
sg76
(lp4349
g69
(g70
g71
NtRp4350
(dp4351
g74
(dp4352
g82
I1
ssg83
g4346
sg76
(lp4353
I00
asbasbasbag69
(g85
g71
NtRp4354
(dp4355
g74
(dp4356
sg83
g4325
sg76
(lp4357
g69
(g90
g71
NtRp4358
(dp4359
g74
(dp4360
sg83
g4354
sg76
(lp4361
g69
(g70
g71
NtRp4362
(dp4363
g74
(dp4364
g82
I1
ssg83
g4358
sg76
(lp4365
S'http://www.web2py.com'
p4366
asbasbasbag69
(g85
g71
NtRp4367
(dp4368
g74
(dp4369
sg83
g4325
sg76
(lp4370
g69
(g90
g71
NtRp4371
(dp4372
g74
(dp4373
sg83
g4367
sg76
(lp4374
g69
(g70
g71
NtRp4375
(dp4376
g74
(dp4377
g82
I1
ssg83
g4371
sg76
(lp4378
(lp4379
(g4056
(S't\x08\x00\x00\x00Download'
tRp4380
I00
S'http://www.web2py.com/examples/default/download'
p4381
tp4382
a(g4056
(S't\x07\x00\x00\x00Support'
tRp4383
I00
S'http://www.web2py.com/examples/default/support'
p4384
tp4385
a(g4056
(S't\x04\x00\x00\x00Demo'
tRp4386
I00
S'http://web2py.com/demo_admin'
p4387
tp4388
a(g4056
(S's\x0e\x00\x00\x00Quick Examples'
tRp4389
I00
S'http://web2py.com/examples/default/examples'
p4390
tp4391
a(g4056
(S't\x03\x00\x00\x00FAQ'
tRp4392
I00
S'http://web2py.com/AlterEgo'
p4393
tp4394
a(g4056
(S't\x06\x00\x00\x00Videos'
tRp4395
I00
S'http://www.web2py.com/examples/default/videos/'
p4396
tp4397
a(g4056
(S's\x11\x00\x00\x00Free Applications'
tRp4398
I00
S'http://web2py.com/appliances'
p4399
tp4400
a(g4056
(S't\x07\x00\x00\x00Plugins'
tRp4401
I00
S'http://web2py.com/plugins'
p4402
tp4403
a(g4056
(S't\x07\x00\x00\x00Layouts'
tRp4404
I00
S'http://web2py.com/layouts'
p4405
tp4406
a(g4056
(S't\x07\x00\x00\x00Recipes'
tRp4407
I00
S'http://web2pyslices.com/'
p4408
tp4409
a(g4056
(S't\x08\x00\x00\x00Semantic'
tRp4410
I00
S'http://web2py.com/semantic'
p4411
tp4412
aasbasbasbasbasbasbasbag69
(g85
g71
NtRp4413
(dp4414
g74
(dp4415
sg83
g4170
sg76
(lp4416
g69
(g90
g71
NtRp4417
(dp4418
g74
(dp4419
sg83
g4413
sg76
(lp4420
g69
(g70
g71
NtRp4421
(dp4422
g74
(dp4423
g82
I2
ssg83
g4417
sg76
(lp4424
g69
(g78
g71
NtRp4425
(dp4426
g74
(dp4427
g82
I1
ssg83
Nsg76
(lp4428
g69
(g85
g71
NtRp4429
(dp4430
g74
(dp4431
sg83
g4425
sg76
(lp4432
g69
(g90
g71
NtRp4433
(dp4434
g74
(dp4435
sg83
g4429
sg76
(lp4436
g69
(g70
g71
NtRp4437
(dp4438
g74
(dp4439
g82
I1
ssg83
g4433
sg76
(lp4440
g4056
(S't\r\x00\x00\x00Documentation'
tRp4441
asbasbasbag69
(g85
g71
NtRp4442
(dp4443
g74
(dp4444
sg83
g4425
sg76
(lp4445
g69
(g90
g71
NtRp4446
(dp4447
g74
(dp4448
sg83
g4442
sg76
(lp4449
g69
(g70
g71
NtRp4450
(dp4451
g74
(dp4452
g82
I1
ssg83
g4446
sg76
(lp4453
I00
asbasbasbag69
(g85
g71
NtRp4454
(dp4455
g74
(dp4456
sg83
g4425
sg76
(lp4457
g69
(g90
g71
NtRp4458
(dp4459
g74
(dp4460
sg83
g4454
sg76
(lp4461
g69
(g70
g71
NtRp4462
(dp4463
g74
(dp4464
g82
I1
ssg83
g4458
sg76
(lp4465
S'http://www.web2py.com/book'
p4466
asbasbasbag69
(g85
g71
NtRp4467
(dp4468
g74
(dp4469
sg83
g4425
sg76
(lp4470
g69
(g90
g71
NtRp4471
(dp4472
g74
(dp4473
sg83
g4467
sg76
(lp4474
g69
(g70
g71
NtRp4475
(dp4476
g74
(dp4477
g82
I1
ssg83
g4471
sg76
(lp4478
(lp4479
(g4056
(S't\x07\x00\x00\x00Preface'
tRp4480
I00
S'http://www.web2py.com/book/default/chapter/00'
p4481
tp4482
a(g4056
(S't\x0c\x00\x00\x00Introduction'
tRp4483
I00
S'http://www.web2py.com/book/default/chapter/01'
p4484
tp4485
a(g4056
(S't\x06\x00\x00\x00Python'
tRp4486
I00
S'http://www.web2py.com/book/default/chapter/02'
p4487
tp4488
a(g4056
(S't\x08\x00\x00\x00Overview'
tRp4489
I00
S'http://www.web2py.com/book/default/chapter/03'
p4490
tp4491
a(g4056
(S's\x08\x00\x00\x00The Core'
tRp4492
I00
S'http://www.web2py.com/book/default/chapter/04'
p4493
tp4494
a(g4056
(S's\t\x00\x00\x00The Views'
tRp4495
I00
S'http://www.web2py.com/book/default/chapter/05'
p4496
tp4497
a(g4056
(S't\x08\x00\x00\x00Database'
tRp4498
I00
S'http://www.web2py.com/book/default/chapter/06'
p4499
tp4500
a(g4056
(S's\x14\x00\x00\x00Forms and Validators'
tRp4501
I00
S'http://www.web2py.com/book/default/chapter/07'
p4502
tp4503
a(g4056
(S's\r\x00\x00\x00Email and SMS'
tRp4504
I00
S'http://www.web2py.com/book/default/chapter/08'
p4505
tp4506
a(g4056
(S's\x0e\x00\x00\x00Access Control'
tRp4507
I00
S'http://www.web2py.com/book/default/chapter/09'
p4508
tp4509
a(g4056
(S't\x08\x00\x00\x00Services'
tRp4510
I00
S'http://www.web2py.com/book/default/chapter/10'
p4511
tp4512
a(g4056
(S's\x0c\x00\x00\x00Ajax Recipes'
tRp4513
I00
S'http://www.web2py.com/book/default/chapter/11'
p4514
tp4515
a(g4056
(S's\x16\x00\x00\x00Components and Plugins'
tRp4516
I00
S'http://www.web2py.com/book/default/chapter/12'
p4517
tp4518
a(g4056
(S's\x12\x00\x00\x00Deployment Recipes'
tRp4519
I00
S'http://www.web2py.com/book/default/chapter/13'
p4520
tp4521
a(g4056
(S's\r\x00\x00\x00Other Recipes'
tRp4522
I00
S'http://www.web2py.com/book/default/chapter/14'
p4523
tp4524
a(g4056
(S's\r\x00\x00\x00Buy this book'
tRp4525
I00
S'http://stores.lulu.com/web2py'
p4526
tp4527
aasbasbasbasbasbasbasbag69
(g85
g71
NtRp4528
(dp4529
g74
(dp4530
sg83
g4170
sg76
(lp4531
g69
(g90
g71
NtRp4532
(dp4533
g74
(dp4534
sg83
g4528
sg76
(lp4535
g69
(g70
g71
NtRp4536
(dp4537
g74
(dp4538
g82
I2
ssg83
g4532
sg76
(lp4539
g69
(g78
g71
NtRp4540
(dp4541
g74
(dp4542
g82
I1
ssg83
Nsg76
(lp4543
g69
(g85
g71
NtRp4544
(dp4545
g74
(dp4546
sg83
g4540
sg76
(lp4547
g69
(g90
g71
NtRp4548
(dp4549
g74
(dp4550
sg83
g4544
sg76
(lp4551
g69
(g70
g71
NtRp4552
(dp4553
g74
(dp4554
g82
I1
ssg83
g4548
sg76
(lp4555
g4056
(S't\t\x00\x00\x00Community'
tRp4556
asbasbasbag69
(g85
g71
NtRp4557
(dp4558
g74
(dp4559
sg83
g4540
sg76
(lp4560
g69
(g90
g71
NtRp4561
(dp4562
g74
(dp4563
sg83
g4557
sg76
(lp4564
g69
(g70
g71
NtRp4565
(dp4566
g74
(dp4567
g82
I1
ssg83
g4561
sg76
(lp4568
I00
asbasbasbag69
(g85
g71
NtRp4569
(dp4570
g74
(dp4571
sg83
g4540
sg76
(lp4572
g69
(g90
g71
NtRp4573
(dp4574
g74
(dp4575
sg83
g4569
sg76
(lp4576
g69
(g70
g71
NtRp4577
(dp4578
g74
(dp4579
g82
I1
ssg83
g4573
sg76
(lp4580
Nasbasbasbag69
(g85
g71
NtRp4581
(dp4582
g74
(dp4583
sg83
g4540
sg76
(lp4584
g69
(g90
g71
NtRp4585
(dp4586
g74
(dp4587
sg83
g4581
sg76
(lp4588
g69
(g70
g71
NtRp4589
(dp4590
g74
(dp4591
g82
I1
ssg83
g4585
sg76
(lp4592
(lp4593
(g4056
(S't\x06\x00\x00\x00Groups'
tRp4594
I00
S'http://www.web2py.com/examples/default/usergroups'
p4595
tp4596
a(g4056
(S't\x07\x00\x00\x00Twitter'
tRp4597
I00
S'http://twitter.com/web2py'
p4598
tp4599
a(g4056
(S's\t\x00\x00\x00Live Chat'
tRp4600
I00
S'http://webchat.freenode.net/?channels=web2py'
p4601
tp4602
aasbasbasbasbasbasbasbag69
(g85
g71
NtRp4603
(dp4604
g74
(dp4605
sg83
g4170
sg76
(lp4606
g69
(g90
g71
NtRp4607
(dp4608
g74
(dp4609
sg83
g4603
sg76
(lp4610
g69
(g70
g71
NtRp4611
(dp4612
g74
(dp4613
g82
I2
ssg83
g4607
sg76
(lp4614
g69
(g78
g71
NtRp4615
(dp4616
g74
(dp4617
g82
I1
ssg83
Nsg76
(lp4618
g69
(g85
g71
NtRp4619
(dp4620
g74
(dp4621
sg83
g4615
sg76
(lp4622
g69
(g90
g71
NtRp4623
(dp4624
g74
(dp4625
sg83
g4619
sg76
(lp4626
g69
(g70
g71
NtRp4627
(dp4628
g74
(dp4629
g82
I1
ssg83
g4623
sg76
(lp4630
g4056
(S't\x07\x00\x00\x00Plugins'
tRp4631
asbasbasbag69
(g85
g71
NtRp4632
(dp4633
g74
(dp4634
sg83
g4615
sg76
(lp4635
g69
(g90
g71
NtRp4636
(dp4637
g74
(dp4638
sg83
g4632
sg76
(lp4639
g69
(g70
g71
NtRp4640
(dp4641
g74
(dp4642
g82
I1
ssg83
g4636
sg76
(lp4643
I00
asbasbasbag69
(g85
g71
NtRp4644
(dp4645
g74
(dp4646
sg83
g4615
sg76
(lp4647
g69
(g90
g71
NtRp4648
(dp4649
g74
(dp4650
sg83
g4644
sg76
(lp4651
g69
(g70
g71
NtRp4652
(dp4653
g74
(dp4654
g82
I1
ssg83
g4648
sg76
(lp4655
Nasbasbasbag69
(g85
g71
NtRp4656
(dp4657
g74
(dp4658
sg83
g4615
sg76
(lp4659
g69
(g90
g71
NtRp4660
(dp4661
g74
(dp4662
sg83
g4656
sg76
(lp4663
g69
(g70
g71
NtRp4664
(dp4665
g74
(dp4666
g82
I1
ssg83
g4660
sg76
(lp4667
(lp4668
(S'plugin_wiki'
p4669
I00
S'http://web2py.com/examples/default/download'
p4670
tp4671
a(g4056
(S's\r\x00\x00\x00Other Plugins'
tRp4672
I00
g4402
tp4673
a(g4056
(S's\x0e\x00\x00\x00Layout Plugins'
tRp4674
I00
g4405
tp4675
aasbasbasbasbasbasbasbasbasbasbasbasbasbasbasbasbasbasbasbag69
(g85
g71
NtRp4676
(dp4677
g74
(dp4678
sg83
g3478
sg76
(lp4679
g69
(g90
g71
NtRp4680
(dp4681
g74
(dp4682
g94
g95
ssg83
g4676
sg76
(lp4683
S'meta'
p4684
asbag69
(g90
g71
NtRp4685
(dp4686
g74
(dp4687
g101
g102
ssg83
g4676
sg76
(lp4688
S':'
asbag69
(g90
g71
NtRp4689
(dp4690
g74
(dp4691
sg83
g4676
sg76
(lp4692
g69
(g70
g71
NtRp4693
(dp4694
g74
(dp4695
g82
I5
ssg83
g4689
sg76
(lp4696
g69
(g78
g71
NtRp4697
(dp4698
g74
(dp4699
g82
I4
ssg83
Nsg76
(lp4700
g69
(g85
g71
NtRp4701
(dp4702
g74
(dp4703
sg83
g4697
sg76
(lp4704
g69
(g90
g71
NtRp4705
(dp4706
g74
(dp4707
g94
g95
ssg83
g4701
sg76
(lp4708
S'author'
p4709
asbag69
(g90
g71
NtRp4710
(dp4711
g74
(dp4712
g101
g102
ssg83
g4701
sg76
(lp4713
S':'
asbag69
(g90
g71
NtRp4714
(dp4715
g74
(dp4716
sg83
g4701
sg76
(lp4717
g69
(g70
g71
NtRp4718
(dp4719
g74
(dp4720
g82
I4
ssg83
g4714
sg76
(lp4721
S'Your Name <you@example.com>'
p4722
asbasbasbag69
(g85
g71
NtRp4723
(dp4724
g74
(dp4725
sg83
g4697
sg76
(lp4726
g69
(g90
g71
NtRp4727
(dp4728
g74
(dp4729
g94
g95
ssg83
g4723
sg76
(lp4730
S'description'
p4731
asbag69
(g90
g71
NtRp4732
(dp4733
g74
(dp4734
g101
g102
ssg83
g4723
sg76
(lp4735
S':'
asbag69
(g90
g71
NtRp4736
(dp4737
g74
(dp4738
sg83
g4723
sg76
(lp4739
g69
(g70
g71
NtRp4740
(dp4741
g74
(dp4742
g82
I4
ssg83
g4736
sg76
(lp4743
S'a cool new app'
p4744
asbasbasbag69
(g85
g71
NtRp4745
(dp4746
g74
(dp4747
sg83
g4697
sg76
(lp4748
g69
(g90
g71
NtRp4749
(dp4750
g74
(dp4751
g94
g95
ssg83
g4745
sg76
(lp4752
S'generator'
p4753
asbag69
(g90
g71
NtRp4754
(dp4755
g74
(dp4756
g101
g102
ssg83
g4745
sg76
(lp4757
S':'
asbag69
(g90
g71
NtRp4758
(dp4759
g74
(dp4760
sg83
g4745
sg76
(lp4761
g69
(g70
g71
NtRp4762
(dp4763
g74
(dp4764
g82
I4
ssg83
g4758
sg76
(lp4765
S'Web2py Web Framework'
p4766
asbasbasbag69
(g85
g71
NtRp4767
(dp4768
g74
(dp4769
sg83
g4697
sg76
(lp4770
g69
(g90
g71
NtRp4771
(dp4772
g74
(dp4773
g94
g95
ssg83
g4767
sg76
(lp4774
S'keywords'
p4775
asbag69
(g90
g71
NtRp4776
(dp4777
g74
(dp4778
g101
g102
ssg83
g4767
sg76
(lp4779
S':'
asbag69
(g90
g71
NtRp4780
(dp4781
g74
(dp4782
sg83
g4767
sg76
(lp4783
g69
(g70
g71
NtRp4784
(dp4785
g74
(dp4786
g82
I4
ssg83
g4780
sg76
(lp4787
S'web2py, python, framework'
p4788
asbasbasbasbasbasbasbag69
(g85
g71
NtRp4789
(dp4790
g74
(dp4791
sg83
g3478
sg76
(lp4792
g69
(g90
g71
NtRp4793
(dp4794
g74
(dp4795
g94
g95
ssg83
g4789
sg76
(lp4796
S'postprocessing'
p4797
asbag69
(g90
g71
NtRp4798
(dp4799
g74
(dp4800
g101
g102
ssg83
g4789
sg76
(lp4801
S':'
asbag69
(g90
g71
NtRp4802
(dp4803
g74
(dp4804
sg83
g4789
sg76
(lp4805
g69
(g70
g71
NtRp4806
(dp4807
g74
(dp4808
g82
I5
ssg83
g4802
sg76
(lp4809
g69
(g78
g71
NtRp4810
(dp4811
g74
(dp4812
g82
I4
ssg83
Nsg76
(lp4813
sbasbasbasbag69
(g85
g71
NtRp4814
(dp4815
g74
(dp4816
sg83
g3478
sg76
(lp4817
g69
(g90
g71
NtRp4818
(dp4819
g74
(dp4820
g94
g95
ssg83
g4814
sg76
(lp4821
S'session_file'
p4822
asbag69
(g90
g71
NtRp4823
(dp4824
g74
(dp4825
g101
g102
ssg83
g4814
sg76
(lp4826
S':'
asbag69
(g90
g71
NtRp4827
(dp4828
g74
(dp4829
sg83
g4814
sg76
(lp4830
g69
(g70
g71
NtRp4831
(dp4832
g74
(dp4833
g82
I5
ssg83
g4827
sg76
(lp4834
S"<open file 'C:\\xampp\\htdocs\\web2py\\applications\\testumgebung\\sessions\\127.0.0.1-583949e9-52f5-49cf-8866-f6d66a5fcf06', mode 'rb+' at 0x0706FF40>"
p4835
asbasbasbag69
(g85
g71
NtRp4836
(dp4837
g74
(dp4838
sg83
g3478
sg76
(lp4839
g69
(g90
g71
NtRp4840
(dp4841
g74
(dp4842
g94
g95
ssg83
g4836
sg76
(lp4843
S'session_filename'
p4844
asbag69
(g90
g71
NtRp4845
(dp4846
g74
(dp4847
g101
g102
ssg83
g4836
sg76
(lp4848
S':'
asbag69
(g90
g71
NtRp4849
(dp4850
g74
(dp4851
sg83
g4836
sg76
(lp4852
g69
(g70
g71
NtRp4853
(dp4854
g74
(dp4855
g82
I5
ssg83
g4849
sg76
(lp4856
S'C:\\xampp\\htdocs\\web2py\\applications\\testumgebung\\sessions\\127.0.0.1-583949e9-52f5-49cf-8866-f6d66a5fcf06'
p4857
asbasbasbag69
(g85
g71
NtRp4858
(dp4859
g74
(dp4860
sg83
g3478
sg76
(lp4861
g69
(g90
g71
NtRp4862
(dp4863
g74
(dp4864
g94
g95
ssg83
g4858
sg76
(lp4865
S'session_id'
p4866
asbag69
(g90
g71
NtRp4867
(dp4868
g74
(dp4869
g101
g102
ssg83
g4858
sg76
(lp4870
S':'
asbag69
(g90
g71
NtRp4871
(dp4872
g74
(dp4873
sg83
g4858
sg76
(lp4874
g69
(g70
g71
NtRp4875
(dp4876
g74
(dp4877
g82
I5
ssg83
g4871
sg76
(lp4878
g673
asbasbasbag69
(g85
g71
NtRp4879
(dp4880
g74
(dp4881
sg83
g3478
sg76
(lp4882
g69
(g90
g71
NtRp4883
(dp4884
g74
(dp4885
g94
g95
ssg83
g4879
sg76
(lp4886
S'session_id_name'
p4887
asbag69
(g90
g71
NtRp4888
(dp4889
g74
(dp4890
g101
g102
ssg83
g4879
sg76
(lp4891
S':'
asbag69
(g90
g71
NtRp4892
(dp4893
g74
(dp4894
sg83
g4879
sg76
(lp4895
g69
(g70
g71
NtRp4896
(dp4897
g74
(dp4898
g82
I5
ssg83
g4892
sg76
(lp4899
g3535
asbasbasbag69
(g85
g71
NtRp4900
(dp4901
g74
(dp4902
sg83
g3478
sg76
(lp4903
g69
(g90
g71
NtRp4904
(dp4905
g74
(dp4906
g94
g95
ssg83
g4900
sg76
(lp4907
S'session_locked'
p4908
asbag69
(g90
g71
NtRp4909
(dp4910
g74
(dp4911
g101
g102
ssg83
g4900
sg76
(lp4912
S':'
asbag69
(g90
g71
NtRp4913
(dp4914
g74
(dp4915
sg83
g4900
sg76
(lp4916
g69
(g70
g71
NtRp4917
(dp4918
g74
(dp4919
g82
I5
ssg83
g4913
sg76
(lp4920
g1942
asbasbasbag69
(g85
g71
NtRp4921
(dp4922
g74
(dp4923
sg83
g3478
sg76
(lp4924
g69
(g90
g71
NtRp4925
(dp4926
g74
(dp4927
g94
g95
ssg83
g4921
sg76
(lp4928
S'session_new'
p4929
asbag69
(g90
g71
NtRp4930
(dp4931
g74
(dp4932
g101
g102
ssg83
g4921
sg76
(lp4933
S':'
asbag69
(g90
g71
NtRp4934
(dp4935
g74
(dp4936
sg83
g4921
sg76
(lp4937
g69
(g70
g71
NtRp4938
(dp4939
g74
(dp4940
g82
I5
ssg83
g4934
sg76
(lp4941
g112
asbasbasbag69
(g85
g71
NtRp4942
(dp4943
g74
(dp4944
sg83
g3478
sg76
(lp4945
g69
(g90
g71
NtRp4946
(dp4947
g74
(dp4948
g94
g95
ssg83
g4942
sg76
(lp4949
S'status'
p4950
asbag69
(g90
g71
NtRp4951
(dp4952
g74
(dp4953
g101
g102
ssg83
g4942
sg76
(lp4954
S':'
asbag69
(g90
g71
NtRp4955
(dp4956
g74
(dp4957
sg83
g4942
sg76
(lp4958
g69
(g70
g71
NtRp4959
(dp4960
g74
(dp4961
g82
I5
ssg83
g4955
sg76
(lp4962
S'200'
p4963
asbasbasbag69
(g85
g71
NtRp4964
(dp4965
g74
(dp4966
sg83
g3478
sg76
(lp4967
g69
(g90
g71
NtRp4968
(dp4969
g74
(dp4970
g94
g95
ssg83
g4964
sg76
(lp4971
S'subtitle'
p4972
asbag69
(g90
g71
NtRp4973
(dp4974
g74
(dp4975
g101
g102
ssg83
g4964
sg76
(lp4976
S':'
asbag69
(g90
g71
NtRp4977
(dp4978
g74
(dp4979
sg83
g4964
sg76
(lp4980
g69
(g70
g71
NtRp4981
(dp4982
g74
(dp4983
g82
I5
ssg83
g4977
sg76
(lp4984
g4056
(S's\r\x00\x00\x00customize me!'
tRp4985
asbasbasbag69
(g85
g71
NtRp4986
(dp4987
g74
(dp4988
sg83
g3478
sg76
(lp4989
g69
(g90
g71
NtRp4990
(dp4991
g74
(dp4992
g94
g95
ssg83
g4986
sg76
(lp4993
S'title'
p4994
asbag69
(g90
g71
NtRp4995
(dp4996
g74
(dp4997
g101
g102
ssg83
g4986
sg76
(lp4998
S':'
asbag69
(g90
g71
NtRp4999
(dp5000
g74
(dp5001
sg83
g4986
sg76
(lp5002
g69
(g70
g71
NtRp5003
(dp5004
g74
(dp5005
g82
I5
ssg83
g4999
sg76
(lp5006
S'Testumgebung'
p5007
asbasbasbag69
(g85
g71
NtRp5008
(dp5009
g74
(dp5010
sg83
g3478
sg76
(lp5011
g69
(g90
g71
NtRp5012
(dp5013
g74
(dp5014
g94
g95
ssg83
g5008
sg76
(lp5015
S'view'
p5016
asbag69
(g90
g71
NtRp5017
(dp5018
g74
(dp5019
g101
g102
ssg83
g5008
sg76
(lp5020
S':'
asbag69
(g90
g71
NtRp5021
(dp5022
g74
(dp5023
sg83
g5008
sg76
(lp5024
g69
(g70
g71
NtRp5025
(dp5026
g74
(dp5027
g82
I5
ssg83
g5021
sg76
(lp5028
S'default/index.html'
p5029
asbasbasbasbasbsS'locals'
p5030
(dp5031
g4
S"r'C:\\xampp\\htdocs\\web2py\\applications\\testumgebung\\controllers/default.py'"
p5032
sg6
S"'# -*- coding: utf-8 -*-\\n# this file is released ...=crud())\\n\\nresponse._vars=response._caller(index)\\n'"
p5033
sssS'traceback'
p5034
S'Traceback (most recent call last):\n  File "gluon/restricted.py", line 208, in restricted\n  File "gluon/restricted.py", line 193, in compile2\n  File "C:\\xampp\\htdocs\\web2py\\applications\\testumgebung\\controllers/default.py", line 17\n    form =\n          ^\nSyntaxError: invalid syntax\n'
p5035
s.